Trying to open 'C:\Windows\SYSTEM32\CRTDLL.dll'..
Loading PE information..
FileFormat: PE, Arch: Ia32
Using the Nasm syntax..

Wait a few seconds, rp++ is looking for gadgets..
in .text
9702 found.

A total of 9702 gadgets found.
0x10029a45: aaa  ; add edx, dword [eax] ; ret  ;  (1 found)
0x1002a13d: aaa  ; add edx, dword [eax] ; ret  ;  (1 found)
0x1002161a: aaa  ; call dword [0x100111A4] ;  (1 found)
0x1001a1f0: aaa  ; lea eax, dword [ebp-0x10] ; lea ecx, dword [ebp-0x00000148] ; push eax ; push ecx ; call dword [0x100110DC] ;  (1 found)
0x1001a241: aaa  ; lea eax, dword [ebp-0x10] ; lea ecx, dword [ebp-0x00000150] ; push eax ; push ecx ; call dword [0x100110DC] ;  (1 found)
0x100153f9: aaa  ; lea ecx, dword [ebp-0x10] ; push ecx ; push eax ; call dword [0x100110DC] ;  (1 found)
0x1001d5d0: aad 0x01 ; adc byte [eax-0x74035B0D], dl ; inc ebp ; or byte [esi+0x5F], bl ; leave  ; ret  ;  (1 found)
0x1001d480: aam 0x01 ; adc byte [eax-0x74035B0D], dl ; inc ebp ; or byte [esi+0x5F], bl ; leave  ; ret  ;  (1 found)
0x10027ea8: aam 0x01 ; add byte [eax], al ; add esp, 0x08 ; ret  ;  (1 found)
0x10017bc9: aam 0xC6 ; push es ; add byte [ebx+0x5B5E5FC7], cl ; ret  ;  (1 found)
0x1001afe2: aas  ; add byte [eax], al ; add esp, 0x04 ; ret  ;  (1 found)
0x10017b29: aas  ; add byte [ebp-0x3F], dh ; mov eax, esi ; pop edi ; pop esi ; ret  ;  (1 found)
0x100185ee: aas  ; add byte [ebp-0x3F], dh ; mov eax, esi ; pop edi ; pop esi ; ret  ;  (1 found)
0x1001a86c: aas  ; add dword [ebx-0x38DC0030], eax ; pop edi ; pop esi ; ret  ;  (1 found)
0x10024686: aas  ; cmp eax, 0x01 ; sbb eax, eax ; neg eax ; ret  ;  (1 found)
0x1002af47: aas  ; mov eax, esi ; pop esi ; mov esp, ebp ; pop ebp ; ret  ;  (1 found)
0x1002af48: aas  ; mov eax, esi ; pop esi ; mov esp, ebp ; pop ebp ; ret  ;  (1 found)
0x100132d8: aas  ; push es ; add byte [eax], al ; jmp dword [0x10013938+eax*4] ;  (1 found)
0x1001298e: adc ah, byte [ecx+0x1002E148] ; push eax ; call dword [0x10011070] ;  (1 found)
0x10020183: adc al, 0x00 ; add byte [ebx-0x3C74FB3C], al ; pop edi ; pop esi ; pop ebx ; ret  ;  (1 found)
0x1002688b: adc al, 0x03 ; retn 0xF8C1 ;  (1 found)
0x1001bbea: adc al, 0x0F ; scasd  ; enter 0xCE03, 0x51 ; mov dword [ebp-0x04], ecx ; push dword [ebp+0x08] ; call dword [ebp+0x18] ;  (1 found)
0x1001b93a: adc al, 0x52 ; push 0xFFFFFFFF ; push dword [ebp+0x08] ; push ecx ; push ecx ; call dword [0x10011170] ;  (1 found)
0x1001b967: adc al, 0x52 ; push 0xFFFFFFFF ; push dword [ebp+0x08] ; push ecx ; push ecx ; call dword [0x10011170] ;  (1 found)
0x10017169: adc al, 0x56 ; push dword [esp+0x14] ; call dword [esp+0x28] ;  (1 found)
0x1001bb0b: adc al, 0x5F ; pop esi ; add esp, 0x18 ; ret  ;  (1 found)
0x100262b0: adc al, 0x5F ; pop esi ; pop ebx ; mov esp, ebp ; pop ebp ; ret  ;  (1 found)
0x10028102: adc al, 0x83 ; ret  ;  (1 found)
0x1002055c: adc al, 0x83 ; retn 0x6602 ;  (1 found)
0x1001379c: adc al, 0x85 ; push dword [ebp+0x10] ; lea eax, dword [ebp-0x00000248] ; push eax ; call dword [0x1002FF5C] ;  (1 found)
0x10021ca8: adc al, 0x85 ; push dword [ebp+0x10] ; lea eax, dword [ebp-0x00000248] ; push eax ; call dword [0x1002FF5C] ;  (1 found)
0x10022d47: adc al, 0x85 ; push dword [ebp+0x10] ; lea eax, dword [ebp-0x0000044C] ; push eax ; call dword [0x1002FF5C] ;  (1 found)
0x100188ff: adc al, 0x85 ; ret  ;  (1 found)
0x100263b3: adc al, 0x89 ; pop eax ; adc byte [ebx-0x75], bl ; in eax, 0x5D ; ret  ;  (1 found)
0x10017b6d: adc al, 0x8B ; ret  ;  (1 found)
0x10017e9f: adc al, 0x8B ; ret  ;  (1 found)
0x10021586: adc al, byte [ebx+0x0D7409FF] ; push eax ; call esi ;  (1 found)
0x10011c96: adc al, byte [ecx] ; adc byte [ebp-0x00010343], cl ; jmp dword [ebp-0x725B5A9A] ;  (1 found)
0x10018782: adc al, ch ; add al, 0x00 ; add byte [eax], al ; add esp, 0x10 ; ret  ;  (1 found)
0x10019acd: adc al, ch ; add al, 0x00 ; add byte [eax], al ; add esp, 0x10 ; ret  ;  (1 found)
0x10019d27: adc al, ch ; add al, 0x00 ; add byte [eax], al ; add esp, 0x10 ; ret  ;  (1 found)
0x1001f57f: adc al, ch ; add al, 0x00 ; add byte [eax], al ; add esp, 0x10 ; ret  ;  (1 found)
0x10020806: adc al, ch ; add al, 0x00 ; add byte [eax], al ; add esp, 0x10 ; ret  ;  (1 found)
0x10015073: adc al, ch ; clc  ; insd  ; add byte [eax], al ; add esp, 0x04 ; ret  ;  (1 found)
0x10011f56: adc al, ch ; in eax, 0x00 ; add byte [eax], al ; add esp, 0x08 ; ret  ;  (1 found)
0x1001dceb: adc al, ch ; inc byte [edi] ; add byte [eax], al ; add esp, 0x10 ; ret  ;  (1 found)
0x10015eb8: adc al, ch ; push esi ; ret  ;  (1 found)
0x1001fc6e: adc al, ch ; std  ; push 0xFFFFFFFF ; call dword [eax-0x18] ;  (1 found)
0x10015086: adc al, ch ; xchg eax, ecx ; outsb  ; add byte [eax], al ; add esp, 0x04 ; ret  ;  (1 found)
0x10011d0c: adc bh, bh ; adc eax, 0x10011040 ; mov dword [0x10033ED0], eax ; call dword [0x10011104] ;  (1 found)
0x10016215: adc bh, bh ; adc eax, 0x100110A0 ; push 0x00000000 ; push dword [0x1002FF44] ; call dword [0x10011098] ;  (1 found)
0x10012d3e: adc bh, bh ; adc eax, 0x100110A0 ; push 0x00000007 ; push dword [0x1002FF44] ; call dword [0x10011098] ;  (1 found)
0x1001dc07: adc bh, bh ; adc eax, 0x100110CC ; pop ebp ; ret  ;  (1 found)
0x100169bf: adc bh, bh ; adc eax, 0x1001111C ; push eax ; call dword [0x10011120] ;  (1 found)
0x1001876d: adc bh, bh ; adc eax, 0x1001114C ; ret  ;  (1 found)
0x1002173c: adc bh, bh ; adc eax, 0x10011150 ; pop esi ; mov dword [0x1002FF48], eax ; ret  ;  (1 found)
0x1001c4d0: adc bh, bh ; adc eax, 0x10011188 ; ret  ;  (1 found)
0x10021632: adc bh, bh ; adc eax, 0x100111A8 ; pop ebp ; ret  ;  (1 found)
0x10016740: adc bh, bh ; inc dword [eax] ; add byte [edi+0x20], bh ; push dword [ebp+0x10] ; push dword [ebp+0x08] ; call dword [0x10011108] ;  (1 found)
0x10021558: adc bh, bh ; salc  ; mov eax, dword [0x1002FA64] ; push eax ; call esi ;  (1 found)
0x10021550: adc bh, bh ; salc  ; push dword [0x1002FA74] ; call esi ;  (1 found)
0x100188fa: adc bh, dh ; shl byte [ebx], 1  ; inc ebp ; adc al, 0x85 ; ret  ;  (1 found)
0x1001be19: adc bl, al ; mov eax, dword [esp+0x04] ; mov eax, dword [eax+0x0C] ; and eax, 0x20 ; ret  ;  (1 found)
0x10017196: adc bl, al ; push dword [esp+0x04] ; call dword [0x10011138] ;  (1 found)
0x1001b298: adc bl, al ; push dword [esp+0x04] ; call dword [0x1001117C] ;  (1 found)
0x10012b95: adc bl, al ; push dword [esp+0x08] ; push dword [esp+0x08] ; call dword [0x10011084] ;  (1 found)
0x10029d98: adc bl, al ; ret  ;  (1 found)
0x10016764: adc bl, ch ; add dh, byte [ebx] ; rcr byte [ebp-0x3D], 0xFFFFFFFF ; and eax, 0x1001110C ; jmp dword [0x10011110] ;  (1 found)
0x10027e89: adc bl, ch ; or eax, 0x1B01F983 ; shl byte [0x000000F8], 0xFFFFFF83 ; ror byte [eax], 0x0000005D ; ret  ;  (1 found)
0x1001454a: adc bl, ch ; sbb ebp, eax ; retn 0xFFDC ;  (1 found)
0x1002a1d3: adc bl, cl ; cli  ; ret  ;  (1 found)
0x100179a3: adc byte [0x2BCA8BED+esi*2], al ; enter 0xE183, 0x01 ; sub edx, ecx ; lea eax, dword [edx-0x01] ; ret  ;  (1 found)
0x10025eaa: adc byte [eax+0x100262B8], bh ; mov dword [0x1002FF58], eax ; mov dword [0x1002FF6C], eax ; ret  ;  (1 found)
0x100212bd: adc byte [eax+0x57], dl ; call dword [0x100110D0] ;  (1 found)
0x10017609: adc byte [eax+ecx], ah ; cmp al, 0x01 ; sbb eax, eax ; and al, 0xFD ; add eax, 0x02 ; ret  ;  (1 found)
0x10012a10: adc byte [eax-0x01], dl ; adc eax, 0x10011064 ; pop esi ; ret  ;  (1 found)
0x100169c5: adc byte [eax-0x01], dl ; adc eax, 0x10011120 ; ret  ;  (1 found)
0x100169e9: adc byte [eax-0x01], dl ; adc eax, 0x1001112C ; cmp eax, 0x01 ; sbb eax, eax ; ret  ;  (1 found)
0x100215a6: adc byte [eax-0x01], dl ; salc  ; mov eax, dword [0x1002FA74] ; push eax ; call esi ;  (1 found)
0x100215ae: adc byte [eax-0x01], dl ; salc  ; mov eax, dword [0x1002FA84] ; push eax ; call esi ;  (1 found)
0x100215b6: adc byte [eax-0x01], dl ; salc  ; pop edi ; pop esi ; pop ebx ; ret  ;  (1 found)
0x1002155f: adc byte [eax-0x01], dl ; salc  ; pop esi ; ret  ;  (1 found)
0x10014718: adc byte [eax-0x18], dl ; add al, 0x00 ; add byte [eax], al ; mov esp, ebp ; pop ebp ; ret  ;  (1 found)
0x1001d482: adc byte [eax-0x74035B0D], dl ; inc ebp ; or byte [esi+0x5F], bl ; leave  ; ret  ;  (1 found)
0x1001d5d2: adc byte [eax-0x74035B0D], dl ; inc ebp ; or byte [esi+0x5F], bl ; leave  ; ret  ;  (1 found)
0x10021549: adc byte [eax-0x75], dl ; xor eax, 0x1001119C ; call esi ;  (1 found)
0x10012b92: adc byte [eax], 0x00000001 ; adc bl, al ; push dword [esp+0x08] ; push dword [esp+0x08] ; call dword [0x10011084] ;  (1 found)
0x1001e1b4: adc byte [eax], al ; add byte [eax], al ; add byte [ebp+0x5F], bl ; pop esi ; pop ebx ; ret  ;  (1 found)
0x10024757: adc byte [eax], al ; add byte [eax], al ; add byte [ebx-0x3FCCFB3C], al ; pop esi ; ret  ;  (1 found)
0x1002501a: adc byte [eax], al ; add byte [eax], al ; add byte [ebx-0x3FCCFB3C], al ; pop esi ; ret  ;  (1 found)
0x100131cf: adc byte [eax], al ; xor eax, eax ; pop edi ; pop esi ; ret  ;  (1 found)
0x10018f19: adc byte [ebp+0x02EBC804], cl ; xor eax, eax ; pop ebp ; ret  ;  (1 found)
0x1001b8a7: adc byte [ebp+0x330774C0], al ; dec dword [ebx+0x08EBFC75] ; call dword [0x10011058] ;  (1 found)
0x10016229: adc byte [ebp+0x4D8DF845], cl ; in al, 0x50 ; push 0x00000001 ; push ecx ; push dword [0x1002FF44] ; call dword [0x100110F8] ;  (1 found)
0x1001a878: adc byte [ebp+0x53002444], cl ; push esi ; push edi ; push ebp ; push eax ; call dword [0x100110E8] ;  (1 found)
0x100189b1: adc byte [ebp+0x572C75C0], al ; add esi, 0x41 ; call dword [0x10011094] ;  (1 found)
0x10011eff: adc byte [ebp+0x5F], bl ; pop esi ; pop ebx ; ret  ;  (1 found)
0x1001e4e9: adc byte [ebp+0x5F], bl ; pop esi ; pop ebx ; ret  ;  (1 found)
0x1001a68f: adc byte [ebp+0x6A4574C0], al ; jmp dword [ecx+0x1002FF7C] ;  (1 found)
0x1001e7cb: adc byte [ebp+0x6A4574C0], al ; jmp dword [ecx+0x1002FF7C] ;  (1 found)
0x10027fdb: adc byte [ebp+eax+0x0D], dh ; add byte [eax], al ; add al, 0x00 ; pop esi ; ret  ;  (1 found)
0x1001e2be: adc byte [ebp-0x00008773], cl ; jmp dword [ebx+0x1002F1E8] ;  (1 found)
0x10011c98: adc byte [ebp-0x00010343], cl ; jmp dword [ebp-0x725B5A9A] ;  (1 found)
0x100137a0: adc byte [ebp-0x0002477B], cl ; call dword [eax-0x01] ;  (1 found)
0x10013786: adc byte [ebp-0x0002477B], cl ; call dword [eax-0x01] ;  (1 found)
0x10021c92: adc byte [ebp-0x0002477B], cl ; call dword [eax-0x01] ;  (1 found)
0x10021cac: adc byte [ebp-0x0002477B], cl ; call dword [eax-0x01] ;  (1 found)
0x10022d31: adc byte [ebp-0x00044B7B], cl ; call dword [eax-0x01] ;  (1 found)
0x10022d4b: adc byte [ebp-0x00044B7B], cl ; call dword [eax-0x01] ;  (1 found)
0x10016682: adc byte [ebp-0x17148A40], al ; mov byte [ebx+0x00C7FFFF], bh ; or eax, 0xE8000000 ; xchg byte [ebx-0x0F740001], bh ; call dword [0x10011058] ;  (1 found)
0x1001dc0d: adc byte [ebp-0x3D], bl ; push dword [esp+0x08] ; push dword [esp+0x08] ; call dword [0x1001118C] ;  (1 found)
0x10012e01: adc byte [ebp-0x72918B40], al ; inc esp ; and al, 0x0C ; push eax ; push 0x00000000 ; call dword [0x100110A4] ;  (1 found)
0x100143f8: adc byte [ebp-0x72EC8A40], al ; inc ebp ; cld  ; push eax ; push esi ; call dword [0x100110BC] ;  (1 found)
0x10016776: adc byte [ebp-0x75], dl ; in al, dx ; sub esp, 0x10 ; lea eax, dword [ebp-0x10] ; push eax ; call dword [0x100110E8] ;  (1 found)
0x1002174e: adc byte [ebx+0x0774FFF8], al ; push eax ; call dword [0x10011094] ;  (1 found)
0x1002175f: adc byte [ebx+0x0774FFF8], al ; push eax ; call dword [0x10011094] ;  (1 found)
0x10025eaf: adc byte [ebx+0x1002FF58], ah ; mov dword [0x1002FF6C], eax ; ret  ;  (1 found)
0x10025eb4: adc byte [ebx+0x1002FF6C], ah ; ret  ;  (1 found)
0x10025b7b: adc byte [ebx+0x10033BB0], ah ; xor eax, eax ; ret  ;  (1 found)
0x100214c1: adc byte [ebx+0x10033CB8], ah ; ret  ;  (1 found)
0x10011d07: adc byte [ebx+0x10033ECC], ah ; call dword [0x10011040] ;  (1 found)
0x10011d12: adc byte [ebx+0x10033ED0], ah ; call dword [0x10011104] ;  (1 found)
0x100128fe: adc byte [ebx+0x1174FFF8], al ; push eax ; call dword [0x1001106C] ;  (1 found)
0x10012af0: adc byte [ebx+0x1675FFF8], al ; call dword [0x10011058] ;  (1 found)
0x1002a9e5: adc byte [ebx+0x3904244C], cl ; or dh, byte [edi+ecx-0x7D] ; retn 0x4008 ;  (1 found)
0x100252de: adc byte [ebx+0x50], dl ; call dword [0x10011134] ;  (1 found)
0x10012ad5: adc byte [ebx+0x528B0C51], cl ; or al, 0x39 ; push ecx ; or byte [ebp+0x05], dh ; mov eax, 0x00000001 ; ret  ;  (1 found)
0x1001bb08: adc byte [ebx+0x5E5F14C4], al ; add esp, 0x18 ; ret  ;  (1 found)
0x10021308: adc byte [ebx+0x5E5F2CC0], al ; ret  ;  (1 found)
0x100224e9: adc byte [ebx+0x5E5FF845], cl ; pop ebx ; mov esp, ebp ; pop ebp ; ret  ;  (1 found)
0x1001a69a: adc byte [ebx+0x6A], dl ; call dword [edi+0x6A] ;  (1 found)
0x1001e7d6: adc byte [ebx+0x6A], dl ; call dword [edi+0x6A] ;  (1 found)
0x10025cb2: adc byte [ebx+0x6A], dl ; call dword [esi+0x53] ;  (1 found)
0x10021576: adc byte [ebx+0x74C08503], cl ; sbb al, 0x83 ; call dword [ecx] ;  (1 found)
0x1001a3a1: adc byte [ebx-0x01FBDBB4], cl ; leave  ; shr eax, cl ; and eax, 0x01 ; ret  ;  (1 found)
0x10015058: adc byte [ebx-0x17AFE640], al ; ret  ;  (1 found)
0x10016291: adc byte [ebx-0x1A74A13A], cl ; pop ebp ; ret  ;  (1 found)
0x1002615d: adc byte [ebx-0x1A74A13A], cl ; pop ebp ; ret  ;  (1 found)
0x100170e9: adc byte [ebx-0x1A74F3BB], cl ; pop ebp ; ret  ;  (1 found)
0x1001711d: adc byte [ebx-0x1A74F3BB], cl ; pop ebp ; ret  ;  (1 found)
0x10017151: adc byte [ebx-0x1A74F3BB], cl ; pop ebp ; ret  ;  (1 found)
0x1001477d: adc byte [ebx-0x3974FBA9], cl ; mov dword [ecx], edx ; pop edi ; pop esi ; pop ebp ; ret  ;  (1 found)
0x100168c3: adc byte [ebx-0x3FE4FE08], al ; and al, 0xFE ; sub eax, 0x02 ; ret  ;  (1 found)
0x100169f0: adc byte [ebx-0x3FE4FE08], al ; ret  ;  (1 found)
0x100263b6: adc byte [ebx-0x75], bl ; in eax, 0x5D ; ret  ;  (1 found)
0x1001b28e: adc byte [ebx-0x76FBDBB4], cl ; or eax, 0x1002E088 ; ret  ;  (1 found)
0x10011df6: adc byte [ebx-0x76FBDBB4], cl ; or eax, 0x1002F124 ; ret  ;  (1 found)
0x10016c25: adc byte [ebx], ah ; retn 0x02EB ;  (1 found)
0x1001c787: adc byte [ebx], al ; ret  ;  (1 found)
0x1001da4e: adc byte [ebx], al ; ret  ;  (1 found)
0x1001d981: adc byte [ebx], bh ; ret  ;  (1 found)
0x10026762: adc byte [ebx], ch ; retn 0xE083 ;  (1 found)
0x10025154: adc byte [ebx], cl ; fmul dword [ebx+0x5E5F5DC3] ; pop ebx ; ret  ;  (1 found)
0x1001cf8f: adc byte [ebx], dh ; jmp dword [esi-0x75] ;  (1 found)
0x10024f2f: adc byte [ebx], dh ; rcr byte [edi+0x5E], 0x0000005B ; ret  ;  (1 found)
0x100126b6: adc byte [ebx], dh ; ror byte [ebx+0x6604244C], 0xFFFFFF8B ; add al, 0x4A ; and eax, 0x00000080 ; ret  ;  (1 found)
0x100125f9: adc byte [ebx], dh ; ror byte [ebx+0x6604244C], 0xFFFFFF8B ; add al, 0x4A ; and eax, 0x00000103 ; ret  ;  (1 found)
0x10012745: adc byte [ebx], dh ; ror byte [ebx+0x6604244C], 0xFFFFFF8B ; add al, 0x4A ; and eax, 0x00000107 ; ret  ;  (1 found)
0x100127ab: adc byte [ebx], dh ; ror byte [ebx+0x6604244C], 0xFFFFFF8B ; add al, 0x4A ; and eax, 0x00000117 ; ret  ;  (1 found)
0x10012778: adc byte [ebx], dh ; ror byte [ebx+0x6604244C], 0xFFFFFF8B ; add al, 0x4A ; and eax, 0x00000157 ; ret  ;  (1 found)
0x10012629: adc byte [ebx], dh ; ror byte [ebx+0x6604244C], 0xFFFFFF8B ; add al, 0x4A ; and eax, 0x01 ; ret  ;  (1 found)
0x10012657: adc byte [ebx], dh ; ror byte [ebx+0x6604244C], 0xFFFFFF8B ; add al, 0x4A ; and eax, 0x02 ; ret  ;  (1 found)
0x10012685: adc byte [ebx], dh ; ror byte [ebx+0x6604244C], 0xFFFFFF8B ; add al, 0x4A ; and eax, 0x04 ; ret  ;  (1 found)
0x100126e6: adc byte [ebx], dh ; ror byte [ebx+0x6604244C], 0xFFFFFF8B ; add al, 0x4A ; and eax, 0x08 ; ret  ;  (1 found)
0x10012714: adc byte [ebx], dh ; ror byte [ebx+0x6604244C], 0xFFFFFF8B ; add al, 0x4A ; and eax, 0x10 ; ret  ;  (1 found)
0x100127db: adc byte [ebx], dh ; ror byte [ebx+0x6604244C], 0xFFFFFF8B ; add al, 0x4A ; and eax, 0x20 ; ret  ;  (1 found)
0x10016ca0: adc byte [ebx], dh ; shl byte [esi-0x75], 0x00000004 ; dec edx ; and eax, 0x00000103 ; ret  ;  (1 found)
0x1001cc49: adc byte [ebx], dh ; shl byte [esi-0x75], 0x00000004 ; dec edx ; and eax, 0x00008000 ; ret  ;  (1 found)
0x10016f70: adc byte [ebx], dh ; shl byte [esi-0x75], 0x00000004 ; dec edx ; and eax, 0x01 ; ret  ;  (1 found)
0x10016e52: adc byte [ebx], dh ; shl byte [esi-0x75], 0x00000004 ; dec edx ; and eax, 0x02 ; ret  ;  (1 found)
0x10016cfd: adc byte [ebx], dh ; shl byte [esi-0x75], 0x00000004 ; dec edx ; and eax, 0x04 ; ret  ;  (1 found)
0x10016f15: adc byte [ebx], dh ; shl byte [esi-0x75], 0x00000004 ; dec edx ; and eax, 0x08 ; ret  ;  (1 found)
0x10012a61: adc byte [ecx+0x0003B802], cl ; add byte [eax], al ; ret  ;  (1 found)
0x100128ea: adc byte [ecx+0x02EB147E], cl ; xor eax, eax ; pop edi ; pop esi ; ret  ;  (1 found)
0x100212b2: adc byte [ecx+0x033B5C35], cl ; adc byte [ecx+0x10033B60], ah ; push eax ; push edi ; call dword [0x100110D0] ;  (1 found)
0x10025b71: adc byte [ecx+0x05EB0441], cl ; mov dword [0x10033BB4], eax ; mov dword [0x10033BB0], eax ; xor eax, eax ; ret  ;  (1 found)
0x1001c01e: adc byte [ecx+0x0C], dl ; add dword [eax-0x01], edx ; xor eax, 0x1002FF90 ; call dword [0x10011134] ;  (1 found)
0x100212b8: adc byte [ecx+0x10033B60], ah ; push eax ; push edi ; call dword [0x100110D0] ;  (1 found)
0x10021535: adc byte [ecx+0x52], dl ; push eax ; call dword [0x10011180] ;  (1 found)
0x1001cfbf: adc byte [ecx+eax], cl ; push eax ; push dword [0x1002FF90] ; call dword [0x10011134] ;  (1 found)
0x100151de: adc byte [ecx-0x077C03BB], cl ; push dword [ebp+0x49] ; call dword [0x10011058] ;  (1 found)
0x100159a5: adc byte [ecx-0x08F78A75], bl ; stc  ; mov word [esi+0x06], ax ; lea eax, dword [ebp-0x10] ; push eax ; call dword [0x100110E8] ;  (1 found)
0x1002aba2: adc byte [ecx-0x1A74A1D0], cl ; pop ebp ; ret  ;  (1 found)
0x1001b8a4: adc byte [ecx], 0x00000001 ; adc byte [ebp+0x330774C0], al ; dec dword [ebx+0x08EBFC75] ; call dword [0x10011058] ;  (1 found)
0x10011f54: adc byte [ecx], al ; adc al, ch ; in eax, 0x00 ; add byte [eax], al ; add esp, 0x08 ; ret  ;  (1 found)
0x10017194: adc byte [ecx], al ; adc bl, al ; push dword [esp+0x04] ; call dword [0x10011138] ;  (1 found)
0x10012b93: adc byte [ecx], al ; adc bl, al ; push dword [esp+0x08] ; push dword [esp+0x08] ; call dword [0x10011084] ;  (1 found)
0x100189af: adc byte [ecx], al ; adc byte [ebp+0x572C75C0], al ; add esi, 0x41 ; call dword [0x10011094] ;  (1 found)
0x10011efd: adc byte [ecx], al ; adc byte [ebp+0x5F], bl ; pop esi ; pop ebx ; ret  ;  (1 found)
0x10016680: adc byte [ecx], al ; adc byte [ebp-0x17148A40], al ; mov byte [ebx+0x00C7FFFF], bh ; or eax, 0xE8000000 ; xchg byte [ebx-0x0F740001], bh ; call dword [0x10011058] ;  (1 found)
0x1001dc0b: adc byte [ecx], al ; adc byte [ebp-0x3D], bl ; push dword [esp+0x08] ; push dword [esp+0x08] ; call dword [0x1001118C] ;  (1 found)
0x10011d05: adc byte [ecx], al ; adc byte [ebx+0x10033ECC], ah ; call dword [0x10011040] ;  (1 found)
0x10011d10: adc byte [ecx], al ; adc byte [ebx+0x10033ED0], ah ; call dword [0x10011104] ;  (1 found)
0x10012aee: adc byte [ecx], al ; adc byte [ebx+0x1675FFF8], al ; call dword [0x10011058] ;  (1 found)
0x100224e7: adc byte [ecx], al ; adc byte [ebx+0x5E5FF845], cl ; pop ebx ; mov esp, ebp ; pop ebp ; ret  ;  (1 found)
0x1001628f: adc byte [ecx], al ; adc byte [ebx-0x1A74A13A], cl ; pop ebp ; ret  ;  (1 found)
0x100212b0: adc byte [ecx], al ; adc byte [ecx+0x033B5C35], cl ; adc byte [ecx+0x10033B60], ah ; push eax ; push edi ; call dword [0x100110D0] ;  (1 found)
0x100151dc: adc byte [ecx], al ; adc byte [ecx-0x077C03BB], cl ; push dword [ebp+0x49] ; call dword [0x10011058] ;  (1 found)
0x1001672a: adc byte [ecx], al ; adc byte [edi+0x5E], bl ; mov esp, ebp ; pop ebp ; ret  ;  (1 found)
0x10016219: adc byte [ecx], al ; adc byte [edx+0x00], ch ; push dword [0x1002FF44] ; call dword [0x10011098] ;  (1 found)
0x10012d42: adc byte [ecx], al ; adc byte [edx+0x07], ch ; push dword [0x1002FF44] ; call dword [0x10011098] ;  (1 found)
0x10012025: adc byte [ecx], al ; adc byte [esi+0x5B], bl ; ret  ;  (1 found)
0x10012a15: adc byte [ecx], al ; adc byte [esi-0x3D], bl ; jmp dword [0x10011060] ;  (1 found)
0x10016837: adc byte [ecx], al ; adc byte [esi-0x75], bl ; in eax, 0x5D ; ret  ;  (1 found)
0x1001735d: adc byte [ecx], bh ; xor esi, dword [esi+0x1B] ; push dword [ebp+0x0C] ; push dword [ebp+0x08] ; call dword [ebp+0x18] ;  (1 found)
0x1001b55a: adc byte [edi+0x53], dl ; push esi ; push 0x00000100 ; push eax ; call dword [0x10011174] ;  (1 found)
0x1001b731: adc byte [edi+0x53], dl ; push esi ; push 0x00000200 ; push eax ; call dword [0x10011174] ;  (1 found)
0x1001672c: adc byte [edi+0x5E], bl ; mov esp, ebp ; pop ebp ; ret  ;  (1 found)
0x10021620: adc byte [edi+0x5E], bl ; pop ebp ; ret  ;  (1 found)
0x1001c452: adc byte [edi+0x5E], bl ; pop ebx ; mov esp, ebp ; pop ebp ; ret  ;  (1 found)
0x1001c93a: adc byte [edi+0x5E], bl ; pop ebx ; mov esp, ebp ; pop ebp ; ret  ;  (1 found)
0x1001e0ce: adc byte [edi+0x5E], bl ; pop ebx ; mov esp, ebp ; pop ebp ; ret  ;  (1 found)
0x10025458: adc byte [edi+0x5E], bl ; pop ebx ; mov esp, ebp ; pop ebp ; ret  ;  (1 found)
0x100227bb: adc byte [edi+0x5E], bl ; pop ebx ; mov esp, ebp ; pop ebp ; ret  ;  (1 found)
0x1001ed7d: adc byte [edi+0x5E], bl ; pop ebx ; pop ebp ; ret  ;  (1 found)
0x100175b2: adc byte [edi+0x5E], bl ; pop ebx ; ret  ;  (1 found)
0x10025ea6: adc byte [edi+ebx*2+0x02], dh ; adc byte [eax+0x100262B8], bh ; mov dword [0x1002FF58], eax ; mov dword [0x1002FF6C], eax ; ret  ;  (1 found)
0x10020e2d: adc byte [edi-0x5D], bl ; mov esp, 0x5E1002E0 ; mov esp, ebp ; pop ebp ; ret  ;  (1 found)
0x1001a2d7: adc byte [edi-0x75], dl ; retn 0x7A80 ;  (1 found)
0x1001621b: adc byte [edx+0x00], ch ; push dword [0x1002FF44] ; call dword [0x10011098] ;  (1 found)
0x1001c49d: adc byte [edx+0x00], ch ; push eax ; call dword [0x10011184] ;  (1 found)
0x100144dc: adc byte [edx+0x02], ch ; push 0x00000001 ; push 0x00000000 ; push eax ; call dword [0x100110C8] ;  (1 found)
0x10012d44: adc byte [edx+0x07], ch ; push dword [0x1002FF44] ; call dword [0x10011098] ;  (1 found)
0x10025bd6: adc byte [edx+0x08], ch ; push eax ; call dword [0x10011134] ;  (1 found)
0x1001bc60: adc byte [edx+0x08], ch ; push eax ; call dword [0x10011184] ;  (1 found)
0x1001d288: adc byte [edx+0x0C], dl ; add dword [eax-0x01], edx ; xor eax, 0x1002FF90 ; call dword [0x10011134] ;  (1 found)
0x1001d2c9: adc byte [edx+0x0C], dl ; add dword [eax-0x01], edx ; xor eax, 0x1002FF90 ; call dword [0x10011134] ;  (1 found)
0x10014eef: adc byte [edx+0x10], ch ; push eax ; call dword [0x100110CC] ;  (1 found)
0x10020cf2: adc byte [edx+0x51], dl ; push 0x00000001 ; push eax ; push 0x00000220 ; push dword [0x1002FF90] ; call dword [0x10011170] ;  (1 found)
0x10012d60: adc byte [edx+0x53], dl ; push eax ; call dword [0x1001109C] ;  (1 found)
0x1002a9f7: adc byte [edx-0x10], dh ; xor eax, eax ; ret  ;  (1 found)
0x1001ada8: adc byte [edx], al ; add byte [eax], al ; push dword [0x1002FF90] ; call dword [0x10011170] ;  (1 found)
0x1001af54: adc byte [edx], al ; add byte [eax], al ; push dword [0x1002FF90] ; call dword [0x10011170] ;  (1 found)
0x10015fd8: adc byte [esi+0x02], bh ; mov eax, esi ; pop edi ; pop esi ; pop ebx ; ret  ;  (1 found)
0x10016aa2: adc byte [esi+0x0B], dh ; xor eax, eax ; mov al, byte [ecx+0x1002F3C0] ; and eax, 0x40 ; ret  ;  (1 found)
0x10012027: adc byte [esi+0x5B], bl ; ret  ;  (1 found)
0x1001d0a4: adc byte [esi+0x6A], dl ; dec dword [ecx+eax] ; push edi ; push eax ; push dword [0x1002FF90] ; call dword [0x10011134] ;  (1 found)
0x10018d9b: adc byte [esi-0x18], dl ; or dword [eax-0x3B7D0000], 0x04 ; push dword [ebp-0x24] ; call dword [0x10011094] ;  (1 found)
0x10012a17: adc byte [esi-0x3D], bl ; jmp dword [0x10011060] ;  (1 found)
0x1001d5f2: adc byte [esi-0x75], ah ; retn 0x7D8B ;  (1 found)
0x1002054a: adc byte [esi-0x75], ah ; xor dword [esi-0x7B], esp ; test byte [ebx+0x661174D1], 0xFFFFFF8B ; cmp byte [esi+0x39], ah ; cmp dh, byte [esp+edx-0x7D] ; retn 0x6602 ;  (1 found)
0x10016839: adc byte [esi-0x75], bl ; in eax, 0x5D ; ret  ;  (1 found)
0x1001fa3a: adc byte [esi-0x75], bl ; in eax, 0x5D ; ret  ;  (1 found)
0x10020e33: adc byte [esi-0x75], bl ; in eax, 0x5D ; ret  ;  (1 found)
0x10017728: adc byte [esp+eax], ah ; cmp al, 0x01 ; sbb eax, eax ; add eax, 0x02 ; ret  ;  (1 found)
0x1001c77d: adc byte [esp+esi*2], al ; add dword [ebp+0x2B], eax ; fisttp qword [ebx+0x03102444] ; ret  ;  (1 found)
0x10016f95: adc byte [esp+esi*2], al ; or al, 0x8B ; retn 0x3B42 ;  (1 found)
0x1001762a: adc byte [esp+esi*2], al ; push es ; mov al, byte [eax+0x01] ; mov byte [ecx+0x01], al ; ret  ;  (1 found)
0x10012a14: adc byte [fs:ecx], al ; adc byte [esi-0x3D], bl ; jmp dword [0x10011060] ;  (1 found)
0x10015a4b: adc ch, al ; ret  ;  (1 found)
0x10017441: adc ch, bh ; mov eax, edi ; pop edi ; pop esi ; ret  ;  (1 found)
0x100192ad: adc cl, al ; clc  ; add dh, bh ; fcomp dword [edi+0x5E] ; ret  ;  (1 found)
0x10028d0f: adc cl, bl ; cli  ; fmul qword [ebp-0x08] ; mov esp, ebp ; pop ebp ; ret  ;  (1 found)
0x1002909f: adc cl, bl ; cli  ; fmul qword [ebp-0x08] ; mov esp, ebp ; pop ebp ; ret  ;  (1 found)
0x10028f83: adc cl, bl ; cli  ; fmul qword [ebp-0x08] ; mov esp, ebp ; pop ebp ; ret  ;  (1 found)
0x1001cf89: adc cl, byte [ebx+0x02E1880D] ; adc byte [ebx], dh ; jmp dword [esi-0x75] ;  (1 found)
0x10029d8b: adc cl, ch ; add al, 0x00 ; add ch, bl ; fcomp st0, st3 ; sub eax, 0x100336A4 ; ret  ;  (1 found)
0x1001f172: adc dh, al ; inc ebp ; call dword [ebx-0x15] ;  (1 found)
0x1001f121: adc dh, al ; inc ebp ; jmp dword [ebx+ebp*8+0x67] ;  (1 found)
0x10012903: adc dword [eax-0x01], edx ; adc eax, 0x1001106C ; mov dword [0x1002E148], 0xFFFFFFFF ; ret  ;  (1 found)
0x10016c9a: adc dword [ebx+0x02E18815], ecx ; adc byte [ebx], dh ; shl byte [esi-0x75], 0x00000004 ; dec edx ; and eax, 0x00000103 ; ret  ;  (1 found)
0x1001cc43: adc dword [ebx+0x02E18815], ecx ; adc byte [ebx], dh ; shl byte [esi-0x75], 0x00000004 ; dec edx ; and eax, 0x00008000 ; ret  ;  (1 found)
0x100176d1: adc dword [ebx-0x1F3E8116], eax ; or dword [ebx], ecx ; retn 0x1DEB ;  (1 found)
0x1001b320: adc dword [ecx-0x3B7C0001], esp ; or byte [ebx-0x1A74A13A], cl ; pop ebp ; ret  ;  (1 found)
0x1002154e: adc dword [ecx], eax ; adc bh, bh ; salc  ; push dword [0x1002FA74] ; call esi ;  (1 found)
0x10016762: adc dword [ecx], eax ; adc bl, ch ; add dh, byte [ebx] ; rcr byte [ebp-0x3D], 0xFFFFFFFF ; and eax, 0x1001110C ; jmp dword [0x10011110] ;  (1 found)
0x100169c3: adc dword [ecx], eax ; adc byte [eax-0x01], dl ; adc eax, 0x10011120 ; ret  ;  (1 found)
0x100169e7: adc dword [ecx], eax ; adc byte [eax-0x01], dl ; adc eax, 0x1001112C ; cmp eax, 0x01 ; sbb eax, eax ; ret  ;  (1 found)
0x1001b8a5: adc dword [ecx], eax ; adc byte [ebp+0x330774C0], al ; dec dword [ebx+0x08EBFC75] ; call dword [0x10011058] ;  (1 found)
0x1001a68d: adc dword [ecx], eax ; adc byte [ebp+0x6A4574C0], al ; jmp dword [ecx+0x1002FF7C] ;  (1 found)
0x1001e7c9: adc dword [ecx], eax ; adc byte [ebp+0x6A4574C0], al ; jmp dword [ecx+0x1002FF7C] ;  (1 found)
0x100214bf: adc dword [ecx], eax ; adc byte [ebx+0x10033CB8], ah ; ret  ;  (1 found)
0x1001a39f: adc dword [ecx], eax ; adc byte [ebx-0x01FBDBB4], cl ; leave  ; shr eax, cl ; and eax, 0x01 ; ret  ;  (1 found)
0x100170e7: adc dword [ecx], eax ; adc byte [ebx-0x1A74F3BB], cl ; pop ebp ; ret  ;  (1 found)
0x1001711b: adc dword [ecx], eax ; adc byte [ebx-0x1A74F3BB], cl ; pop ebp ; ret  ;  (1 found)
0x1001714f: adc dword [ecx], eax ; adc byte [ebx-0x1A74F3BB], cl ; pop ebp ; ret  ;  (1 found)
0x100168c1: adc dword [ecx], eax ; adc byte [ebx-0x3FE4FE08], al ; and al, 0xFE ; sub eax, 0x02 ; ret  ;  (1 found)
0x100169ee: adc dword [ecx], eax ; adc byte [ebx-0x3FE4FE08], al ; ret  ;  (1 found)
0x1002161e: adc dword [ecx], eax ; adc byte [edi+0x5E], bl ; pop ebp ; ret  ;  (1 found)
0x10014784: adc dword [edi+0x5E], ebx ; pop ebp ; ret  ;  (1 found)
0x1002157f: adc dword [edi+edx-0x7D], esi ; dec dword [0xFF831274] ; or dword [ebp+ecx+0x50], esi ; call esi ;  (1 found)
0x10020554: adc dword [esi-0x75], esp ; cmp byte [esi+0x39], ah ; cmp dh, byte [esp+edx-0x7D] ; retn 0x6602 ;  (1 found)
0x1001cf4a: adc eax, 0x00000000 ; mov esp, dword [edx+0x10] ; add esp, 0x04 ; jmp dword [edx+0x14] ;  (1 found)
0x10020c99: adc eax, 0x000986E8 ; add byte [ebx-0x3974FB3C], al ; pop esi ; ret  ;  (1 found)
0x10020a1b: adc eax, 0x000C04E8 ; add byte [ebx-0x3974FB3C], al ; pop esi ; ret  ;  (1 found)
0x1001d1d9: adc eax, 0x004446E8 ; add byte [ebx-0x3974FB3C], al ; pop esi ; ret  ;  (1 found)
0x1001d02f: adc eax, 0x0045F0E8 ; add byte [ebx-0x3974FB3C], al ; pop esi ; ret  ;  (1 found)
0x10018597: adc eax, 0x009088E8 ; add byte [ebx-0x3974FB3C], al ; pop edi ; pop esi ; pop ebx ; ret  ;  (1 found)
0x10011d0e: adc eax, 0x10011040 ; mov dword [0x10033ED0], eax ; call dword [0x10011104] ;  (1 found)
0x10011d03: adc eax, 0x10011044 ; mov dword [0x10033ECC], eax ; call dword [0x10011040] ;  (1 found)
0x10017192: adc eax, 0x10011048 ; ret  ;  (1 found)
0x10011efb: adc eax, 0x10011050 ; pop ebp ; pop edi ; pop esi ; pop ebx ; ret  ;  (1 found)
0x10012023: adc eax, 0x10011054 ; pop esi ; pop ebx ; ret  ;  (1 found)
0x10016728: adc eax, 0x10011058 ; pop edi ; pop esi ; mov esp, ebp ; pop ebp ; ret  ;  (1 found)
0x10016835: adc eax, 0x10011058 ; pop esi ; mov esp, ebp ; pop ebp ; ret  ;  (1 found)
0x10012a13: adc eax, 0x10011064 ; pop esi ; ret  ;  (1 found)
0x10012906: adc eax, 0x1001106C ; mov dword [0x1002E148], 0xFFFFFFFF ; ret  ;  (1 found)
0x10012b91: adc eax, 0x10011080 ; ret  ;  (1 found)
0x10012ba0: adc eax, 0x10011084 ; ret  ;  (1 found)
0x10012cf5: adc eax, 0x10011090 ; pop esi ; ret  ;  (1 found)
0x100189bb: adc eax, 0x10011094 ; call dword [0x10011058] ;  (1 found)
0x10019034: adc eax, 0x10011094 ; push dword [ebp-0x04] ; call dword [0x10011094] ;  (1 found)
0x10021767: adc eax, 0x10011094 ; ret  ;  (1 found)
0x1001628d: adc eax, 0x10011098 ; mov eax, esi ; pop esi ; mov esp, ebp ; pop ebp ; ret  ;  (1 found)
0x10016217: adc eax, 0x100110A0 ; push 0x00000000 ; push dword [0x1002FF44] ; call dword [0x10011098] ;  (1 found)
0x10012d40: adc eax, 0x100110A0 ; push 0x00000007 ; push dword [0x1002FF44] ; call dword [0x10011098] ;  (1 found)
0x100224b3: adc eax, 0x100110BC ; push dword [ebp-0x20] ; call dword [0x10011094] ;  (1 found)
0x100224a6: adc eax, 0x100110C0 ; lea eax, dword [ebp-0x08] ; push eax ; push dword [ebp-0x20] ; call dword [0x100110BC] ;  (1 found)
0x10018d69: adc eax, 0x100110C4 ; push dword [0x1002F4C0+esi*4] ; call dword [0x10011094] ;  (1 found)
0x10018df1: adc eax, 0x100110C4 ; push dword [0x1002F4C0+esi*4] ; call dword [0x10011094] ;  (1 found)
0x1001462e: adc eax, 0x100110C8 ; push eax ; call dword [0x100110C4] ;  (1 found)
0x100144f6: adc eax, 0x100110C8 ; push eax ; call dword [0x100110C4] ;  (1 found)
0x1001dc09: adc eax, 0x100110CC ; pop ebp ; ret  ;  (1 found)
0x100212ae: adc eax, 0x100110D8 ; mov dword [0x10033B5C], esi ; mov eax, dword [0x10033B60] ; push eax ; push edi ; call dword [0x100110D0] ;  (1 found)
0x1001a39d: adc eax, 0x1001110C ; mov ecx, dword [esp+0x04] ; dec cl ; shr eax, cl ; and eax, 0x01 ; ret  ;  (1 found)
0x100168bf: adc eax, 0x10011118 ; cmp eax, 0x01 ; sbb eax, eax ; and al, 0xFE ; sub eax, 0x02 ; ret  ;  (1 found)
0x100214bd: adc eax, 0x1001111C ; mov dword [0x10033CB8], eax ; ret  ;  (1 found)
0x100168b8: adc eax, 0x1001111C ; push eax ; call dword [0x10011118] ;  (1 found)
0x10016901: adc eax, 0x1001111C ; push eax ; call dword [0x10011118] ;  (1 found)
0x100169c1: adc eax, 0x1001111C ; push eax ; call dword [0x10011120] ;  (1 found)
0x10016943: adc eax, 0x1001111C ; push eax ; call dword [0x10011124] ;  (1 found)
0x10016a1e: adc eax, 0x1001111C ; push eax ; call dword [0x10011124] ;  (1 found)
0x10016a49: adc eax, 0x1001111C ; push eax ; call dword [0x10011124] ;  (1 found)
0x1001691c: adc eax, 0x1001111C ; push eax ; call dword [0x10011128] ;  (1 found)
0x100169e5: adc eax, 0x1001111C ; push eax ; call dword [0x1001112C] ;  (1 found)
0x100169c8: adc eax, 0x10011120 ; ret  ;  (1 found)
0x100169ec: adc eax, 0x1001112C ; cmp eax, 0x01 ; sbb eax, eax ; ret  ;  (1 found)
0x100170e5: adc eax, 0x10011134 ; mov eax, dword [ebp+0x0C] ; mov esp, ebp ; pop ebp ; ret  ;  (1 found)
0x10017119: adc eax, 0x10011134 ; mov eax, dword [ebp+0x0C] ; mov esp, ebp ; pop ebp ; ret  ;  (1 found)
0x1001714d: adc eax, 0x10011134 ; mov eax, dword [ebp+0x0C] ; mov esp, ebp ; pop ebp ; ret  ;  (1 found)
0x1001876f: adc eax, 0x1001114C ; ret  ;  (1 found)
0x1002173e: adc eax, 0x10011150 ; pop esi ; mov dword [0x1002FF48], eax ; ret  ;  (1 found)
0x10019729: adc eax, 0x10011164 ; ret  ;  (1 found)
0x1002153a: adc eax, 0x10011180 ; pop edi ; add esp, 0x04 ; ret  ;  (1 found)
0x1001c4d2: adc eax, 0x10011188 ; ret  ;  (1 found)
0x1002161c: adc eax, 0x100111A4 ; pop edi ; pop esi ; pop ebp ; ret  ;  (1 found)
0x10021634: adc eax, 0x100111A8 ; pop ebp ; ret  ;  (1 found)
0x1002245a: adc eax, 0x100111AC ; mov edi, eax ; call dword [0x10011058] ;  (1 found)
0x10011dcf: adc eax, 0x1002E004 ; add esp, 0x04 ; ret  ;  (1 found)
0x10011c59: adc eax, 0x1002E0C4 ; mov dword [eax], edx ; ret  ;  (1 found)
0x10016c9c: adc eax, 0x1002E188 ; xor eax, eax ; mov ax, word [edx+ecx*2] ; and eax, 0x00000103 ; ret  ;  (1 found)
0x1001cc45: adc eax, 0x1002E188 ; xor eax, eax ; mov ax, word [edx+ecx*2] ; and eax, 0x00008000 ; ret  ;  (1 found)
0x10016f6c: adc eax, 0x1002E188 ; xor eax, eax ; mov ax, word [edx+ecx*2] ; and eax, 0x01 ; ret  ;  (1 found)
0x10016e4e: adc eax, 0x1002E188 ; xor eax, eax ; mov ax, word [edx+ecx*2] ; and eax, 0x02 ; ret  ;  (1 found)
0x10016cf9: adc eax, 0x1002E188 ; xor eax, eax ; mov ax, word [edx+ecx*2] ; and eax, 0x04 ; ret  ;  (1 found)
0x10016f11: adc eax, 0x1002E188 ; xor eax, eax ; mov ax, word [edx+ecx*2] ; and eax, 0x08 ; ret  ;  (1 found)
0x100126b2: adc eax, 0x1002E188 ; xor eax, eax ; mov ecx, dword [esp+0x04] ; mov ax, word [edx+ecx*2] ; and eax, 0x00000080 ; ret  ;  (1 found)
0x100125f5: adc eax, 0x1002E188 ; xor eax, eax ; mov ecx, dword [esp+0x04] ; mov ax, word [edx+ecx*2] ; and eax, 0x00000103 ; ret  ;  (1 found)
0x10012741: adc eax, 0x1002E188 ; xor eax, eax ; mov ecx, dword [esp+0x04] ; mov ax, word [edx+ecx*2] ; and eax, 0x00000107 ; ret  ;  (1 found)
0x100127a7: adc eax, 0x1002E188 ; xor eax, eax ; mov ecx, dword [esp+0x04] ; mov ax, word [edx+ecx*2] ; and eax, 0x00000117 ; ret  ;  (1 found)
0x10012774: adc eax, 0x1002E188 ; xor eax, eax ; mov ecx, dword [esp+0x04] ; mov ax, word [edx+ecx*2] ; and eax, 0x00000157 ; ret  ;  (1 found)
0x10012625: adc eax, 0x1002E188 ; xor eax, eax ; mov ecx, dword [esp+0x04] ; mov ax, word [edx+ecx*2] ; and eax, 0x01 ; ret  ;  (1 found)
0x10012653: adc eax, 0x1002E188 ; xor eax, eax ; mov ecx, dword [esp+0x04] ; mov ax, word [edx+ecx*2] ; and eax, 0x02 ; ret  ;  (1 found)
0x10012681: adc eax, 0x1002E188 ; xor eax, eax ; mov ecx, dword [esp+0x04] ; mov ax, word [edx+ecx*2] ; and eax, 0x04 ; ret  ;  (1 found)
0x100126e2: adc eax, 0x1002E188 ; xor eax, eax ; mov ecx, dword [esp+0x04] ; mov ax, word [edx+ecx*2] ; and eax, 0x08 ; ret  ;  (1 found)
0x10012710: adc eax, 0x1002E188 ; xor eax, eax ; mov ecx, dword [esp+0x04] ; mov ax, word [edx+ecx*2] ; and eax, 0x10 ; ret  ;  (1 found)
0x100127d7: adc eax, 0x1002E188 ; xor eax, eax ; mov ecx, dword [esp+0x04] ; mov ax, word [edx+ecx*2] ; and eax, 0x20 ; ret  ;  (1 found)
0x10012c58: adc eax, 0x10032BDC ; mov dword [ebp-0x04], 0x00000000 ; push dword [esi+0x40] ; call dword [esi+0x3C] ;  (1 found)
0x10013781: adc eax, 0x75E85D39 ; adc byte [ebp-0x0002477B], cl ; call dword [eax-0x01] ;  (1 found)
0x10021c8d: adc eax, 0x75E85D39 ; adc byte [ebp-0x0002477B], cl ; call dword [eax-0x01] ;  (1 found)
0x1001240c: adc eax, 0x830000F2 ; les eax,  [esi+edx*2] ; call edi ;  (1 found)
0x100200e1: adc eax, 0xC4830000 ; add al, 0x8B ; lds ebx,  [ebp+0x5F] ; pop esi ; pop ebx ; ret  ;  (1 found)
0x1001dd83: adc eax, 0xC4830000 ; or byte [ebx+0x0FF685F0], cl ; test dl, ah ; add byte [eax], al ; add byte [ebx], ch ; ret  ;  (1 found)
0x100207f2: adc eax, 0xFFFFFFFF ; and eax, ebx ; pop ebx ; ret  ;  (1 found)
0x1001a86e: adc eax, 0xFFFFFFFF ; and eax, edi ; pop edi ; pop esi ; ret  ;  (1 found)
0x10018269: adc eax, 0xFFFFFFFF ; pop ebx ; and eax, ecx ; ret  ;  (1 found)
0x10018414: adc eax, 0xFFFFFFFF ; pop ebx ; and eax, ecx ; ret  ;  (1 found)
0x1002283d: adc eax, 0xFFFFFFFF ; pop esi ; and eax, edx ; pop ebx ; pop ebp ; ret  ;  (1 found)
0x1001c1a2: adc eax, 0xFFFFFFFF ; pop esi ; pop ebx ; mov esp, ebp ; pop ebp ; ret  ;  (1 found)
0x100155c4: adc eax, 0xFFFFFFFF ; pop esi ; ret  ;  (1 found)
0x10021468: adc eax, 0xFFFFFFFF ; push eax ; call dword [0x10011194] ;  (1 found)
0x100127f7: adc eax, 0xFFFFFFFF ; ret  ;  (1 found)
0x1001cd16: adc eax, 0xFFFFFFFF ; ret  ;  (1 found)
0x10011f89: adc eax, dword [eax] ; add byte [eax], al ; add esp, 0x0C ; ret  ;  (1 found)
0x1002029b: adc eax, dword [eax] ; add byte [ebx-0x3C74FB3C], al ; pop edi ; pop esi ; pop ebx ; ret  ;  (1 found)
0x10021610: adc eax, ebp ; sldt word [eax] ; add byte [ebx+0x37FF04C4], al ; call dword [0x100111A4] ;  (1 found)
0x100143fc: adc ecx, dword [ebp+0x5650FC45] ; call dword [0x100110BC] ;  (1 found)
0x10012623: adc ecx, dword [ebx+0x02E18815] ; adc byte [ebx], dh ; ror byte [ebx+0x6604244C], 0xFFFFFF8B ; add al, 0x4A ; and eax, 0x01 ; ret  ;  (1 found)
0x10012651: adc ecx, dword [ebx+0x02E18815] ; adc byte [ebx], dh ; ror byte [ebx+0x6604244C], 0xFFFFFF8B ; add al, 0x4A ; and eax, 0x02 ; ret  ;  (1 found)
0x1001267f: adc ecx, dword [ebx+0x02E18815] ; adc byte [ebx], dh ; ror byte [ebx+0x6604244C], 0xFFFFFF8B ; add al, 0x4A ; and eax, 0x04 ; ret  ;  (1 found)
0x100126e0: adc ecx, dword [ebx+0x02E18815] ; adc byte [ebx], dh ; ror byte [ebx+0x6604244C], 0xFFFFFF8B ; add al, 0x4A ; and eax, 0x08 ; ret  ;  (1 found)
0x1001270e: adc ecx, dword [ebx+0x02E18815] ; adc byte [ebx], dh ; ror byte [ebx+0x6604244C], 0xFFFFFF8B ; add al, 0x4A ; and eax, 0x10 ; ret  ;  (1 found)
0x100127d5: adc ecx, dword [ebx+0x02E18815] ; adc byte [ebx], dh ; ror byte [ebx+0x6604244C], 0xFFFFFF8B ; add al, 0x4A ; and eax, 0x20 ; ret  ;  (1 found)
0x10020786: adc esi, dword [ecx+ecx-0x7D] ; ret  ;  (1 found)
0x100202cf: add ah, byte [esi-0x7B] ; div byte [ebp-0x13] ; pop edi ; pop esi ; ret  ;  (1 found)
0x100202ee: add ah, byte [esi-0x7B] ; sal byte [ebp-0x13], cl ; mov eax, dword [esp+0x08] ; pop esi ; ret  ;  (1 found)
0x1001f86b: add al, 0x00 ; add bh, bh ; xor eax, 0x1002FF7C ; call dword [0x10011174] ;  (1 found)
0x1001f897: add al, 0x00 ; add bh, bh ; xor eax, 0x1002FF7C ; call dword [0x10011174] ;  (1 found)
0x10018b58: add al, 0x00 ; add byte [eax-0x18], dl ; retn 0x0003 ;  (1 found)
0x10015622: add al, 0x00 ; add byte [eax], al ; add byte [edi+0x5E], bl ; pop ebx ; ret  ;  (1 found)
0x100225b8: add al, 0x00 ; add byte [eax], al ; add byte [esi+0x5B], bl ; ret  ;  (1 found)
0x1001562e: add al, 0x00 ; add byte [eax], al ; add esp, 0x04 ; ret  ;  (1 found)
0x100214e6: add al, 0x00 ; add byte [eax], al ; add esp, 0x04 ; ret  ;  (1 found)
0x10013adc: add al, 0x00 ; add byte [eax], al ; add esp, 0x08 ; ret  ;  (1 found)
0x1001325f: add al, 0x00 ; add byte [eax], al ; add esp, 0x08 ; ret  ;  (1 found)
0x100172e6: add al, 0x00 ; add byte [eax], al ; add esp, 0x08 ; ret  ;  (1 found)
0x10017321: add al, 0x00 ; add byte [eax], al ; add esp, 0x08 ; ret  ;  (1 found)
0x1001d629: add al, 0x00 ; add byte [eax], al ; add esp, 0x08 ; ret  ;  (1 found)
0x10011f98: add al, 0x00 ; add byte [eax], al ; add esp, 0x0C ; ret  ;  (1 found)
0x10014a7c: add al, 0x00 ; add byte [eax], al ; add esp, 0x0C ; ret  ;  (1 found)
0x10014ccb: add al, 0x00 ; add byte [eax], al ; add esp, 0x0C ; ret  ;  (1 found)
0x10018784: add al, 0x00 ; add byte [eax], al ; add esp, 0x10 ; ret  ;  (1 found)
0x10019acf: add al, 0x00 ; add byte [eax], al ; add esp, 0x10 ; ret  ;  (1 found)
0x10019d29: add al, 0x00 ; add byte [eax], al ; add esp, 0x10 ; ret  ;  (1 found)
0x1001f581: add al, 0x00 ; add byte [eax], al ; add esp, 0x10 ; ret  ;  (1 found)
0x10020808: add al, 0x00 ; add byte [eax], al ; add esp, 0x10 ; ret  ;  (1 found)
0x1001471b: add al, 0x00 ; add byte [eax], al ; mov esp, ebp ; pop ebp ; ret  ;  (1 found)
0x10027758: add al, 0x00 ; add byte [eax], al ; mov esp, ebp ; pop ebp ; ret  ;  (1 found)
0x1002a05f: add al, 0x00 ; add byte [ebx-0x7C27FC26], cl ; ret  ;  (1 found)
0x1002a0eb: add al, 0x00 ; add byte [ebx-0x7C27FC26], cl ; ret  ;  (1 found)
0x10029d8e: add al, 0x00 ; add ch, bl ; fcomp st0, st3 ; sub eax, 0x100336A4 ; ret  ;  (1 found)
0x10029d8d: add al, 0x00 ; add ch, bl ; fcomp st0, st3 ; sub eax, 0x100336A4 ; ret  ;  (1 found)
0x10016a42: add al, 0x00 ; lea eax, dword [ebp-0x20] ; push eax ; call dword [0x1001111C] ;  (1 found)
0x10027fe1: add al, 0x00 ; pop esi ; ret  ;  (1 found)
0x10025805: add al, 0x00000029 ; add edx, dword [eax] ; ret  ;  (1 found)
0x10012ea8: add al, 0x01 ; add byte [eax], al ; call dword [0x100110A4] ;  (1 found)
0x100166c8: add al, 0x01 ; add byte [eax], al ; call dword [0x100110A4] ;  (1 found)
0x10020dac: add al, 0x01 ; add byte [eax], al ; mov esi, 0x10033950 ; push esi ; push 0x00000000 ; call dword [0x1001104C] ;  (1 found)
0x10021004: add al, 0x01 ; add byte [eax], al ; mov esi, 0x10033A58 ; push esi ; push 0x00000000 ; call dword [0x1001104C] ;  (1 found)
0x10012ed3: add al, 0x01 ; add byte [eax], al ; ret  ;  (1 found)
0x1001a7b4: add al, 0x03 ; inc esp ; and al, 0x08 ; ret  ;  (1 found)
0x1002a05e: add al, 0x04 ; add byte [eax], al ; mov ebx, edx ; add ebx, eax ; add ebx, 0x10 ; jmp dword [ebx] ;  (1 found)
0x1002a0ea: add al, 0x04 ; add byte [eax], al ; mov ebx, edx ; add ebx, eax ; add ebx, 0x10 ; jmp dword [ebx] ;  (1 found)
0x100252b6: add al, 0x06 ; add byte [eax+0x0F], al ; mov dh, 0x4A ; add dword [ebx], edi ; enter 0xF37D, 0x83 ; retn 0x8002 ;  (1 found)
0x10020a1d: add al, 0x0C ; add byte [eax], al ; add esp, 0x04 ; mov eax, esi ; pop esi ; ret  ;  (1 found)
0x1001a755: add al, 0x0F ; mov dh, 0x01 ; ret  ;  (1 found)
0x1001b60e: add al, 0x2B ; rcr dword [edi+0x5E], 0x5B ; pop ebp ; ret  ;  (1 found)
0x100125ba: add al, 0x2B ; rol dword [ebx-0x3FE4FE08], 0x23 ; retn 0xE8C3 ;  (1 found)
0x10018dd3: add al, 0x33 ; rcr byte [edi+0x5E], 0x0000005B ; mov esp, ebp ; pop ebp ; ret  ;  (1 found)
0x1001ac3f: add al, 0x33 ; rcr byte [edi+0x5E], 0x0000005B ; ret  ;  (1 found)
0x1001fbde: add al, 0x33 ; rcr byte [edi+0x5E], 0x0000005B ; ret  ;  (1 found)
0x10023075: add al, 0x33 ; ror byte [ecx+0x08468906], 0xFFFFFF80 ; or al, 0xF7 ; mov dword [esi+0x04], eax ; pop esi ; ret  ;  (1 found)
0x10028b30: add al, 0x33 ; shr bl, 0x00000005 ; mov eax, 0x00000001 ; ret  ;  (1 found)
0x10012e6f: add al, 0x33 ; shr bl, 0x0000001E ; call dword [0x10011058] ;  (1 found)
0x10012f1b: add al, 0x33 ; shr bl, 0x00000036 ; call dword [0x10011058] ;  (1 found)
0x10012d2d: add al, 0x33 ; shr cl, 0xFFFFFFAC ; add byte [eax], al ; add byte [ebp-0x00AF07BB], cl ; xor eax, 0x1002FF44 ; call dword [0x100110A0] ;  (1 found)
0x10011f0c: add al, 0x39 ; or dh, byte [ebx+edx-0x7D] ; retn 0xA10C ;  (1 found)
0x1002a9e9: add al, 0x39 ; or dh, byte [edi+ecx-0x7D] ; retn 0x4008 ;  (1 found)
0x1001a70e: add al, 0x40 ; ret  ;  (1 found)
0x100126bf: add al, 0x4A ; and eax, 0x00000080 ; ret  ;  (1 found)
0x10012602: add al, 0x4A ; and eax, 0x00000103 ; ret  ;  (1 found)
0x10016ca5: add al, 0x4A ; and eax, 0x00000103 ; ret  ;  (1 found)
0x1001274e: add al, 0x4A ; and eax, 0x00000107 ; ret  ;  (1 found)
0x100127b4: add al, 0x4A ; and eax, 0x00000117 ; ret  ;  (1 found)
0x10012781: add al, 0x4A ; and eax, 0x00000157 ; ret  ;  (1 found)
0x1001cc4e: add al, 0x4A ; and eax, 0x00008000 ; ret  ;  (1 found)
0x10012632: add al, 0x4A ; and eax, 0x01 ; ret  ;  (1 found)
0x10016f75: add al, 0x4A ; and eax, 0x01 ; ret  ;  (1 found)
0x10012660: add al, 0x4A ; and eax, 0x02 ; ret  ;  (1 found)
0x10016e57: add al, 0x4A ; and eax, 0x02 ; ret  ;  (1 found)
0x1001268e: add al, 0x4A ; and eax, 0x04 ; ret  ;  (1 found)
0x10016d02: add al, 0x4A ; and eax, 0x04 ; ret  ;  (1 found)
0x100126ef: add al, 0x4A ; and eax, 0x08 ; ret  ;  (1 found)
0x10016f1a: add al, 0x4A ; and eax, 0x08 ; ret  ;  (1 found)
0x1001271d: add al, 0x4A ; and eax, 0x10 ; ret  ;  (1 found)
0x100127e4: add al, 0x4A ; and eax, 0x20 ; ret  ;  (1 found)
0x10013195: add al, 0x50 ; call dword [0x10011094] ;  (1 found)
0x100130c7: add al, 0x50 ; call dword [0x100110B0] ;  (1 found)
0x1001462b: add al, 0x50 ; call dword [0x100110C8] ;  (1 found)
0x100144f3: add al, 0x50 ; call dword [0x100110C8] ;  (1 found)
0x10015ea8: add al, 0x50 ; call dword [0x100110EC] ;  (1 found)
0x1001726d: add al, 0x50 ; call dword [0x1001113C] ;  (1 found)
0x1001724f: add al, 0x50 ; call dword [0x10011140] ;  (1 found)
0x1001740e: add al, 0x50 ; call dword [0x10011144] ;  (1 found)
0x10012412: add al, 0x56 ; call edi ;  (1 found)
0x10012e2d: add al, 0x56 ; push ebx ; call dword [0x100110A4] ;  (1 found)
0x10024cc5: add al, 0x5E ; ret  ;  (1 found)
0x100251bb: add al, 0x5E ; ret  ;  (1 found)
0x10023083: add al, 0x5E ; ret  ;  (1 found)
0x1001b1cd: add al, 0x5F ; pop esi ; mov esp, ebp ; pop ebp ; ret  ;  (1 found)
0x1002109d: add al, 0x5F ; pop esi ; mov esp, ebp ; pop ebp ; ret  ;  (1 found)
0x1001c064: add al, 0x5F ; pop esi ; pop ebx ; mov esp, ebp ; pop ebp ; ret  ;  (1 found)
0x10025b3c: add al, 0x5F ; pop esi ; pop ebx ; mov esp, ebp ; pop ebp ; ret  ;  (1 found)
0x1002ad6e: add al, 0x5F ; pop esi ; pop ebx ; mov esp, ebp ; pop ebp ; ret  ;  (1 found)
0x1001dc9a: add al, 0x5F ; pop esi ; pop ebx ; ret  ;  (1 found)
0x1001bf52: add al, 0x5F ; pop esi ; ret  ;  (1 found)
0x1001c1e4: add al, 0x5F ; pop esi ; ret  ;  (1 found)
0x1001bcbb: add al, 0x5F ; pop esi ; ret  ;  (1 found)
0x1001ff81: add al, 0x5F ; pop esi ; ret  ;  (1 found)
0x1001d8f5: add al, 0x5F ; ret  ;  (1 found)
0x1002008c: add al, 0x66 ; mov eax, 0x5E5FFFFF ; mov esp, ebp ; pop ebp ; ret  ;  (1 found)
0x100126bc: add al, 0x66 ; mov eax, dword [edx+ecx*2] ; and eax, 0x00000080 ; ret  ;  (1 found)
0x100125ff: add al, 0x66 ; mov eax, dword [edx+ecx*2] ; and eax, 0x00000103 ; ret  ;  (1 found)
0x1001274b: add al, 0x66 ; mov eax, dword [edx+ecx*2] ; and eax, 0x00000107 ; ret  ;  (1 found)
0x100127b1: add al, 0x66 ; mov eax, dword [edx+ecx*2] ; and eax, 0x00000117 ; ret  ;  (1 found)
0x1001277e: add al, 0x66 ; mov eax, dword [edx+ecx*2] ; and eax, 0x00000157 ; ret  ;  (1 found)
0x1001262f: add al, 0x66 ; mov eax, dword [edx+ecx*2] ; and eax, 0x01 ; ret  ;  (1 found)
0x1001265d: add al, 0x66 ; mov eax, dword [edx+ecx*2] ; and eax, 0x02 ; ret  ;  (1 found)
0x1001268b: add al, 0x66 ; mov eax, dword [edx+ecx*2] ; and eax, 0x04 ; ret  ;  (1 found)
0x100126ec: add al, 0x66 ; mov eax, dword [edx+ecx*2] ; and eax, 0x08 ; ret  ;  (1 found)
0x1001271a: add al, 0x66 ; mov eax, dword [edx+ecx*2] ; and eax, 0x10 ; ret  ;  (1 found)
0x100127e1: add al, 0x66 ; mov eax, dword [edx+ecx*2] ; and eax, 0x20 ; ret  ;  (1 found)
0x10011dc8: add al, 0x68 ; inc dword [eax] ; add byte [eax], al ; call dword [0x1002E004] ;  (1 found)
0x1002160e: add al, 0x6A ; adc eax, ebp ; sldt word [eax] ; add byte [ebx+0x37FF04C4], al ; call dword [0x100111A4] ;  (1 found)
0x10012cf1: add al, 0x6A ; add bh, bh ; adc eax, 0x10011090 ; pop esi ; ret  ;  (1 found)
0x10018765: add al, 0x6A ; add bh, bh ; xor eax, 0x10033CB8 ; call dword [0x1001114C] ;  (1 found)
0x1001c4c8: add al, 0x6A ; add bh, bh ; xor eax, 0x10033CB8 ; call dword [0x10011188] ;  (1 found)
0x10012a09: add al, 0x6A ; add byte [ecx+0x1002E148], ah ; push eax ; call dword [0x10011064] ;  (1 found)
0x1001608a: add al, 0x6A ; add byte [edx-0x0C], ch ; call dword [0x100110F4] ;  (1 found)
0x10014611: add al, 0x6A ; add cl, byte [ebp+0x016AFC45] ; push 0x00000000 ; push eax ; call dword [0x100110C8] ;  (1 found)
0x10012e65: add al, 0x6A ; or al, 0xE8 ; mov eax, 0x830000E7 ; les eax,  [ebx+esi] ; shr bl, 0x0000001E ; call dword [0x10011058] ;  (1 found)
0x1001c77e: add al, 0x74 ; add dword [ebp+0x2B], eax ; fisttp qword [ebx+0x03102444] ; ret  ;  (1 found)
0x10016f96: add al, 0x74 ; or al, 0x8B ; retn 0x3B42 ;  (1 found)
0x1001762b: add al, 0x74 ; push es ; mov al, byte [eax+0x01] ; mov byte [ecx+0x01], al ; ret  ;  (1 found)
0x1001cd0e: add al, 0x80 ; add byte [eax+0x00000001], bh ; adc eax, 0xFFFFFFFF ; ret  ;  (1 found)
0x100127ed: add al, 0x80 ; add byte [eax], al ; add byte [eax+0x00000001], bh ; adc eax, 0xFFFFFFFF ; ret  ;  (1 found)
0x1001b285: add al, 0x80 ; add dword [eax], eax ; add byte [ecx+0x1002E088], ah ; mov ecx, dword [esp+0x04] ; mov dword [0x1002E088], ecx ; ret  ;  (1 found)
0x100155bb: add al, 0x83 ; clc  ; add dword [eax+0x00000000], edi ; adc eax, 0xFFFFFFFF ; pop esi ; ret  ;  (1 found)
0x10012cdc: add al, 0x83 ; clc  ; push dword [edi+eax+0x50] ; call dword [0x10011094] ;  (1 found)
0x1002253f: add al, 0x83 ; ret  ;  (1 found)
0x10025bb9: add al, 0x85 ; push dword [ebp-0x29] ; pop edi ; pop esi ; ret  ;  (1 found)
0x10015dee: add al, 0x85 ; ror byte [edi], 0xFFFFFF84 ; retn 0x0000 ;  (1 found)
0x10012b89: add al, 0x85 ; sal byte [ebp+0x01], 0x00000040 ; push eax ; call dword [0x10011080] ;  (1 found)
0x10024637: add al, 0x85 ; sal byte [ebp-0x1E], 0x00000066 ; mov eax, esi ; pop edi ; pop esi ; ret  ;  (1 found)
0x100133bb: add al, 0x89 ; inc ebp ; fdivr dword [ebx] ; ret  ;  (1 found)
0x100218c7: add al, 0x89 ; inc ebp ; fdivr dword [ebx] ; ret  ;  (1 found)
0x1001536c: add al, 0x89 ; inc ebx ; or byte [ebp-0x00012B7B], cl ; dec dword [ebp-0x00011343] ; call dword [eax-0x18] ;  (1 found)
0x10015272: add al, 0x89 ; inc ebx ; or byte [ebp-0x00012F7B], cl ; dec dword [ebp-0x00011743] ; call dword [eax-0x18] ;  (1 found)
0x10013a5b: add al, 0x89 ; or byte [esi-0x75], ah ; inc ecx ; cld  ; ret  ;  (1 found)
0x10021fa1: add al, 0x89 ; or byte [esi-0x75], ah ; inc ecx ; cld  ; ret  ;  (1 found)
0x1001b292: add al, 0x89 ; or eax, 0x1002E088 ; ret  ;  (1 found)
0x10011dfa: add al, 0x89 ; or eax, 0x1002F124 ; ret  ;  (1 found)
0x10026849: add al, 0x89 ; xor dword [ebx+0x754A04C1], eax ; pop esi ; ret  ;  (1 found)
0x1001be5f: add al, 0x8B ; fcom dword [edi-0x18] ; mov ebp, 0x83000057 ; les eax,  [ebx+ecx*4] ; ret  ;  (1 found)
0x100167d3: add al, 0x8B ; in eax, 0x5D ; ret  ;  (1 found)
0x1001fdd7: add al, 0x8B ; in eax, 0x5D ; ret  ;  (1 found)
0x1001fe91: add al, 0x8B ; in eax, 0x5D ; ret  ;  (1 found)
0x1002a9ac: add al, 0x8B ; in eax, 0x5D ; ret  ;  (1 found)
0x10012cd9: add al, 0x8B ; inc esi ; add al, 0x83 ; clc  ; push dword [edi+eax+0x50] ; call dword [0x10011094] ;  (1 found)
0x1001c0bc: add al, 0x8B ; lds ebx,  [ebp+0x5F] ; pop esi ; pop ebx ; ret  ;  (1 found)
0x1001c7e2: add al, 0x8B ; lds ebx,  [ebp+0x5F] ; pop esi ; pop ebx ; ret  ;  (1 found)
0x100200e6: add al, 0x8B ; lds ebx,  [ebp+0x5F] ; pop esi ; pop ebx ; ret  ;  (1 found)
0x1002013d: add al, 0x8B ; lds ebx,  [ebp+0x5F] ; pop esi ; pop ebx ; ret  ;  (1 found)
0x10013a56: add al, 0x8B ; or byte [ebx+0x088904C1], al ; mov ax, word [ecx-0x04] ; ret  ;  (1 found)
0x10021f9c: add al, 0x8B ; or byte [ebx+0x088904C1], al ; mov ax, word [ecx-0x04] ; ret  ;  (1 found)
0x10013a47: add al, 0x8B ; or byte [ebx+0x088904C1], al ; mov eax, dword [ecx-0x04] ; ret  ;  (1 found)
0x10021f8d: add al, 0x8B ; or byte [ebx+0x088904C1], al ; mov eax, dword [ecx-0x04] ; ret  ;  (1 found)
0x1002304f: add al, 0x8B ; or byte [ebx+0x088904C1], al ; mov eax, dword [ecx-0x04] ; ret  ;  (1 found)
0x10012118: add al, 0x8B ; or eax, 0x10033EC8 ; mov dword [ecx], 0x00000000 ; mov ecx, dword [0x10033EC8] ; mov dword [0x10033EC0], ecx ; ret  ;  (1 found)
0x10014925: add al, 0x8B ; ret  ;  (1 found)
0x100149fa: add al, 0x8B ; ret  ;  (1 found)
0x10014992: add al, 0x8B ; ret  ;  (1 found)
0x10014a67: add al, 0x8B ; ret  ;  (1 found)
0x100151b3: add al, 0x8B ; ret  ;  (1 found)
0x10016adc: add al, 0x8B ; ret  ;  (1 found)
0x1001ad93: add al, 0x8B ; ret  ;  (1 found)
0x1001ad62: add al, 0x8B ; ret  ;  (1 found)
0x1001ae5a: add al, 0x8B ; ret  ;  (1 found)
0x1001adc7: add al, 0x8B ; ret  ;  (1 found)
0x1001aea0: add al, 0x8B ; ret  ;  (1 found)
0x1001af3f: add al, 0x8B ; ret  ;  (1 found)
0x1001af0e: add al, 0x8B ; ret  ;  (1 found)
0x100199e1: add al, 0x8B ; ret  ;  (1 found)
0x10019971: add al, 0x8B ; ret  ;  (1 found)
0x10019a46: add al, 0x8B ; ret  ;  (1 found)
0x10019ab6: add al, 0x8B ; ret  ;  (1 found)
0x1001acae: add al, 0x8B ; ret  ;  (1 found)
0x1001acf4: add al, 0x8B ; ret  ;  (1 found)
0x1001be6a: add al, 0x8B ; ret  ;  (1 found)
0x1001c114: add al, 0x8B ; ret  ;  (1 found)
0x1001c6c3: add al, 0x8B ; ret  ;  (1 found)
0x1001af73: add al, 0x8B ; ret  ;  (1 found)
0x1001bba0: add al, 0x8B ; ret  ;  (1 found)
0x1001d93c: add al, 0x8B ; ret  ;  (1 found)
0x1001df4c: add al, 0x8B ; ret  ;  (1 found)
0x1001e5bd: add al, 0x8B ; ret  ;  (1 found)
0x1001fb1c: add al, 0x8B ; ret  ;  (1 found)
0x10020188: add al, 0x8B ; ret  ;  (1 found)
0x100202a0: add al, 0x8B ; ret  ;  (1 found)
0x1002045c: add al, 0x8B ; ret  ;  (1 found)
0x10020c73: add al, 0x8B ; ret  ;  (1 found)
0x10020d6b: add al, 0x8B ; ret  ;  (1 found)
0x100269d6: add al, 0x8B ; ret  ;  (1 found)
0x1002879d: add al, 0x8B ; retn 0xE281 ;  (1 found)
0x1001e0c8: add al, 0x8B ; sbb dword [ecx+esi*8+0x5E5F1002], 0x5B ; mov esp, ebp ; pop ebp ; ret  ;  (1 found)
0x1001753e: add al, 0x8D ; cmp ch, ch ; add dl, byte [eax] ; pop esi ; ret  ;  (1 found)
0x1001488f: add al, 0x8F ; mov dword [ebx+0x0C], eax ; call dword [edi+ecx*4+0x08] ;  (1 found)
0x100216b3: add al, 0x8F ; mov dword [ebx+0x0C], eax ; call dword [edi+ecx*4+0x08] ;  (1 found)
0x1001b9a5: add al, 0x99 ; xor eax, edx ; sub eax, edx ; ret  ;  (1 found)
0x1001cd1d: add al, 0x99 ; xor eax, edx ; sub eax, edx ; ret  ;  (1 found)
0x1002abac: add al, 0x9B ; fstsw word [esp+0x02] ; movsx eax, word [esp+0x02] ; add esp, 0x04 ; ret  ;  (1 found)
0x100158a3: add al, 0xB6 ; add dword [ebp+0x4D8DF045], ecx ; rcl byte [eax+0x51], 1  ; call dword [0x100110DC] ;  (1 found)
0x10012421: add al, 0xB8 ; add dword [eax], eax ; add byte [eax], al ; pop edi ; pop esi ; retn 0x0004 ;  (1 found)
0x10013213: add al, 0xBE ; add byte [eax], al ; add byte [eax], al ; push eax ; call dword [0x100110B4] ;  (1 found)
0x10011df0: add al, 0xC3 ; mov eax, dword [0x1002F124] ; mov ecx, dword [esp+0x04] ; mov dword [0x1002F124], ecx ; ret  ;  (1 found)
0x1001b9a0: add al, 0xC3 ; mov eax, dword [esp+0x04] ; cdq  ; xor eax, edx ; sub eax, edx ; ret  ;  (1 found)
0x100168b1: add al, 0xC3 ; push 0x00000000 ; push 0x00000000 ; call dword [0x1001111C] ;  (1 found)
0x10018760: add al, 0xC3 ; push dword [esp+0x04] ; push 0x00000000 ; push dword [0x10033CB8] ; call dword [0x1001114C] ;  (1 found)
0x10021542: add al, 0xC3 ; push esi ; mov eax, dword [0x1002FA84] ; push eax ; mov esi, dword [0x1001119C] ; call esi ;  (1 found)
0x100181a4: add al, 0xC6 ; inc esi ; jmp dword [eax] ;  (1 found)
0x10018320: add al, 0xC6 ; inc esi ; jmp dword [eax] ;  (1 found)
0x10020476: add al, 0xD1 ; clc  ; dec eax ; ret  ;  (1 found)
0x10027ef7: add al, 0xD9 ; insd  ; dec byte [ebx-0x1A74A13A] ; pop ebp ; ret  ;  (1 found)
0x10011dd0: add al, 0xE0 ; add dl, byte [eax] ; add esp, 0x04 ; ret  ;  (1 found)
0x1001be81: add al, 0xE8 ; ret  ;  (1 found)
0x10011dc0: add al, 0xE8 ; sub bh, dh ; add byte [eax], al ; add esp, 0x04 ; push 0x000000FF ; call dword [0x1002E004] ;  (1 found)
0x10011ddb: add al, 0xE8 ; test al, 0xA6 ; add byte [eax], al ; add esp, 0x04 ; ret  ;  (1 found)
0x10011de8: add al, 0xE8 ; xlatb  ; cmpsb  ; add byte [eax], al ; add esp, 0x04 ; ret  ;  (1 found)
0x10025b74: add al, 0xEB ; add eax, 0x033BB4A3 ; adc byte [ebx+0x10033BB0], ah ; xor eax, eax ; ret  ;  (1 found)
0x10028719: add al, 0xF6 ; test dword [edi+edi*8-0x01], esi ; call dword [eax] ;  (1 found)
0x1001a3a5: add al, 0xFE ; leave  ; shr eax, cl ; and eax, 0x01 ; ret  ;  (1 found)
0x10021618: add al, 0xFF ; aaa  ; call dword [0x100111A4] ;  (1 found)
0x10017190: add al, 0xFF ; adc eax, 0x10011048 ; ret  ;  (1 found)
0x10019727: add al, 0xFF ; adc eax, 0x10011164 ; ret  ;  (1 found)
0x10011c83: add al, ah ; add dl, byte [eax] ; push dword [ebp+0x08] ; call dword [0x1001104C] ;  (1 found)
0x1002171a: add al, al ; push 0x100119D8 ; call dword [0x10011150] ;  (1 found)
0x1001af23: add al, byte [eax] ; add bh, bh ; xor eax, 0x1002FF80 ; call dword [0x10011174] ;  (1 found)
0x1001fe63: add al, byte [eax] ; add bh, bh ; xor eax, 0x1002FF80 ; call dword [0x10011174] ;  (1 found)
0x1001ada9: add al, byte [eax] ; add bh, bh ; xor eax, 0x1002FF90 ; call dword [0x10011170] ;  (1 found)
0x1001c227: add al, byte [eax] ; add bh, bh ; xor eax, 0x1002FF90 ; call dword [0x10011170] ;  (1 found)
0x1001af55: add al, byte [eax] ; add bh, bh ; xor eax, 0x1002FF90 ; call dword [0x10011170] ;  (1 found)
0x1001fff5: add al, byte [eax] ; add bh, bh ; xor eax, 0x1002FF90 ; call dword [0x10011170] ;  (1 found)
0x10020aa8: add al, byte [eax] ; add bh, bh ; xor eax, 0x1002FF90 ; call dword [0x10011170] ;  (1 found)
0x10020cfa: add al, byte [eax] ; add bh, bh ; xor eax, 0x1002FF90 ; call dword [0x10011170] ;  (1 found)
0x1001352b: add al, byte [eax] ; add byte [ebx], bh ; ret  ;  (1 found)
0x10021a37: add al, byte [eax] ; add byte [ebx], bh ; ret  ;  (1 found)
0x10012dc4: add al, byte [eax] ; push dword [ebp-0x08] ; push dword [0x1002FF44] ; call dword [0x10011098] ;  (1 found)
0x100202cc: add al, byte [ebx-0x7A99FD3F] ; div byte [ebp-0x13] ; pop edi ; pop esi ; ret  ;  (1 found)
0x100202eb: add al, byte [ebx-0x7A99FD40] ; sal byte [ebp-0x13], cl ; mov eax, dword [esp+0x08] ; pop esi ; ret  ;  (1 found)
0x1001b31e: add al, ch ; adc dword [ecx-0x3B7C0001], esp ; or byte [ebx-0x1A74A13A], cl ; pop ebp ; ret  ;  (1 found)
0x1001240a: add al, ch ; adc eax, 0x830000F2 ; les eax,  [esi+edx*2] ; call edi ;  (1 found)
0x10011f87: add al, ch ; adc eax, dword [eax] ; add byte [eax], al ; add esp, 0x0C ; ret  ;  (1 found)
0x100214e4: add al, ch ; add al, 0x00 ; add byte [eax], al ; add esp, 0x04 ; ret  ;  (1 found)
0x10011f96: add al, ch ; add al, 0x00 ; add byte [eax], al ; add esp, 0x0C ; ret  ;  (1 found)
0x10029b32: add al, ch ; add eax, dword [eax] ; add byte [eax], al ; pop ebx ; leave  ; ret  ;  (1 found)
0x1001fa32: add al, ch ; stc  ; mov byte [0xC483FFFF], al ; adc byte [esi-0x75], bl ; in eax, 0x5D ; ret  ;  (1 found)
0x10019907: add al, ch ; sub byte [ebx-0x3B7C0001], bh ; or byte [ebx-0x1A74A13A], cl ; pop ebp ; ret  ;  (1 found)
0x10016691: add al, ch ; xchg byte [ebx-0x0F740001], bh ; call dword [0x10011058] ;  (1 found)
0x1001d43f: add bh, ah ; mov eax, dword [ebp+0x08] ; pop esi ; pop edi ; leave  ; ret  ;  (1 found)
0x1001d58f: add bh, ah ; mov eax, dword [ebp+0x08] ; pop esi ; pop edi ; leave  ; ret  ;  (1 found)
0x10011d01: add bh, bh ; adc eax, 0x10011044 ; mov dword [0x10033ECC], eax ; call dword [0x10011040] ;  (1 found)
0x10012cf3: add bh, bh ; adc eax, 0x10011090 ; pop esi ; ret  ;  (1 found)
0x100168b6: add bh, bh ; adc eax, 0x1001111C ; push eax ; call dword [0x10011118] ;  (1 found)
0x100168ff: add bh, bh ; adc eax, 0x1001111C ; push eax ; call dword [0x10011118] ;  (1 found)
0x1001691a: add bh, bh ; adc eax, 0x1001111C ; push eax ; call dword [0x10011128] ;  (1 found)
0x100169e3: add bh, bh ; adc eax, 0x1001111C ; push eax ; call dword [0x1001112C] ;  (1 found)
0x100170e3: add bh, bh ; adc eax, 0x10011134 ; mov eax, dword [ebp+0x0C] ; mov esp, ebp ; pop ebp ; ret  ;  (1 found)
0x10017117: add bh, bh ; adc eax, 0x10011134 ; mov eax, dword [ebp+0x0C] ; mov esp, ebp ; pop ebp ; ret  ;  (1 found)
0x1001714b: add bh, bh ; adc eax, 0x10011134 ; mov eax, dword [ebp+0x0C] ; mov esp, ebp ; pop ebp ; ret  ;  (1 found)
0x10011dcd: add bh, bh ; adc eax, 0x1002E004 ; add esp, 0x04 ; ret  ;  (1 found)
0x10011ed9: add bh, bh ; push 0x00000008 ; call edx ;  (1 found)
0x1001621d: add bh, bh ; xor eax, 0x1002FF44 ; call dword [0x10011098] ;  (1 found)
0x100203a3: add bh, bh ; xor eax, 0x1002FF7C ; call dword [0x1001116C] ;  (1 found)
0x1001f86d: add bh, bh ; xor eax, 0x1002FF7C ; call dword [0x10011174] ;  (1 found)
0x1001f899: add bh, bh ; xor eax, 0x1002FF7C ; call dword [0x10011174] ;  (1 found)
0x1001ad79: add bh, bh ; xor eax, 0x1002FF80 ; call dword [0x10011174] ;  (1 found)
0x1001af25: add bh, bh ; xor eax, 0x1002FF80 ; call dword [0x10011174] ;  (1 found)
0x1001fdab: add bh, bh ; xor eax, 0x1002FF80 ; call dword [0x10011174] ;  (1 found)
0x1001fe65: add bh, bh ; xor eax, 0x1002FF80 ; call dword [0x10011174] ;  (1 found)
0x1001adab: add bh, bh ; xor eax, 0x1002FF90 ; call dword [0x10011170] ;  (1 found)
0x1001c229: add bh, bh ; xor eax, 0x1002FF90 ; call dword [0x10011170] ;  (1 found)
0x1001af57: add bh, bh ; xor eax, 0x1002FF90 ; call dword [0x10011170] ;  (1 found)
0x1001fff7: add bh, bh ; xor eax, 0x1002FF90 ; call dword [0x10011170] ;  (1 found)
0x10020aaa: add bh, bh ; xor eax, 0x1002FF90 ; call dword [0x10011170] ;  (1 found)
0x10020b04: add bh, bh ; xor eax, 0x1002FF90 ; call dword [0x10011170] ;  (1 found)
0x10020cfc: add bh, bh ; xor eax, 0x1002FF90 ; call dword [0x10011170] ;  (1 found)
0x1001dc01: add bh, bh ; xor eax, 0x10033CB8 ; call dword [0x100110CC] ;  (1 found)
0x10018767: add bh, bh ; xor eax, 0x10033CB8 ; call dword [0x1001114C] ;  (1 found)
0x1001c4ca: add bh, bh ; xor eax, 0x10033CB8 ; call dword [0x10011188] ;  (1 found)
0x10012a63: add bh, byte [eax+0x00000003] ; ret  ;  (1 found)
0x1001b671: add bh, byte [ebx] ; div dword [edi-0x16] ; pop edi ; pop esi ; ret  ;  (1 found)
0x1002bc57: add bl, al ; nop  ; add byte [eax], al ; ret  ;  (1 found)
0x10012ae5: add bl, al ; push dword [esp+0x04] ; call dword [0x1001107C] ;  (1 found)
0x10017bc7: add bl, ch ; aam 0xC6 ; push es ; add byte [ebx+0x5B5E5FC7], cl ; ret  ;  (1 found)
0x1002008a: add bl, ch ; add al, 0x66 ; mov eax, 0x5E5FFFFF ; mov esp, ebp ; pop ebp ; ret  ;  (1 found)
0x1001b279: add bl, ch ; add dh, byte [ebx] ; rcr byte [edi+0x5E], 0x0000005B ; ret  ;  (1 found)
0x1001d2f4: add bl, ch ; add dh, byte [ebx] ; rcr byte [edi+0x5E], 0x0000005D ; ret  ;  (1 found)
0x100163a3: add bl, ch ; add dh, byte [ebx] ; rcr byte [edi+0x5E], 0xFFFFFF8B ; in eax, 0x5D ; ret  ;  (1 found)
0x10028bdd: add bl, ch ; add eax, 0x000002B8 ; add byte [eax-0x7D], dl ; retn 0x5308 ;  (1 found)
0x10029ea6: add bl, ch ; fcomp st0, st3 ; sub eax, 0x100336AE ; ret  ;  (1 found)
0x1001698b: add bl, ch ; mov al, 0xB8 ; add dword [eax], eax ; add byte [eax], al ; ret  ;  (1 found)
0x1002a105: add bl, ch ; neg ch ; fcomp st0, st5 ; fcomp st0, st1 ; out dx, al ; ret  ;  (1 found)
0x100177bb: add bl, ch ; or dword [eax-0x18], edx ; add byte [eax], al ; add esp, 0x04 ; ret  ;  (1 found)
0x1001779d: add bl, ch ; or dword [eax-0x18], edx ; test al, 0x34 ; add byte [eax], al ; add esp, 0x04 ; ret  ;  (1 found)
0x100224d8: add bl, ch ; push es ; mov eax, dword [ebp-0x20] ; mov dword [ebp-0x08], eax ; push dword [ebp-0x1C] ; call dword [0x10011094] ;  (1 found)
0x1001775a: add bl, ch ; push es ; sub esi, 0x000000A2 ; mov eax, esi ; pop esi ; ret  ;  (1 found)
0x1001699d: add bl, ch ; sahf  ; call dword [0x10011058] ;  (1 found)
0x10024681: add byte [0x3FFFFFFB], al ; cmp eax, 0x01 ; sbb eax, eax ; neg eax ; ret  ;  (1 found)
0x1001668d: add byte [0xE8000000], cl ; xchg byte [ebx-0x0F740001], bh ; call dword [0x10011058] ;  (1 found)
0x100127f1: add byte [eax+0x00000001], bh ; adc eax, 0xFFFFFFFF ; ret  ;  (1 found)
0x1001cd10: add byte [eax+0x00000001], bh ; adc eax, 0xFFFFFFFF ; ret  ;  (1 found)
0x1002312a: add byte [eax+0x0000FFFF], bh ; pop edi ; pop esi ; pop ebx ; ret  ;  (1 found)
0x100252b8: add byte [eax+0x0F], al ; mov dh, 0x4A ; add dword [ebx], edi ; enter 0xF37D, 0x83 ; retn 0x8002 ;  (1 found)
0x1001cfb8: add byte [eax+0x52], dl ; mov eax, dword [0x1002FF98] ; or al, 0x01 ; push eax ; push dword [0x1002FF90] ; call dword [0x10011134] ;  (1 found)
0x1001f866: add byte [eax+0x56], dl ; push 0x00000400 ; push dword [0x1002FF7C] ; call dword [0x10011174] ;  (1 found)
0x1002ba37: add byte [eax+0x61930000], bh ; add byte [eax], al ; mov bl, 0x61 ; add byte [eax], al ; shl byte [eax+eax+0x00], cl ; jmp dword [eax+eax+0x00] ;  (1 found)
0x10021736: add byte [eax+0x68], al ; rcr byte [ecx], 1  ; add dword [eax], edx ; call dword [0x10011150] ;  (1 found)
0x1001f86a: add byte [eax+eax], al ; add bh, bh ; xor eax, 0x1002FF7C ; call dword [0x10011174] ;  (1 found)
0x1001f896: add byte [eax+eax], al ; add bh, bh ; xor eax, 0x1002FF7C ; call dword [0x10011174] ;  (1 found)
0x10018b57: add byte [eax+eax], al ; add byte [eax-0x18], dl ; retn 0x0003 ;  (1 found)
0x10027fe0: add byte [eax+eax], al ; pop esi ; ret  ;  (1 found)
0x1002bc4f: add byte [eax+edx*4+0x00], dl ; add byte [edi-0x70], bl ; add byte [eax], al ; ret  ;  (1 found)
0x10020340: add byte [eax+edx-0x7D], dh ; retn 0x8302 ;  (1 found)
0x1002033f: add byte [eax+edx-0x7D], dh ; retn 0x8302 ;  (1 found)
0x10012f50: add byte [eax-0x00000001], bh ; pop ebx ; mov esp, ebp ; pop ebp ; ret  ;  (1 found)
0x10014469: add byte [eax-0x00000001], bh ; pop edi ; pop esi ; mov esp, ebp ; pop ebp ; ret  ;  (1 found)
0x1001512e: add byte [eax-0x00000001], bh ; pop edi ; pop esi ; pop ebx ; ret  ;  (1 found)
0x1001c62b: add byte [eax-0x00000001], bh ; pop edi ; pop esi ; pop ebx ; ret  ;  (1 found)
0x10015ec3: add byte [eax-0x00000001], bh ; pop esi ; mov esp, ebp ; pop ebp ; ret  ;  (1 found)
0x10020d1c: add byte [eax-0x00000001], bh ; pop esi ; mov esp, ebp ; pop ebp ; ret  ;  (1 found)
0x10016044: add byte [eax-0x00000001], bh ; pop esi ; pop ebp ; ret  ;  (1 found)
0x100160b4: add byte [eax-0x00000001], bh ; pop esi ; ret  ;  (1 found)
0x100153d7: add byte [eax-0x00000001], bh ; ret  ;  (1 found)
0x100160ef: add byte [eax-0x00000001], bh ; ret  ;  (1 found)
0x10019840: add byte [eax-0x00000001], bh ; ret  ;  (1 found)
0x1002133e: add byte [eax-0x18], dl ; inc esp ; mov cl, 0xFF ; jmp dword [ebx+0x1002E0C4] ;  (1 found)
0x10018b5a: add byte [eax-0x18], dl ; retn 0x0003 ;  (1 found)
0x10027a19: add byte [eax-0x2203BA77], al ; inc ebp ; clc  ; mov esp, ebp ; pop ebp ; ret  ;  (1 found)
0x1001a86a: add byte [eax-0x2F7CFEC1], al ; jmp dword [ebx] ;  (1 found)
0x10018b4b: add byte [eax-0x36800000], al ; or byte [ebp+0x6851E045], 0x00000000 ; add al, 0x00 ; add byte [eax-0x18], dl ; retn 0x0003 ;  (1 found)
0x1002c517: add byte [eax-0x46FFFE29], dh ; xlatb  ; add dword [eax], eax ; ret  ;  (1 found)
0x10028be4: add byte [eax-0x7D], dl ; retn 0x5308 ;  (1 found)
0x100127ee: add byte [eax], 0x00000000 ; add byte [eax+0x00000001], bh ; adc eax, 0xFFFFFFFF ; ret  ;  (1 found)
0x100194ae: add byte [eax], 0x00000000 ; add byte [edi+0x6A], al ; add byte [ebp+0x4D8DF445], cl ; call dword [eax-0x75] ;  (1 found)
0x10026387: add byte [eax], 0x00000000 ; add dh, dh ; ret  ;  (1 found)
0x1001937f: add byte [eax], 0x00000000 ; add esp, 0x04 ; mov eax, esi ; pop edi ; pop esi ; ret  ;  (1 found)
0x1001cc52: add byte [eax], 0x00000000 ; ret  ;  (1 found)
0x1001cd0f: add byte [eax], 0xFFFFFFB8 ; add dword [eax], eax ; add byte [eax], al ; adc eax, 0xFFFFFFFF ; ret  ;  (1 found)
0x100155c2: add byte [eax], al ; adc eax, 0xFFFFFFFF ; pop esi ; ret  ;  (1 found)
0x100127f5: add byte [eax], al ; adc eax, 0xFFFFFFFF ; ret  ;  (1 found)
0x1001cd14: add byte [eax], al ; adc eax, 0xFFFFFFFF ; ret  ;  (1 found)
0x10027fdf: add byte [eax], al ; add al, 0x00 ; pop esi ; ret  ;  (1 found)
0x10021718: add byte [eax], al ; add al, al ; push 0x100119D8 ; call dword [0x10011150] ;  (1 found)
0x10012408: add byte [eax], al ; add al, ch ; adc eax, 0x830000F2 ; les eax,  [esi+edx*2] ; call edi ;  (1 found)
0x100214e2: add byte [eax], al ; add al, ch ; add al, 0x00 ; add byte [eax], al ; add esp, 0x04 ; ret  ;  (1 found)
0x1001668f: add byte [eax], al ; add al, ch ; xchg byte [ebx-0x0F740001], bh ; call dword [0x10011058] ;  (1 found)
0x10011cff: add byte [eax], al ; add bh, bh ; adc eax, 0x10011044 ; mov dword [0x10033ECC], eax ; call dword [0x10011040] ;  (1 found)
0x10016918: add byte [eax], al ; add bh, bh ; adc eax, 0x1001111C ; push eax ; call dword [0x10011128] ;  (1 found)
0x10011dcb: add byte [eax], al ; add bh, bh ; adc eax, 0x1002E004 ; add esp, 0x04 ; ret  ;  (1 found)
0x10011ed7: add byte [eax], al ; add bh, bh ; push 0x00000008 ; call edx ;  (1 found)
0x10012ae3: add byte [eax], al ; add bl, al ; push dword [esp+0x04] ; call dword [0x1001107C] ;  (1 found)
0x1001b277: add byte [eax], al ; add bl, ch ; add dh, byte [ebx] ; rcr byte [edi+0x5E], 0x0000005B ; ret  ;  (1 found)
0x1001d2f2: add byte [eax], al ; add bl, ch ; add dh, byte [ebx] ; rcr byte [edi+0x5E], 0x0000005D ; ret  ;  (1 found)
0x100163a1: add byte [eax], al ; add bl, ch ; add dh, byte [ebx] ; rcr byte [edi+0x5E], 0xFFFFFF8B ; in eax, 0x5D ; ret  ;  (1 found)
0x10028bdb: add byte [eax], al ; add bl, ch ; add eax, 0x000002B8 ; add byte [eax-0x7D], dl ; retn 0x5308 ;  (1 found)
0x10016989: add byte [eax], al ; add bl, ch ; mov al, 0xB8 ; add dword [eax], eax ; add byte [eax], al ; ret  ;  (1 found)
0x1001699b: add byte [eax], al ; add bl, ch ; sahf  ; call dword [0x10011058] ;  (1 found)
0x100127ef: add byte [eax], al ; add byte [eax+0x00000001], bh ; adc eax, 0xFFFFFFFF ; ret  ;  (1 found)
0x10023128: add byte [eax], al ; add byte [eax+0x0000FFFF], bh ; pop edi ; pop esi ; pop ebx ; ret  ;  (1 found)
0x10021734: add byte [eax], al ; add byte [eax+0x68], al ; rcr byte [ecx], 1  ; add dword [eax], edx ; call dword [0x10011150] ;  (1 found)
0x10012f4e: add byte [eax], al ; add byte [eax-0x00000001], bh ; pop ebx ; mov esp, ebp ; pop ebp ; ret  ;  (1 found)
0x1001512c: add byte [eax], al ; add byte [eax-0x00000001], bh ; pop edi ; pop esi ; pop ebx ; ret  ;  (1 found)
0x1001c629: add byte [eax], al ; add byte [eax-0x00000001], bh ; pop edi ; pop esi ; pop ebx ; ret  ;  (1 found)
0x10015ec1: add byte [eax], al ; add byte [eax-0x00000001], bh ; pop esi ; mov esp, ebp ; pop ebp ; ret  ;  (1 found)
0x10020d1a: add byte [eax], al ; add byte [eax-0x00000001], bh ; pop esi ; mov esp, ebp ; pop ebp ; ret  ;  (1 found)
0x10016042: add byte [eax], al ; add byte [eax-0x00000001], bh ; pop esi ; pop ebp ; ret  ;  (1 found)
0x100160b2: add byte [eax], al ; add byte [eax-0x00000001], bh ; pop esi ; ret  ;  (1 found)
0x100153d5: add byte [eax], al ; add byte [eax-0x00000001], bh ; ret  ;  (1 found)
0x100160ed: add byte [eax], al ; add byte [eax-0x00000001], bh ; ret  ;  (1 found)
0x1001983e: add byte [eax], al ; add byte [eax-0x00000001], bh ; ret  ;  (1 found)
0x1002133c: add byte [eax], al ; add byte [eax-0x18], dl ; inc esp ; mov cl, 0xFF ; jmp dword [ebx+0x1002E0C4] ;  (1 found)
0x1001a868: add byte [eax], al ; add byte [eax-0x2F7CFEC1], al ; jmp dword [ebx] ;  (1 found)
0x10028be2: add byte [eax], al ; add byte [eax-0x7D], dl ; retn 0x5308 ;  (1 found)
0x100155c0: add byte [eax], al ; add byte [eax], al ; adc eax, 0xFFFFFFFF ; pop esi ; ret  ;  (1 found)
0x10012406: add byte [eax], al ; add byte [eax], al ; add al, ch ; adc eax, 0x830000F2 ; les eax,  [esi+edx*2] ; call edi ;  (1 found)
0x10016040: add byte [eax], al ; add byte [eax], al ; add byte [eax-0x00000001], bh ; pop esi ; pop ebp ; ret  ;  (1 found)
0x100160b0: add byte [eax], al ; add byte [eax], al ; add byte [eax-0x00000001], bh ; pop esi ; ret  ;  (1 found)
0x100160eb: add byte [eax], al ; add byte [eax], al ; add byte [eax-0x00000001], bh ; ret  ;  (1 found)
0x10024758: add byte [eax], al ; add byte [eax], al ; add esp, 0x04 ; xor eax, eax ; pop esi ; ret  ;  (1 found)
0x1002501b: add byte [eax], al ; add byte [eax], al ; add esp, 0x04 ; xor eax, eax ; pop esi ; ret  ;  (1 found)
0x10016041: add byte [eax], al ; add byte [eax], al ; mov eax, 0xFFFFFFFF ; pop esi ; pop ebp ; ret  ;  (1 found)
0x100160b1: add byte [eax], al ; add byte [eax], al ; mov eax, 0xFFFFFFFF ; pop esi ; ret  ;  (1 found)
0x100160ec: add byte [eax], al ; add byte [eax], al ; mov eax, 0xFFFFFFFF ; ret  ;  (1 found)
0x10016a89: add byte [eax], al ; add byte [eax], al ; mov eax, dword [ebp-0x04] ; mov esp, ebp ; pop ebp ; ret  ;  (1 found)
0x1001be07: add byte [eax], al ; add byte [eax], al ; mov eax, edi ; pop edi ; pop esi ; ret  ;  (1 found)
0x10012121: add byte [eax], al ; add byte [eax], al ; mov ecx, dword [0x10033EC8] ; mov dword [0x10033EC0], ecx ; ret  ;  (1 found)
0x10015623: add byte [eax], al ; add byte [eax], al ; pop edi ; pop esi ; pop ebx ; ret  ;  (1 found)
0x100225b9: add byte [eax], al ; add byte [eax], al ; pop esi ; pop ebx ; ret  ;  (1 found)
0x100194c2: add byte [eax], al ; add byte [eax], al ; push 0x00000001 ; push ecx ; push dword [edx] ; call dword [0x1001115C] ;  (1 found)
0x10012c60: add byte [eax], al ; add byte [eax], al ; push dword [esi+0x40] ; call dword [esi+0x3C] ;  (1 found)
0x10013215: add byte [eax], al ; add byte [eax], al ; push eax ; call dword [0x100110B4] ;  (1 found)
0x10025bf4: add byte [eax], al ; add byte [eax], al ; ret  ;  (1 found)
0x10016d5e: add byte [eax], al ; add byte [ebp+0x02], dh ; xor eax, eax ; ret  ;  (1 found)
0x10016d3d: add byte [eax], al ; add byte [ebp+0x02], dh ; xor eax, eax ; ret  ;  (1 found)
0x10016dfa: add byte [eax], al ; add byte [ebp+0x02], dh ; xor eax, eax ; ret  ;  (1 found)
0x1001d315: add byte [eax], al ; add byte [ebp+0x03], dh ; lea eax, dword [edi-0x01] ; pop edi ; leave  ; ret  ;  (1 found)
0x10012840: add byte [eax], al ; add byte [ebp+0x05], dh ; mov eax, 0x00000001 ; pop ebp ; ret  ;  (1 found)
0x10012889: add byte [eax], al ; add byte [ebp+0x05], dh ; mov eax, 0x00000001 ; pop ebp ; ret  ;  (1 found)
0x10027dee: add byte [eax], al ; add byte [ebp+0x05], dh ; mov eax, 0x00000001 ; ret  ;  (1 found)
0x10016722: add byte [eax], al ; add byte [ebp+0x06], dh ; call dword [0x10011058] ;  (1 found)
0x1001682f: add byte [eax], al ; add byte [ebp+0x06], dh ; call dword [0x10011058] ;  (1 found)
0x10018675: add byte [eax], al ; add byte [ebp+0x06], dh ; call dword [0x10011058] ;  (1 found)
0x1001741d: add byte [eax], al ; add byte [ebp+0x06], dh ; call dword [0x10011058] ;  (1 found)
0x1001956c: add byte [eax], al ; add byte [ebp+0x06], dh ; call dword [0x10011058] ;  (1 found)
0x1001b2a8: add byte [eax], al ; add byte [ebp+0x06], dh ; call dword [0x10011058] ;  (1 found)
0x1001dc22: add byte [eax], al ; add byte [ebp+0x06], dh ; call dword [0x10011058] ;  (1 found)
0x100171a6: add byte [eax], al ; add byte [ebp+0x06], dh ; jmp dword [0x10011058] ;  (1 found)
0x10012f86: add byte [eax], al ; add byte [ebp+0x14], dh ; call dword [0x10011058] ;  (1 found)
0x1002579a: add byte [eax], al ; add byte [ebp+0x2B993E04], cl ; retn 0xF8D1 ;  (1 found)
0x1001cbbe: add byte [eax], al ; add byte [ebp+0x5F], bl ; pop esi ; pop ebx ; ret  ;  (1 found)
0x1001e1b6: add byte [eax], al ; add byte [ebp+0x5F], bl ; pop esi ; pop ebx ; ret  ;  (1 found)
0x100144d6: add byte [eax], al ; add byte [ebp+0x6A102444], cl ; add ch, byte [edx+0x01] ; push 0x00000000 ; push eax ; call dword [0x100110C8] ;  (1 found)
0x10016ec5: add byte [eax], al ; add byte [ebp+eax-0x48], dh ; add dword [eax], eax ; add byte [eax], al ; pop ebx ; ret  ;  (1 found)
0x10016c30: add byte [eax], al ; add byte [ebp+eax-0x48], dh ; add dword [eax], eax ; add byte [eax], al ; retn 0x0004 ;  (1 found)
0x1001e293: add byte [eax], al ; add byte [ebp-0x0000877B], cl ; call dword [eax+0x68] ;  (1 found)
0x100149cd: add byte [eax], al ; add byte [ebp-0x0001037B], cl ; call dword [eax-0x01] ;  (1 found)
0x10016209: add byte [eax], al ; add byte [ebp-0x00AF03BB], cl ; xor eax, 0x1002FF44 ; call dword [0x100110A0] ;  (1 found)
0x10012d32: add byte [eax], al ; add byte [ebp-0x00AF07BB], cl ; xor eax, 0x1002FF44 ; call dword [0x100110A0] ;  (1 found)
0x10016302: add byte [eax], al ; add byte [ebp-0x00AF07BB], cl ; xor eax, 0x1002FF44 ; call dword [0x10011100] ;  (1 found)
0x10025be7: add byte [eax], al ; add byte [ebp-0x38F58A40], al ; add eax, 0x1002FF98 ; add byte [eax], al ; add byte [eax], al ; ret  ;  (1 found)
0x100225ae: add byte [eax], al ; add byte [ebx+0x06895F03], cl ; mov dword [esi+0x04], 0x00000000 ; pop esi ; pop ebx ; ret  ;  (1 found)
0x10021613: add byte [eax], al ; add byte [ebx+0x37FF04C4], al ; call dword [0x100111A4] ;  (1 found)
0x10015367: add byte [eax], al ; add byte [ebx+0x438904C4], al ; or byte [ebp-0x00012B7B], cl ; dec dword [ebp-0x00011343] ; call dword [eax-0x18] ;  (1 found)
0x1001700c: add byte [eax], al ; add byte [ebx+0x458B10C4], al ; or al, 0x5D ; ret  ;  (1 found)
0x10025c94: add byte [eax], al ; add byte [ebx+0x56], dl ; push dword [ebp+0x10] ; push dword [ebp+0x0C] ; call dword [0x100111B4] ;  (1 found)
0x10025b37: add byte [eax], al ; add byte [ebx+0x5E5F04C4], al ; pop ebx ; mov esp, ebp ; pop ebp ; ret  ;  (1 found)
0x10012aba: add byte [eax], al ; add byte [ebx+0x5E5F0CC4], al ; pop ebx ; ret  ;  (1 found)
0x1001ed78: add byte [eax], al ; add byte [ebx+0x5E5F10C4], al ; pop ebx ; pop ebp ; ret  ;  (1 found)
0x10028afa: add byte [eax], al ; add byte [ebx+0x5F5D0CC4], al ; pop esi ; pop ebx ; ret  ;  (1 found)
0x10028bed: add byte [eax], al ; add byte [ebx+0x5F5D0CC4], al ; pop esi ; pop ebx ; ret  ;  (1 found)
0x100194a6: add byte [eax], al ; add byte [ebx-0x16FC7707], cl ; add byte [eax], 0x00000000 ; add byte [edi+0x6A], al ; add byte [ebp+0x4D8DF445], cl ; call dword [eax-0x75] ;  (1 found)
0x10016a8a: add byte [eax], al ; add byte [ebx-0x1A7403BB], cl ; pop ebp ; ret  ;  (1 found)
0x10029aa1: add byte [eax], al ; add byte [ebx-0x37], bl ; ret  ;  (1 found)
0x10029ae5: add byte [eax], al ; add byte [ebx-0x37], bl ; ret  ;  (1 found)
0x10029b35: add byte [eax], al ; add byte [ebx-0x37], bl ; ret  ;  (1 found)
0x10026158: add byte [eax], al ; add byte [ebx-0x3974EF3C], al ; pop esi ; mov esp, ebp ; pop ebp ; ret  ;  (1 found)
0x1001be08: add byte [eax], al ; add byte [ebx-0x3CA1A039], cl ; mov eax, dword [esp+0x04] ; mov eax, dword [eax+0x0C] ; and eax, 0x10 ; ret  ;  (1 found)
0x10024759: add byte [eax], al ; add byte [ebx-0x3FCCFB3C], al ; pop esi ; ret  ;  (1 found)
0x1002501c: add byte [eax], al ; add byte [ebx-0x3FCCFB3C], al ; pop esi ; ret  ;  (1 found)
0x100127f4: add byte [eax], al ; add byte [ebx-0x743C0030], al ; inc esp ; and al, 0x04 ; and eax, 0x7F ; ret  ;  (1 found)
0x10012984: add byte [eax], al ; add byte [ebx-0x7AF7DB8C], cl ; div byte [ebp+0x12] ; mov eax, dword [0x1002E148] ; push eax ; call dword [0x10011070] ;  (1 found)
0x100260e7: add byte [eax], al ; add byte [ebx], bh ; fidivr word [esi+ecx-0x75] ; ret  ;  (1 found)
0x100260cf: add byte [eax], al ; add byte [ebx], bh ; fidivr word [esi+ecx-0x75] ; ret  ;  (1 found)
0x1001dd90: add byte [eax], al ; add byte [ebx], ch ; ret  ;  (1 found)
0x100268a7: add byte [eax], al ; add byte [ebx], ch ; retn 0xFFBA ;  (1 found)
0x10025747: add byte [eax], al ; add byte [ebx], dh ; dec dword [ebp+0x2B993E04] ; retn 0xF8D1 ;  (1 found)
0x10016933: add byte [eax], al ; add byte [ebx], dh ; ror byte [ecx+0x4589C845], 0xFFFFFFFC ; lea eax, dword [ebp-0x38] ; push eax ; call dword [0x1001111C] ;  (1 found)
0x10016da4: add byte [eax], al ; add byte [ecx+0x009872FE], al ; add byte [esi+0x02], dh ; xor eax, eax ; pop esi ; ret  ;  (1 found)
0x10016dcf: add byte [eax], al ; add byte [ecx+0x00EA9EFE], al ; add byte [esi+0x02], dh ; xor eax, eax ; pop esi ; ret  ;  (1 found)
0x100267bf: add byte [eax], al ; add byte [ecx+0x031FE283], bl ; retn 0xF8C1 ;  (1 found)
0x10025c68: add byte [eax], al ; add byte [edi+0x57], dl ; push dword [ebp+0x10] ; push dword [ebp+0x0C] ; call dword [0x100111B4] ;  (1 found)
0x100213c7: add byte [eax], al ; add byte [edi+0x5E], bl ; pop ebx ; add esp, 0x04 ; ret  ;  (1 found)
0x10025718: add byte [eax], al ; add byte [edi+0x5E], bl ; pop ebx ; mov esp, ebp ; pop ebp ; ret  ;  (1 found)
0x10012ca9: add byte [eax], al ; add byte [edi+0x5E], bl ; pop ebx ; mov esp, ebp ; pop ebp ; retn 0x0004 ;  (1 found)
0x100246aa: add byte [eax], al ; add byte [edi+0x5E], bl ; pop ebx ; mov esp, ebp ; pop ebp ; retn 0x0004 ;  (1 found)
0x10011dac: add byte [eax], al ; add byte [edi+0x5E], bl ; pop ebx ; mov esp, ebp ; pop ebp ; retn 0x000C ;  (1 found)
0x1001eecf: add byte [eax], al ; add byte [edi+0x5E], bl ; pop ebx ; pop ebp ; ret  ;  (1 found)
0x10015624: add byte [eax], al ; add byte [edi+0x5E], bl ; pop ebx ; ret  ;  (1 found)
0x10026735: add byte [eax], al ; add byte [edi+0x5E], bl ; ret  ;  (1 found)
0x10012424: add byte [eax], al ; add byte [edi+0x5E], bl ; retn 0x0004 ;  (1 found)
0x100194af: add byte [eax], al ; add byte [edi+0x6A], al ; add byte [ebp+0x4D8DF445], cl ; call dword [eax-0x75] ;  (1 found)
0x1001de81: add byte [eax], al ; add byte [edi-0x73], dl ; test dword [edi+edi*8-0x01], ebp ; push dword [ebx] ; call dword [edi+0x57] ;  (1 found)
0x100284e7: add byte [eax], al ; add byte [edi-0x73], dl ; test dword [edi+edi*8-0x01], edi ; call dword [ebx+0x50] ;  (1 found)
0x100194c3: add byte [eax], al ; add byte [edx+0x01], ch ; push ecx ; push dword [edx] ; call dword [0x1001115C] ;  (1 found)
0x10016d80: add byte [eax], al ; add byte [edx+0x02], dh ; xor eax, eax ; ret  ;  (1 found)
0x1002211e: add byte [eax], al ; add byte [edx-0x17], al ; retn 0x0000 ;  (1 found)
0x10016d1c: add byte [eax], al ; add byte [esi+0x02], dh ; xor eax, eax ; ret  ;  (1 found)
0x10025f81: add byte [eax], al ; add byte [esi+0x02], dh ; xor eax, eax ; ret  ;  (1 found)
0x100169d9: add byte [eax], al ; add byte [esi+0x5B], bl ; mov esp, ebp ; pop ebp ; ret  ;  (1 found)
0x100225ba: add byte [eax], al ; add byte [esi+0x5B], bl ; ret  ;  (1 found)
0x1001230f: add byte [eax], al ; add byte [esi+0x68], dl ; mov bh, 0x23 ; add dword [eax], edx ; call dword [0x1001105C] ;  (1 found)
0x10029b72: add byte [eax], al ; add byte [esi-0x75], ah ; test dword [edi+edi*8-0x01], ebx ; jmp dword [esi-0x7D] ;  (1 found)
0x100207ee: add byte [eax], al ; add byte [esi-0x7D], bl ; sar bh, 1  ; and eax, ebx ; pop ebx ; ret  ;  (1 found)
0x1002a9a4: add byte [eax], al ; add ch, bl ; inc ebp ; and byte [ebx-0x1A74FB3C], al ; pop ebp ; ret  ;  (1 found)
0x1002a0f9: add byte [eax], al ; add cl, bl ; leave  ; fstp st0 ; ret  ;  (1 found)
0x100157e3: add byte [eax], al ; add cl, ch ; nop  ; add dword [eax], eax ; add byte [esi-0x00000001], bh ; call dword [0x10011058] ;  (1 found)
0x1001f0f2: add byte [eax], al ; add dh, al ; inc ebp ; jmp dword [edx-0x17] ;  (1 found)
0x10026388: add byte [eax], al ; add dh, dh ; ret  ;  (1 found)
0x10027e94: add byte [eax], al ; add eax, 0x08 ; pop ebp ; ret  ;  (1 found)
0x10012217: add byte [eax], al ; add eax, 0x08 ; ret  ;  (1 found)
0x10012220: add byte [eax], al ; add eax, 0x0C ; ret  ;  (1 found)
0x100125d1: add byte [eax], al ; add eax, 0x48 ; ret  ;  (1 found)
0x100125c8: add byte [eax], al ; add eax, 0x4C ; ret  ;  (1 found)
0x100203ca: add byte [eax], al ; add esp, 0x04 ; lea eax, dword [esi-0x02] ; pop esi ; pop ebp ; ret  ;  (1 found)
0x1001241c: add byte [eax], al ; add esp, 0x04 ; mov eax, 0x00000001 ; pop edi ; pop esi ; retn 0x0004 ;  (1 found)
0x1001241d: add byte [eax], al ; add esp, 0x04 ; mov eax, 0x00000001 ; pop edi ; pop esi ; retn 0x0004 ;  (1 found)
0x1001575b: add byte [eax], al ; add esp, 0x04 ; mov eax, edi ; pop edi ; pop esi ; ret  ;  (1 found)
0x10014f4b: add byte [eax], al ; add esp, 0x04 ; mov eax, edi ; pop edi ; pop esi ; ret  ;  (1 found)
0x1001c533: add byte [eax], al ; add esp, 0x04 ; mov eax, edi ; pop edi ; pop esi ; ret  ;  (1 found)
0x1001ca9b: add byte [eax], al ; add esp, 0x04 ; mov eax, edi ; pop edi ; pop esi ; ret  ;  (1 found)
0x1001324b: add byte [eax], al ; add esp, 0x04 ; mov eax, esi ; pop edi ; pop esi ; ret  ;  (1 found)
0x10012fdf: add byte [eax], al ; add esp, 0x04 ; mov eax, esi ; pop edi ; pop esi ; ret  ;  (1 found)
0x10013159: add byte [eax], al ; add esp, 0x04 ; mov eax, esi ; pop edi ; pop esi ; ret  ;  (1 found)
0x10015583: add byte [eax], al ; add esp, 0x04 ; mov eax, esi ; pop edi ; pop esi ; ret  ;  (1 found)
0x100173ec: add byte [eax], al ; add esp, 0x04 ; mov eax, esi ; pop edi ; pop esi ; ret  ;  (1 found)
0x10019380: add byte [eax], al ; add esp, 0x04 ; mov eax, esi ; pop edi ; pop esi ; ret  ;  (1 found)
0x100197d6: add byte [eax], al ; add esp, 0x04 ; mov eax, esi ; pop edi ; pop esi ; ret  ;  (1 found)
0x1001c677: add byte [eax], al ; add esp, 0x04 ; mov eax, esi ; pop edi ; pop esi ; ret  ;  (1 found)
0x1001b7b7: add byte [eax], al ; add esp, 0x04 ; mov eax, esi ; pop edi ; pop esi ; ret  ;  (1 found)
0x1001fec7: add byte [eax], al ; add esp, 0x04 ; mov eax, esi ; pop edi ; pop esi ; ret  ;  (1 found)
0x100161aa: add byte [eax], al ; add esp, 0x04 ; mov eax, esi ; pop esi ; ret  ;  (1 found)
0x100161ca: add byte [eax], al ; add esp, 0x04 ; mov eax, esi ; pop esi ; ret  ;  (1 found)
0x100162d4: add byte [eax], al ; add esp, 0x04 ; mov eax, esi ; pop esi ; ret  ;  (1 found)
0x100163cc: add byte [eax], al ; add esp, 0x04 ; mov eax, esi ; pop esi ; ret  ;  (1 found)
0x10016525: add byte [eax], al ; add esp, 0x04 ; mov eax, esi ; pop esi ; ret  ;  (1 found)
0x100164f6: add byte [eax], al ; add esp, 0x04 ; mov eax, esi ; pop esi ; ret  ;  (1 found)
0x1001907d: add byte [eax], al ; add esp, 0x04 ; mov eax, esi ; pop esi ; ret  ;  (1 found)
0x100190e1: add byte [eax], al ; add esp, 0x04 ; mov eax, esi ; pop esi ; ret  ;  (1 found)
0x1001d033: add byte [eax], al ; add esp, 0x04 ; mov eax, esi ; pop esi ; ret  ;  (1 found)
0x1001d1dd: add byte [eax], al ; add esp, 0x04 ; mov eax, esi ; pop esi ; ret  ;  (1 found)
0x1001c9cb: add byte [eax], al ; add esp, 0x04 ; mov eax, esi ; pop esi ; ret  ;  (1 found)
0x1001dcc7: add byte [eax], al ; add esp, 0x04 ; mov eax, esi ; pop esi ; ret  ;  (1 found)
0x10020a1f: add byte [eax], al ; add esp, 0x04 ; mov eax, esi ; pop esi ; ret  ;  (1 found)
0x10020c9d: add byte [eax], al ; add esp, 0x04 ; mov eax, esi ; pop esi ; ret  ;  (1 found)
0x10020d9a: add byte [eax], al ; add esp, 0x04 ; mov eax, esi ; pop esi ; ret  ;  (1 found)
0x1001320e: add byte [eax], al ; add esp, 0x04 ; mov esi, 0x00000000 ; push eax ; call dword [0x100110B4] ;  (1 found)
0x1001320f: add byte [eax], al ; add esp, 0x04 ; mov esi, 0x00000000 ; push eax ; call dword [0x100110B4] ;  (1 found)
0x1001dc96: add byte [eax], al ; add esp, 0x04 ; pop edi ; pop esi ; pop ebx ; ret  ;  (1 found)
0x1001bcb7: add byte [eax], al ; add esp, 0x04 ; pop edi ; pop esi ; ret  ;  (1 found)
0x1001d8f1: add byte [eax], al ; add esp, 0x04 ; pop edi ; ret  ;  (1 found)
0x10012a05: add byte [eax], al ; add esp, 0x04 ; push 0x00000000 ; mov eax, dword [0x1002E148] ; push eax ; call dword [0x10011064] ;  (1 found)
0x10011dc4: add byte [eax], al ; add esp, 0x04 ; push 0x000000FF ; call dword [0x1002E004] ;  (1 found)
0x100157aa: add byte [eax], al ; add esp, 0x04 ; push dword [0x1002F4C0+edi*4] ; call dword [0x100110E4] ;  (1 found)
0x10018da0: add byte [eax], al ; add esp, 0x04 ; push dword [ebp-0x24] ; call dword [0x10011094] ;  (1 found)
0x10021614: add byte [eax], al ; add esp, 0x04 ; push dword [edi] ; call dword [0x100111A4] ;  (1 found)
0x10012df3: add byte [eax], al ; add esp, 0x04 ; push dword [esp+0x14] ; call dword [0x100110A8] ;  (1 found)
0x10013191: add byte [eax], al ; add esp, 0x04 ; push eax ; call dword [0x10011094] ;  (1 found)
0x100130c3: add byte [eax], al ; add esp, 0x04 ; push eax ; call dword [0x100110B0] ;  (1 found)
0x10014627: add byte [eax], al ; add esp, 0x04 ; push eax ; call dword [0x100110C8] ;  (1 found)
0x100144ef: add byte [eax], al ; add esp, 0x04 ; push eax ; call dword [0x100110C8] ;  (1 found)
0x10015ea4: add byte [eax], al ; add esp, 0x04 ; push eax ; call dword [0x100110EC] ;  (1 found)
0x1001240d: add byte [eax], al ; add esp, 0x04 ; push esi ; call edi ;  (1 found)
0x1001240e: add byte [eax], al ; add esp, 0x04 ; push esi ; call edi ;  (1 found)
0x10011ddf: add byte [eax], al ; add esp, 0x04 ; ret  ;  (1 found)
0x10011dec: add byte [eax], al ; add esp, 0x04 ; ret  ;  (1 found)
0x1001203b: add byte [eax], al ; add esp, 0x04 ; ret  ;  (1 found)
0x10012030: add byte [eax], al ; add esp, 0x04 ; ret  ;  (1 found)
0x10015630: add byte [eax], al ; add esp, 0x04 ; ret  ;  (1 found)
0x10015077: add byte [eax], al ; add esp, 0x04 ; ret  ;  (1 found)
0x1001508a: add byte [eax], al ; add esp, 0x04 ; ret  ;  (1 found)
0x100177a4: add byte [eax], al ; add esp, 0x04 ; ret  ;  (1 found)
0x100177c1: add byte [eax], al ; add esp, 0x04 ; ret  ;  (1 found)
0x100177c2: add byte [eax], al ; add esp, 0x04 ; ret  ;  (1 found)
0x100177c0: add byte [eax], al ; add esp, 0x04 ; ret  ;  (1 found)
0x1001afe3: add byte [eax], al ; add esp, 0x04 ; ret  ;  (1 found)
0x1001afe4: add byte [eax], al ; add esp, 0x04 ; ret  ;  (1 found)
0x1001afca: add byte [eax], al ; add esp, 0x04 ; ret  ;  (1 found)
0x1001afc9: add byte [eax], al ; add esp, 0x04 ; ret  ;  (1 found)
0x100214e8: add byte [eax], al ; add esp, 0x04 ; ret  ;  (1 found)
0x1002475a: add byte [eax], al ; add esp, 0x04 ; xor eax, eax ; pop esi ; ret  ;  (1 found)
0x1002501d: add byte [eax], al ; add esp, 0x04 ; xor eax, eax ; pop esi ; ret  ;  (1 found)
0x1002893c: add byte [eax], al ; add esp, 0x08 ; pop esi ; pop ebp ; ret  ;  (1 found)
0x10011f5a: add byte [eax], al ; add esp, 0x08 ; ret  ;  (1 found)
0x10013ade: add byte [eax], al ; add esp, 0x08 ; ret  ;  (1 found)
0x10013261: add byte [eax], al ; add esp, 0x08 ; ret  ;  (1 found)
0x1001571c: add byte [eax], al ; add esp, 0x08 ; ret  ;  (1 found)
0x100156fd: add byte [eax], al ; add esp, 0x08 ; ret  ;  (1 found)
0x10017323: add byte [eax], al ; add esp, 0x08 ; ret  ;  (1 found)
0x100172e8: add byte [eax], al ; add esp, 0x08 ; ret  ;  (1 found)
0x1001d62b: add byte [eax], al ; add esp, 0x08 ; ret  ;  (1 found)
0x10027ec0: add byte [eax], al ; add esp, 0x08 ; ret  ;  (1 found)
0x10027eaa: add byte [eax], al ; add esp, 0x08 ; ret  ;  (1 found)
0x1002849e: add byte [eax], al ; add esp, 0x0C ; lea eax, dword [ebp-0x00000094] ; and byte [ebp-0x44], 0xFFFFFFFE ; push eax ; call dword [ebp+0x10] ;  (1 found)
0x1002863c: add byte [eax], al ; add esp, 0x0C ; lea eax, dword [ebp-0x00000094] ; push eax ; call dword [ebp+0x10] ;  (1 found)
0x1001e652: add byte [eax], al ; add esp, 0x0C ; pop edi ; mov esp, ebp ; pop ebp ; ret  ;  (1 found)
0x10012abb: add byte [eax], al ; add esp, 0x0C ; pop edi ; pop esi ; pop ebx ; ret  ;  (1 found)
0x10011f7c: add byte [eax], al ; add esp, 0x0C ; ret  ;  (1 found)
0x10011f6b: add byte [eax], al ; add esp, 0x0C ; ret  ;  (1 found)
0x10011f8b: add byte [eax], al ; add esp, 0x0C ; ret  ;  (1 found)
0x10011f9a: add byte [eax], al ; add esp, 0x0C ; ret  ;  (1 found)
0x10013acc: add byte [eax], al ; add esp, 0x0C ; ret  ;  (1 found)
0x10014a7e: add byte [eax], al ; add esp, 0x0C ; ret  ;  (1 found)
0x10014ccd: add byte [eax], al ; add esp, 0x0C ; ret  ;  (1 found)
0x10027a34: add byte [eax], al ; add esp, 0x0C ; ret  ;  (1 found)
0x1001700d: add byte [eax], al ; add esp, 0x10 ; mov eax, dword [ebp+0x0C] ; pop ebp ; ret  ;  (1 found)
0x10018786: add byte [eax], al ; add esp, 0x10 ; ret  ;  (1 found)
0x10019ad1: add byte [eax], al ; add esp, 0x10 ; ret  ;  (1 found)
0x10019d2b: add byte [eax], al ; add esp, 0x10 ; ret  ;  (1 found)
0x1001dcef: add byte [eax], al ; add esp, 0x10 ; ret  ;  (1 found)
0x1001f583: add byte [eax], al ; add esp, 0x10 ; ret  ;  (1 found)
0x1002080a: add byte [eax], al ; add esp, 0x10 ; ret  ;  (1 found)
0x100279d7: add byte [eax], al ; add esp, 0x18 ; pop esi ; mov esp, ebp ; pop ebp ; ret  ;  (1 found)
0x10027da9: add byte [eax], al ; add esp, 0x18 ; pop esi ; mov esp, ebp ; pop ebp ; ret  ;  (1 found)
0x1001a274: add byte [eax], al ; add esp, 0x18 ; push ebx ; mov dword [edi+0x1C], eax ; call dword [0x100110D8] ;  (1 found)
0x100295d0: add byte [eax], al ; add esp, 0x1C ; pop esi ; mov esp, ebp ; pop ebp ; ret  ;  (1 found)
0x1002943c: add byte [eax], al ; add esp, 0x1C ; pop esi ; mov esp, ebp ; pop ebp ; ret  ;  (1 found)
0x10011d00: add byte [eax], al ; call dword [0x10011044] ;  (1 found)
0x1001d0c4: add byte [eax], al ; call dword [0x10011058] ;  (1 found)
0x10020ad7: add byte [eax], al ; call dword [0x10011058] ;  (1 found)
0x1001289a: add byte [eax], al ; call dword [0x10011068] ;  (1 found)
0x10012eaa: add byte [eax], al ; call dword [0x100110A4] ;  (1 found)
0x100166ca: add byte [eax], al ; call dword [0x100110A4] ;  (1 found)
0x10018b95: add byte [eax], al ; call dword [0x100110C8] ;  (1 found)
0x10016919: add byte [eax], al ; call dword [0x1001111C] ;  (1 found)
0x1002555b: add byte [eax], al ; call dword [0x100111BC] ;  (1 found)
0x10011dcc: add byte [eax], al ; call dword [0x1002E004] ;  (1 found)
0x1001728c: add byte [eax], al ; dec ebx ; call dword [0x10011080] ;  (1 found)
0x1002a22e: add byte [eax], al ; fld qword [ebp+0x0C] ; add esp, 0x08 ; pop ebp ; ret  ;  (1 found)
0x1002a9a5: add byte [eax], al ; fld qword [ebp+0x20] ; add esp, 0x04 ; mov esp, ebp ; pop ebp ; ret  ;  (1 found)
0x1002a28d: add byte [eax], al ; fld qword [ebp-0x08] ; add esp, 0x08 ; mov esp, ebp ; pop ebp ; ret  ;  (1 found)
0x10029d8f: add byte [eax], al ; fstp st0 ; fld tword [0x100336A4] ; ret  ;  (1 found)
0x10029a3e: add byte [eax], al ; fstp st0 ; fld tword [0x1003379A] ; ret  ;  (1 found)
0x10029e72: add byte [eax], al ; fstp st0 ; fstp st0 ; fld tword [0x100336A4] ; mov byte [ebp-0x00000090], 0x00000002 ; ret  ;  (1 found)
0x10029f39: add byte [eax], al ; fstp st0 ; fstp st0 ; fld tword [0x100336A4] ; mov byte [ebp-0x00000090], 0x00000003 ; ret  ;  (1 found)
0x10029d5b: add byte [eax], al ; fsubp st1, st0 ; fdivrp st1, st0 ; ret  ;  (1 found)
0x1002a0fa: add byte [eax], al ; fxch st0, st1 ; fstp st0 ; ret  ;  (1 found)
0x10021735: add byte [eax], al ; inc eax ; push 0x100119D0 ; call dword [0x10011150] ;  (1 found)
0x100132da: add byte [eax], al ; jmp dword [0x10013938+eax*4] ;  (1 found)
0x100217e0: add byte [eax], al ; jmp dword [0x10021E56+eax*4] ;  (1 found)
0x100228bf: add byte [eax], al ; jmp dword [0x10022F2D+eax*4] ;  (1 found)
0x10026bb7: add byte [eax], al ; jmp dword [0x1002718E+eax*4] ;  (1 found)
0x1002ba46: add byte [eax], al ; jmp dword [eax+eax+0x00] ;  (1 found)
0x10019240: add byte [eax], al ; lea eax, dword [eax+0x01] ; and ecx, eax ; push ecx ; push ebx ; call dword [0x10011158] ;  (1 found)
0x10011c78: add byte [eax], al ; lea eax, dword [ebp-0x00000104] ; push eax ; inc dword [0x1002E000] ; push dword [ebp+0x08] ; call dword [0x1001104C] ;  (1 found)
0x1001620a: add byte [eax], al ; lea eax, dword [ebp-0x04] ; push eax ; push dword [0x1002FF44] ; call dword [0x100110A0] ;  (1 found)
0x10012d33: add byte [eax], al ; lea eax, dword [ebp-0x08] ; push eax ; push dword [0x1002FF44] ; call dword [0x100110A0] ;  (1 found)
0x10016303: add byte [eax], al ; lea eax, dword [ebp-0x08] ; push eax ; push dword [0x1002FF44] ; call dword [0x10011100] ;  (1 found)
0x1001a1a0: add byte [eax], al ; lea eax, dword [ebp-0x10] ; lea ecx, dword [ebp-0x00000140] ; push eax ; push ecx ; call dword [0x100110DC] ;  (1 found)
0x1001bf4b: add byte [eax], al ; mov ax, si ; add esp, 0x04 ; pop edi ; pop esi ; ret  ;  (1 found)
0x1001c1dd: add byte [eax], al ; mov ax, si ; add esp, 0x04 ; pop edi ; pop esi ; ret  ;  (1 found)
0x1001ff7a: add byte [eax], al ; mov ax, si ; add esp, 0x04 ; pop edi ; pop esi ; ret  ;  (1 found)
0x1001fdcf: add byte [eax], al ; mov ax, word [ebp-0x02] ; add esp, 0x04 ; mov esp, ebp ; pop ebp ; ret  ;  (1 found)
0x1001fe89: add byte [eax], al ; mov ax, word [ebp-0x02] ; add esp, 0x04 ; mov esp, ebp ; pop ebp ; ret  ;  (1 found)
0x1002ba3e: add byte [eax], al ; mov bl, 0x61 ; add byte [eax], al ; shl byte [eax+eax+0x00], cl ; jmp dword [eax+eax+0x00] ;  (1 found)
0x1001220a: add byte [eax], al ; mov dword [eax], 0x00000016 ; pop esi ; ret  ;  (1 found)
0x10018b8e: add byte [eax], al ; mov dword [ebp-0x2C], 0x00000001 ; call dword [0x100110C8] ;  (1 found)
0x100127f0: add byte [eax], al ; mov eax, 0x00000001 ; adc eax, 0xFFFFFFFF ; ret  ;  (1 found)
0x10023129: add byte [eax], al ; mov eax, 0x0000FFFF ; pop edi ; pop esi ; pop ebx ; ret  ;  (1 found)
0x10012f4f: add byte [eax], al ; mov eax, 0xFFFFFFFF ; pop ebx ; mov esp, ebp ; pop ebp ; ret  ;  (1 found)
0x1001512d: add byte [eax], al ; mov eax, 0xFFFFFFFF ; pop edi ; pop esi ; pop ebx ; ret  ;  (1 found)
0x1001c62a: add byte [eax], al ; mov eax, 0xFFFFFFFF ; pop edi ; pop esi ; pop ebx ; ret  ;  (1 found)
0x10015ec2: add byte [eax], al ; mov eax, 0xFFFFFFFF ; pop esi ; mov esp, ebp ; pop ebp ; ret  ;  (1 found)
0x10020d1b: add byte [eax], al ; mov eax, 0xFFFFFFFF ; pop esi ; mov esp, ebp ; pop ebp ; ret  ;  (1 found)
0x10016043: add byte [eax], al ; mov eax, 0xFFFFFFFF ; pop esi ; pop ebp ; ret  ;  (1 found)
0x100160b3: add byte [eax], al ; mov eax, 0xFFFFFFFF ; pop esi ; ret  ;  (1 found)
0x100153d6: add byte [eax], al ; mov eax, 0xFFFFFFFF ; ret  ;  (1 found)
0x100160ee: add byte [eax], al ; mov eax, 0xFFFFFFFF ; ret  ;  (1 found)
0x1001983f: add byte [eax], al ; mov eax, 0xFFFFFFFF ; ret  ;  (1 found)
0x1001b288: add byte [eax], al ; mov eax, dword [0x1002E088] ; mov ecx, dword [esp+0x04] ; mov dword [0x1002E088], ecx ; ret  ;  (1 found)
0x10016a8b: add byte [eax], al ; mov eax, dword [ebp-0x04] ; mov esp, ebp ; pop ebp ; ret  ;  (1 found)
0x1001be09: add byte [eax], al ; mov eax, edi ; pop edi ; pop esi ; ret  ;  (1 found)
0x10017761: add byte [eax], al ; mov eax, esi ; pop esi ; ret  ;  (1 found)
0x1002b9e6: add byte [eax], al ; mov ebx, 0xBA000051 ; push ebx ; add byte [eax], al ; ret  ;  (1 found)
0x1002a060: add byte [eax], al ; mov ebx, edx ; add ebx, eax ; add ebx, 0x10 ; jmp dword [ebx] ;  (1 found)
0x1002a0ec: add byte [eax], al ; mov ebx, edx ; add ebx, eax ; add ebx, 0x10 ; jmp dword [ebx] ;  (1 found)
0x10012123: add byte [eax], al ; mov ecx, dword [0x10033EC8] ; mov dword [0x10033EC0], ecx ; ret  ;  (1 found)
0x100271d7: add byte [eax], al ; mov ecx, dword [esp+0x10] ; mov dword [ecx], esi ; pop esi ; ret  ;  (1 found)
0x10020dae: add byte [eax], al ; mov esi, 0x10033950 ; push esi ; push 0x00000000 ; call dword [0x1001104C] ;  (1 found)
0x10021006: add byte [eax], al ; mov esi, 0x10033A58 ; push esi ; push 0x00000000 ; call dword [0x1001104C] ;  (1 found)
0x100157e9: add byte [eax], al ; mov esi, 0xFFFFFFFF ; call dword [0x10011058] ;  (1 found)
0x100146ee: add byte [eax], al ; mov esp, ebp ; pop ebp ; ret  ;  (1 found)
0x1001471d: add byte [eax], al ; mov esp, ebp ; pop ebp ; ret  ;  (1 found)
0x1001542f: add byte [eax], al ; mov esp, ebp ; pop ebp ; ret  ;  (1 found)
0x1001b950: add byte [eax], al ; mov esp, ebp ; pop ebp ; ret  ;  (1 found)
0x1001b97d: add byte [eax], al ; mov esp, ebp ; pop ebp ; ret  ;  (1 found)
0x1001f9a4: add byte [eax], al ; mov esp, ebp ; pop ebp ; ret  ;  (1 found)
0x1002775a: add byte [eax], al ; mov esp, ebp ; pop ebp ; ret  ;  (1 found)
0x10027740: add byte [eax], al ; mov esp, ebp ; pop ebp ; ret  ;  (1 found)
0x10029353: add byte [eax], al ; mov esp, ebp ; pop ebp ; ret  ;  (1 found)
0x10015e2f: add byte [eax], al ; mov word [ebp-0x04], ax ; call dword [0x100110F0] ;  (1 found)
0x10015e84: add byte [eax], al ; mov word [ebp-0x04], ax ; call dword [0x100110F0] ;  (1 found)
0x10028756: add byte [eax], al ; movzx eax, byte [eax+0x100288E9] ; jmp dword [0x100288B5+eax*4] ;  (1 found)
0x100167cb: add byte [eax], al ; movzx eax, word [ebp-0x02] ; add esp, 0x04 ; mov esp, ebp ; pop ebp ; ret  ;  (1 found)
0x10013473: add byte [eax], al ; movzx ecx, byte [eax+0x1001399C] ; jmp dword [0x10013958+ecx*4] ;  (1 found)
0x1001e9e2: add byte [eax], al ; movzx ecx, byte [eax+0x1001EDE3] ; jmp dword [0x1001ED83+ecx*4] ;  (1 found)
0x1002197f: add byte [eax], al ; movzx ecx, byte [eax+0x10021EBA] ; jmp dword [0x10021E76+ecx*4] ;  (1 found)
0x10022a21: add byte [eax], al ; movzx ecx, byte [eax+0x10022F91] ; jmp dword [0x10022F4D+ecx*4] ;  (1 found)
0x10028957: add byte [eax], al ; movzx ecx, byte [eax+0x10028A72] ; jmp dword [0x10028A46+ecx*4] ;  (1 found)
0x100280b3: add byte [eax], al ; or byte [eax], al ; ret  ;  (1 found)
0x10027a18: add byte [eax], al ; or byte [ecx+0x45DDFC45], 0xFFFFFFF8 ; mov esp, ebp ; pop ebp ; ret  ;  (1 found)
0x1001cbbf: add byte [eax], al ; pop ebp ; pop edi ; pop esi ; pop ebx ; ret  ;  (1 found)
0x1001e1b7: add byte [eax], al ; pop ebp ; pop edi ; pop esi ; pop ebx ; ret  ;  (1 found)
0x10012848: add byte [eax], al ; pop ebp ; ret  ;  (1 found)
0x10012891: add byte [eax], al ; pop ebp ; ret  ;  (1 found)
0x10029aa2: add byte [eax], al ; pop ebx ; leave  ; ret  ;  (1 found)
0x10029ae6: add byte [eax], al ; pop ebx ; leave  ; ret  ;  (1 found)
0x10029b36: add byte [eax], al ; pop ebx ; leave  ; ret  ;  (1 found)
0x10016ecd: add byte [eax], al ; pop ebx ; ret  ;  (1 found)
0x1002bc52: add byte [eax], al ; pop edi ; nop  ; add byte [eax], al ; ret  ;  (1 found)
0x100204b8: add byte [eax], al ; pop edi ; pop esi ; pop ebp ; ret  ;  (1 found)
0x100213c8: add byte [eax], al ; pop edi ; pop esi ; pop ebx ; add esp, 0x04 ; ret  ;  (1 found)
0x1001eed0: add byte [eax], al ; pop edi ; pop esi ; pop ebx ; pop ebp ; ret  ;  (1 found)
0x10015625: add byte [eax], al ; pop edi ; pop esi ; pop ebx ; ret  ;  (1 found)
0x1002312e: add byte [eax], al ; pop edi ; pop esi ; pop ebx ; ret  ;  (1 found)
0x10026736: add byte [eax], al ; pop edi ; pop esi ; ret  ;  (1 found)
0x10012425: add byte [eax], al ; pop edi ; pop esi ; retn 0x0004 ;  (1 found)
0x100179d3: add byte [eax], al ; pop edx ; pop edx ; pop edi ; leave  ; ret  ;  (1 found)
0x1001a4a3: add byte [eax], al ; pop edx ; pop edx ; pop edi ; leave  ; ret  ;  (1 found)
0x100207ef: add byte [eax], al ; pop esi ; adc eax, 0xFFFFFFFF ; and eax, ebx ; pop ebx ; ret  ;  (1 found)
0x100169da: add byte [eax], al ; pop esi ; pop ebx ; mov esp, ebp ; pop ebp ; ret  ;  (1 found)
0x100225bb: add byte [eax], al ; pop esi ; pop ebx ; ret  ;  (1 found)
0x10012210: add byte [eax], al ; pop esi ; ret  ;  (1 found)
0x10012b82: add byte [eax], al ; pop esi ; ret  ;  (1 found)
0x10020363: add byte [eax], al ; pop esi ; ret  ;  (1 found)
0x100194c4: add byte [eax], al ; push 0x00000001 ; push ecx ; push dword [edx] ; call dword [0x1001115C] ;  (1 found)
0x10018c0b: add byte [eax], al ; push dword [0x1002F4C0+esi*4] ; call dword [0x10011094] ;  (1 found)
0x1001f86c: add byte [eax], al ; push dword [0x1002FF7C] ; call dword [0x10011174] ;  (1 found)
0x1001f898: add byte [eax], al ; push dword [0x1002FF7C] ; call dword [0x10011174] ;  (1 found)
0x1001ad78: add byte [eax], al ; push dword [0x1002FF80] ; call dword [0x10011174] ;  (1 found)
0x1001af24: add byte [eax], al ; push dword [0x1002FF80] ; call dword [0x10011174] ;  (1 found)
0x1001fdaa: add byte [eax], al ; push dword [0x1002FF80] ; call dword [0x10011174] ;  (1 found)
0x1001fe64: add byte [eax], al ; push dword [0x1002FF80] ; call dword [0x10011174] ;  (1 found)
0x1001adaa: add byte [eax], al ; push dword [0x1002FF90] ; call dword [0x10011170] ;  (1 found)
0x1001c228: add byte [eax], al ; push dword [0x1002FF90] ; call dword [0x10011170] ;  (1 found)
0x1001af56: add byte [eax], al ; push dword [0x1002FF90] ; call dword [0x10011170] ;  (1 found)
0x1001fff6: add byte [eax], al ; push dword [0x1002FF90] ; call dword [0x10011170] ;  (1 found)
0x10020aa9: add byte [eax], al ; push dword [0x1002FF90] ; call dword [0x10011170] ;  (1 found)
0x10020cfb: add byte [eax], al ; push dword [0x1002FF90] ; call dword [0x10011170] ;  (1 found)
0x100252f6: add byte [eax], al ; push dword [ebp-0x04] ; push 0x00000001 ; call dword [0x10011130] ;  (1 found)
0x1002532d: add byte [eax], al ; push dword [ebp-0x04] ; push 0x00000001 ; call dword [0x10011130] ;  (1 found)
0x10012c62: add byte [eax], al ; push dword [esi+0x40] ; call dword [esi+0x3C] ;  (1 found)
0x10011ed8: add byte [eax], al ; push dword [esi] ; push 0x00000008 ; call edx ;  (1 found)
0x10013217: add byte [eax], al ; push eax ; call dword [0x100110B4] ;  (1 found)
0x10020b86: add byte [eax], al ; push eax ; call dword [0x10011170] ;  (1 found)
0x1001b530: add byte [eax], al ; push eax ; call dword [0x10011174] ;  (1 found)
0x1001b561: add byte [eax], al ; push eax ; call dword [0x10011174] ;  (1 found)
0x1001b707: add byte [eax], al ; push eax ; call dword [0x10011174] ;  (1 found)
0x1001b738: add byte [eax], al ; push eax ; call dword [0x10011174] ;  (1 found)
0x10025c95: add byte [eax], al ; push ebx ; push esi ; push dword [ebp+0x10] ; push dword [ebp+0x0C] ; call dword [0x100111B4] ;  (1 found)
0x100256a4: add byte [eax], al ; push ecx ; call dword [0x100111B4] ;  (1 found)
0x100189a9: add byte [eax], al ; push edi ; call dword [0x100110E4] ;  (1 found)
0x1001c496: add byte [eax], al ; push edi ; mov eax, dword [0x10033CB8] ; push 0x00000000 ; push eax ; call dword [0x10011184] ;  (1 found)
0x1001bc59: add byte [eax], al ; push edi ; mov eax, dword [0x10033CB8] ; push 0x00000008 ; push eax ; call dword [0x10011184] ;  (1 found)
0x10025c69: add byte [eax], al ; push edi ; push edi ; push dword [ebp+0x10] ; push dword [ebp+0x0C] ; call dword [0x100111B4] ;  (1 found)
0x100256d7: add byte [eax], al ; push edx ; call dword [0x100111B4] ;  (1 found)
0x100252d7: add byte [eax], al ; push esi ; mov eax, dword [0x1002FF90] ; push ebx ; push eax ; call dword [0x10011134] ;  (1 found)
0x10012310: add byte [eax], al ; push esi ; push 0x100123B7 ; call dword [0x1001105C] ;  (1 found)
0x10025c49: add byte [eax], al ; push esi ; push dword [ebp+0x10] ; push dword [ebp+0x0C] ; call dword [0x100111B4] ;  (1 found)
0x10012607: add byte [eax], al ; ret  ;  (1 found)
0x100126c4: add byte [eax], al ; ret  ;  (1 found)
0x100127b9: add byte [eax], al ; ret  ;  (1 found)
0x10012753: add byte [eax], al ; ret  ;  (1 found)
0x10012786: add byte [eax], al ; ret  ;  (1 found)
0x10012a67: add byte [eax], al ; ret  ;  (1 found)
0x10012ae4: add byte [eax], al ; ret  ;  (1 found)
0x10012ed5: add byte [eax], al ; ret  ;  (1 found)
0x10016991: add byte [eax], al ; ret  ;  (1 found)
0x10016caa: add byte [eax], al ; ret  ;  (1 found)
0x10016b88: add byte [eax], al ; ret  ;  (1 found)
0x10016ba7: add byte [eax], al ; ret  ;  (1 found)
0x10016bc9: add byte [eax], al ; ret  ;  (1 found)
0x10016b96: add byte [eax], al ; ret  ;  (1 found)
0x10016b7a: add byte [eax], al ; ret  ;  (1 found)
0x10016bb8: add byte [eax], al ; ret  ;  (1 found)
0x10016c07: add byte [eax], al ; ret  ;  (1 found)
0x10016bda: add byte [eax], al ; ret  ;  (1 found)
0x10016beb: add byte [eax], al ; ret  ;  (1 found)
0x10016bf9: add byte [eax], al ; ret  ;  (1 found)
0x1001cc53: add byte [eax], al ; ret  ;  (1 found)
0x1002573f: add byte [eax], al ; ret  ;  (1 found)
0x10025bf6: add byte [eax], al ; ret  ;  (1 found)
0x10025e80: add byte [eax], al ; ret  ;  (1 found)
0x10026877: add byte [eax], al ; ret  ;  (1 found)
0x10027df6: add byte [eax], al ; ret  ;  (1 found)
0x10027f3e: add byte [eax], al ; ret  ;  (1 found)
0x10028b20: add byte [eax], al ; ret  ;  (1 found)
0x10028b38: add byte [eax], al ; ret  ;  (1 found)
0x1002a000: add byte [eax], al ; ret  ;  (1 found)
0x10029fc0: add byte [eax], al ; ret  ;  (1 found)
0x1002a9dc: add byte [eax], al ; ret  ;  (1 found)
0x1002b9ee: add byte [eax], al ; ret  ;  (1 found)
0x1002bc56: add byte [eax], al ; ret  ;  (1 found)
0x1002bc5a: add byte [eax], al ; ret  ;  (1 found)
0x10016c38: add byte [eax], al ; retn 0x0004 ;  (1 found)
0x10028469: add byte [eax], al ; sal byte [eax+ebp*2-0x17], 0xFFFFFFF3 ; add dword [eax], eax ; add byte [edi-0x73], dl ; test dword [edi+edi*8-0x01], edi ; call dword [ebx+0x50] ;  (1 found)
0x1002ba42: add byte [eax], al ; shl byte [eax+eax+0x00], cl ; jmp dword [eax+eax+0x00] ;  (1 found)
0x10021719: add byte [eax], al ; shr byte [eax-0x28], 0x00000019 ; add dword [eax], edx ; call dword [0x10011150] ;  (1 found)
0x1001bce4: add byte [eax], al ; sub ecx, eax ; movzx eax, word [esp+0x04] ; add eax, ecx ; add esp, 0x0C ; ret  ;  (1 found)
0x10018b83: add byte [eax], al ; xor edi, edi ; mov ebx, esi ; mov dword [ebp-0x28], 0x00000001 ; mov dword [ebp-0x2C], 0x00000001 ; call dword [0x100110C8] ;  (1 found)
0x100164ca: add byte [ebp+0x02], dh ; xor eax, eax ; pop edi ; pop esi ; ret  ;  (1 found)
0x10016d60: add byte [ebp+0x02], dh ; xor eax, eax ; ret  ;  (1 found)
0x10016d3f: add byte [ebp+0x02], dh ; xor eax, eax ; ret  ;  (1 found)
0x10016dfc: add byte [ebp+0x02], dh ; xor eax, eax ; ret  ;  (1 found)
0x1001d317: add byte [ebp+0x03], dh ; lea eax, dword [edi-0x01] ; pop edi ; leave  ; ret  ;  (1 found)
0x10012aad: add byte [ebp+0x04], dh ; call dword [ebx+esi*4+0x08] ;  (1 found)
0x1001288b: add byte [ebp+0x05], dh ; mov eax, 0x00000001 ; pop ebp ; ret  ;  (1 found)
0x10012842: add byte [ebp+0x05], dh ; mov eax, 0x00000001 ; pop ebp ; ret  ;  (1 found)
0x10027df0: add byte [ebp+0x05], dh ; mov eax, 0x00000001 ; ret  ;  (1 found)
0x10016724: add byte [ebp+0x06], dh ; call dword [0x10011058] ;  (1 found)
0x10016831: add byte [ebp+0x06], dh ; call dword [0x10011058] ;  (1 found)
0x10018677: add byte [ebp+0x06], dh ; call dword [0x10011058] ;  (1 found)
0x1001741f: add byte [ebp+0x06], dh ; call dword [0x10011058] ;  (1 found)
0x1001956e: add byte [ebp+0x06], dh ; call dword [0x10011058] ;  (1 found)
0x1001b2aa: add byte [ebp+0x06], dh ; call dword [0x10011058] ;  (1 found)
0x1001dc24: add byte [ebp+0x06], dh ; call dword [0x10011058] ;  (1 found)
0x100171a8: add byte [ebp+0x06], dh ; jmp dword [0x10011058] ;  (1 found)
0x10022d2f: add byte [ebp+0x10], dh ; lea eax, dword [ebp-0x0000044C] ; push eax ; call dword [0x1002FF64] ;  (1 found)
0x1001cc41: add byte [ebp+0x11], bh ; mov edx, dword [0x1002E188] ; xor eax, eax ; mov ax, word [edx+ecx*2] ; and eax, 0x00008000 ; ret  ;  (1 found)
0x10012f88: add byte [ebp+0x14], dh ; call dword [0x10011058] ;  (1 found)
0x1001230a: add byte [ebp+0x1B], dh ; mov esi, 0x00000001 ; push esi ; push 0x100123B7 ; call dword [0x1001105C] ;  (1 found)
0x1002249d: add byte [ebp+0x23], dh ; push 0xFFFFFFFF ; push dword [ebp-0x20] ; call dword [0x100110C0] ;  (1 found)
0x1002579c: add byte [ebp+0x2B993E04], cl ; retn 0xF8D1 ;  (1 found)
0x1002552b: add byte [ebp+0x3A], dh ; call dword [0x100111C0] ;  (1 found)
0x100194b4: add byte [ebp+0x4D8DF445], cl ; call dword [eax-0x75] ;  (1 found)
0x1001d363: add byte [ebp+0x52], dh ; mov edx, ecx ; and edx, 0x03 ; shr ecx, 0x02 ; rep movsd  ; jmp dword [0x1001D378+edx*4] ;  (1 found)
0x1001d4b3: add byte [ebp+0x52], dh ; mov edx, ecx ; and edx, 0x03 ; shr ecx, 0x02 ; rep movsd  ; jmp dword [0x1001D4C8+edx*4] ;  (1 found)
0x10012e9e: add byte [ebp+0x56002444], cl ; xor esi, esi ; push eax ; push 0x00000104 ; call dword [0x100110A4] ;  (1 found)
0x10012a3f: add byte [ebp+0x5F], bl ; pop esi ; pop ebx ; mov esp, ebp ; pop ebp ; ret  ;  (1 found)
0x100148c5: add byte [ebp+0x5F], bl ; pop esi ; pop ebx ; mov esp, ebp ; pop ebp ; ret  ;  (1 found)
0x100216e9: add byte [ebp+0x5F], bl ; pop esi ; pop ebx ; mov esp, ebp ; pop ebp ; ret  ;  (1 found)
0x1001cbc0: add byte [ebp+0x5F], bl ; pop esi ; pop ebx ; ret  ;  (1 found)
0x1001e1b8: add byte [ebp+0x5F], bl ; pop esi ; pop ebx ; ret  ;  (1 found)
0x100252ee: add byte [ebp+0x68500247], cl ; add byte [ecx], al ; add byte [eax], al ; push dword [ebp-0x04] ; push 0x00000001 ; call dword [0x10011130] ;  (1 found)
0x100144d8: add byte [ebp+0x6A102444], cl ; add ch, byte [edx+0x01] ; push 0x00000000 ; push eax ; call dword [0x100110C8] ;  (1 found)
0x1002a62d: add byte [ebp+0x6A51084D], cl ; add dword [edx+0x00], ebp ; push edi ; call dword [0x100111C4] ;  (1 found)
0x10016ec7: add byte [ebp+eax-0x48], dh ; add dword [eax], eax ; add byte [eax], al ; pop ebx ; ret  ;  (1 found)
0x10016c32: add byte [ebp+eax-0x48], dh ; add dword [eax], eax ; add byte [eax], al ; retn 0x0004 ;  (1 found)
0x1001e295: add byte [ebp-0x0000877B], cl ; call dword [eax+0x68] ;  (1 found)
0x10011c79: add byte [ebp-0x0001037B], cl ; call dword [eax-0x01] ;  (1 found)
0x100149cf: add byte [ebp-0x0001037B], cl ; call dword [eax-0x01] ;  (1 found)
0x1001a10f: add byte [ebp-0x0002577B], cl ; call dword [esi+0x33] ;  (1 found)
0x1001620b: add byte [ebp-0x00AF03BB], cl ; xor eax, 0x1002FF44 ; call dword [0x100110A0] ;  (1 found)
0x10012d34: add byte [ebp-0x00AF07BB], cl ; xor eax, 0x1002FF44 ; call dword [0x100110A0] ;  (1 found)
0x10016304: add byte [ebp-0x00AF07BB], cl ; xor eax, 0x1002FF44 ; call dword [0x10011100] ;  (1 found)
0x10016a43: add byte [ebp-0x00AF1FBB], cl ; adc eax, 0x1001111C ; push eax ; call dword [0x10011124] ;  (1 found)
0x10018336: add byte [ebp-0x08], dh ; pop esi ; ret  ;  (1 found)
0x10018335: add byte [ebp-0x08], dh ; pop esi ; ret  ;  (1 found)
0x10020470: add byte [ebp-0x0B], dh ; sub eax, dword [esp+0x04] ; sar eax, 1  ; dec eax ; ret  ;  (1 found)
0x1001b693: add byte [ebp-0x0C], dh ; ret  ;  (1 found)
0x1002573b: add byte [ebp-0x0E], dh ; mov byte [eax], 0x00000000 ; ret  ;  (1 found)
0x10017add: add byte [ebp-0x19], dh ; ret  ;  (1 found)
0x1002056c: add byte [ebp-0x21], dh ; xor eax, eax ; pop edi ; pop esi ; ret  ;  (1 found)
0x10020620: add byte [ebp-0x34], dh ; xor eax, eax ; pop esi ; ret  ;  (1 found)
0x10019241: add byte [ebp-0x37DCFEC0], cl ; push ecx ; push ebx ; call dword [0x10011158] ;  (1 found)
0x10025be9: add byte [ebp-0x38F58A40], al ; add eax, 0x1002FF98 ; add byte [eax], al ; add byte [eax], al ; ret  ;  (1 found)
0x100182b1: add byte [ebp-0x3D], dh ; pop esi ; ret  ;  (1 found)
0x10017b2a: add byte [ebp-0x3F], dh ; mov eax, esi ; pop edi ; pop esi ; ret  ;  (1 found)
0x100185ef: add byte [ebp-0x3F], dh ; mov eax, esi ; pop edi ; pop esi ; ret  ;  (1 found)
0x10012d57: add byte [ebp-0x5EAE03B3], cl ; inc esp ; inc dword [edx] ; adc byte [edx+0x53], dl ; push eax ; call dword [0x1001109C] ;  (1 found)
0x1001a1a1: add byte [ebp-0x72720FBB], cl ; sar dh, 0xFFFFFFFF ; call dword [eax+0x51] ;  (1 found)
0x10012a06: add byte [ebx+0x006A04C4], al ; mov eax, dword [0x1002E148] ; push eax ; call dword [0x10011064] ;  (1 found)
0x1001241e: add byte [ebx+0x01B804C4], al ; add byte [eax], al ; add byte [edi+0x5E], bl ; retn 0x0004 ;  (1 found)
0x1001b3d1: add byte [ebx+0x02EB08C4], al ; xor eax, eax ; pop esi ; ret  ;  (1 found)
0x100294e2: add byte [ebx+0x05EB10C4], al ; fld qword [ebp+0x08] ; fabs  ; pop esi ; pop ebp ; ret  ;  (1 found)
0x100225b0: add byte [ebx+0x06895F03], cl ; mov dword [esi+0x04], 0x00000000 ; pop esi ; pop ebx ; ret  ;  (1 found)
0x1002be43: add byte [ebx+0x2C0000C1], ch ; ret  ;  (1 found)
0x100157ab: add byte [ebx+0x34FF04C4], al ; mov ebp, 0x1002F4C0 ; call dword [0x100110E4] ;  (1 found)
0x10021615: add byte [ebx+0x37FF04C4], al ; call dword [0x100111A4] ;  (1 found)
0x10017a87: add byte [ebx+0x3B6604C4], al ; ret  ;  (1 found)
0x10015369: add byte [ebx+0x438904C4], al ; or byte [ebp-0x00012B7B], cl ; dec dword [ebp-0x00011343] ; call dword [eax-0x18] ;  (1 found)
0x1001526f: add byte [ebx+0x438904C4], al ; or byte [ebp-0x00012F7B], cl ; dec dword [ebp-0x00011743] ; call dword [eax-0x18] ;  (1 found)
0x100133b8: add byte [ebx+0x458904C4], al ; fdivr dword [ebx] ; ret  ;  (1 found)
0x100218c4: add byte [ebx+0x458904C4], al ; fdivr dword [ebx] ; ret  ;  (1 found)
0x10014321: add byte [ebx+0x458B04C4], al ; rcr byte [edi+0x5E], 1  ; pop ebx ; mov esp, ebp ; pop ebp ; ret  ;  (1 found)
0x1001da48: add byte [ebx+0x458B0CC4], al ; adc byte [ebx], al ; ret  ;  (1 found)
0x1001700e: add byte [ebx+0x458B10C4], al ; or al, 0x5D ; ret  ;  (1 found)
0x10014ee4: add byte [ebx+0x500C2474], cl ; push esi ; mov eax, dword [0x10033CB8] ; push 0x00000010 ; push eax ; call dword [0x100110CC] ;  (1 found)
0x1001b52a: add byte [ebx+0x56], dl ; push 0x00000100 ; push eax ; call dword [0x10011174] ;  (1 found)
0x1001b701: add byte [ebx+0x56], dl ; push 0x00000200 ; push eax ; call dword [0x10011174] ;  (1 found)
0x10020a9e: add byte [ebx+0x56], dl ; push 0xFFFFFFFF ; push dword [ebp+0x0C] ; push 0x00000220 ; push dword [0x1002FF90] ; call dword [0x10011170] ;  (1 found)
0x10025c96: add byte [ebx+0x56], dl ; push dword [ebp+0x10] ; push dword [ebp+0x0C] ; call dword [0x100111B4] ;  (1 found)
0x1001a87c: add byte [ebx+0x56], dl ; push edi ; push ebp ; push eax ; call dword [0x100110E8] ;  (1 found)
0x10017bcc: add byte [ebx+0x5B5E5FC7], cl ; ret  ;  (1 found)
0x10017ef1: add byte [ebx+0x5B5E5FC7], cl ; ret  ;  (1 found)
0x1002893d: add byte [ebx+0x5D5E08C4], al ; ret  ;  (1 found)
0x1001b1ca: add byte [ebx+0x5E5F04C4], al ; mov esp, ebp ; pop ebp ; ret  ;  (1 found)
0x1001c061: add byte [ebx+0x5E5F04C4], al ; pop ebx ; mov esp, ebp ; pop ebp ; ret  ;  (1 found)
0x10025b39: add byte [ebx+0x5E5F04C4], al ; pop ebx ; mov esp, ebp ; pop ebp ; ret  ;  (1 found)
0x1001dc97: add byte [ebx+0x5E5F04C4], al ; pop ebx ; ret  ;  (1 found)
0x1001bcb8: add byte [ebx+0x5E5F04C4], al ; ret  ;  (1 found)
0x1001c322: add byte [ebx+0x5E5F08C4], al ; mov esp, ebp ; pop ebp ; ret  ;  (1 found)
0x10015d7a: add byte [ebx+0x5E5F08C4], al ; pop ebx ; mov esp, ebp ; pop ebp ; ret  ;  (1 found)
0x10012abc: add byte [ebx+0x5E5F0CC4], al ; pop ebx ; ret  ;  (1 found)
0x1001ed7a: add byte [ebx+0x5E5F10C4], al ; pop ebx ; pop ebp ; ret  ;  (1 found)
0x1001ba7d: add byte [ebx+0x5E5F5DC5], cl ; pop ebx ; ret  ;  (1 found)
0x1002669b: add byte [ebx+0x5E5FEC45], cl ; pop ebx ; mov esp, ebp ; pop ebp ; ret  ;  (1 found)
0x10028afc: add byte [ebx+0x5F5D0CC4], al ; pop esi ; pop ebx ; ret  ;  (1 found)
0x10028bef: add byte [ebx+0x5F5D0CC4], al ; pop esi ; pop ebx ; ret  ;  (1 found)
0x100207dc: add byte [ebx+0x708902C6], al ; sbb al, 0x8B ; ret  ;  (1 found)
0x10012df4: add byte [ebx+0x74FF04C4], al ; and al, 0x14 ; call dword [0x100110A8] ;  (1 found)
0x100181ee: add byte [ebx+eax-0x3A], dh ; push es ; and byte [edi+0x5E], bl ; pop ebx ; pop ebp ; ret  ;  (1 found)
0x100181ef: add byte [ebx+eax-0x3A], dh ; push es ; and byte [edi+0x5E], bl ; pop ebx ; pop ebp ; ret  ;  (1 found)
0x10011dc5: add byte [ebx-0x0097FB3C], al ; add byte [eax], al ; add bh, bh ; adc eax, 0x1002E004 ; add esp, 0x04 ; ret  ;  (1 found)
0x10014628: add byte [ebx-0x00AFFB3C], al ; adc eax, 0x100110C8 ; push eax ; call dword [0x100110C4] ;  (1 found)
0x100144f0: add byte [ebx-0x00AFFB3C], al ; adc eax, 0x100110C8 ; push eax ; call dword [0x100110C4] ;  (1 found)
0x1001254e: add byte [ebx-0x017CFB3C], al ; or byte [ebp+0x0F], dh ; mov ecx, dword [ebp-0x04] ; push dword [ecx+0x4C] ; push 0x00000008 ; call edi ;  (1 found)
0x100194a8: add byte [ebx-0x16FC7707], cl ; add byte [eax], 0x00000000 ; add byte [edi+0x6A], al ; add byte [ebp+0x4D8DF445], cl ; call dword [eax-0x75] ;  (1 found)
0x10012218: add byte [ebx-0x173CF740], al ; hlt  ; push es ; add byte [eax], al ; add eax, 0x0C ; ret  ;  (1 found)
0x10013cb1: add byte [ebx-0x177C1BBB], cl ; arpl word [ebx+0x0E7718F8], ax ; movzx ecx, byte [eax+0x1001435F] ; jmp dword [0x1001432F+ecx*4] ;  (1 found)
0x100234e2: add byte [ebx-0x177C1BBB], cl ; arpl word [ebx+0x0E7718F8], ax ; movzx ecx, byte [eax+0x10023C3F] ; jmp dword [0x10023C0F+ecx*4] ;  (1 found)
0x10023e9c: add byte [ebx-0x177C1BBB], cl ; arpl word [ebx+0x0E7718F8], ax ; movzx ecx, byte [eax+0x100245A7] ; jmp dword [0x10024577+ecx*4] ;  (1 found)
0x100129fd: add byte [ebx-0x17A9FB3C], al ; mov esi, 0x8300009A ; les eax,  [edx+ebp*2] ; add byte [ecx+0x1002E148], ah ; push eax ; call dword [0x10011064] ;  (1 found)
0x100162cc: add byte [ebx-0x17F79510], cl ; dec edi ; mov bl, 0x00 ; add byte [ebx-0x3974FB3C], al ; pop esi ; ret  ;  (1 found)
0x100161c2: add byte [ebx-0x17F79510], cl ; pop ecx ; mov ah, 0x00 ; add byte [ebx-0x3974FB3C], al ; pop esi ; ret  ;  (1 found)
0x10016a8c: add byte [ebx-0x1A7403BB], cl ; pop ebp ; ret  ;  (1 found)
0x1002ba3f: add byte [ebx-0x2DFFFF9F], dh ; add byte [fs:eax], al ; jmp dword [eax+eax+0x00] ;  (1 found)
0x1001de7b: add byte [ebx-0x3216FB3C], al ; add byte [eax], al ; add byte [edi-0x73], dl ; test dword [edi+edi*8-0x01], ebp ; push dword [ebx] ; call dword [edi+0x57] ;  (1 found)
0x10029ae7: add byte [ebx-0x37], bl ; ret  ;  (1 found)
0x10029aa3: add byte [ebx-0x37], bl ; ret  ;  (1 found)
0x10029b37: add byte [ebx-0x37], bl ; ret  ;  (1 found)
0x1002602e: add byte [ebx-0x3874EB3C], al ; pop edi ; pop esi ; mov esp, ebp ; pop ebp ; ret  ;  (1 found)
0x1001c364: add byte [ebx-0x3874FB3C], al ; pop edi ; pop esi ; pop ebp ; ret  ;  (1 found)
0x1001c573: add byte [ebx-0x3874FB3C], al ; pop edi ; pop esi ; pop ebp ; ret  ;  (1 found)
0x1001c5b2: add byte [ebx-0x3874FB3C], al ; pop edi ; pop esi ; pop ebp ; ret  ;  (1 found)
0x1001c822: add byte [ebx-0x3874FB3C], al ; pop edi ; pop esi ; pop ebp ; ret  ;  (1 found)
0x1001c9a3: add byte [ebx-0x3874FB3C], al ; pop edi ; pop esi ; pop ebp ; ret  ;  (1 found)
0x10018eb0: add byte [ebx-0x3874FB3C], al ; pop edi ; pop esi ; pop ebx ; add esp, 0x04 ; ret  ;  (1 found)
0x100195f1: add byte [ebx-0x3874FB3C], al ; pop edi ; pop esi ; pop ebx ; ret  ;  (1 found)
0x1001bdaf: add byte [ebx-0x3874FB3C], al ; pop edi ; pop esi ; pop ebx ; ret  ;  (1 found)
0x1001575c: add byte [ebx-0x3874FB3C], al ; pop edi ; pop esi ; ret  ;  (1 found)
0x10014f4c: add byte [ebx-0x3874FB3C], al ; pop edi ; pop esi ; ret  ;  (1 found)
0x1001c534: add byte [ebx-0x3874FB3C], al ; pop edi ; pop esi ; ret  ;  (1 found)
0x1001ca9c: add byte [ebx-0x3874FB3C], al ; pop edi ; pop esi ; ret  ;  (1 found)
0x1002615a: add byte [ebx-0x3974EF3C], al ; pop esi ; mov esp, ebp ; pop ebp ; ret  ;  (1 found)
0x10019327: add byte [ebx-0x3974FB3C], al ; pop ebp ; pop edi ; pop esi ; pop ebx ; ret  ;  (1 found)
0x1001b587: add byte [ebx-0x3974FB3C], al ; pop ebp ; pop edi ; pop esi ; pop ebx ; ret  ;  (1 found)
0x1001b75e: add byte [ebx-0x3974FB3C], al ; pop ebp ; pop edi ; pop esi ; pop ebx ; ret  ;  (1 found)
0x10013ab0: add byte [ebx-0x3974FB3C], al ; pop edi ; pop esi ; add esp, 0x04 ; ret  ;  (1 found)
0x1001480c: add byte [ebx-0x3974FB3C], al ; pop edi ; pop esi ; pop ebx ; ret  ;  (1 found)
0x1001859c: add byte [ebx-0x3974FB3C], al ; pop edi ; pop esi ; pop ebx ; ret  ;  (1 found)
0x1001d9ca: add byte [ebx-0x3974FB3C], al ; pop edi ; pop esi ; pop ebx ; ret  ;  (1 found)
0x10012fe0: add byte [ebx-0x3974FB3C], al ; pop edi ; pop esi ; ret  ;  (1 found)
0x1001315a: add byte [ebx-0x3974FB3C], al ; pop edi ; pop esi ; ret  ;  (1 found)
0x1001324c: add byte [ebx-0x3974FB3C], al ; pop edi ; pop esi ; ret  ;  (1 found)
0x10015584: add byte [ebx-0x3974FB3C], al ; pop edi ; pop esi ; ret  ;  (1 found)
0x100173ed: add byte [ebx-0x3974FB3C], al ; pop edi ; pop esi ; ret  ;  (1 found)
0x10019381: add byte [ebx-0x3974FB3C], al ; pop edi ; pop esi ; ret  ;  (1 found)
0x100197d7: add byte [ebx-0x3974FB3C], al ; pop edi ; pop esi ; ret  ;  (1 found)
0x1001c678: add byte [ebx-0x3974FB3C], al ; pop edi ; pop esi ; ret  ;  (1 found)
0x1001b7b8: add byte [ebx-0x3974FB3C], al ; pop edi ; pop esi ; ret  ;  (1 found)
0x1001fec8: add byte [ebx-0x3974FB3C], al ; pop edi ; pop esi ; ret  ;  (1 found)
0x10014cb5: add byte [ebx-0x3974FB3C], al ; pop esi ; mov esp, ebp ; pop ebp ; ret  ;  (1 found)
0x10019d0f: add byte [ebx-0x3974FB3C], al ; pop esi ; mov esp, ebp ; pop ebp ; ret  ;  (1 found)
0x10016189: add byte [ebx-0x3974FB3C], al ; pop esi ; pop ebx ; pop ebp ; ret  ;  (1 found)
0x100161ab: add byte [ebx-0x3974FB3C], al ; pop esi ; ret  ;  (1 found)
0x100161cb: add byte [ebx-0x3974FB3C], al ; pop esi ; ret  ;  (1 found)
0x100162d5: add byte [ebx-0x3974FB3C], al ; pop esi ; ret  ;  (1 found)
0x100163cd: add byte [ebx-0x3974FB3C], al ; pop esi ; ret  ;  (1 found)
0x100164f7: add byte [ebx-0x3974FB3C], al ; pop esi ; ret  ;  (1 found)
0x10016526: add byte [ebx-0x3974FB3C], al ; pop esi ; ret  ;  (1 found)
0x1001907e: add byte [ebx-0x3974FB3C], al ; pop esi ; ret  ;  (1 found)
0x100190e2: add byte [ebx-0x3974FB3C], al ; pop esi ; ret  ;  (1 found)
0x1001d034: add byte [ebx-0x3974FB3C], al ; pop esi ; ret  ;  (1 found)
0x1001d1de: add byte [ebx-0x3974FB3C], al ; pop esi ; ret  ;  (1 found)
0x1001c9cc: add byte [ebx-0x3974FB3C], al ; pop esi ; ret  ;  (1 found)
0x1001dcc8: add byte [ebx-0x3974FB3C], al ; pop esi ; ret  ;  (1 found)
0x10020a20: add byte [ebx-0x3974FB3C], al ; pop esi ; ret  ;  (1 found)
0x10020c9e: add byte [ebx-0x3974FB3C], al ; pop esi ; ret  ;  (1 found)
0x10020d9b: add byte [ebx-0x3974FB3C], al ; pop esi ; ret  ;  (1 found)
0x1001c0b9: add byte [ebx-0x3A74FB3C], al ; pop ebp ; pop edi ; pop esi ; pop ebx ; ret  ;  (1 found)
0x1001c7df: add byte [ebx-0x3A74FB3C], al ; pop ebp ; pop edi ; pop esi ; pop ebx ; ret  ;  (1 found)
0x1002013a: add byte [ebx-0x3A74FB3C], al ; pop ebp ; pop edi ; pop esi ; pop ebx ; ret  ;  (1 found)
0x100200e3: add byte [ebx-0x3A74FB3C], al ; pop ebp ; pop edi ; pop esi ; pop ebx ; ret  ;  (1 found)
0x10025fbc: add byte [ebx-0x3B7CF3AB], cl ; or byte [ebx+0x0A89FC4D], cl ; mov esp, ebp ; pop ebp ; ret  ;  (1 found)
0x100151b0: add byte [ebx-0x3C74FB3C], al ; pop ebp ; pop edi ; pop esi ; pop ebx ; ret  ;  (1 found)
0x1001c111: add byte [ebx-0x3C74FB3C], al ; pop edi ; pop esi ; pop ebx ; pop ebp ; ret  ;  (1 found)
0x1001e5ba: add byte [ebx-0x3C74FB3C], al ; pop edi ; pop esi ; pop ebx ; pop ebp ; ret  ;  (1 found)
0x10020c70: add byte [ebx-0x3C74FB3C], al ; pop edi ; pop esi ; pop ebx ; pop ebp ; ret  ;  (1 found)
0x1001be67: add byte [ebx-0x3C74FB3C], al ; pop edi ; pop esi ; pop ebx ; ret  ;  (1 found)
0x1001d939: add byte [ebx-0x3C74FB3C], al ; pop edi ; pop esi ; pop ebx ; ret  ;  (1 found)
0x1001fb19: add byte [ebx-0x3C74FB3C], al ; pop edi ; pop esi ; pop ebx ; ret  ;  (1 found)
0x10020185: add byte [ebx-0x3C74FB3C], al ; pop edi ; pop esi ; pop ebx ; ret  ;  (1 found)
0x1002029d: add byte [ebx-0x3C74FB3C], al ; pop edi ; pop esi ; pop ebx ; ret  ;  (1 found)
0x10020d68: add byte [ebx-0x3C74FB3C], al ; pop edi ; pop esi ; pop ebx ; ret  ;  (1 found)
0x1001be0a: add byte [ebx-0x3CA1A039], cl ; mov eax, dword [esp+0x04] ; mov eax, dword [eax+0x0C] ; and eax, 0x10 ; ret  ;  (1 found)
0x1001ac3c: add byte [ebx-0x3FCCFB3C], al ; pop edi ; pop esi ; pop ebx ; ret  ;  (1 found)
0x1001fbdb: add byte [ebx-0x3FCCFB3C], al ; pop edi ; pop esi ; pop ebx ; ret  ;  (1 found)
0x1002475b: add byte [ebx-0x3FCCFB3C], al ; pop esi ; ret  ;  (1 found)
0x1002501e: add byte [ebx-0x3FCCFB3C], al ; pop esi ; ret  ;  (1 found)
0x1002b9e7: add byte [ebx-0x45FFFFAF], bh ; push ebx ; add byte [eax], al ; ret  ;  (1 found)
0x1002ba3b: add byte [ebx-0x4CFFFF9F], dl ; popad  ; add byte [eax], al ; shl byte [eax+eax+0x00], cl ; jmp dword [eax+eax+0x00] ;  (1 found)
0x10011ded: add byte [ebx-0x5E3CFB3C], al ; and al, 0xF1 ; add dl, byte [eax] ; mov ecx, dword [esp+0x04] ; mov dword [0x1002F124], ecx ; ret  ;  (1 found)
0x100151cb: add byte [ebx-0x73], dl ; test dword [esi+edi*8+0x5756FFFF], edi ; push eax ; push dword [ebp+0x08] ; call dword [0x100110D0] ;  (1 found)
0x100127f6: add byte [ebx-0x743C0030], al ; inc esp ; and al, 0x04 ; and eax, 0x7F ; ret  ;  (1 found)
0x1001e653: add byte [ebx-0x74A0F33C], al ; in eax, 0x5D ; ret  ;  (1 found)
0x1002943d: add byte [ebx-0x74A1E33C], al ; in eax, 0x5D ; ret  ;  (1 found)
0x100295d1: add byte [ebx-0x74A1E33C], al ; in eax, 0x5D ; ret  ;  (1 found)
0x100279d8: add byte [ebx-0x74A1E73C], al ; in eax, 0x5D ; ret  ;  (1 found)
0x10027daa: add byte [ebx-0x74A1E73C], al ; in eax, 0x5D ; ret  ;  (1 found)
0x10012986: add byte [ebx-0x7AF7DB8C], cl ; div byte [ebp+0x12] ; mov eax, dword [0x1002E148] ; push eax ; call dword [0x10011070] ;  (1 found)
0x1002a061: add byte [ebx-0x7C27FC26], cl ; ret  ;  (1 found)
0x1002a0ed: add byte [ebx-0x7C27FC26], cl ; ret  ;  (1 found)
0x10024755: add byte [ebx], al ; adc byte [eax], al ; add byte [eax], al ; add byte [ebx-0x3FCCFB3C], al ; pop esi ; ret  ;  (1 found)
0x10025018: add byte [ebx], al ; adc byte [eax], al ; add byte [eax], al ; add byte [ebx-0x3FCCFB3C], al ; pop esi ; ret  ;  (1 found)
0x10025456: add byte [ebx], al ; adc byte [edi+0x5E], bl ; pop ebx ; mov esp, ebp ; pop ebp ; ret  ;  (1 found)
0x100260d1: add byte [ebx], bh ; fidivr word [esi+ecx-0x75] ; ret  ;  (1 found)
0x100260e9: add byte [ebx], bh ; fidivr word [esi+ecx-0x75] ; ret  ;  (1 found)
0x1001352d: add byte [ebx], bh ; ret  ;  (1 found)
0x10021a39: add byte [ebx], bh ; ret  ;  (1 found)
0x1002586f: add byte [ebx], bl ; rol byte [eax+0x5D], 0x0000005F ; pop esi ; pop ebx ; ret  ;  (1 found)
0x10020324: add byte [ebx], bl ; shl byte [ebx], 0xFFFFFFC1 ; ret  ;  (1 found)
0x1001bce5: add byte [ebx], ch ; enter 0xB70F, 0x44 ; and al, 0x04 ; add eax, ecx ; add esp, 0x0C ; ret  ;  (1 found)
0x1001dd92: add byte [ebx], ch ; ret  ;  (1 found)
0x100268a9: add byte [ebx], ch ; retn 0xFFBA ;  (1 found)
0x10025749: add byte [ebx], dh ; dec dword [ebp+0x2B993E04] ; retn 0xF8D1 ;  (1 found)
0x10018b84: add byte [ebx], dh ; dec dword [ebx-0x27BA3822] ; add dword [eax], eax ; add byte [eax], al ; mov dword [ebp-0x2C], 0x00000001 ; call dword [0x100110C8] ;  (1 found)
0x10016935: add byte [ebx], dh ; ror byte [ecx+0x4589C845], 0xFFFFFFFC ; lea eax, dword [ebp-0x38] ; push eax ; call dword [0x1001111C] ;  (1 found)
0x1001777e: add byte [ecx+0x00837FFE], al ; add byte [edx+0x01], dh ; inc esi ; mov eax, esi ; pop esi ; ret  ;  (1 found)
0x10016da6: add byte [ecx+0x009872FE], al ; add byte [esi+0x02], dh ; xor eax, eax ; pop esi ; ret  ;  (1 found)
0x10016dd1: add byte [ecx+0x00EA9EFE], al ; add byte [esi+0x02], dh ; xor eax, eax ; pop esi ; ret  ;  (1 found)
0x100267c1: add byte [ecx+0x031FE283], bl ; retn 0xF8C1 ;  (1 found)
0x10022a84: add byte [ecx+0x03E9C875], cl ; add eax, dword [eax] ; add byte [esi-0x7D], ah ; ret  ;  (1 found)
0x1001b289: add byte [ecx+0x1002E088], ah ; mov ecx, dword [esp+0x04] ; mov dword [0x1002E088], ecx ; ret  ;  (1 found)
0x10012a0b: add byte [ecx+0x1002E148], ah ; push eax ; call dword [0x10011064] ;  (1 found)
0x1001dbbc: add byte [ecx+0x269EC3C1], al ; add byte [ecx-0x3E74EBB8], cl ; and eax, 0x7FFF0000 ; shr eax, 0x10 ; ret  ;  (1 found)
0x10021782: add byte [ecx+0x4588C85D], cl ; idiv edi ; inc ebp ; or al, 0x3A ; ret  ;  (1 found)
0x1001327c: add byte [ecx+0x4588C85D], cl ; idiv edi ; inc ebp ; or byte [edx], bh ; ret  ;  (1 found)
0x10020afb: add byte [ecx+0x52], dl ; push 0x00000001 ; push dword [ebp+0x0C] ; push 0x00000000 ; push dword [0x1002FF90] ; call dword [0x10011170] ;  (1 found)
0x10015e7e: add byte [ecx+0x66], dl ; mov dword [ebp-0x02], 0x89660000 ; inc ebp ; cld  ; call dword [0x100110F0] ;  (1 found)
0x1001cfeb: add byte [ecx+eax], cl ; push 0x00000001 ; push edx ; push eax ; push dword [0x1002FF90] ; call dword [0x10011134] ;  (1 found)
0x1001d186: add byte [ecx+eax], cl ; push 0xFFFFFFFF ; push dword [ebp+0x0C] ; push eax ; push dword [0x1002FF90] ; call dword [0x10011134] ;  (1 found)
0x1001853f: add byte [ecx+eax], cl ; push 0xFFFFFFFF ; push edi ; push eax ; push dword [0x1002FF90] ; call dword [0x10011134] ;  (1 found)
0x1001dbc2: add byte [ecx-0x3E74EBB8], cl ; and eax, 0x7FFF0000 ; shr eax, 0x10 ; ret  ;  (1 found)
0x1001dbc1: add byte [ecx-0x3E74EBB8], cl ; and eax, 0x7FFF0000 ; shr eax, 0x10 ; ret  ;  (1 found)
0x1001b286: add byte [ecx], 0x00000000 ; add byte [ecx+0x1002E088], ah ; mov ecx, dword [esp+0x04] ; mov dword [0x1002E088], ecx ; ret  ;  (1 found)
0x1001ad76: add byte [ecx], al ; add byte [eax], al ; push dword [0x1002FF80] ; call dword [0x10011174] ;  (1 found)
0x1001fda8: add byte [ecx], al ; add byte [eax], al ; push dword [0x1002FF80] ; call dword [0x10011174] ;  (1 found)
0x1002532b: add byte [ecx], al ; add byte [eax], al ; push dword [ebp-0x04] ; push 0x00000001 ; call dword [0x10011130] ;  (1 found)
0x100252f4: add byte [ecx], al ; add byte [eax], al ; push dword [ebp-0x04] ; push 0x00000001 ; call dword [0x10011130] ;  (1 found)
0x1001b55f: add byte [ecx], al ; add byte [eax], al ; push eax ; call dword [0x10011174] ;  (1 found)
0x1001b52e: add byte [ecx], al ; add byte [eax], al ; push eax ; call dword [0x10011174] ;  (1 found)
0x10025c47: add byte [ecx], al ; add byte [eax], al ; push esi ; push dword [ebp+0x10] ; push dword [ebp+0x0C] ; call dword [0x100111B4] ;  (1 found)
0x1002a1ba: add byte [edi+0x07], bh ; mov byte [ebp-0x00000090], 0x00000001 ; or cl, cl ; ret  ;  (1 found)
0x10016744: add byte [edi+0x20], bh ; push dword [ebp+0x10] ; push dword [ebp+0x08] ; call dword [0x10011108] ;  (1 found)
0x1001f846: add byte [edi+0x56], dl ; push 0xFFFFFFFF ; push dword [ebp+0x0C] ; push 0x00000001 ; push dword [0x1002FF90] ; call dword [0x10011134] ;  (1 found)
0x10025c6a: add byte [edi+0x57], dl ; push dword [ebp+0x10] ; push dword [ebp+0x0C] ; call dword [0x100111B4] ;  (1 found)
0x10018263: add byte [edi+0x5E], bl ; cmp byte [ecx], 0x00000001 ; adc eax, 0xFFFFFFFF ; pop ebx ; and eax, ecx ; ret  ;  (1 found)
0x1001840e: add byte [edi+0x5E], bl ; cmp byte [ecx], 0x00000001 ; adc eax, 0xFFFFFFFF ; pop ebx ; and eax, ecx ; ret  ;  (1 found)
0x100204b9: add byte [edi+0x5E], bl ; pop ebp ; ret  ;  (1 found)
0x100213c9: add byte [edi+0x5E], bl ; pop ebx ; add esp, 0x04 ; ret  ;  (1 found)
0x1001971c: add byte [edi+0x5E], bl ; pop ebx ; mov esp, ebp ; pop ebp ; ret  ;  (1 found)
0x1001a052: add byte [edi+0x5E], bl ; pop ebx ; mov esp, ebp ; pop ebp ; ret  ;  (1 found)
0x1002571a: add byte [edi+0x5E], bl ; pop ebx ; mov esp, ebp ; pop ebp ; ret  ;  (1 found)
0x1002228b: add byte [edi+0x5E], bl ; pop ebx ; mov esp, ebp ; pop ebp ; ret  ;  (1 found)
0x100232f9: add byte [edi+0x5E], bl ; pop ebx ; mov esp, ebp ; pop ebp ; ret  ;  (1 found)
0x10012cab: add byte [edi+0x5E], bl ; pop ebx ; mov esp, ebp ; pop ebp ; retn 0x0004 ;  (1 found)
0x100246ac: add byte [edi+0x5E], bl ; pop ebx ; mov esp, ebp ; pop ebp ; retn 0x0004 ;  (1 found)
0x10011dae: add byte [edi+0x5E], bl ; pop ebx ; mov esp, ebp ; pop ebp ; retn 0x000C ;  (1 found)
0x1001eed1: add byte [edi+0x5E], bl ; pop ebx ; pop ebp ; ret  ;  (1 found)
0x10015626: add byte [edi+0x5E], bl ; pop ebx ; ret  ;  (1 found)
0x1002312f: add byte [edi+0x5E], bl ; pop ebx ; ret  ;  (1 found)
0x10026737: add byte [edi+0x5E], bl ; ret  ;  (1 found)
0x10012426: add byte [edi+0x5E], bl ; retn 0x0004 ;  (1 found)
0x100194b1: add byte [edi+0x6A], al ; add byte [ebp+0x4D8DF445], cl ; call dword [eax-0x75] ;  (1 found)
0x1001a1ee: add byte [edi+esi-0x73], dh ; inc ebp ; lea ecx, dword [ebp-0x00000148] ; push eax ; push ecx ; call dword [0x100110DC] ;  (1 found)
0x1002bc53: add byte [edi-0x70], bl ; add byte [eax], al ; ret  ;  (1 found)
0x1001de83: add byte [edi-0x73], dl ; test dword [edi+edi*8-0x01], ebp ; push dword [ebx] ; call dword [edi+0x57] ;  (1 found)
0x10028472: add byte [edi-0x73], dl ; test dword [edi+edi*8-0x01], edi ; call dword [ebx+0x50] ;  (1 found)
0x100284e9: add byte [edi-0x73], dl ; test dword [edi+edi*8-0x01], edi ; call dword [ebx+0x50] ;  (1 found)
0x100202af: add byte [edi-0x75], dl ; sal byte [ecx+ecx-0x7D], 1  ; retn 0x6602 ;  (1 found)
0x1002bc4b: add byte [edi], al ; mov eax, dword [eax] ; add byte [eax+edx*4+0x00], dl ; add byte [edi-0x70], bl ; add byte [eax], al ; ret  ;  (1 found)
0x100204ef: add byte [edi], cl ; mov bh, 0x0E ; sub eax, ecx ; pop esi ; pop ebp ; ret  ;  (1 found)
0x100167cc: add byte [edi], cl ; mov bh, 0x45 ; inc byte [ebx-0x1A74FB3C] ; pop ebp ; ret  ;  (1 found)
0x10022a22: add byte [edi], cl ; mov dh, 0x88 ; xchg eax, ecx ; das  ; add dl, byte [eax] ; jmp dword [0x10022F4D+ecx*4] ;  (1 found)
0x10013527: add byte [edi], cl ; test bh, al ; add al, byte [eax] ; add byte [ebx], bh ; ret  ;  (1 found)
0x10021a33: add byte [edi], cl ; test bh, al ; add al, byte [eax] ; add byte [ebx], bh ; ret  ;  (1 found)
0x100168b4: add byte [edx+0x00], ch ; call dword [0x1001111C] ;  (1 found)
0x100168fd: add byte [edx+0x00], ch ; call dword [0x1001111C] ;  (1 found)
0x10020c30: add byte [edx+0x00], ch ; push 0xFFFFFFFF ; push dword [ebp+0x0C] ; push edi ; push dword [0x1002FF7C] ; call dword [0x10011174] ;  (1 found)
0x10018bc2: add byte [edx+0x00], ch ; push eax ; push dword [ebp-0x08] ; push ecx ; push dword [ebp-0x08] ; call dword [0x100110C4] ;  (1 found)
0x1001f864: add byte [edx+0x00], ch ; push eax ; push esi ; push 0x00000400 ; push dword [0x1002FF7C] ; call dword [0x10011174] ;  (1 found)
0x1001b528: add byte [edx+0x00], ch ; push ebx ; push esi ; push 0x00000100 ; push eax ; call dword [0x10011174] ;  (1 found)
0x1001b6ff: add byte [edx+0x00], ch ; push ebx ; push esi ; push 0x00000200 ; push eax ; call dword [0x10011174] ;  (1 found)
0x100194c5: add byte [edx+0x01], ch ; push ecx ; push dword [edx] ; call dword [0x1001115C] ;  (1 found)
0x10017784: add byte [edx+0x01], dh ; inc esi ; mov eax, esi ; pop esi ; ret  ;  (1 found)
0x10016d82: add byte [edx+0x02], dh ; xor eax, eax ; ret  ;  (1 found)
0x10024f2a: add byte [edx+0x1002E140], ah ; xor eax, eax ; pop edi ; pop esi ; pop ebx ; ret  ;  (1 found)
0x100179d4: add byte [edx+0x5A], bl ; pop edi ; leave  ; ret  ;  (1 found)
0x1001a4a4: add byte [edx+0x5A], bl ; pop edi ; leave  ; ret  ;  (1 found)
0x10015e29: add byte [edx+0x66], dl ; mov dword [ebp-0x02], 0x89660000 ; inc ebp ; cld  ; call dword [0x100110F0] ;  (1 found)
0x1002167f: add byte [edx+edi+0x56], dh ; push ebp ; lea ebp, dword [ebx+0x10] ; call dword [edi+ecx*4+0x04] ;  (1 found)
0x1001485b: add byte [edx+edi+0x56], dh ; push ebp ; mov ebp, dword [ebx+0x10] ; call dword [edi+ecx*4+0x04] ;  (1 found)
0x10020c32: add byte [edx-0x01], ch ; push dword [ebp+0x0C] ; push edi ; push dword [0x1002FF7C] ; call dword [0x10011174] ;  (1 found)
0x1001608c: add byte [edx-0x0C], ch ; call dword [0x100110F4] ;  (1 found)
0x10022120: add byte [edx-0x17], al ; retn 0x0000 ;  (1 found)
0x1001af22: add byte [edx], al ; add byte [eax], al ; push dword [0x1002FF80] ; call dword [0x10011174] ;  (1 found)
0x1001fe62: add byte [edx], al ; add byte [eax], al ; push dword [0x1002FF80] ; call dword [0x10011174] ;  (1 found)
0x1001b736: add byte [edx], al ; add byte [eax], al ; push eax ; call dword [0x10011174] ;  (1 found)
0x1001b705: add byte [edx], al ; add byte [eax], al ; push eax ; call dword [0x10011174] ;  (1 found)
0x10016dac: add byte [esi+0x02], dh ; xor eax, eax ; pop esi ; ret  ;  (1 found)
0x10016dd7: add byte [esi+0x02], dh ; xor eax, eax ; pop esi ; ret  ;  (1 found)
0x10016d1e: add byte [esi+0x02], dh ; xor eax, eax ; ret  ;  (1 found)
0x10025f83: add byte [esi+0x02], dh ; xor eax, eax ; ret  ;  (1 found)
0x10020daf: add byte [esi+0x10033950], bh ; push esi ; push 0x00000000 ; call dword [0x1001104C] ;  (1 found)
0x10021007: add byte [esi+0x10033A58], bh ; push esi ; push 0x00000000 ; call dword [0x1001104C] ;  (1 found)
0x10012ea2: add byte [esi+0x33], dl ; not byte [eax+0x68] ; add al, 0x01 ; add byte [eax], al ; call dword [0x100110A4] ;  (1 found)
0x100169db: add byte [esi+0x5B], bl ; mov esp, ebp ; pop ebp ; ret  ;  (1 found)
0x100225bc: add byte [esi+0x5B], bl ; ret  ;  (1 found)
0x100174e2: add byte [esi+0x5D], bl ; ret  ;  (1 found)
0x10012311: add byte [esi+0x68], dl ; mov bh, 0x23 ; add dword [eax], edx ; call dword [0x1001105C] ;  (1 found)
0x10012cbb: add byte [esi+0x74], dl ; push es ; call dword [0x10032BE0] ;  (1 found)
0x10012c54: add byte [esi+eax-0x01], dh ; adc eax, 0x10032BDC ; mov dword [ebp-0x04], 0x00000000 ; push dword [esi+0x40] ; call dword [esi+0x3C] ;  (1 found)
0x1002159f: add byte [esi+ecx*8-0x5F], bh ; cli  ; add dl, byte [eax] ; push eax ; call esi ;  (1 found)
0x1002562a: add byte [esi+edx+0x0F], dh ; mov bh, 0x45 ; cld  ; push eax ; call dword [0x100111B8] ;  (1 found)
0x100157ea: add byte [esi-0x00000001], bh ; call dword [0x10011058] ;  (1 found)
0x100252d8: add byte [esi-0x5F], dl ; nop  ; inc dword [edx] ; adc byte [ebx+0x50], dl ; call dword [0x10011134] ;  (1 found)
0x1001fdd0: add byte [esi-0x75], ah ; inc ebp ; inc byte [ebx-0x1A74FB3C] ; pop ebp ; ret  ;  (1 found)
0x1001fe8a: add byte [esi-0x75], ah ; inc ebp ; inc byte [ebx-0x1A74FB3C] ; pop ebp ; ret  ;  (1 found)
0x10029b74: add byte [esi-0x75], ah ; test dword [edi+edi*8-0x01], ebx ; jmp dword [esi-0x7D] ;  (1 found)
0x10015e30: add byte [esi-0x77], ah ; inc ebp ; cld  ; call dword [0x100110F0] ;  (1 found)
0x10015e85: add byte [esi-0x77], ah ; inc ebp ; cld  ; call dword [0x100110F0] ;  (1 found)
0x10027ef0: add byte [esi-0x77], ah ; inc ebp ; inc byte [ebx+0x6DD904C4] ; dec byte [ebx-0x1A74A13A] ; pop ebp ; ret  ;  (1 found)
0x10022a8c: add byte [esi-0x7D], ah ; ret  ;  (1 found)
0x100207f0: add byte [esi-0x7D], bl ; sar bh, 1  ; and eax, ebx ; pop ebx ; ret  ;  (1 found)
0x100153d3: add byte [esi], dl ; add byte [eax], al ; add byte [eax-0x00000001], bh ; ret  ;  (1 found)
0x1001983c: add byte [esi], dl ; add byte [eax], al ; add byte [eax-0x00000001], bh ; ret  ;  (1 found)
0x100158e6: add byte [esp+esi-0x73], dh ; inc ebp ; lea ecx, dword [ebp-0x38] ; push eax ; push ecx ; call dword [0x100110DC] ;  (1 found)
0x100260ce: add byte [fs:eax], al ; add byte [ebx], bh ; fidivr word [esi+ecx-0x75] ; ret  ;  (1 found)
0x1002ba45: add byte [fs:eax], al ; jmp dword [eax+eax+0x00] ;  (1 found)
0x10027ea6: add ch, al ; aam 0x01 ; add byte [eax], al ; add esp, 0x08 ; ret  ;  (1 found)
0x10027ebc: add ch, al ; mov esi, 0x83000001 ; les ecx,  [eax] ; ret  ;  (1 found)
0x10025bc2: add ch, al ; sar esi, 0xFFFFFFFF ; add esp, 0x04 ; ret  ;  (1 found)
0x10029d90: add ch, bl ; fcomp st0, st3 ; sub eax, 0x100336A4 ; ret  ;  (1 found)
0x10029a3f: add ch, bl ; fcomp st0, st3 ; sub eax, 0x1003379A ; ret  ;  (1 found)
0x10029e73: add ch, bl ; fcomp st0, st5 ; fcomp st0, st3 ; sub eax, 0x100336A4 ; mov byte [ebp-0x00000090], 0x00000002 ; ret  ;  (1 found)
0x10029f3a: add ch, bl ; fcomp st0, st5 ; fcomp st0, st3 ; sub eax, 0x100336A4 ; mov byte [ebp-0x00000090], 0x00000003 ; ret  ;  (1 found)
0x1001bb05: add ch, bl ; inc eax ; adc byte [ebx+0x5E5F14C4], al ; add esp, 0x18 ; ret  ;  (1 found)
0x1002a9a6: add ch, bl ; inc ebp ; and byte [ebx-0x1A74FB3C], al ; pop ebp ; ret  ;  (1 found)
0x1002a3d6: add ch, bl ; inc ebp ; and byte [ebx-0x74A1F73C], al ; in eax, 0x5D ; ret  ;  (1 found)
0x1002a22f: add ch, bl ; inc ebp ; or al, 0x83 ; les ecx,  [eax] ; pop ebp ; ret  ;  (1 found)
0x1002a325: add ch, bl ; inc ebp ; sbb byte [ebx-0x74A1F73C], al ; in eax, 0x5D ; ret  ;  (1 found)
0x1002ac61: add ch, bl ; inc esp ; and al, 0x00 ; add esp, 0x08 ; ret  ;  (1 found)
0x10013703: add ch, bl ; retn 0x7D8D ;  (1 found)
0x10021c0f: add ch, bl ; retn 0x7D8D ;  (1 found)
0x10011f25: add ch, byte [ebx] ; rol dword [ebx-0x3FE4FE08], 0x23 ; retn 0xA1C3 ;  (1 found)
0x100144de: add ch, byte [edx+0x01] ; push 0x00000000 ; push eax ; call dword [0x100110C8] ;  (1 found)
0x1002a0fb: add cl, bl ; leave  ; fstp st0 ; ret  ;  (1 found)
0x1001d390: add cl, byte [eax+0x458B0247] ; or byte [esi+0x5F], bl ; leave  ; ret  ;  (1 found)
0x1001d4e0: add cl, byte [eax+0x458B0247] ; or byte [esi+0x5F], bl ; leave  ; ret  ;  (1 found)
0x10017df7: add cl, byte [eax-0x15] ; add dh, byte [ebx] ; rcr byte [edi+0x5E], 0x0000005B ; pop ebp ; ret  ;  (1 found)
0x10018111: add cl, byte [eax-0x15] ; add dh, byte [ebx] ; rcr byte [edi+0x5E], 0x0000005B ; pop ebp ; ret  ;  (1 found)
0x10017c62: add cl, byte [eax-0x15] ; add dh, byte [ebx] ; rcr byte [edi+0x5E], 0x0000005B ; ret  ;  (1 found)
0x10017fb4: add cl, byte [eax-0x15] ; add dh, byte [ebx] ; rcr byte [edi+0x5E], 0x0000005B ; ret  ;  (1 found)
0x10014613: add cl, byte [ebp+0x016AFC45] ; push 0x00000000 ; push eax ; call dword [0x100110C8] ;  (1 found)
0x100257c5: add cl, byte [ebx+0x2BC68BF3] ; mov dword [ebx-0x338A0008], 0x5FC03366 ; pop esi ; pop ebx ; ret  ;  (1 found)
0x10015fda: add cl, byte [ebx+0x5B5E5FC6] ; ret  ;  (1 found)
0x100156d5: add cl, byte [ebx+0x5E5F5DC3] ; pop ebx ; ret  ;  (1 found)
0x1001d393: add cl, byte [ebx+0x5F5E0845] ; leave  ; ret  ;  (1 found)
0x1001d4e3: add cl, byte [ebx+0x5F5E0845] ; leave  ; ret  ;  (1 found)
0x1001f308: add cl, byte [ebx-0x36A00339] ; ret  ;  (1 found)
0x1001c3d1: add cl, byte [ebx-0x74357430] ; retn 0xE9C1 ;  (1 found)
0x1001c886: add cl, byte [ebx-0x74357430] ; retn 0xE9C1 ;  (1 found)
0x1001a74d: add cl, byte [ebx-0x743CA03F] ; dec esp ; and al, 0x04 ; movzx eax, byte [ecx] ; ret  ;  (1 found)
0x1001fa7c: add cl, byte [ecx+0x5DE58B01] ; ret  ;  (1 found)
0x10027183: add cl, byte [ecx+0x5E5F0679] ; pop ebx ; mov esp, ebp ; pop ebp ; ret  ;  (1 found)
0x10012f74: add cl, byte [ecx+eax] ; push eax ; push dword [esp+0x08] ; call dword [0x100110AC] ;  (1 found)
0x1001b63b: add cl, byte [edi-0x7B] ; sal byte [ebp-0x13], cl ; pop edi ; pop esi ; ret  ;  (1 found)
0x1001c81f: add cl, byte [esi+0x00] ; add byte [ebx-0x3874FB3C], al ; pop edi ; pop esi ; pop ebp ; ret  ;  (1 found)
0x100157e5: add cl, ch ; nop  ; add dword [eax], eax ; add byte [esi-0x00000001], bh ; call dword [0x10011058] ;  (1 found)
0x10011cfc: add cl, ch ; test al, 0x00 ; add byte [eax], al ; call dword [0x10011044] ;  (1 found)
0x1001f0f4: add dh, al ; inc ebp ; jmp dword [edx-0x17] ;  (1 found)
0x100192b0: add dh, bh ; fcomp dword [edi+0x5E] ; ret  ;  (1 found)
0x1001d3d3: add dh, bl ; movsd  ; jmp dword [0x1001D378+eax*4] ;  (1 found)
0x1001d36d: add dh, bl ; movsd  ; jmp dword [0x1001D378+edx*4] ;  (1 found)
0x1001d479: add dh, bl ; movsd  ; jmp dword [0x1001D410+eax*4] ;  (1 found)
0x1001d406: add dh, bl ; movsd  ; jmp dword [0x1001D410+edx*4] ;  (1 found)
0x1001d523: add dh, bl ; movsd  ; jmp dword [0x1001D4C8+eax*4] ;  (1 found)
0x1001d4bd: add dh, bl ; movsd  ; jmp dword [0x1001D4C8+edx*4] ;  (1 found)
0x1001d5c9: add dh, bl ; movsd  ; jmp dword [0x1001D560+eax*4] ;  (1 found)
0x1001d556: add dh, bl ; movsd  ; jmp dword [0x1001D560+edx*4] ;  (1 found)
0x1001f168: add dh, byte [eax+ecx-0x15] ; and cl, byte [ecx+0x02F3B41D] ; adc dh, al ; inc ebp ; call dword [ebx-0x15] ;  (1 found)
0x1001e062: add dh, byte [ebp+0x08] ; mov eax, dword [ebp-0x28] ; mov dword [0x1002FF90], eax ; call dword [ebx+0x1002F1A0] ;  (1 found)
0x100280af: add dh, byte [ebp+eax+0x0D] ; add byte [eax], al ; or byte [eax], al ; ret  ;  (1 found)
0x10016766: add dh, byte [ebx] ; rcr byte [ebp-0x3D], 0xFFFFFFFF ; and eax, 0x1001110C ; jmp dword [0x10011110] ;  (1 found)
0x1001f3a2: add dh, byte [ebx] ; rcr byte [ebx+0x5F], 0x0000005E ; leave  ; ret  ;  (1 found)
0x100172d3: add dh, byte [ebx] ; rcr byte [edi+0x5E], 0x0000005B ; mov esp, ebp ; pop ebp ; ret  ;  (1 found)
0x10019554: add dh, byte [ebx] ; rcr byte [edi+0x5E], 0x0000005B ; mov esp, ebp ; pop ebp ; ret  ;  (1 found)
0x1001df50: add dh, byte [ebx] ; rcr byte [edi+0x5E], 0x0000005B ; mov esp, ebp ; pop ebp ; ret  ;  (1 found)
0x10017dfa: add dh, byte [ebx] ; rcr byte [edi+0x5E], 0x0000005B ; pop ebp ; ret  ;  (1 found)
0x10018114: add dh, byte [ebx] ; rcr byte [edi+0x5E], 0x0000005B ; pop ebp ; ret  ;  (1 found)
0x10017c65: add dh, byte [ebx] ; rcr byte [edi+0x5E], 0x0000005B ; ret  ;  (1 found)
0x10017fb7: add dh, byte [ebx] ; rcr byte [edi+0x5E], 0x0000005B ; ret  ;  (1 found)
0x1001b27b: add dh, byte [ebx] ; rcr byte [edi+0x5E], 0x0000005B ; ret  ;  (1 found)
0x1001d2f6: add dh, byte [ebx] ; rcr byte [edi+0x5E], 0x0000005D ; ret  ;  (1 found)
0x100163a5: add dh, byte [ebx] ; rcr byte [edi+0x5E], 0xFFFFFF8B ; in eax, 0x5D ; ret  ;  (1 found)
0x1001f2df: add dh, byte [ebx] ; rcr byte [esi+0x5F], 0xFFFFFFC9 ; ret  ;  (1 found)
0x10016c29: add dh, byte [ebx] ; rol byte [ebp+0x0000B8C0], 0x00000000 ; add byte [ebp+eax-0x48], dh ; add dword [eax], eax ; add byte [eax], al ; retn 0x0004 ;  (1 found)
0x1002638a: add dh, dh ; ret  ;  (1 found)
0x1001baa2: add dl, 0x00000030 ; lea eax, dword [ecx+0x01] ; pop esi ; mov byte [ecx], dl ; ret  ;  (1 found)
0x100252f1: add dl, byte [eax+0x68] ; add byte [ecx], al ; add byte [eax], al ; push dword [ebp-0x04] ; push 0x00000001 ; call dword [0x10011130] ;  (1 found)
0x1001c77c: add dl, byte [eax] ; add al, 0x74 ; add dword [ebp+0x2B], eax ; fisttp qword [ebx+0x03102444] ; ret  ;  (1 found)
0x1001c77b: add dl, byte [eax] ; add al, 0x74 ; add dword [ebp+0x2B], eax ; fisttp qword [ebx+0x03102444] ; ret  ;  (1 found)
0x10016f94: add dl, byte [eax] ; add al, 0x74 ; or al, 0x8B ; retn 0x3B42 ;  (1 found)
0x10017629: add dl, byte [eax] ; add al, 0x74 ; push es ; mov al, byte [eax+0x01] ; mov byte [ecx+0x01], al ; ret  ;  (1 found)
0x100177b9: add dl, byte [eax] ; add bl, ch ; or dword [eax-0x18], edx ; add byte [eax], al ; add esp, 0x04 ; ret  ;  (1 found)
0x10025bf2: add dl, byte [eax] ; add byte [eax], al ; add byte [eax], al ; ret  ;  (1 found)
0x100256d5: add dl, byte [eax] ; add byte [eax], al ; push edx ; call dword [0x100111B4] ;  (1 found)
0x10012308: add dl, byte [eax] ; add byte [ebp+0x1B], dh ; mov esi, 0x00000001 ; push esi ; push 0x100123B7 ; call dword [0x1001105C] ;  (1 found)
0x10011dd2: add dl, byte [eax] ; add esp, 0x04 ; ret  ;  (1 found)
0x10017727: add dl, byte [eax] ; and al, 0x04 ; cmp al, 0x01 ; sbb eax, eax ; add eax, 0x02 ; ret  ;  (1 found)
0x10016aaa: add dl, byte [eax] ; and eax, 0x40 ; ret  ;  (1 found)
0x10016aab: add dl, byte [eax] ; and eax, 0x40 ; ret  ;  (1 found)
0x10018c12: add dl, byte [eax] ; call dword [0x10011094] ;  (1 found)
0x10018d73: add dl, byte [eax] ; call dword [0x10011094] ;  (1 found)
0x10018dfb: add dl, byte [eax] ; call dword [0x10011094] ;  (1 found)
0x10012d4b: add dl, byte [eax] ; call dword [0x10011098] ;  (1 found)
0x10012dcd: add dl, byte [eax] ; call dword [0x10011098] ;  (1 found)
0x10016222: add dl, byte [eax] ; call dword [0x10011098] ;  (1 found)
0x1001628a: add dl, byte [eax] ; call dword [0x10011098] ;  (1 found)
0x10012d3d: add dl, byte [eax] ; call dword [0x100110A0] ;  (1 found)
0x10016214: add dl, byte [eax] ; call dword [0x100110A0] ;  (1 found)
0x1001586d: add dl, byte [eax] ; call dword [0x100110E0] ;  (1 found)
0x100157b4: add dl, byte [eax] ; call dword [0x100110E4] ;  (1 found)
0x10016238: add dl, byte [eax] ; call dword [0x100110F8] ;  (1 found)
0x1001630d: add dl, byte [eax] ; call dword [0x10011100] ;  (1 found)
0x10016b2e: add dl, byte [eax] ; call dword [0x10011134] ;  (1 found)
0x1001854a: add dl, byte [eax] ; call dword [0x10011134] ;  (1 found)
0x1001aef9: add dl, byte [eax] ; call dword [0x10011134] ;  (1 found)
0x1001a66d: add dl, byte [eax] ; call dword [0x10011134] ;  (1 found)
0x1001ad4d: add dl, byte [eax] ; call dword [0x10011134] ;  (1 found)
0x1001c027: add dl, byte [eax] ; call dword [0x10011134] ;  (1 found)
0x1001cfc7: add dl, byte [eax] ; call dword [0x10011134] ;  (1 found)
0x1001cff6: add dl, byte [eax] ; call dword [0x10011134] ;  (1 found)
0x1001d0b0: add dl, byte [eax] ; call dword [0x10011134] ;  (1 found)
0x1001d0fd: add dl, byte [eax] ; call dword [0x10011134] ;  (1 found)
0x1001d193: add dl, byte [eax] ; call dword [0x10011134] ;  (1 found)
0x1001d291: add dl, byte [eax] ; call dword [0x10011134] ;  (1 found)
0x1001d2d2: add dl, byte [eax] ; call dword [0x10011134] ;  (1 found)
0x1001e7a9: add dl, byte [eax] ; call dword [0x10011134] ;  (1 found)
0x1001f854: add dl, byte [eax] ; call dword [0x10011134] ;  (1 found)
0x1001b49d: add dl, byte [eax] ; call dword [0x1001116C] ;  (1 found)
0x100203a8: add dl, byte [eax] ; call dword [0x1001116C] ;  (1 found)
0x1001adb0: add dl, byte [eax] ; call dword [0x10011170] ;  (1 found)
0x1001c22e: add dl, byte [eax] ; call dword [0x10011170] ;  (1 found)
0x1001af5c: add dl, byte [eax] ; call dword [0x10011170] ;  (1 found)
0x1001fffc: add dl, byte [eax] ; call dword [0x10011170] ;  (1 found)
0x10020b09: add dl, byte [eax] ; call dword [0x10011170] ;  (1 found)
0x10020aaf: add dl, byte [eax] ; call dword [0x10011170] ;  (1 found)
0x10020d01: add dl, byte [eax] ; call dword [0x10011170] ;  (1 found)
0x10025ce6: add dl, byte [eax] ; call dword [0x10011170] ;  (1 found)
0x1001ad7e: add dl, byte [eax] ; call dword [0x10011174] ;  (1 found)
0x1001af2a: add dl, byte [eax] ; call dword [0x10011174] ;  (1 found)
0x1001f872: add dl, byte [eax] ; call dword [0x10011174] ;  (1 found)
0x1001f89e: add dl, byte [eax] ; call dword [0x10011174] ;  (1 found)
0x1001fdb0: add dl, byte [eax] ; call dword [0x10011174] ;  (1 found)
0x1001fe6a: add dl, byte [eax] ; call dword [0x10011174] ;  (1 found)
0x10020c3d: add dl, byte [eax] ; call dword [0x10011174] ;  (1 found)
0x1001b876: add dl, byte [eax] ; call dword [0x10011180] ;  (1 found)
0x1001b8a0: add dl, byte [eax] ; call dword [0x10011180] ;  (1 found)
0x10021631: add dl, byte [eax] ; call dword [0x100111A8] ;  (1 found)
0x10025272: add dl, byte [eax] ; call dword [0x100111B0] ;  (1 found)
0x1001e06b: add dl, byte [eax] ; call dword [ebx+0x1002F1A0] ;  (1 found)
0x1001297d: add dl, byte [eax] ; call dword [esi+0x0F] ;  (1 found)
0x100162e7: add dl, byte [eax] ; call dword [esi+0x57] ;  (1 found)
0x100161dd: add dl, byte [eax] ; call dword [esi+0x74] ;  (1 found)
0x10021557: add dl, byte [eax] ; call esi ;  (1 found)
0x10021986: add dl, byte [eax] ; jmp dword [0x10021E76+ecx*4] ;  (1 found)
0x10022a28: add dl, byte [eax] ; jmp dword [0x10022F4D+ecx*4] ;  (1 found)
0x100234f3: add dl, byte [eax] ; jmp dword [0x10023C0F+ecx*4] ;  (1 found)
0x10023ead: add dl, byte [eax] ; jmp dword [0x10024577+ecx*4] ;  (1 found)
0x1002875d: add dl, byte [eax] ; jmp dword [0x100288B5+eax*4] ;  (1 found)
0x1002895e: add dl, byte [eax] ; jmp dword [0x10028A46+ecx*4] ;  (1 found)
0x10025eae: add dl, byte [eax] ; mov dword [0x1002FF58], eax ; mov dword [0x1002FF6C], eax ; ret  ;  (1 found)
0x10025e9f: add dl, byte [eax] ; mov dword [0x1002FF68], 0x10025F74 ; mov eax, 0x100262B8 ; mov dword [0x1002FF58], eax ; mov dword [0x1002FF6C], eax ; ret  ;  (1 found)
0x10025eb3: add dl, byte [eax] ; mov dword [0x1002FF6C], eax ; ret  ;  (1 found)
0x10011c5c: add dl, byte [eax] ; mov dword [eax], edx ; ret  ;  (1 found)
0x10025ea9: add dl, byte [eax] ; mov eax, 0x100262B8 ; mov dword [0x1002FF58], eax ; mov dword [0x1002FF6C], eax ; ret  ;  (1 found)
0x1001b28d: add dl, byte [eax] ; mov ecx, dword [esp+0x04] ; mov dword [0x1002E088], ecx ; ret  ;  (1 found)
0x10011df5: add dl, byte [eax] ; mov ecx, dword [esp+0x04] ; mov dword [0x1002F124], ecx ; ret  ;  (1 found)
0x1001cfbe: add dl, byte [eax] ; or al, 0x01 ; push eax ; push dword [0x1002FF90] ; call dword [0x10011134] ;  (1 found)
0x100175b1: add dl, byte [eax] ; pop edi ; pop esi ; pop ebx ; ret  ;  (1 found)
0x10020e32: add dl, byte [eax] ; pop esi ; mov esp, ebp ; pop ebp ; ret  ;  (1 found)
0x10017542: add dl, byte [eax] ; pop esi ; ret  ;  (1 found)
0x10011c85: add dl, byte [eax] ; push dword [ebp+0x08] ; call dword [0x1001104C] ;  (1 found)
0x1001a682: add dl, byte [eax] ; push dword [ebp+0x0C] ; push 0x00000001 ; push eax ; call dword [0x10011134] ;  (1 found)
0x1001e7be: add dl, byte [eax] ; push dword [ebp+0x0C] ; push 0x00000001 ; push eax ; call dword [0x10011134] ;  (1 found)
0x10018bfa: add dl, byte [eax] ; push dword [ebp-0x08] ; call dword [0x100110C4] ;  (1 found)
0x1001633b: add dl, byte [eax] ; push dword [ebp-0x08] ; push esi ; push eax ; call dword [0x100110FC] ;  (1 found)
0x100128c6: add dl, byte [eax] ; push eax ; call dword [0x10011064] ;  (1 found)
0x1001293f: add dl, byte [eax] ; push eax ; call dword [0x10011064] ;  (1 found)
0x10012a0f: add dl, byte [eax] ; push eax ; call dword [0x10011064] ;  (1 found)
0x1001291a: add dl, byte [eax] ; push eax ; call dword [0x10011070] ;  (1 found)
0x10012992: add dl, byte [eax] ; push eax ; call dword [0x10011070] ;  (1 found)
0x1002155e: add dl, byte [eax] ; push eax ; call esi ;  (1 found)
0x100215ad: add dl, byte [eax] ; push eax ; call esi ;  (1 found)
0x100215b5: add dl, byte [eax] ; push eax ; call esi ;  (1 found)
0x100215a5: add dl, byte [eax] ; push eax ; call esi ;  (1 found)
0x1002147d: add dl, byte [eax] ; push eax ; mov byte [ebx], 0xFFFFFF81 ; call dword [0x100110E4] ;  (1 found)
0x1002147c: add dl, byte [eax] ; push eax ; mov byte [ebx], 0xFFFFFF81 ; call dword [0x100110E4] ;  (1 found)
0x10021548: add dl, byte [eax] ; push eax ; mov esi, dword [0x1001119C] ; call esi ;  (1 found)
0x100252dd: add dl, byte [eax] ; push ebx ; push eax ; call dword [0x10011134] ;  (1 found)
0x1001c01d: add dl, byte [eax] ; push ecx ; or al, 0x01 ; push eax ; push dword [0x1002FF90] ; call dword [0x10011134] ;  (1 found)
0x10021534: add dl, byte [eax] ; push ecx ; push edx ; push eax ; call dword [0x10011180] ;  (1 found)
0x1001d287: add dl, byte [eax] ; push edx ; or al, 0x01 ; push eax ; push dword [0x1002FF90] ; call dword [0x10011134] ;  (1 found)
0x1001d2c8: add dl, byte [eax] ; push edx ; or al, 0x01 ; push eax ; push dword [0x1002FF90] ; call dword [0x10011134] ;  (1 found)
0x10012d5f: add dl, byte [eax] ; push edx ; push ebx ; push eax ; call dword [0x1001109C] ;  (1 found)
0x10012bd7: add dl, byte [eax] ; push esi ; push 0x10012C0A ; push dword [esp+0x20] ; push 0x00000000 ; call dword [0x1001108C] ;  (1 found)
0x10011dff: add dl, byte [eax] ; ret  ;  (1 found)
0x1001b297: add dl, byte [eax] ; ret  ;  (1 found)
0x1001cd5e: add dl, byte [eax] ; ret  ;  (1 found)
0x10025eb8: add dl, byte [eax] ; ret  ;  (1 found)
0x10021747: add dl, byte [eax] ; ret  ;  (1 found)
0x100192ac: add dl, byte [eax] ; sar eax, 0x02 ; neg eax ; pop edi ; pop esi ; ret  ;  (1 found)
0x1001743f: add dl, byte [eax] ; std  ; mov eax, edi ; pop edi ; pop esi ; ret  ;  (1 found)
0x10017440: add dl, byte [eax] ; std  ; mov eax, edi ; pop edi ; pop esi ; ret  ;  (1 found)
0x10016c9f: add dl, byte [eax] ; xor eax, eax ; mov ax, word [edx+ecx*2] ; and eax, 0x00000103 ; ret  ;  (1 found)
0x1001cc48: add dl, byte [eax] ; xor eax, eax ; mov ax, word [edx+ecx*2] ; and eax, 0x00008000 ; ret  ;  (1 found)
0x10016f6f: add dl, byte [eax] ; xor eax, eax ; mov ax, word [edx+ecx*2] ; and eax, 0x01 ; ret  ;  (1 found)
0x10016e51: add dl, byte [eax] ; xor eax, eax ; mov ax, word [edx+ecx*2] ; and eax, 0x02 ; ret  ;  (1 found)
0x10016cfc: add dl, byte [eax] ; xor eax, eax ; mov ax, word [edx+ecx*2] ; and eax, 0x04 ; ret  ;  (1 found)
0x10016f14: add dl, byte [eax] ; xor eax, eax ; mov ax, word [edx+ecx*2] ; and eax, 0x08 ; ret  ;  (1 found)
0x100126b5: add dl, byte [eax] ; xor eax, eax ; mov ecx, dword [esp+0x04] ; mov ax, word [edx+ecx*2] ; and eax, 0x00000080 ; ret  ;  (1 found)
0x100125f8: add dl, byte [eax] ; xor eax, eax ; mov ecx, dword [esp+0x04] ; mov ax, word [edx+ecx*2] ; and eax, 0x00000103 ; ret  ;  (1 found)
0x10012744: add dl, byte [eax] ; xor eax, eax ; mov ecx, dword [esp+0x04] ; mov ax, word [edx+ecx*2] ; and eax, 0x00000107 ; ret  ;  (1 found)
0x100127aa: add dl, byte [eax] ; xor eax, eax ; mov ecx, dword [esp+0x04] ; mov ax, word [edx+ecx*2] ; and eax, 0x00000117 ; ret  ;  (1 found)
0x10012777: add dl, byte [eax] ; xor eax, eax ; mov ecx, dword [esp+0x04] ; mov ax, word [edx+ecx*2] ; and eax, 0x00000157 ; ret  ;  (1 found)
0x10012628: add dl, byte [eax] ; xor eax, eax ; mov ecx, dword [esp+0x04] ; mov ax, word [edx+ecx*2] ; and eax, 0x01 ; ret  ;  (1 found)
0x10012656: add dl, byte [eax] ; xor eax, eax ; mov ecx, dword [esp+0x04] ; mov ax, word [edx+ecx*2] ; and eax, 0x02 ; ret  ;  (1 found)
0x10012684: add dl, byte [eax] ; xor eax, eax ; mov ecx, dword [esp+0x04] ; mov ax, word [edx+ecx*2] ; and eax, 0x04 ; ret  ;  (1 found)
0x100126e5: add dl, byte [eax] ; xor eax, eax ; mov ecx, dword [esp+0x04] ; mov ax, word [edx+ecx*2] ; and eax, 0x08 ; ret  ;  (1 found)
0x10012713: add dl, byte [eax] ; xor eax, eax ; mov ecx, dword [esp+0x04] ; mov ax, word [edx+ecx*2] ; and eax, 0x10 ; ret  ;  (1 found)
0x100127da: add dl, byte [eax] ; xor eax, eax ; mov ecx, dword [esp+0x04] ; mov ax, word [edx+ecx*2] ; and eax, 0x20 ; ret  ;  (1 found)
0x10024f2e: add dl, byte [eax] ; xor eax, eax ; pop edi ; pop esi ; pop ebx ; ret  ;  (1 found)
0x1001ada3: add dl, byte [ecx+0x50] ; push edx ; push 0x00000210 ; push dword [0x1002FF90] ; call dword [0x10011170] ;  (1 found)
0x1001af4f: add dl, byte [ecx+0x50] ; push edx ; push 0x00000210 ; push dword [0x1002FF90] ; call dword [0x10011170] ;  (1 found)
0x1002ba43: add dl, dl ; add byte [fs:eax], al ; jmp dword [eax+eax+0x00] ;  (1 found)
0x100155be: add dword [eax+0x00000000], edi ; adc eax, 0xFFFFFFFF ; pop esi ; ret  ;  (1 found)
0x100207eb: add dword [eax+0x00000000], edi ; pop esi ; adc eax, 0xFFFFFFFF ; and eax, ebx ; pop ebx ; ret  ;  (1 found)
0x10017c9c: add dword [eax+0x2B], ecx ; inc esp ; and al, 0x04 ; ret  ;  (1 found)
0x10012b8d: add dword [eax+0x50], eax ; call dword [0x10011080] ;  (1 found)
0x1001d1b0: add dword [eax+0x5F], ecx ; pop esi ; pop ebx ; pop ebp ; ret  ;  (1 found)
0x1001c223: add dword [eax+0x68], edx ; and byte [edx], al ; add byte [eax], al ; push dword [0x1002FF90] ; call dword [0x10011170] ;  (1 found)
0x1001fff1: add dword [eax+0x68], edx ; and byte [edx], al ; add byte [eax], al ; push dword [0x1002FF90] ; call dword [0x10011170] ;  (1 found)
0x10020cf6: add dword [eax+0x68], edx ; and byte [edx], al ; add byte [eax], al ; push dword [0x1002FF90] ; call dword [0x10011170] ;  (1 found)
0x10021462: add dword [eax-0x0000000B], edi ; adc eax, 0xFFFFFFFF ; push eax ; call dword [0x10011194] ;  (1 found)
0x1001c021: add dword [eax-0x01], edx ; xor eax, 0x1002FF90 ; call dword [0x10011134] ;  (1 found)
0x1001cfc1: add dword [eax-0x01], edx ; xor eax, 0x1002FF90 ; call dword [0x10011134] ;  (1 found)
0x1001d28b: add dword [eax-0x01], edx ; xor eax, 0x1002FF90 ; call dword [0x10011134] ;  (1 found)
0x1001d2cc: add dword [eax-0x01], edx ; xor eax, 0x1002FF90 ; call dword [0x10011134] ;  (1 found)
0x1001d42a: add dword [eax-0x7403FEB9], ecx ; inc ebp ; or byte [esi+0x5F], bl ; leave  ; ret  ;  (1 found)
0x1001d57a: add dword [eax-0x7403FEB9], ecx ; inc ebp ; or byte [esi+0x5F], bl ; leave  ; ret  ;  (1 found)
0x1001a273: add dword [eax], 0x00000000 ; add esp, 0x18 ; push ebx ; mov dword [edi+0x1C], eax ; call dword [0x100110D8] ;  (1 found)
0x1001ad77: add dword [eax], eax ; add bh, bh ; xor eax, 0x1002FF80 ; call dword [0x10011174] ;  (1 found)
0x1001fda9: add dword [eax], eax ; add bh, bh ; xor eax, 0x1002FF80 ; call dword [0x10011174] ;  (1 found)
0x100127f3: add dword [eax], eax ; add byte [eax], al ; adc eax, 0xFFFFFFFF ; ret  ;  (1 found)
0x1001cd12: add dword [eax], eax ; add byte [eax], al ; adc eax, 0xFFFFFFFF ; ret  ;  (1 found)
0x10018b93: add dword [eax], eax ; add byte [eax], al ; call dword [0x100110C8] ;  (1 found)
0x10018b8c: add dword [eax], eax ; add byte [eax], al ; mov dword [ebp-0x2C], 0x00000001 ; call dword [0x100110C8] ;  (1 found)
0x100271d5: add dword [eax], eax ; add byte [eax], al ; mov ecx, dword [esp+0x10] ; mov dword [ecx], esi ; pop esi ; ret  ;  (1 found)
0x10012846: add dword [eax], eax ; add byte [eax], al ; pop ebp ; ret  ;  (1 found)
0x1001288f: add dword [eax], eax ; add byte [eax], al ; pop ebp ; ret  ;  (1 found)
0x10016ecb: add dword [eax], eax ; add byte [eax], al ; pop ebx ; ret  ;  (1 found)
0x10026734: add dword [eax], eax ; add byte [eax], al ; pop edi ; pop esi ; ret  ;  (1 found)
0x10012423: add dword [eax], eax ; add byte [eax], al ; pop edi ; pop esi ; retn 0x0004 ;  (1 found)
0x10020361: add dword [eax], eax ; add byte [eax], al ; pop esi ; ret  ;  (1 found)
0x1001230e: add dword [eax], eax ; add byte [eax], al ; push esi ; push 0x100123B7 ; call dword [0x1001105C] ;  (1 found)
0x10012ae2: add dword [eax], eax ; add byte [eax], al ; ret  ;  (1 found)
0x1001698f: add dword [eax], eax ; add byte [eax], al ; ret  ;  (1 found)
0x10016c05: add dword [eax], eax ; add byte [eax], al ; ret  ;  (1 found)
0x10025e7e: add dword [eax], eax ; add byte [eax], al ; ret  ;  (1 found)
0x10026875: add dword [eax], eax ; add byte [eax], al ; ret  ;  (1 found)
0x10027df4: add dword [eax], eax ; add byte [eax], al ; ret  ;  (1 found)
0x10028b36: add dword [eax], eax ; add byte [eax], al ; ret  ;  (1 found)
0x10029fbe: add dword [eax], eax ; add byte [eax], al ; ret  ;  (1 found)
0x10016c36: add dword [eax], eax ; add byte [eax], al ; retn 0x0004 ;  (1 found)
0x10012e9c: add dword [eax], eax ; add byte [ebp+0x56002444], cl ; xor esi, esi ; push eax ; push 0x00000104 ; call dword [0x100110A4] ;  (1 found)
0x10011c77: add dword [eax], eax ; add byte [ebp-0x0001037B], cl ; call dword [eax-0x01] ;  (1 found)
0x1001a10d: add dword [eax], eax ; add byte [ebp-0x0002577B], cl ; call dword [esi+0x33] ;  (1 found)
0x1001a19f: add dword [eax], eax ; add byte [ebp-0x72720FBB], cl ; sar dh, 0xFFFFFFFF ; call dword [eax+0x51] ;  (1 found)
0x1001526d: add dword [eax], eax ; add byte [ebx+0x438904C4], al ; or byte [ebp-0x00012F7B], cl ; dec dword [ebp-0x00011743] ; call dword [eax-0x18] ;  (1 found)
0x1001da46: add dword [eax], eax ; add byte [ebx+0x458B0CC4], al ; adc byte [ebx], al ; ret  ;  (1 found)
0x1002893b: add dword [eax], eax ; add byte [ebx+0x5D5E08C4], al ; ret  ;  (1 found)
0x100151c9: add dword [eax], eax ; add byte [ebx-0x73], dl ; test dword [esi+edi*8+0x5756FFFF], edi ; push eax ; push dword [ebp+0x08] ; call dword [0x100110D0] ;  (1 found)
0x1001b287: add dword [eax], eax ; add byte [ecx+0x1002E088], ah ; mov ecx, dword [esp+0x04] ; mov dword [0x1002E088], ecx ; ret  ;  (1 found)
0x1002846f: add dword [eax], eax ; add byte [edi-0x73], dl ; test dword [edi+edi*8-0x01], edi ; call dword [ebx+0x50] ;  (1 found)
0x10028470: add dword [eax], eax ; add byte [edi-0x73], dl ; test dword [edi+edi*8-0x01], edi ; call dword [ebx+0x50] ;  (1 found)
0x10020dad: add dword [eax], eax ; add byte [esi+0x10033950], bh ; push esi ; push 0x00000000 ; call dword [0x1001104C] ;  (1 found)
0x10021005: add dword [eax], eax ; add byte [esi+0x10033A58], bh ; push esi ; push 0x00000000 ; call dword [0x1001104C] ;  (1 found)
0x1002159d: add dword [eax], eax ; add byte [esi+ecx*8-0x5F], bh ; cli  ; add dl, byte [eax] ; push eax ; call esi ;  (1 found)
0x100157e8: add dword [eax], eax ; add byte [esi-0x00000001], bh ; call dword [0x10011058] ;  (1 found)
0x100252d6: add dword [eax], eax ; add byte [esi-0x5F], dl ; nop  ; inc dword [edx] ; adc byte [ebx+0x50], dl ; call dword [0x10011134] ;  (1 found)
0x1002b9e2: add dword [eax], eax ; cmp byte [ecx+0x00], dl ; add byte [ebx-0x45FFFFAF], bh ; push ebx ; add byte [eax], al ; ret  ;  (1 found)
0x1002c222: add dword [eax], eax ; ret  ;  (1 found)
0x1002c51e: add dword [eax], eax ; ret  ;  (1 found)
0x1002c592: add dword [eax], eax ; ret  ;  (1 found)
0x1002c1ae: add dword [eax], eax ; retn 0x01CF ;  (1 found)
0x1002c35e: add dword [eax], eax ; retn 0x01D3 ;  (1 found)
0x1002c3ce: add dword [eax], eax ; retn 0x01D4 ;  (1 found)
0x1002c7ce: add dword [eax], eax ; retn 0x01DC ;  (1 found)
0x10020323: add dword [eax], eax ; sbb eax, eax ; and eax, ecx ; ret  ;  (1 found)
0x10027dc2: add dword [eax], eax ; sbb eax, eax ; inc eax ; ret  ;  (1 found)
0x100256a2: add dword [eax], edx ; add byte [eax], al ; push ecx ; call dword [0x100111B4] ;  (1 found)
0x100189be: add dword [eax], edx ; call dword [0x10011058] ;  (1 found)
0x10012316: add dword [eax], edx ; call dword [0x1001105C] ;  (1 found)
0x100169be: add dword [eax], edx ; call dword [0x1001111C] ;  (1 found)
0x1002171f: add dword [eax], edx ; call dword [0x10011150] ;  (1 found)
0x1002173b: add dword [eax], edx ; call dword [0x10011150] ;  (1 found)
0x1002154f: add dword [eax], edx ; call esi ;  (1 found)
0x100168c2: add dword [eax], edx ; cmp eax, 0x01 ; sbb eax, eax ; and al, 0xFE ; sub eax, 0x02 ; ret  ;  (1 found)
0x100169ef: add dword [eax], edx ; cmp eax, 0x01 ; sbb eax, eax ; ret  ;  (1 found)
0x10028d0e: add dword [eax], edx ; fsqrt  ; fmul qword [ebp-0x08] ; mov esp, ebp ; pop ebp ; ret  ;  (1 found)
0x10028f82: add dword [eax], edx ; fsqrt  ; fmul qword [ebp-0x08] ; mov esp, ebp ; pop ebp ; ret  ;  (1 found)
0x1002909e: add dword [eax], edx ; fsqrt  ; fmul qword [ebp-0x08] ; mov esp, ebp ; pop ebp ; ret  ;  (1 found)
0x10012a1e: add dword [eax], edx ; jmp dword [0x10011074] ;  (1 found)
0x1001676f: add dword [eax], edx ; jmp dword [0x10011110] ;  (1 found)
0x1001347a: add dword [eax], edx ; jmp dword [0x10013958+ecx*4] ;  (1 found)
0x10013cc2: add dword [eax], edx ; jmp dword [0x1001432F+ecx*4] ;  (1 found)
0x1001e9e9: add dword [eax], edx ; jmp dword [0x1001ED83+ecx*4] ;  (1 found)
0x100224a9: add dword [eax], edx ; lea eax, dword [ebp-0x08] ; push eax ; push dword [ebp-0x20] ; call dword [0x100110BC] ;  (1 found)
0x10012909: add dword [eax], edx ; mov dword [0x1002E148], 0xFFFFFFFF ; ret  ;  (1 found)
0x100212b1: add dword [eax], edx ; mov dword [0x10033B5C], esi ; mov eax, dword [0x10033B60] ; push eax ; push edi ; call dword [0x100110D0] ;  (1 found)
0x100214c0: add dword [eax], edx ; mov dword [0x10033CB8], eax ; ret  ;  (1 found)
0x10011d06: add dword [eax], edx ; mov dword [0x10033ECC], eax ; call dword [0x10011040] ;  (1 found)
0x10011d11: add dword [eax], edx ; mov dword [0x10033ED0], eax ; call dword [0x10011104] ;  (1 found)
0x100170e8: add dword [eax], edx ; mov eax, dword [ebp+0x0C] ; mov esp, ebp ; pop ebp ; ret  ;  (1 found)
0x1001711c: add dword [eax], edx ; mov eax, dword [ebp+0x0C] ; mov esp, ebp ; pop ebp ; ret  ;  (1 found)
0x10017150: add dword [eax], edx ; mov eax, dword [ebp+0x0C] ; mov esp, ebp ; pop ebp ; ret  ;  (1 found)
0x10016290: add dword [eax], edx ; mov eax, esi ; pop esi ; mov esp, ebp ; pop ebp ; ret  ;  (1 found)
0x1001a3a0: add dword [eax], edx ; mov ecx, dword [esp+0x04] ; dec cl ; shr eax, cl ; and eax, 0x01 ; ret  ;  (1 found)
0x1002245d: add dword [eax], edx ; mov edi, eax ; call dword [0x10011058] ;  (1 found)
0x10011efe: add dword [eax], edx ; pop ebp ; pop edi ; pop esi ; pop ebx ; ret  ;  (1 found)
0x1001dc0c: add dword [eax], edx ; pop ebp ; ret  ;  (1 found)
0x10021637: add dword [eax], edx ; pop ebp ; ret  ;  (1 found)
0x1002153d: add dword [eax], edx ; pop edi ; add esp, 0x04 ; ret  ;  (1 found)
0x1001672b: add dword [eax], edx ; pop edi ; pop esi ; mov esp, ebp ; pop ebp ; ret  ;  (1 found)
0x1002161f: add dword [eax], edx ; pop edi ; pop esi ; pop ebp ; ret  ;  (1 found)
0x10021741: add dword [eax], edx ; pop esi ; mov dword [0x1002FF48], eax ; ret  ;  (1 found)
0x10016838: add dword [eax], edx ; pop esi ; mov esp, ebp ; pop ebp ; ret  ;  (1 found)
0x10012026: add dword [eax], edx ; pop esi ; pop ebx ; ret  ;  (1 found)
0x10012a16: add dword [eax], edx ; pop esi ; ret  ;  (1 found)
0x10012cf8: add dword [eax], edx ; pop esi ; ret  ;  (1 found)
0x1001621a: add dword [eax], edx ; push 0x00000000 ; push dword [0x1002FF44] ; call dword [0x10011098] ;  (1 found)
0x10012d43: add dword [eax], edx ; push 0x00000007 ; push dword [0x1002FF44] ; call dword [0x10011098] ;  (1 found)
0x10025bd5: add dword [eax], edx ; push 0x00000008 ; push eax ; call dword [0x10011134] ;  (1 found)
0x10018d6c: add dword [eax], edx ; push dword [0x1002F4C0+esi*4] ; call dword [0x10011094] ;  (1 found)
0x10018df4: add dword [eax], edx ; push dword [0x1002F4C0+esi*4] ; call dword [0x10011094] ;  (1 found)
0x10019037: add dword [eax], edx ; push dword [ebp-0x04] ; call dword [0x10011094] ;  (1 found)
0x100224b6: add dword [eax], edx ; push dword [ebp-0x20] ; call dword [0x10011094] ;  (1 found)
0x10012bdd: add dword [eax], edx ; push dword [esp+0x20] ; push 0x00000000 ; call dword [0x1001108C] ;  (1 found)
0x10014631: add dword [eax], edx ; push eax ; call dword [0x100110C4] ;  (1 found)
0x100144f9: add dword [eax], edx ; push eax ; call dword [0x100110C4] ;  (1 found)
0x100168bb: add dword [eax], edx ; push eax ; call dword [0x10011118] ;  (1 found)
0x10016904: add dword [eax], edx ; push eax ; call dword [0x10011118] ;  (1 found)
0x100169c4: add dword [eax], edx ; push eax ; call dword [0x10011120] ;  (1 found)
0x10016946: add dword [eax], edx ; push eax ; call dword [0x10011124] ;  (1 found)
0x10016a21: add dword [eax], edx ; push eax ; call dword [0x10011124] ;  (1 found)
0x10016a4c: add dword [eax], edx ; push eax ; call dword [0x10011124] ;  (1 found)
0x1001691f: add dword [eax], edx ; push eax ; call dword [0x10011128] ;  (1 found)
0x100169e8: add dword [eax], edx ; push eax ; call dword [0x1001112C] ;  (1 found)
0x10012b94: add dword [eax], edx ; ret  ;  (1 found)
0x10012ba3: add dword [eax], edx ; ret  ;  (1 found)
0x100169cb: add dword [eax], edx ; ret  ;  (1 found)
0x10017195: add dword [eax], edx ; ret  ;  (1 found)
0x100171af: add dword [eax], edx ; ret  ;  (1 found)
0x10018772: add dword [eax], edx ; ret  ;  (1 found)
0x1001972c: add dword [eax], edx ; ret  ;  (1 found)
0x1001c4d5: add dword [eax], edx ; ret  ;  (1 found)
0x1002176a: add dword [eax], edx ; ret  ;  (1 found)
0x10029a32: add dword [ebp+0x05], esi ; xor ch, ch ; fsqrt  ; ret  ;  (1 found)
0x10016a3b: add dword [ebp+0x06], esi ; mov word [ebp-0x16], 0x0004 ; lea eax, dword [ebp-0x20] ; push eax ; call dword [0x1001111C] ;  (1 found)
0x1001c780: add dword [ebp+0x2B], eax ; fisttp qword [ebx+0x03102444] ; ret  ;  (1 found)
0x100158a5: add dword [ebp+0x4D8DF045], ecx ; rcl byte [eax+0x51], 1  ; call dword [0x100110DC] ;  (1 found)
0x10028109: add dword [ebp+0x501974C0], eax ; call dword [ebp+0x10] ;  (1 found)
0x1001ac9d: add dword [ebp-0x7CFC8B40], eax ; ret  ;  (1 found)
0x1002283c: add dword [ebx+0x235EFFD0], eax ; retn 0x5D5B ;  (1 found)
0x100260fe: add dword [ebx+0x5E5F0845], ecx ; pop ebx ; pop ebp ; ret  ;  (1 found)
0x1001a86d: add dword [ebx-0x38DC0030], eax ; pop edi ; pop esi ; ret  ;  (1 found)
0x10018032: add dword [ebx], eax ; retn 0x55C3 ;  (1 found)
0x10024689: add dword [ebx], ebx ; sal bh, 0xFFFFFFD8 ; ret  ;  (1 found)
0x10027e8e: add dword [ebx], ebx ; shl byte [0x000000F8], 0xFFFFFF83 ; ror byte [eax], 0x0000005D ; ret  ;  (1 found)
0x10017888: add dword [ebx], ebx ; shl byte [ebx], 0xFFFFFFC2 ; pop ebx ; ret  ;  (1 found)
0x10011f2a: add dword [ebx], ebx ; shl byte [ebx], 0xFFFFFFC2 ; ret  ;  (1 found)
0x100125bf: add dword [ebx], ebx ; shl byte [ebx], 0xFFFFFFC2 ; ret  ;  (1 found)
0x1002059f: add dword [ebx], ebx ; shl byte [ebx], 0xFFFFFFC2 ; ret  ;  (1 found)
0x100252bd: add dword [ebx], edi ; enter 0xF37D, 0x83 ; retn 0x8002 ;  (1 found)
0x1001f78d: add dword [ebx], esi ; rcr byte [edi+0x5E], 0x0000005B ; mov esp, ebp ; pop ebp ; ret  ;  (1 found)
0x100209d8: add dword [ebx], esi ; rcr byte [edi+0x5E], 0x0000005B ; mov esp, ebp ; pop ebp ; ret  ;  (1 found)
0x10016b70: add dword [ebx], esi ; ror byte [ebx-0x17F7DBB4], cl ; mov es, word [eax] ; add byte [eax], al ; ret  ;  (1 found)
0x1001d2c4: add dword [ecx+0x1002FF98], esp ; push edx ; or al, 0x01 ; push eax ; push dword [0x1002FF90] ; call dword [0x10011134] ;  (1 found)
0x1001fda5: add dword [ecx+0x68], edx ; add byte [ecx], al ; add byte [eax], al ; push dword [0x1002FF80] ; call dword [0x10011174] ;  (1 found)
0x1001fe5f: add dword [ecx+0x68], edx ; add byte [edx], al ; add byte [eax], al ; push dword [0x1002FF80] ; call dword [0x10011174] ;  (1 found)
0x10016232: add dword [ecx-0x01], edx ; xor eax, 0x1002FF44 ; call dword [0x100110F8] ;  (1 found)
0x1001a729: add dword [ecx-0x76], eax ; add dword [edx], ecx ; sal byte [ebp-0x11], 0xFFFFFF8B ; retn 0xC3C9 ;  (1 found)
0x1001a909: add dword [ecx-0x76], eax ; add dword [edx], ecx ; sal byte [ebp-0x11], 0xFFFFFF8B ; retn 0xC3C9 ;  (1 found)
0x1001d0a9: add dword [edi+0x50], edx ; push dword [0x1002FF90] ; call dword [0x10011134] ;  (1 found)
0x100269d2: add dword [edi-0x75], eax ; pop esi ; add al, 0x8B ; ret  ;  (1 found)
0x100170e1: add dword [edx+0x00], ebp ; call dword [0x10011134] ;  (1 found)
0x10017149: add dword [edx+0x00], ebp ; call dword [0x10011134] ;  (1 found)
0x10017115: add dword [edx+0x00], ebp ; call dword [0x10011134] ;  (1 found)
0x1001b443: add dword [edx+0x00], ebp ; call dword [0x1001116C] ;  (1 found)
0x100144e0: add dword [edx+0x00], ebp ; push eax ; call dword [0x100110C8] ;  (1 found)
0x10014618: add dword [edx+0x00], ebp ; push eax ; call dword [0x100110C8] ;  (1 found)
0x10018d5b: add dword [edx+0x00], ebp ; push eax ; push dword [ebp-0x08] ; push dword [ebp-0x24] ; push dword [ebp-0x08] ; call dword [0x100110C4] ;  (1 found)
0x10018de3: add dword [edx+0x00], ebp ; push eax ; push dword [ebp-0x08] ; push dword [ebp-0x24] ; push dword [ebp-0x08] ; call dword [0x100110C4] ;  (1 found)
0x1002a633: add dword [edx+0x00], ebp ; push edi ; call dword [0x100111C4] ;  (1 found)
0x1001cfed: add dword [edx+0x01], ebp ; push edx ; push eax ; push dword [0x1002FF90] ; call dword [0x10011134] ;  (1 found)
0x10017722: add dword [edx+0x02EF3980], ecx ; adc byte [esp+eax], ah ; cmp al, 0x01 ; sbb eax, eax ; add eax, 0x02 ; ret  ;  (1 found)
0x1001cfef: add dword [edx+0x50], edx ; push dword [0x1002FF90] ; call dword [0x10011134] ;  (1 found)
0x100190a7: add dword [edx+0x51], edx ; call dword [0x100110B8] ;  (1 found)
0x100156d3: add dword [edx+eax-0x75], esi ; ret  ;  (1 found)
0x1001d188: add dword [edx-0x01], ebp ; push dword [ebp+0x0C] ; push eax ; push dword [0x1002FF90] ; call dword [0x10011134] ;  (1 found)
0x10018541: add dword [edx-0x01], ebp ; push edi ; push eax ; push dword [0x1002FF90] ; call dword [0x10011134] ;  (1 found)
0x1002608a: add dword [edx-0x74F777F6], ecx ; retn 0x0D8A ;  (1 found)
0x1002a1c3: add dword [edx], ecx ; leave  ; ret  ;  (1 found)
0x1001a72c: add dword [edx], ecx ; sal byte [ebp-0x11], 0xFFFFFF8B ; retn 0xC3C9 ;  (1 found)
0x1001a90c: add dword [edx], ecx ; sal byte [ebp-0x11], 0xFFFFFF8B ; retn 0xC3C9 ;  (1 found)
0x1001d0f3: add dword [esi+0x50], edx ; push edi ; push 0x00000001 ; push dword [0x1002FF90] ; call dword [0x10011134] ;  (1 found)
0x10022450: add dword [esi+0x56], edx ; push dword [ebp-0x10] ; push dword [ebp+0x0C] ; call dword [0x100111AC] ;  (1 found)
0x10012ab8: add eax, 0x00000000 ; add esp, 0x0C ; pop edi ; pop esi ; pop ebx ; ret  ;  (1 found)
0x10012ae0: add eax, 0x000001B8 ; add bl, al ; push dword [esp+0x04] ; call dword [0x1001107C] ;  (1 found)
0x10028bdf: add eax, 0x000002B8 ; add byte [eax-0x7D], dl ; retn 0x5308 ;  (1 found)
0x10026385: add eax, 0x000080BE ; add dh, dh ; ret  ;  (1 found)
0x100204b4: add eax, 0x0006C766 ; add byte [edi+0x5E], bl ; pop ebp ; ret  ;  (1 found)
0x10017612: add eax, 0x02 ; ret  ;  (1 found)
0x1001772f: add eax, 0x02 ; ret  ;  (1 found)
0x10025b76: add eax, 0x033BB4A3 ; adc byte [ebx+0x10033BB0], ah ; xor eax, eax ; ret  ;  (1 found)
0x10029b30: add eax, 0x03E80000 ; add byte [eax], al ; add byte [ebx-0x37], bl ; ret  ;  (1 found)
0x10027e96: add eax, 0x08 ; pop ebp ; ret  ;  (1 found)
0x10012219: add eax, 0x08 ; ret  ;  (1 found)
0x10012222: add eax, 0x0C ; ret  ;  (1 found)
0x10011c82: add eax, 0x1002E000 ; push dword [ebp+0x08] ; call dword [0x1001104C] ;  (1 found)
0x100192a9: add eax, 0x1002E0C4 ; sar eax, 0x02 ; neg eax ; pop edi ; pop esi ; ret  ;  (1 found)
0x10025bef: add eax, 0x1002FF98 ; add byte [eax], al ; add byte [eax], al ; ret  ;  (1 found)
0x1002a13b: add eax, 0x100337A4 ; ret  ;  (1 found)
0x10027f36: add eax, 0x1C ; mov dword [eax+0x08], 0x0000FFFF ; ret  ;  (1 found)
0x1001ac4a: add eax, 0x20 ; ret  ;  (1 found)
0x10021309: add eax, 0x2C ; pop edi ; pop esi ; ret  ;  (1 found)
0x10024682: add eax, 0x3FFFFFFB ; cmp eax, 0x01 ; sbb eax, eax ; neg eax ; ret  ;  (1 found)
0x100125d3: add eax, 0x48 ; ret  ;  (1 found)
0x100125ca: add eax, 0x4C ; ret  ;  (1 found)
0x1002a62b: add eax, 0x4D8D0000 ; or byte [ecx+0x6A], dl ; add dword [edx+0x00], ebp ; push edi ; call dword [0x100111C4] ;  (1 found)
0x1001601a: add eax, 0x6A0C75FF ; hlt  ; call dword [0x100110F4] ;  (1 found)
0x1001b428: add eax, 0x74D13B66 ; retn 0xB70F ;  (1 found)
0x10026380: add eax, 0x7501F883 ; add eax, 0x000080BE ; add dh, dh ; ret  ;  (1 found)
0x10028b2b: add eax, 0x7E10F883 ; add al, 0x33 ; shr bl, 0x00000005 ; mov eax, 0x00000001 ; ret  ;  (1 found)
0x10023cc8: add eax, 0x83FFFFC2 ; les ecx,  [eax] ; ret  ;  (1 found)
0x1001ccbd: add eax, 0x83FFFFFF ; les ecx,  [eax] ; ret  ;  (1 found)
0x10026ac2: add eax, 0x890C558B ; cmp bl, byte [edi+0x5E] ; pop ebx ; mov esp, ebp ; pop ebp ; ret  ;  (1 found)
0x100288a9: add eax, 0x89FEE180 ; or bl, byte [edi+0x5E] ; mov esp, ebp ; pop ebp ; ret  ;  (1 found)
0x1001de0d: add eax, 0x8D57327F ; test dword [edi+edi*8-0x01], ebp ; call dword [esi+0x50] ;  (1 found)
0x10022916: add eax, 0xB70F0000 ; ret  ;  (1 found)
0x100229ed: add eax, 0xB70F0000 ; ret  ;  (1 found)
0x1001deda: add eax, 0xD883C01B ; inc dword [ebp-0x72E58B40] ; test dword [edi+edi*8-0x01], ebp ; call dword [eax-0x01] ;  (1 found)
0x1001831b: add eax, 0xEB461688 ; add al, 0xC6 ; inc esi ; jmp dword [eax] ;  (1 found)
0x10029a34: add eax, 0xFAD9ED32 ; ret  ;  (1 found)
0x100156a9: add eax, 0xFFFFFFBB ; call dword [ebp-0x18] ;  (1 found)
0x10014801: add eax, 0xFFFFFFBE ; call dword [ebx-0x18] ;  (1 found)
0x100213c5: add eax, dword [eax] ; add byte [eax], al ; add byte [edi+0x5E], bl ; pop ebx ; add esp, 0x04 ; ret  ;  (1 found)
0x10029b34: add eax, dword [eax] ; add byte [eax], al ; pop ebx ; leave  ; ret  ;  (1 found)
0x10012a65: add eax, dword [eax] ; add byte [eax], al ; ret  ;  (1 found)
0x10022a82: add eax, dword [eax] ; add byte [ecx+0x03E9C875], cl ; add eax, dword [eax] ; add byte [esi-0x7D], ah ; ret  ;  (1 found)
0x10022a8a: add eax, dword [eax] ; add byte [esi-0x7D], ah ; ret  ;  (1 found)
0x10021578: add eax, dword [ebp-0x7CE38B40] ; call dword [ecx] ;  (1 found)
0x1001d473: add eax, dword [ebx-0x163EFC11] ; add dh, bl ; movsd  ; jmp dword [0x1001D410+eax*4] ;  (1 found)
0x1001d5c3: add eax, dword [ebx-0x163EFC11] ; add dh, bl ; movsd  ; jmp dword [0x1001D560+eax*4] ;  (1 found)
0x1001767f: add eax, dword [ebx-0x1F3EBF40] ; or byte [ebx], cl ; shr ebx, 0x02 ; xor eax, eax ; ret  ;  (1 found)
0x1001b84b: add eax, dword [ebx-0x75] ; ret  ;  (1 found)
0x10012605: add eax, dword [ecx] ; add byte [eax], al ; ret  ;  (1 found)
0x10016ca8: add eax, dword [ecx] ; add byte [eax], al ; ret  ;  (1 found)
0x1001a7b5: add eax, dword [esp+0x08] ; ret  ;  (1 found)
0x10027272: add eax, eax ; or eax, esi ; pop esi ; pop ebx ; mov dword [edx+0x08], eax ; ret  ;  (1 found)
0x1002aa39: add eax, eax ; ret  ;  (1 found)
0x1001562c: add eax, ebp ; add al, 0x00 ; add byte [eax], al ; add esp, 0x04 ; ret  ;  (1 found)
0x10029b2d: add eax, ebp ; cmp byte [0x03E80000], al ; add byte [eax], al ; add byte [ebx-0x37], bl ; ret  ;  (1 found)
0x1001bced: add eax, ecx ; add esp, 0x0C ; ret  ;  (1 found)
0x10018033: add eax, edx ; ret  ;  (1 found)
0x10018137: add eax, esi ; pop esi ; ret  ;  (1 found)
0x100174df: add eax, esi ; push es ; add byte [esi+0x5D], bl ; ret  ;  (1 found)
0x100181f1: add eax, esi ; push es ; and byte [edi+0x5E], bl ; pop ebx ; pop ebp ; ret  ;  (1 found)
0x10021732: add ebp, dword [eax+0x00] ; add byte [eax], al ; inc eax ; push 0x100119D0 ; call dword [0x10011150] ;  (1 found)
0x10021716: add ebp, dword [eax+0x00] ; add byte [eax], al ; shr byte [eax-0x28], 0x00000019 ; add dword [eax], edx ; call dword [0x10011150] ;  (1 found)
0x10029a9e: add ebp, eax ; sahf  ; add byte [eax], al ; add byte [ebx-0x37], bl ; ret  ;  (1 found)
0x100194ac: add ebp, ecx ; add byte [eax], 0x00000000 ; add byte [edi+0x6A], al ; add byte [ebp+0x4D8DF445], cl ; call dword [eax-0x75] ;  (1 found)
0x1002a066: add ebx, 0x10 ; jmp dword [ebx] ;  (1 found)
0x1002a0f2: add ebx, 0x10 ; jmp dword [ebx] ;  (1 found)
0x100225b2: add ebx, dword [edi-0x77] ; push es ; mov dword [esi+0x04], 0x00000000 ; pop esi ; pop ebx ; ret  ;  (1 found)
0x1002a064: add ebx, eax ; add ebx, 0x10 ; jmp dword [ebx] ;  (1 found)
0x1002a0f0: add ebx, eax ; add ebx, 0x10 ; jmp dword [ebx] ;  (1 found)
0x10029cdb: add ebx, ebp ; inc ebp ; or byte [ebx-0x37], bl ; ret  ;  (1 found)
0x1001dbbd: add ecx, 0x00269EC3 ; mov dword [eax+0x14], ecx ; mov eax, ecx ; and eax, 0x7FFF0000 ; shr eax, 0x10 ; ret  ;  (1 found)
0x10013a59: add ecx, 0x04 ; mov dword [eax], ecx ; mov ax, word [ecx-0x04] ; ret  ;  (1 found)
0x10021f9f: add ecx, 0x04 ; mov dword [eax], ecx ; mov ax, word [ecx-0x04] ; ret  ;  (1 found)
0x10013a4a: add ecx, 0x04 ; mov dword [eax], ecx ; mov eax, dword [ecx-0x04] ; ret  ;  (1 found)
0x10021f90: add ecx, 0x04 ; mov dword [eax], ecx ; mov eax, dword [ecx-0x04] ; ret  ;  (1 found)
0x10023052: add ecx, 0x04 ; mov dword [eax], ecx ; mov eax, dword [ecx-0x04] ; ret  ;  (1 found)
0x10016710: add ecx, 0x08 ; push ecx ; lea eax, dword [ebp-0x04] ; push eax ; call dword [0x1001103C] ;  (1 found)
0x1001d44a: add ecx, dword [eax-0x7403FCB9] ; inc ebp ; or byte [esi+0x5F], bl ; leave  ; ret  ;  (1 found)
0x1001d59a: add ecx, dword [eax-0x7403FCB9] ; inc ebp ; or byte [esi+0x5F], bl ; leave  ; ret  ;  (1 found)
0x1001b4b9: add ecx, dword [ebp+0x5D5EFE46] ; ret  ;  (1 found)
0x1001534b: add ecx, dword [ebp-0x00013B7B] ; call dword [eax-0x18] ;  (1 found)
0x10015251: add ecx, dword [ebp-0x00013F7B] ; call dword [eax-0x18] ;  (1 found)
0x1001d319: add ecx, dword [ebp-0x36A000B9] ; ret  ;  (1 found)
0x10017395: add ecx, dword [ebx+0x5E5F0C45] ; pop ebx ; pop ebp ; ret  ;  (1 found)
0x1002456c: add ecx, dword [ebx+0x5E5FCC45] ; pop ebx ; mov esp, ebp ; pop ebp ; ret  ;  (1 found)
0x10023c04: add ecx, dword [ebx+0x5E5FD045] ; pop ebx ; mov esp, ebp ; pop ebp ; ret  ;  (1 found)
0x1001bbee: add ecx, esi ; push ecx ; mov dword [ebp-0x04], ecx ; push dword [ebp+0x08] ; call dword [ebp+0x18] ;  (1 found)
0x10026730: add edi, dword [edx+esi*8-0x48] ; add dword [eax], eax ; add byte [eax], al ; pop edi ; pop esi ; ret  ;  (1 found)
0x10026871: add edi, dword [edx+esi*8-0x48] ; add dword [eax], eax ; add byte [eax], al ; ret  ;  (1 found)
0x1001b498: add edi, edi ; xor eax, 0x1002FF7C ; call dword [0x1001116C] ;  (1 found)
0x10016b29: add edi, edi ; xor eax, 0x1002FF90 ; call dword [0x10011134] ;  (1 found)
0x1001aef4: add edi, edi ; xor eax, 0x1002FF90 ; call dword [0x10011134] ;  (1 found)
0x1001a668: add edi, edi ; xor eax, 0x1002FF90 ; call dword [0x10011134] ;  (1 found)
0x1001ad48: add edi, edi ; xor eax, 0x1002FF90 ; call dword [0x10011134] ;  (1 found)
0x1001d0f8: add edi, edi ; xor eax, 0x1002FF90 ; call dword [0x10011134] ;  (1 found)
0x1001e7a4: add edi, edi ; xor eax, 0x1002FF90 ; call dword [0x10011134] ;  (1 found)
0x1001f84f: add edi, edi ; xor eax, 0x1002FF90 ; call dword [0x10011134] ;  (1 found)
0x1001d44d: add edi, esp ; mov eax, dword [ebp+0x08] ; pop esi ; pop edi ; leave  ; ret  ;  (1 found)
0x1001d59d: add edi, esp ; mov eax, dword [ebp+0x08] ; pop esi ; pop edi ; leave  ; ret  ;  (1 found)
0x10012cb9: add edx, dword [eax] ; add byte [esi+0x74], dl ; push es ; call dword [0x10032BE0] ;  (1 found)
0x10012c52: add edx, dword [eax] ; add byte [esi+eax-0x01], dh ; adc eax, 0x10032BDC ; mov dword [ebp-0x04], 0x00000000 ; push dword [esi+0x40] ; call dword [esi+0x3C] ;  (1 found)
0x10021307: add edx, dword [eax] ; add eax, 0x2C ; pop edi ; pop esi ; ret  ;  (1 found)
0x10011d0a: add edx, dword [eax] ; call dword [0x10011040] ;  (1 found)
0x10011d0b: add edx, dword [eax] ; call dword [0x10011040] ;  (1 found)
0x1001dc06: add edx, dword [eax] ; call dword [0x100110CC] ;  (1 found)
0x10011d15: add edx, dword [eax] ; call dword [0x10011104] ;  (1 found)
0x10011d16: add edx, dword [eax] ; call dword [0x10011104] ;  (1 found)
0x1001876c: add edx, dword [eax] ; call dword [0x1001114C] ;  (1 found)
0x1001c4cf: add edx, dword [eax] ; call dword [0x10011188] ;  (1 found)
0x10029e7c: add edx, dword [eax] ; mov byte [ebp-0x00000090], 0x00000002 ; ret  ;  (1 found)
0x10029e7b: add edx, dword [eax] ; mov byte [ebp-0x00000090], 0x00000002 ; ret  ;  (1 found)
0x10029f43: add edx, dword [eax] ; mov byte [ebp-0x00000090], 0x00000003 ; ret  ;  (1 found)
0x10029f42: add edx, dword [eax] ; mov byte [ebp-0x00000090], 0x00000003 ; ret  ;  (1 found)
0x10025b7a: add edx, dword [eax] ; mov dword [0x10033BB0], eax ; xor eax, eax ; ret  ;  (1 found)
0x10012128: add edx, dword [eax] ; mov dword [0x10033EC0], ecx ; ret  ;  (1 found)
0x10012129: add edx, dword [eax] ; mov dword [0x10033EC0], ecx ; ret  ;  (1 found)
0x10012c5b: add edx, dword [eax] ; mov dword [ebp-0x04], 0x00000000 ; push dword [esi+0x40] ; call dword [esi+0x3C] ;  (1 found)
0x1001211c: add edx, dword [eax] ; mov dword [ecx], 0x00000000 ; mov ecx, dword [0x10033EC8] ; mov dword [0x10033EC0], ecx ; ret  ;  (1 found)
0x1001211d: add edx, dword [eax] ; mov dword [ecx], 0x00000000 ; mov ecx, dword [0x10033EC8] ; mov dword [0x10033EC0], ecx ; ret  ;  (1 found)
0x100212b7: add edx, dword [eax] ; mov eax, dword [0x10033B60] ; push eax ; push edi ; call dword [0x100110D0] ;  (1 found)
0x1001c49c: add edx, dword [eax] ; push 0x00000000 ; push eax ; call dword [0x10011184] ;  (1 found)
0x1001bc5f: add edx, dword [eax] ; push 0x00000008 ; push eax ; call dword [0x10011184] ;  (1 found)
0x10014eee: add edx, dword [eax] ; push 0x00000010 ; push eax ; call dword [0x100110CC] ;  (1 found)
0x100212dd: add edx, dword [eax] ; push eax ; call dword [0x100110D4] ;  (1 found)
0x100212ed: add edx, dword [eax] ; push eax ; call dword [0x100110D8] ;  (1 found)
0x100212d7: add edx, dword [eax] ; push eax ; mov eax, dword [0x10033B5C] ; push eax ; call dword [0x100110D4] ;  (1 found)
0x100212bc: add edx, dword [eax] ; push eax ; push edi ; call dword [0x100110D0] ;  (1 found)
0x10020db3: add edx, dword [eax] ; push esi ; push 0x00000000 ; call dword [0x1001104C] ;  (1 found)
0x1002100b: add edx, dword [eax] ; push esi ; push 0x00000000 ; call dword [0x1001104C] ;  (1 found)
0x1001212e: add edx, dword [eax] ; ret  ;  (1 found)
0x1001212f: add edx, dword [eax] ; ret  ;  (1 found)
0x100214c5: add edx, dword [eax] ; ret  ;  (1 found)
0x10025808: add edx, dword [eax] ; ret  ;  (1 found)
0x10029a46: add edx, dword [eax] ; ret  ;  (1 found)
0x10029d96: add edx, dword [eax] ; ret  ;  (1 found)
0x10029d97: add edx, dword [eax] ; ret  ;  (1 found)
0x10029ead: add edx, dword [eax] ; ret  ;  (1 found)
0x10029eac: add edx, dword [eax] ; ret  ;  (1 found)
0x10029f56: add edx, dword [eax] ; ret  ;  (1 found)
0x10029f57: add edx, dword [eax] ; ret  ;  (1 found)
0x1002a13e: add edx, dword [eax] ; ret  ;  (1 found)
0x10025b7f: add edx, dword [eax] ; xor eax, eax ; ret  ;  (1 found)
0x1001782a: add edx, dword [ecx+0x458BA4F3] ; or byte [edi+0x5E], bl ; leave  ; ret  ;  (1 found)
0x1001e68e: add edx, dword [ecx+0x458BA4F3] ; or byte [edi+0x5E], bl ; leave  ; ret  ;  (1 found)
0x1002172f: add edx, dword [esi+0x6A] ; add ebp, dword [eax+0x00] ; add byte [eax], al ; inc eax ; push 0x100119D0 ; call dword [0x10011150] ;  (1 found)
0x10021713: add edx, dword [esi+0x6A] ; add ebp, dword [eax+0x00] ; add byte [eax], al ; shr byte [eax-0x28], 0x00000019 ; add dword [eax], edx ; call dword [0x10011150] ;  (1 found)
0x10018986: add esi, 0x41 ; call dword [0x10011058] ;  (1 found)
0x100189b7: add esi, 0x41 ; call dword [0x10011094] ;  (1 found)
0x1001a138: add esi, dword [ebp+0x4A] ; push edx ; call dword [0x10011168] ;  (1 found)
0x10012dc1: add esi, eax ; inc eax ; add al, byte [eax] ; push dword [ebp-0x08] ; push dword [0x1002FF44] ; call dword [0x10011098] ;  (1 found)
0x1001e8e3: add esi, ebx ; movsb  ; mov eax, edx ; pop edi ; pop esi ; ret  ;  (1 found)
0x1001d619: add esi, ebx ; stosb  ; mov eax, dword [ebp+0x08] ; pop edi ; leave  ; ret  ;  (1 found)
0x10012ed1: add esp, 0x00000104 ; ret  ;  (1 found)
0x100155b9: add esp, 0x04 ; cmp eax, 0x01 ; mov eax, 0x00000000 ; adc eax, 0xFFFFFFFF ; pop esi ; ret  ;  (1 found)
0x100120f0: add esp, 0x04 ; cmp eax, 0x01 ; sbb eax, eax ; ret  ;  (1 found)
0x1001cf50: add esp, 0x04 ; jmp dword [edx+0x14] ;  (1 found)
0x100203cc: add esp, 0x04 ; lea eax, dword [esi-0x02] ; pop esi ; pop ebp ; ret  ;  (1 found)
0x10012ec8: add esp, 0x04 ; lea esi, dword [eax-0x40] ; mov eax, esi ; pop esi ; add esp, 0x00000104 ; ret  ;  (1 found)
0x1001be8b: add esp, 0x04 ; mov dword [ecx], eax ; inc eax ; cmp eax, 0x01 ; sbb eax, eax ; ret  ;  (1 found)
0x1001be01: add esp, 0x04 ; mov dword [esi+0x0C], 0x00000000 ; mov eax, edi ; pop edi ; pop esi ; ret  ;  (1 found)
0x1001241f: add esp, 0x04 ; mov eax, 0x00000001 ; pop edi ; pop esi ; retn 0x0004 ;  (1 found)
0x10012f97: add esp, 0x04 ; mov eax, 0xFFFFFFFF ; ret  ;  (1 found)
0x1001be68: add esp, 0x04 ; mov eax, ebx ; pop edi ; pop esi ; pop ebx ; ret  ;  (1 found)
0x1001d93a: add esp, 0x04 ; mov eax, ebx ; pop edi ; pop esi ; pop ebx ; ret  ;  (1 found)
0x1001fb1a: add esp, 0x04 ; mov eax, ebx ; pop edi ; pop esi ; pop ebx ; ret  ;  (1 found)
0x10020186: add esp, 0x04 ; mov eax, ebx ; pop edi ; pop esi ; pop ebx ; ret  ;  (1 found)
0x1002029e: add esp, 0x04 ; mov eax, ebx ; pop edi ; pop esi ; pop ebx ; ret  ;  (1 found)
0x10020d69: add esp, 0x04 ; mov eax, ebx ; pop edi ; pop esi ; pop ebx ; ret  ;  (1 found)
0x1001c365: add esp, 0x04 ; mov eax, edi ; pop edi ; pop esi ; pop ebp ; ret  ;  (1 found)
0x1001c574: add esp, 0x04 ; mov eax, edi ; pop edi ; pop esi ; pop ebp ; ret  ;  (1 found)
0x1001c5b3: add esp, 0x04 ; mov eax, edi ; pop edi ; pop esi ; pop ebp ; ret  ;  (1 found)
0x1001c823: add esp, 0x04 ; mov eax, edi ; pop edi ; pop esi ; pop ebp ; ret  ;  (1 found)
0x1001c9a4: add esp, 0x04 ; mov eax, edi ; pop edi ; pop esi ; pop ebp ; ret  ;  (1 found)
0x100195f2: add esp, 0x04 ; mov eax, edi ; pop edi ; pop esi ; pop ebx ; ret  ;  (1 found)
0x1001bdb0: add esp, 0x04 ; mov eax, edi ; pop edi ; pop esi ; pop ebx ; ret  ;  (1 found)
0x1001575d: add esp, 0x04 ; mov eax, edi ; pop edi ; pop esi ; ret  ;  (1 found)
0x10014f4d: add esp, 0x04 ; mov eax, edi ; pop edi ; pop esi ; ret  ;  (1 found)
0x1001c535: add esp, 0x04 ; mov eax, edi ; pop edi ; pop esi ; ret  ;  (1 found)
0x1001ca9d: add esp, 0x04 ; mov eax, edi ; pop edi ; pop esi ; ret  ;  (1 found)
0x10013ab1: add esp, 0x04 ; mov eax, esi ; pop edi ; pop esi ; add esp, 0x04 ; ret  ;  (1 found)
0x1001480d: add esp, 0x04 ; mov eax, esi ; pop edi ; pop esi ; pop ebx ; ret  ;  (1 found)
0x1001859d: add esp, 0x04 ; mov eax, esi ; pop edi ; pop esi ; pop ebx ; ret  ;  (1 found)
0x1001d9cb: add esp, 0x04 ; mov eax, esi ; pop edi ; pop esi ; pop ebx ; ret  ;  (1 found)
0x1001324d: add esp, 0x04 ; mov eax, esi ; pop edi ; pop esi ; ret  ;  (1 found)
0x10012fe1: add esp, 0x04 ; mov eax, esi ; pop edi ; pop esi ; ret  ;  (1 found)
0x1001315b: add esp, 0x04 ; mov eax, esi ; pop edi ; pop esi ; ret  ;  (1 found)
0x10015585: add esp, 0x04 ; mov eax, esi ; pop edi ; pop esi ; ret  ;  (1 found)
0x10015db8: add esp, 0x04 ; mov eax, esi ; pop edi ; pop esi ; ret  ;  (1 found)
0x100173ee: add esp, 0x04 ; mov eax, esi ; pop edi ; pop esi ; ret  ;  (1 found)
0x10019382: add esp, 0x04 ; mov eax, esi ; pop edi ; pop esi ; ret  ;  (1 found)
0x100197d8: add esp, 0x04 ; mov eax, esi ; pop edi ; pop esi ; ret  ;  (1 found)
0x1001c679: add esp, 0x04 ; mov eax, esi ; pop edi ; pop esi ; ret  ;  (1 found)
0x1001b7b9: add esp, 0x04 ; mov eax, esi ; pop edi ; pop esi ; ret  ;  (1 found)
0x1001fec9: add esp, 0x04 ; mov eax, esi ; pop edi ; pop esi ; ret  ;  (1 found)
0x10014cb6: add esp, 0x04 ; mov eax, esi ; pop esi ; mov esp, ebp ; pop ebp ; ret  ;  (1 found)
0x10019d10: add esp, 0x04 ; mov eax, esi ; pop esi ; mov esp, ebp ; pop ebp ; ret  ;  (1 found)
0x1001618a: add esp, 0x04 ; mov eax, esi ; pop esi ; pop ebx ; pop ebp ; ret  ;  (1 found)
0x10012972: add esp, 0x04 ; mov eax, esi ; pop esi ; ret  ;  (1 found)
0x100161ac: add esp, 0x04 ; mov eax, esi ; pop esi ; ret  ;  (1 found)
0x100161cc: add esp, 0x04 ; mov eax, esi ; pop esi ; ret  ;  (1 found)
0x100162d6: add esp, 0x04 ; mov eax, esi ; pop esi ; ret  ;  (1 found)
0x100163ce: add esp, 0x04 ; mov eax, esi ; pop esi ; ret  ;  (1 found)
0x10016527: add esp, 0x04 ; mov eax, esi ; pop esi ; ret  ;  (1 found)
0x100164f8: add esp, 0x04 ; mov eax, esi ; pop esi ; ret  ;  (1 found)
0x1001907f: add esp, 0x04 ; mov eax, esi ; pop esi ; ret  ;  (1 found)
0x100190e3: add esp, 0x04 ; mov eax, esi ; pop esi ; ret  ;  (1 found)
0x1001d035: add esp, 0x04 ; mov eax, esi ; pop esi ; ret  ;  (1 found)
0x1001d1df: add esp, 0x04 ; mov eax, esi ; pop esi ; ret  ;  (1 found)
0x1001c9cd: add esp, 0x04 ; mov eax, esi ; pop esi ; ret  ;  (1 found)
0x1001dcc9: add esp, 0x04 ; mov eax, esi ; pop esi ; ret  ;  (1 found)
0x10020a21: add esp, 0x04 ; mov eax, esi ; pop esi ; ret  ;  (1 found)
0x10020c9f: add esp, 0x04 ; mov eax, esi ; pop esi ; ret  ;  (1 found)
0x10020d9c: add esp, 0x04 ; mov eax, esi ; pop esi ; ret  ;  (1 found)
0x10012116: add esp, 0x04 ; mov ecx, dword [0x10033EC8] ; mov dword [ecx], 0x00000000 ; mov ecx, dword [0x10033EC8] ; mov dword [0x10033EC0], ecx ; ret  ;  (1 found)
0x1001443d: add esp, 0x04 ; mov edi, 0xFFFFFFFF ; mov dword [ebp-0x04], edi ; push esi ; call dword [0x10011094] ;  (1 found)
0x10013211: add esp, 0x04 ; mov esi, 0x00000000 ; push eax ; call dword [0x100110B4] ;  (1 found)
0x100167d1: add esp, 0x04 ; mov esp, ebp ; pop ebp ; ret  ;  (1 found)
0x1001fdd5: add esp, 0x04 ; mov esp, ebp ; pop ebp ; ret  ;  (1 found)
0x1001fe8f: add esp, 0x04 ; mov esp, ebp ; pop ebp ; ret  ;  (1 found)
0x1002a9aa: add esp, 0x04 ; mov esp, ebp ; pop ebp ; ret  ;  (1 found)
0x1001b1cb: add esp, 0x04 ; pop edi ; pop esi ; mov esp, ebp ; pop ebp ; ret  ;  (1 found)
0x1002109b: add esp, 0x04 ; pop edi ; pop esi ; mov esp, ebp ; pop ebp ; ret  ;  (1 found)
0x1001dc98: add esp, 0x04 ; pop edi ; pop esi ; pop ebx ; ret  ;  (1 found)
0x1001bf50: add esp, 0x04 ; pop edi ; pop esi ; ret  ;  (1 found)
0x1001c1e2: add esp, 0x04 ; pop edi ; pop esi ; ret  ;  (1 found)
0x1001bcb9: add esp, 0x04 ; pop edi ; pop esi ; ret  ;  (1 found)
0x1001ff7f: add esp, 0x04 ; pop edi ; pop esi ; ret  ;  (1 found)
0x1001d8f3: add esp, 0x04 ; pop edi ; ret  ;  (1 found)
0x10024cc3: add esp, 0x04 ; pop esi ; ret  ;  (1 found)
0x100251b9: add esp, 0x04 ; pop esi ; ret  ;  (1 found)
0x10012cef: add esp, 0x04 ; push 0x00000000 ; call dword [0x10011090] ;  (1 found)
0x10012a07: add esp, 0x04 ; push 0x00000000 ; mov eax, dword [0x1002E148] ; push eax ; call dword [0x10011064] ;  (1 found)
0x10011dc6: add esp, 0x04 ; push 0x000000FF ; call dword [0x1002E004] ;  (1 found)
0x100157ac: add esp, 0x04 ; push dword [0x1002F4C0+edi*4] ; call dword [0x100110E4] ;  (1 found)
0x10018da2: add esp, 0x04 ; push dword [ebp-0x24] ; call dword [0x10011094] ;  (1 found)
0x10021616: add esp, 0x04 ; push dword [edi] ; call dword [0x100111A4] ;  (1 found)
0x10012df5: add esp, 0x04 ; push dword [esp+0x14] ; call dword [0x100110A8] ;  (1 found)
0x10013193: add esp, 0x04 ; push eax ; call dword [0x10011094] ;  (1 found)
0x100130c5: add esp, 0x04 ; push eax ; call dword [0x100110B0] ;  (1 found)
0x10014629: add esp, 0x04 ; push eax ; call dword [0x100110C8] ;  (1 found)
0x100144f1: add esp, 0x04 ; push eax ; call dword [0x100110C8] ;  (1 found)
0x10015ea6: add esp, 0x04 ; push eax ; call dword [0x100110EC] ;  (1 found)
0x1001726b: add esp, 0x04 ; push eax ; call dword [0x1001113C] ;  (1 found)
0x1001724d: add esp, 0x04 ; push eax ; call dword [0x10011140] ;  (1 found)
0x1001740c: add esp, 0x04 ; push eax ; call dword [0x10011144] ;  (1 found)
0x10012410: add esp, 0x04 ; push esi ; call edi ;  (1 found)
0x10011dd4: add esp, 0x04 ; ret  ;  (1 found)
0x10011dee: add esp, 0x04 ; ret  ;  (1 found)
0x10011de1: add esp, 0x04 ; ret  ;  (1 found)
0x10012032: add esp, 0x04 ; ret  ;  (1 found)
0x1001203d: add esp, 0x04 ; ret  ;  (1 found)
0x1001237b: add esp, 0x04 ; ret  ;  (1 found)
0x10012e95: add esp, 0x04 ; ret  ;  (1 found)
0x10013ab8: add esp, 0x04 ; ret  ;  (1 found)
0x1001456c: add esp, 0x04 ; ret  ;  (1 found)
0x10015632: add esp, 0x04 ; ret  ;  (1 found)
0x1001570c: add esp, 0x04 ; ret  ;  (1 found)
0x1001506b: add esp, 0x04 ; ret  ;  (1 found)
0x10015079: add esp, 0x04 ; ret  ;  (1 found)
0x1001508c: add esp, 0x04 ; ret  ;  (1 found)
0x100168af: add esp, 0x04 ; ret  ;  (1 found)
0x1001875e: add esp, 0x04 ; ret  ;  (1 found)
0x10018eb9: add esp, 0x04 ; ret  ;  (1 found)
0x1001c78e: add esp, 0x04 ; ret  ;  (1 found)
0x1001905b: add esp, 0x04 ; ret  ;  (1 found)
0x100177a6: add esp, 0x04 ; ret  ;  (1 found)
0x100177c4: add esp, 0x04 ; ret  ;  (1 found)
0x10019269: add esp, 0x04 ; ret  ;  (1 found)
0x1001be7a: add esp, 0x04 ; ret  ;  (1 found)
0x1001afe6: add esp, 0x04 ; ret  ;  (1 found)
0x1001afcc: add esp, 0x04 ; ret  ;  (1 found)
0x1001b2d3: add esp, 0x04 ; ret  ;  (1 found)
0x1001b99e: add esp, 0x04 ; ret  ;  (1 found)
0x1001bbb3: add esp, 0x04 ; ret  ;  (1 found)
0x1001bcfd: add esp, 0x04 ; ret  ;  (1 found)
0x1001fd1e: add esp, 0x04 ; ret  ;  (1 found)
0x100213cd: add esp, 0x04 ; ret  ;  (1 found)
0x100214ea: add esp, 0x04 ; ret  ;  (1 found)
0x10021540: add esp, 0x04 ; ret  ;  (1 found)
0x100245fa: add esp, 0x04 ; ret  ;  (1 found)
0x10024abc: add esp, 0x04 ; ret  ;  (1 found)
0x10025bc8: add esp, 0x04 ; ret  ;  (1 found)
0x10023cb4: add esp, 0x04 ; ret  ;  (1 found)
0x1002abc9: add esp, 0x04 ; ret  ;  (1 found)
0x1002abb7: add esp, 0x04 ; ret  ;  (1 found)
0x1001ac3d: add esp, 0x04 ; xor eax, eax ; pop edi ; pop esi ; pop ebx ; ret  ;  (1 found)
0x1001fbdc: add esp, 0x04 ; xor eax, eax ; pop edi ; pop esi ; pop ebx ; ret  ;  (1 found)
0x1002475c: add esp, 0x04 ; xor eax, eax ; pop esi ; ret  ;  (1 found)
0x1002501f: add esp, 0x04 ; xor eax, eax ; pop esi ; ret  ;  (1 found)
0x10018134: add esp, 0x08 ; add eax, esi ; pop esi ; ret  ;  (1 found)
0x1002922d: add esp, 0x08 ; fmul qword [ebp-0x28] ; pop esi ; mov esp, ebp ; pop ebp ; ret  ;  (1 found)
0x10014888: add esp, 0x08 ; lea ecx, dword [esi+esi*2] ; mov eax, dword [edi+ecx*4] ; mov dword [ebx+0x0C], eax ; call dword [edi+ecx*4+0x08] ;  (1 found)
0x100216ac: add esp, 0x08 ; lea ecx, dword [esi+esi*2] ; mov eax, dword [edi+ecx*4] ; mov dword [ebx+0x0C], eax ; call dword [edi+ecx*4+0x08] ;  (1 found)
0x10019895: add esp, 0x08 ; mov eax, esi ; pop esi ; mov esp, ebp ; pop ebp ; ret  ;  (1 found)
0x1001990d: add esp, 0x08 ; mov eax, esi ; pop esi ; mov esp, ebp ; pop ebp ; ret  ;  (1 found)
0x1001b324: add esp, 0x08 ; mov eax, esi ; pop esi ; mov esp, ebp ; pop ebp ; ret  ;  (1 found)
0x1001b39b: add esp, 0x08 ; mov eax, esi ; pop esi ; mov esp, ebp ; pop ebp ; ret  ;  (1 found)
0x1001e614: add esp, 0x08 ; mov eax, esi ; pop esi ; mov esp, ebp ; pop ebp ; ret  ;  (1 found)
0x1001f967: add esp, 0x08 ; mov eax, esi ; pop esi ; mov esp, ebp ; pop ebp ; ret  ;  (1 found)
0x10020253: add esp, 0x08 ; mov eax, esi ; pop esi ; mov esp, ebp ; pop ebp ; ret  ;  (1 found)
0x100201dd: add esp, 0x08 ; mov eax, esi ; pop esi ; mov esp, ebp ; pop ebp ; ret  ;  (1 found)
0x10025fc0: add esp, 0x08 ; mov ecx, dword [ebp-0x04] ; mov dword [edx], ecx ; mov esp, ebp ; pop ebp ; ret  ;  (1 found)
0x1002a292: add esp, 0x08 ; mov esp, ebp ; pop ebp ; ret  ;  (1 found)
0x1002a233: add esp, 0x08 ; pop ebp ; ret  ;  (1 found)
0x10021706: add esp, 0x08 ; pop ebp ; retn 0x0004 ;  (1 found)
0x1001c323: add esp, 0x08 ; pop edi ; pop esi ; mov esp, ebp ; pop ebp ; ret  ;  (1 found)
0x100298e0: add esp, 0x08 ; pop edi ; pop esi ; mov esp, ebp ; pop ebp ; ret  ;  (1 found)
0x10027b28: add esp, 0x08 ; pop esi ; mov esp, ebp ; pop ebp ; ret  ;  (1 found)
0x100296c5: add esp, 0x08 ; pop esi ; mov esp, ebp ; pop ebp ; ret  ;  (1 found)
0x100299cb: add esp, 0x08 ; pop esi ; mov esp, ebp ; pop ebp ; ret  ;  (1 found)
0x1002a329: add esp, 0x08 ; pop esi ; mov esp, ebp ; pop ebp ; ret  ;  (1 found)
0x1002a3da: add esp, 0x08 ; pop esi ; mov esp, ebp ; pop ebp ; ret  ;  (1 found)
0x1002893e: add esp, 0x08 ; pop esi ; pop ebp ; ret  ;  (1 found)
0x10011f5c: add esp, 0x08 ; ret  ;  (1 found)
0x10012c87: add esp, 0x08 ; ret  ;  (1 found)
0x10013ae0: add esp, 0x08 ; ret  ;  (1 found)
0x10013263: add esp, 0x08 ; ret  ;  (1 found)
0x100156ff: add esp, 0x08 ; ret  ;  (1 found)
0x1001571e: add esp, 0x08 ; ret  ;  (1 found)
0x10017325: add esp, 0x08 ; ret  ;  (1 found)
0x100172ea: add esp, 0x08 ; ret  ;  (1 found)
0x1001c129: add esp, 0x08 ; ret  ;  (1 found)
0x1001cc2f: add esp, 0x08 ; ret  ;  (1 found)
0x1001cca3: add esp, 0x08 ; ret  ;  (1 found)
0x1001ccc1: add esp, 0x08 ; ret  ;  (1 found)
0x1001cc91: add esp, 0x08 ; ret  ;  (1 found)
0x1001cc64: add esp, 0x08 ; ret  ;  (1 found)
0x1001cc73: add esp, 0x08 ; ret  ;  (1 found)
0x1001cc82: add esp, 0x08 ; ret  ;  (1 found)
0x1001ccb2: add esp, 0x08 ; ret  ;  (1 found)
0x1001cce5: add esp, 0x08 ; ret  ;  (1 found)
0x1001ccf7: add esp, 0x08 ; ret  ;  (1 found)
0x1001ccd3: add esp, 0x08 ; ret  ;  (1 found)
0x1001cd06: add esp, 0x08 ; ret  ;  (1 found)
0x1001d62d: add esp, 0x08 ; ret  ;  (1 found)
0x10024614: add esp, 0x08 ; ret  ;  (1 found)
0x10023ccc: add esp, 0x08 ; ret  ;  (1 found)
0x10027eac: add esp, 0x08 ; ret  ;  (1 found)
0x10027ec2: add esp, 0x08 ; ret  ;  (1 found)
0x10027f15: add esp, 0x08 ; ret  ;  (1 found)
0x1002ac66: add esp, 0x08 ; ret  ;  (1 found)
0x1002411b: add esp, 0x0C ; dec eax ; push dword [ebp-0x14] ; push dword [ebp-0x24] ; push eax ; call dword [0x1002FF60] ;  (1 found)
0x100284a0: add esp, 0x0C ; lea eax, dword [ebp-0x00000094] ; and byte [ebp-0x44], 0xFFFFFFFE ; push eax ; call dword [ebp+0x10] ;  (1 found)
0x1002863e: add esp, 0x0C ; lea eax, dword [ebp-0x00000094] ; push eax ; call dword [ebp+0x10] ;  (1 found)
0x10028afd: add esp, 0x0C ; pop ebp ; pop edi ; pop esi ; pop ebx ; ret  ;  (1 found)
0x10028bf0: add esp, 0x0C ; pop ebp ; pop edi ; pop esi ; pop ebx ; ret  ;  (1 found)
0x1001e654: add esp, 0x0C ; pop edi ; mov esp, ebp ; pop ebp ; ret  ;  (1 found)
0x10012abd: add esp, 0x0C ; pop edi ; pop esi ; pop ebx ; ret  ;  (1 found)
0x1002632e: add esp, 0x0C ; pop edi ; pop esi ; ret  ;  (1 found)
0x10027239: add esp, 0x0C ; pop edi ; pop esi ; ret  ;  (1 found)
0x10011f6d: add esp, 0x0C ; ret  ;  (1 found)
0x10011f7e: add esp, 0x0C ; ret  ;  (1 found)
0x10011f8d: add esp, 0x0C ; ret  ;  (1 found)
0x10011f9c: add esp, 0x0C ; ret  ;  (1 found)
0x10013ace: add esp, 0x0C ; ret  ;  (1 found)
0x10015774: add esp, 0x0C ; ret  ;  (1 found)
0x10014a80: add esp, 0x0C ; ret  ;  (1 found)
0x10014ccf: add esp, 0x0C ; ret  ;  (1 found)
0x1001a94b: add esp, 0x0C ; ret  ;  (1 found)
0x1001c646: add esp, 0x0C ; ret  ;  (1 found)
0x1001bcef: add esp, 0x0C ; ret  ;  (1 found)
0x10026ae1: add esp, 0x0C ; ret  ;  (1 found)
0x10026af7: add esp, 0x0C ; ret  ;  (1 found)
0x10027a36: add esp, 0x0C ; ret  ;  (1 found)
0x1001709a: add esp, 0x10 ; mov eax, dword [ebp+0x0C] ; pop ebp ; ret  ;  (1 found)
0x1001700f: add esp, 0x10 ; mov eax, dword [ebp+0x0C] ; pop ebp ; ret  ;  (1 found)
0x100170b5: add esp, 0x10 ; mov eax, dword [ebp+0x0C] ; pop ebp ; ret  ;  (1 found)
0x1002615b: add esp, 0x10 ; mov eax, esi ; pop esi ; mov esp, ebp ; pop ebp ; ret  ;  (1 found)
0x1001e4e7: add esp, 0x10 ; pop ebp ; pop edi ; pop esi ; pop ebx ; ret  ;  (1 found)
0x1001ed7b: add esp, 0x10 ; pop edi ; pop esi ; pop ebx ; pop ebp ; ret  ;  (1 found)
0x1001fa38: add esp, 0x10 ; pop esi ; mov esp, ebp ; pop ebp ; ret  ;  (1 found)
0x10018788: add esp, 0x10 ; ret  ;  (1 found)
0x10019ad3: add esp, 0x10 ; ret  ;  (1 found)
0x10019d2d: add esp, 0x10 ; ret  ;  (1 found)
0x1001a8f0: add esp, 0x10 ; ret  ;  (1 found)
0x1001dcf1: add esp, 0x10 ; ret  ;  (1 found)
0x1001f585: add esp, 0x10 ; ret  ;  (1 found)
0x1001f7aa: add esp, 0x10 ; ret  ;  (1 found)
0x1002080c: add esp, 0x10 ; ret  ;  (1 found)
0x100209f5: add esp, 0x10 ; ret  ;  (1 found)
0x1001bb09: add esp, 0x14 ; pop edi ; pop esi ; add esp, 0x18 ; ret  ;  (1 found)
0x100279d9: add esp, 0x18 ; pop esi ; mov esp, ebp ; pop ebp ; ret  ;  (1 found)
0x10027dab: add esp, 0x18 ; pop esi ; mov esp, ebp ; pop ebp ; ret  ;  (1 found)
0x1001a276: add esp, 0x18 ; push ebx ; mov dword [edi+0x1C], eax ; call dword [0x100110D8] ;  (1 found)
0x1001bb0e: add esp, 0x18 ; ret  ;  (1 found)
0x1002943e: add esp, 0x1C ; pop esi ; mov esp, ebp ; pop ebp ; ret  ;  (1 found)
0x100295d2: add esp, 0x1C ; pop esi ; mov esp, ebp ; pop ebp ; ret  ;  (1 found)
0x1002a139: add esp, ebx ; add eax, 0x100337A4 ; ret  ;  (1 found)
0x10028d83: add esp, ebx ; inc ebp ; fdivr qword [ebp-0x08] ; mov esp, ebp ; pop ebp ; ret  ;  (1 found)
0x1001d42d: add esp, edi ; mov eax, dword [ebp+0x08] ; pop esi ; pop edi ; leave  ; ret  ;  (1 found)
0x1001d57d: add esp, edi ; mov eax, dword [ebp+0x08] ; pop esi ; pop edi ; leave  ; ret  ;  (1 found)
0x10027da8: and al, 0x00 ; add byte [ebx-0x74A1E73C], al ; in eax, 0x5D ; ret  ;  (1 found)
0x1002ac64: and al, 0x00 ; add esp, 0x08 ; ret  ;  (1 found)
0x1002ac60: and al, 0x00 ; fld qword [esp+0x00] ; add esp, 0x08 ; ret  ;  (1 found)
0x10012ea1: and al, 0x00 ; push esi ; xor esi, esi ; push eax ; push 0x00000104 ; call dword [0x100110A4] ;  (1 found)
0x1002abc7: and al, 0x02 ; add esp, 0x04 ; ret  ;  (1 found)
0x1002abb5: and al, 0x02 ; add esp, 0x04 ; ret  ;  (1 found)
0x1002abc0: and al, 0x02 ; fnclex  ; movsx eax, word [esp+0x02] ; add esp, 0x04 ; ret  ;  (1 found)
0x1002abb0: and al, 0x02 ; movsx eax, word [esp+0x02] ; add esp, 0x04 ; ret  ;  (1 found)
0x100127ec: and al, 0x04 ; add byte [eax], 0x00000000 ; add byte [eax+0x00000001], bh ; adc eax, 0xFFFFFFFF ; ret  ;  (1 found)
0x1001cd0d: and al, 0x04 ; add byte [eax], 0xFFFFFFB8 ; add dword [eax], eax ; add byte [eax], al ; adc eax, 0xFFFFFFFF ; ret  ;  (1 found)
0x1001b283: and al, 0x04 ; add byte [ecx], 0x00000000 ; add byte [ecx+0x1002E088], ah ; mov ecx, dword [esp+0x04] ; mov dword [0x1002E088], ecx ; ret  ;  (1 found)
0x1001b284: and al, 0x04 ; add byte [ecx], 0x00000000 ; add byte [ecx+0x1002E088], ah ; mov ecx, dword [esp+0x04] ; mov dword [0x1002E088], ecx ; ret  ;  (1 found)
0x1001ac48: and al, 0x04 ; add eax, 0x20 ; ret  ;  (1 found)
0x1001a7b3: and al, 0x04 ; add eax, dword [esp+0x08] ; ret  ;  (1 found)
0x1001bceb: and al, 0x04 ; add eax, ecx ; add esp, 0x0C ; ret  ;  (1 found)
0x100127fd: and al, 0x04 ; and eax, 0x7F ; ret  ;  (1 found)
0x1001718f: and al, 0x04 ; call dword [0x10011048] ;  (1 found)
0x10012ae9: and al, 0x04 ; call dword [0x1001107C] ;  (1 found)
0x10012f5d: and al, 0x04 ; call dword [0x1001107C] ;  (1 found)
0x100153bc: and al, 0x04 ; call dword [0x100110D8] ;  (1 found)
0x1001719a: and al, 0x04 ; call dword [0x10011138] ;  (1 found)
0x10019560: and al, 0x04 ; call dword [0x10011160] ;  (1 found)
0x10019726: and al, 0x04 ; call dword [0x10011164] ;  (1 found)
0x1001b29c: and al, 0x04 ; call dword [0x1001117C] ;  (1 found)
0x1001b9a4: and al, 0x04 ; cdq  ; xor eax, edx ; sub eax, edx ; ret  ;  (1 found)
0x1001cd1c: and al, 0x04 ; cdq  ; xor eax, edx ; sub eax, edx ; ret  ;  (1 found)
0x10017729: and al, 0x04 ; cmp al, 0x01 ; sbb eax, eax ; add eax, 0x02 ; ret  ;  (1 found)
0x1001a3a4: and al, 0x04 ; dec cl ; shr eax, cl ; and eax, 0x01 ; ret  ;  (1 found)
0x1001a70d: and al, 0x04 ; inc eax ; ret  ;  (1 found)
0x100126bb: and al, 0x04 ; mov ax, word [edx+ecx*2] ; and eax, 0x00000080 ; ret  ;  (1 found)
0x100125fe: and al, 0x04 ; mov ax, word [edx+ecx*2] ; and eax, 0x00000103 ; ret  ;  (1 found)
0x1001274a: and al, 0x04 ; mov ax, word [edx+ecx*2] ; and eax, 0x00000107 ; ret  ;  (1 found)
0x100127b0: and al, 0x04 ; mov ax, word [edx+ecx*2] ; and eax, 0x00000117 ; ret  ;  (1 found)
0x1001277d: and al, 0x04 ; mov ax, word [edx+ecx*2] ; and eax, 0x00000157 ; ret  ;  (1 found)
0x1001262e: and al, 0x04 ; mov ax, word [edx+ecx*2] ; and eax, 0x01 ; ret  ;  (1 found)
0x1001265c: and al, 0x04 ; mov ax, word [edx+ecx*2] ; and eax, 0x02 ; ret  ;  (1 found)
0x1001268a: and al, 0x04 ; mov ax, word [edx+ecx*2] ; and eax, 0x04 ; ret  ;  (1 found)
0x100126eb: and al, 0x04 ; mov ax, word [edx+ecx*2] ; and eax, 0x08 ; ret  ;  (1 found)
0x10012719: and al, 0x04 ; mov ax, word [edx+ecx*2] ; and eax, 0x10 ; ret  ;  (1 found)
0x100127e0: and al, 0x04 ; mov ax, word [edx+ecx*2] ; and eax, 0x20 ; ret  ;  (1 found)
0x1001b291: and al, 0x04 ; mov dword [0x1002E088], ecx ; ret  ;  (1 found)
0x10011df9: and al, 0x04 ; mov dword [0x1002F124], ecx ; ret  ;  (1 found)
0x1001dba9: and al, 0x04 ; mov dword [eax+0x14], ecx ; ret  ;  (1 found)
0x1001be12: and al, 0x04 ; mov eax, dword [eax+0x0C] ; and eax, 0x10 ; ret  ;  (1 found)
0x1001be1d: and al, 0x04 ; mov eax, dword [eax+0x0C] ; and eax, 0x20 ; ret  ;  (1 found)
0x100151bd: and al, 0x04 ; mov eax, dword [eax+0x10] ; ret  ;  (1 found)
0x10013a55: and al, 0x04 ; mov ecx, dword [eax] ; add ecx, 0x04 ; mov dword [eax], ecx ; mov ax, word [ecx-0x04] ; ret  ;  (1 found)
0x10021f9b: and al, 0x04 ; mov ecx, dword [eax] ; add ecx, 0x04 ; mov dword [eax], ecx ; mov ax, word [ecx-0x04] ; ret  ;  (1 found)
0x10013a46: and al, 0x04 ; mov ecx, dword [eax] ; add ecx, 0x04 ; mov dword [eax], ecx ; mov eax, dword [ecx-0x04] ; ret  ;  (1 found)
0x10021f8c: and al, 0x04 ; mov ecx, dword [eax] ; add ecx, 0x04 ; mov dword [eax], ecx ; mov eax, dword [ecx-0x04] ; ret  ;  (1 found)
0x1002304e: and al, 0x04 ; mov ecx, dword [eax] ; add ecx, 0x04 ; mov dword [eax], ecx ; mov eax, dword [ecx-0x04] ; ret  ;  (1 found)
0x1001a754: and al, 0x04 ; movzx eax, byte [ecx] ; ret  ;  (1 found)
0x10018764: and al, 0x04 ; push 0x00000000 ; push dword [0x10033CB8] ; call dword [0x1001114C] ;  (1 found)
0x1001c4c7: and al, 0x04 ; push 0x00000000 ; push dword [0x10033CB8] ; call dword [0x10011188] ;  (1 found)
0x10017ca0: and al, 0x04 ; ret  ;  (1 found)
0x10020475: and al, 0x04 ; sar eax, 1  ; dec eax ; ret  ;  (1 found)
0x1001adf4: and al, 0x04 ; sub eax, 0x20 ; ret  ;  (1 found)
0x10012b9d: and al, 0x08 ; call dword [0x10011084] ;  (1 found)
0x10012f7a: and al, 0x08 ; call dword [0x100110AC] ;  (1 found)
0x10018669: and al, 0x08 ; call dword [0x10011148] ;  (1 found)
0x1001dc16: and al, 0x08 ; call dword [0x1001118C] ;  (1 found)
0x1001760a: and al, 0x08 ; cmp al, 0x01 ; sbb eax, eax ; and al, 0xFD ; add eax, 0x02 ; ret  ;  (1 found)
0x1001cf45: and al, 0x08 ; cmp eax, 0x01 ; adc eax, 0x00000000 ; mov esp, dword [edx+0x10] ; add esp, 0x04 ; jmp dword [edx+0x14] ;  (1 found)
0x1001a480: and al, 0x08 ; dec eax ; ret  ;  (1 found)
0x10021628: and al, 0x08 ; mov ebp, esp ; push dword [0x1002FA40+eax*4] ; call dword [0x100111A8] ;  (1 found)
0x10012a5c: and al, 0x08 ; mov edx, dword [esp+0x10] ; mov dword [edx], eax ; mov eax, 0x00000003 ; ret  ;  (1 found)
0x100202f6: and al, 0x08 ; pop esi ; ret  ;  (1 found)
0x10012b99: and al, 0x08 ; push dword [esp+0x08] ; call dword [0x10011084] ;  (1 found)
0x1001dc12: and al, 0x08 ; push dword [esp+0x08] ; call dword [0x1001118C] ;  (1 found)
0x1001a7b7: and al, 0x08 ; ret  ;  (1 found)
0x10026859: and al, 0x08 ; stosd  ; stosd  ; stosd  ; pop edi ; ret  ;  (1 found)
0x1002aa74: and al, 0x0A ; and ax, 0x00007FF0 ; shr ax, 0x0004 ; sub ax, 0x000003FE ; movsx eax, ax ; ret  ;  (1 found)
0x10012020: and al, 0x0C ; call dword [0x10011054] ;  (1 found)
0x10017884: and al, 0x0C ; cmp eax, 0x01 ; sbb eax, eax ; and eax, edx ; pop ebx ; ret  ;  (1 found)
0x1002ac5a: and al, 0x0C ; frndint  ; fstp qword [esp+0x00] ; fld qword [esp+0x00] ; add esp, 0x08 ; ret  ;  (1 found)
0x10012e08: and al, 0x0C ; push eax ; push 0x00000000 ; call dword [0x100110A4] ;  (1 found)
0x100271db: and al, 0x10 ; mov dword [ecx], esi ; pop esi ; ret  ;  (1 found)
0x10012a60: and al, 0x10 ; mov dword [edx], eax ; mov eax, 0x00000003 ; ret  ;  (1 found)
0x100144db: and al, 0x10 ; push 0x00000002 ; push 0x00000001 ; push 0x00000000 ; push eax ; call dword [0x100110C8] ;  (1 found)
0x100156d1: and al, 0x14 ; add dword [edx+eax-0x75], esi ; ret  ;  (1 found)
0x10012dfa: and al, 0x14 ; call dword [0x100110A8] ;  (1 found)
0x1001716d: and al, 0x14 ; call dword [esp+0x28] ;  (1 found)
0x10017168: and al, 0x14 ; push esi ; push dword [esp+0x14] ; call dword [esp+0x28] ;  (1 found)
0x10011ef8: and al, 0x18 ; call dword [0x10011050] ;  (1 found)
0x10013a98: and al, 0x1C ; push edx ; call dword [0x100110B8] ;  (1 found)
0x10012be1: and al, 0x20 ; push 0x00000000 ; call dword [0x1001108C] ;  (1 found)
0x10011df3: and al, 0xF1 ; add dl, byte [eax] ; mov ecx, dword [esp+0x04] ; mov dword [0x1002F124], ecx ; ret  ;  (1 found)
0x10011dfd: and al, 0xF1 ; add dl, byte [eax] ; ret  ;  (1 found)
0x10017610: and al, 0xFD ; add eax, 0x02 ; ret  ;  (1 found)
0x100168c9: and al, 0xFE ; sub eax, 0x02 ; ret  ;  (1 found)
0x10011f7a: and al, byte [eax] ; add byte [eax], al ; add esp, 0x0C ; ret  ;  (1 found)
0x1002a9da: and al, byte [eax] ; add byte [eax], al ; ret  ;  (1 found)
0x1002aa76: and ax, 0x00007FF0 ; shr ax, 0x0004 ; sub ax, 0x000003FE ; movsx eax, ax ; ret  ;  (1 found)
0x10027db8: and ax, 0x00007FF0 ; sub ax, 0x00007FF0 ; cmp ax, 0x00000001 ; sbb eax, eax ; inc eax ; ret  ;  (1 found)
0x100127e8: and bl, al ; cmp dword [esp+0x04], 0x00000080 ; mov eax, 0x00000001 ; adc eax, 0xFFFFFFFF ; ret  ;  (1 found)
0x100229ec: and byte [0xB70F0000], al ; ret  ;  (1 found)
0x1001cbbc: and byte [eax], al ; add byte [eax], al ; add byte [ebp+0x5F], bl ; pop esi ; pop ebx ; ret  ;  (1 found)
0x100284a9: and byte [ebp-0x44], 0xFFFFFFFE ; push eax ; call dword [ebp+0x10] ;  (1 found)
0x1002a9a9: and byte [ebx-0x1A74FB3C], al ; pop ebp ; ret  ;  (1 found)
0x1002a3d9: and byte [ebx-0x74A1F73C], al ; in eax, 0x5D ; ret  ;  (1 found)
0x100169c9: and byte [ecx], dl ; add dword [eax], edx ; ret  ;  (1 found)
0x100181f4: and byte [edi+0x5E], bl ; pop ebx ; pop ebp ; ret  ;  (1 found)
0x10012be2: and byte [edx+0x00], ch ; call dword [0x1001108C] ;  (1 found)
0x1001c226: and byte [edx], al ; add byte [eax], al ; push dword [0x1002FF90] ; call dword [0x10011170] ;  (1 found)
0x1001fff4: and byte [edx], al ; add byte [eax], al ; push dword [0x1002FF90] ; call dword [0x10011170] ;  (1 found)
0x10020aa7: and byte [edx], al ; add byte [eax], al ; push dword [0x1002FF90] ; call dword [0x10011170] ;  (1 found)
0x10020cf9: and byte [edx], al ; add byte [eax], al ; push dword [0x1002FF90] ; call dword [0x10011170] ;  (1 found)
0x10020b84: and byte [edx], al ; add byte [eax], al ; push eax ; call dword [0x10011170] ;  (1 found)
0x1002aa62: and byte [esi+0x0B], 0xFFFFFFC1 ; mov word [ebp-0x02], ax ; fld qword [ebp-0x08] ; mov esp, ebp ; pop ebp ; ret  ;  (1 found)
0x1002307d: and byte [esi+0x0C], 0xFFFFFFF7 ; mov dword [esi+0x04], eax ; pop esi ; ret  ;  (1 found)
0x1001743c: and byte [esi+0x1002F3C0], 0xFFFFFFFD ; mov eax, edi ; pop edi ; pop esi ; ret  ;  (1 found)
0x1001f16c: and cl, byte [ecx+0x02F3B41D] ; adc dh, al ; inc ebp ; call dword [ebx-0x15] ;  (1 found)
0x1001dd82: and dl, byte [0xC4830000] ; or byte [ebx+0x0FF685F0], cl ; test dl, ah ; add byte [eax], al ; add byte [ebx], ch ; ret  ;  (1 found)
0x10017716: and dword [ebx+0x02], esi ; xor eax, eax ; ret  ;  (1 found)
0x10026d59: and dword [ebx-0x73F0BB08], eax ; retn 0x0002 ;  (1 found)
0x1001e610: and dword [esi-0x01], ebp ; inc dword [ebx-0x3974F73C] ; pop esi ; mov esp, ebp ; pop ebp ; ret  ;  (1 found)
0x1001b282: and dword [esp+0x04], 0x00000180 ; mov eax, dword [0x1002E088] ; mov ecx, dword [esp+0x04] ; mov dword [0x1002E088], ecx ; ret  ;  (1 found)
0x100126c1: and eax, 0x00000080 ; ret  ;  (1 found)
0x10027e91: and eax, 0x000000F8 ; add eax, 0x08 ; pop ebp ; ret  ;  (1 found)
0x10012604: and eax, 0x00000103 ; ret  ;  (1 found)
0x10016ca7: and eax, 0x00000103 ; ret  ;  (1 found)
0x10012750: and eax, 0x00000107 ; ret  ;  (1 found)
0x100127b6: and eax, 0x00000117 ; ret  ;  (1 found)
0x10012783: and eax, 0x00000157 ; ret  ;  (1 found)
0x1001cc50: and eax, 0x00008000 ; ret  ;  (1 found)
0x10012634: and eax, 0x01 ; ret  ;  (1 found)
0x10016f77: and eax, 0x01 ; ret  ;  (1 found)
0x1001a3aa: and eax, 0x01 ; ret  ;  (1 found)
0x1002aa36: and eax, 0x02 ; add eax, eax ; ret  ;  (1 found)
0x10012662: and eax, 0x02 ; ret  ;  (1 found)
0x10016e59: and eax, 0x02 ; ret  ;  (1 found)
0x1001d3ce: and eax, 0x03 ; shr ecx, 0x02 ; rep movsd  ; jmp dword [0x1001D378+eax*4] ;  (1 found)
0x1001d51e: and eax, 0x03 ; shr ecx, 0x02 ; rep movsd  ; jmp dword [0x1001D4C8+eax*4] ;  (1 found)
0x1001d46e: and eax, 0x03 ; sub esi, 0x03 ; sub edi, 0x03 ; shr ecx, 0x02 ; rep movsd  ; jmp dword [0x1001D410+eax*4] ;  (1 found)
0x1001d5be: and eax, 0x03 ; sub esi, 0x03 ; sub edi, 0x03 ; shr ecx, 0x02 ; rep movsd  ; jmp dword [0x1001D560+eax*4] ;  (1 found)
0x10012690: and eax, 0x04 ; ret  ;  (1 found)
0x10016d04: and eax, 0x04 ; ret  ;  (1 found)
0x100126f1: and eax, 0x08 ; ret  ;  (1 found)
0x10016f1c: and eax, 0x08 ; ret  ;  (1 found)
0x1001271f: and eax, 0x10 ; ret  ;  (1 found)
0x1001be17: and eax, 0x10 ; ret  ;  (1 found)
0x100171ac: and eax, 0x10011058 ; ret  ;  (1 found)
0x10012a1b: and eax, 0x10011060 ; jmp dword [0x10011074] ;  (1 found)
0x1001676c: and eax, 0x1001110C ; jmp dword [0x10011110] ;  (1 found)
0x100127e6: and eax, 0x20 ; ret  ;  (1 found)
0x1001be22: and eax, 0x20 ; ret  ;  (1 found)
0x10016aad: and eax, 0x40 ; ret  ;  (1 found)
0x100127ff: and eax, 0x7F ; ret  ;  (1 found)
0x1001dbc8: and eax, 0x7FFF0000 ; shr eax, 0x10 ; ret  ;  (1 found)
0x10016b67: and eax, dword [ebp+0x0C] ; pop ebx ; mov esp, ebp ; pop ebp ; ret  ;  (1 found)
0x100207f5: and eax, ebx ; pop ebx ; ret  ;  (1 found)
0x1001826d: and eax, ecx ; ret  ;  (1 found)
0x10018418: and eax, ecx ; ret  ;  (1 found)
0x10020327: and eax, ecx ; ret  ;  (1 found)
0x1001a871: and eax, edi ; pop edi ; pop esi ; ret  ;  (1 found)
0x10022841: and eax, edx ; pop ebx ; pop ebp ; ret  ;  (1 found)
0x1001788b: and eax, edx ; pop ebx ; ret  ;  (1 found)
0x10011f2d: and eax, edx ; ret  ;  (1 found)
0x100125c2: and eax, edx ; ret  ;  (1 found)
0x100205a2: and eax, edx ; ret  ;  (1 found)
0x1002249f: and ebp, dword [edx-0x01] ; push dword [ebp-0x20] ; call dword [0x100110C0] ;  (1 found)
0x1002a0f6: and ebp, eax ; rol dword [eax], 0x00000000 ; add cl, bl ; leave  ; fstp st0 ; ret  ;  (1 found)
0x1002a05c: and ecx, 0x00000404 ; mov ebx, edx ; add ebx, eax ; add ebx, 0x10 ; jmp dword [ebx] ;  (1 found)
0x1002a0e8: and ecx, 0x00000404 ; mov ebx, edx ; add ebx, eax ; add ebx, 0x10 ; jmp dword [ebx] ;  (1 found)
0x100179ab: and ecx, 0x01 ; sub edx, ecx ; lea eax, dword [edx-0x01] ; ret  ;  (1 found)
0x1001e8e1: and ecx, 0x03 ; rep movsb  ; mov eax, edx ; pop edi ; pop esi ; ret  ;  (1 found)
0x1001d617: and ecx, 0x03 ; rep stosb  ; mov eax, dword [ebp+0x08] ; pop edi ; leave  ; ret  ;  (1 found)
0x10028c17: and ecx, dword [eax] ; pop ebp ; or ecx, edx ; mov dword [eax], ecx ; ret  ;  (1 found)
0x10019245: and ecx, eax ; push ecx ; push ebx ; call dword [0x10011158] ;  (1 found)
0x1001d368: and edx, 0x03 ; shr ecx, 0x02 ; rep movsd  ; jmp dword [0x1001D378+edx*4] ;  (1 found)
0x1001d4b8: and edx, 0x03 ; shr ecx, 0x02 ; rep movsd  ; jmp dword [0x1001D4C8+edx*4] ;  (1 found)
0x1001d3fb: and edx, 0x03 ; sub esi, 0x04 ; sub edi, 0x04 ; shr ecx, 0x02 ; rep movsd  ; jmp dword [0x1001D410+edx*4] ;  (1 found)
0x1001d54b: and edx, 0x03 ; sub esi, 0x04 ; sub edi, 0x04 ; shr ecx, 0x02 ; rep movsd  ; jmp dword [0x1001D560+edx*4] ;  (1 found)
0x100143ad: and esi, 0xFFFFFFDF ; lea eax, dword [esi-0x07] ; pop esi ; ret  ;  (1 found)
0x10023c8d: and esi, 0xFFFFFFDF ; lea eax, dword [esi-0x07] ; pop esi ; ret  ;  (1 found)
0x10017d66: and esp, dword [esi-0x7F] ; jmp dword [eax-0x7E] ;  (1 found)
0x1001808a: and esp, dword [esi-0x7F] ; jmp dword [eax-0x7E] ;  (1 found)
0x10013cb7: arpl word [ebx+0x0E7718F8], ax ; movzx ecx, byte [eax+0x1001435F] ; jmp dword [0x1001432F+ecx*4] ;  (1 found)
0x100234e8: arpl word [ebx+0x0E7718F8], ax ; movzx ecx, byte [eax+0x10023C3F] ; jmp dword [0x10023C0F+ecx*4] ;  (1 found)
0x10023ea2: arpl word [ebx+0x0E7718F8], ax ; movzx ecx, byte [eax+0x100245A7] ; jmp dword [0x10024577+ecx*4] ;  (1 found)
0x10012a3c: bound eax, dword [ebp+0x5F5D0001] ; pop esi ; pop ebx ; mov esp, ebp ; pop ebp ; ret  ;  (1 found)
0x10025ead: bound eax, dword [edx] ; adc byte [ebx+0x1002FF58], ah ; mov dword [0x1002FF6C], eax ; ret  ;  (1 found)
0x1001cf4e: bound edx, dword [eax] ; add esp, 0x04 ; jmp dword [edx+0x14] ;  (1 found)
0x1002632a: bound esi, dword [ecx-0x01] ; inc dword [ebx+0x5E5F0CC4] ; ret  ;  (1 found)
0x100226b9: bound esi, dword [esi+edi*2-0x7D] ; jmp dword [ebx+0x0F] ;  (1 found)
0x10016718: call dword [0x1001103C] ;  (1 found)
0x10011d0d: call dword [0x10011040] ;  (1 found)
0x10011d02: call dword [0x10011044] ;  (1 found)
0x10011caa: call dword [0x10011048] ;  (1 found)
0x10017191: call dword [0x10011048] ;  (1 found)
0x10011c8a: call dword [0x1001104C] ;  (1 found)
0x10020db8: call dword [0x1001104C] ;  (1 found)
0x10021010: call dword [0x1001104C] ;  (1 found)
0x10011efa: call dword [0x10011050] ;  (1 found)
0x10012022: call dword [0x10011054] ;  (1 found)
0x10012354: call dword [0x10011058] ;  (1 found)
0x10012355: call dword [0x10011058] ;  (1 found)
0x10012af6: call dword [0x10011058] ;  (1 found)
0x10012f1f: call dword [0x10011058] ;  (1 found)
0x10012f20: call dword [0x10011058] ;  (1 found)
0x10012f8b: call dword [0x10011058] ;  (1 found)
0x100131a1: call dword [0x10011058] ;  (1 found)
0x100130eb: call dword [0x10011058] ;  (1 found)
0x10013224: call dword [0x10011058] ;  (1 found)
0x10012e74: call dword [0x10011058] ;  (1 found)
0x10014410: call dword [0x10011058] ;  (1 found)
0x10014431: call dword [0x10011058] ;  (1 found)
0x10014506: call dword [0x10011058] ;  (1 found)
0x1001463e: call dword [0x10011058] ;  (1 found)
0x100157f0: call dword [0x10011058] ;  (1 found)
0x100151e7: call dword [0x10011058] ;  (1 found)
0x100152e1: call dword [0x10011058] ;  (1 found)
0x1001611b: call dword [0x10011058] ;  (1 found)
0x1001587e: call dword [0x10011058] ;  (1 found)
0x10016698: call dword [0x10011058] ;  (1 found)
0x10016699: call dword [0x10011058] ;  (1 found)
0x10016727: call dword [0x10011058] ;  (1 found)
0x10016834: call dword [0x10011058] ;  (1 found)
0x100169a0: call dword [0x10011058] ;  (1 found)
0x10017279: call dword [0x10011058] ;  (1 found)
0x1001867a: call dword [0x10011058] ;  (1 found)
0x10018989: call dword [0x10011058] ;  (1 found)
0x100189c0: call dword [0x10011058] ;  (1 found)
0x10018f60: call dword [0x10011058] ;  (1 found)
0x10017422: call dword [0x10011058] ;  (1 found)
0x100193fe: call dword [0x10011058] ;  (1 found)
0x100194d5: call dword [0x10011058] ;  (1 found)
0x10019571: call dword [0x10011058] ;  (1 found)
0x1001b2ad: call dword [0x10011058] ;  (1 found)
0x1001b8b3: call dword [0x10011058] ;  (1 found)
0x1001d0c6: call dword [0x10011058] ;  (1 found)
0x1001dc27: call dword [0x10011058] ;  (1 found)
0x10020ad9: call dword [0x10011058] ;  (1 found)
0x10025c5c: call dword [0x10011058] ;  (1 found)
0x10022461: call dword [0x10011058] ;  (1 found)
0x10012318: call dword [0x1001105C] ;  (1 found)
0x100128d3: call dword [0x10011060] ;  (1 found)
0x1001294c: call dword [0x10011060] ;  (1 found)
0x100128c9: call dword [0x10011064] ;  (1 found)
0x10012942: call dword [0x10011064] ;  (1 found)
0x10012a12: call dword [0x10011064] ;  (1 found)
0x10012c3a: call dword [0x10011064] ;  (1 found)
0x1001289c: call dword [0x10011068] ;  (1 found)
0x10012905: call dword [0x1001106C] ;  (1 found)
0x1001291d: call dword [0x10011070] ;  (1 found)
0x10012995: call dword [0x10011070] ;  (1 found)
0x10012aeb: call dword [0x1001107C] ;  (1 found)
0x10012f5f: call dword [0x1001107C] ;  (1 found)
0x10012b90: call dword [0x10011080] ;  (1 found)
0x1001728f: call dword [0x10011080] ;  (1 found)
0x10012b9f: call dword [0x10011084] ;  (1 found)
0x10012bf5: call dword [0x10011088] ;  (1 found)
0x10012be5: call dword [0x1001108C] ;  (1 found)
0x10012cf4: call dword [0x10011090] ;  (1 found)
0x10012ce3: call dword [0x10011094] ;  (1 found)
0x10013197: call dword [0x10011094] ;  (1 found)
0x10014449: call dword [0x10011094] ;  (1 found)
0x100189ba: call dword [0x10011094] ;  (1 found)
0x10018c14: call dword [0x10011094] ;  (1 found)
0x10018da8: call dword [0x10011094] ;  (1 found)
0x10018d75: call dword [0x10011094] ;  (1 found)
0x10018dfd: call dword [0x10011094] ;  (1 found)
0x10019033: call dword [0x10011094] ;  (1 found)
0x1001903c: call dword [0x10011094] ;  (1 found)
0x10021755: call dword [0x10011094] ;  (1 found)
0x10021766: call dword [0x10011094] ;  (1 found)
0x100224bb: call dword [0x10011094] ;  (1 found)
0x100224cc: call dword [0x10011094] ;  (1 found)
0x100224e4: call dword [0x10011094] ;  (1 found)
0x10012dcf: call dword [0x10011098] ;  (1 found)
0x10012d4d: call dword [0x10011098] ;  (1 found)
0x10016224: call dword [0x10011098] ;  (1 found)
0x1001628c: call dword [0x10011098] ;  (1 found)
0x10012d64: call dword [0x1001109C] ;  (1 found)
0x10012d3f: call dword [0x100110A0] ;  (1 found)
0x10016216: call dword [0x100110A0] ;  (1 found)
0x10012eac: call dword [0x100110A4] ;  (1 found)
0x10012e0d: call dword [0x100110A4] ;  (1 found)
0x10012e30: call dword [0x100110A4] ;  (1 found)
0x100165ff: call dword [0x100110A4] ;  (1 found)
0x1001667d: call dword [0x100110A4] ;  (1 found)
0x100166cc: call dword [0x100110A4] ;  (1 found)
0x10012dfc: call dword [0x100110A8] ;  (1 found)
0x10012f08: call dword [0x100110A8] ;  (1 found)
0x10012f7c: call dword [0x100110AC] ;  (1 found)
0x100130c9: call dword [0x100110B0] ;  (1 found)
0x1001321a: call dword [0x100110B4] ;  (1 found)
0x10013a9b: call dword [0x100110B8] ;  (1 found)
0x100190aa: call dword [0x100110B8] ;  (1 found)
0x10014402: call dword [0x100110BC] ;  (1 found)
0x100224b2: call dword [0x100110BC] ;  (1 found)
0x100143f3: call dword [0x100110C0] ;  (1 found)
0x100224a5: call dword [0x100110C0] ;  (1 found)
0x100144fc: call dword [0x100110C4] ;  (1 found)
0x10014634: call dword [0x100110C4] ;  (1 found)
0x10018bff: call dword [0x100110C4] ;  (1 found)
0x10018bcd: call dword [0x100110C4] ;  (1 found)
0x10018d68: call dword [0x100110C4] ;  (1 found)
0x10018df0: call dword [0x100110C4] ;  (1 found)
0x100144e4: call dword [0x100110C8] ;  (1 found)
0x100144f5: call dword [0x100110C8] ;  (1 found)
0x1001462d: call dword [0x100110C8] ;  (1 found)
0x1001461c: call dword [0x100110C8] ;  (1 found)
0x10018b97: call dword [0x100110C8] ;  (1 found)
0x10014ef3: call dword [0x100110CC] ;  (1 found)
0x1001dc08: call dword [0x100110CC] ;  (1 found)
0x100151d9: call dword [0x100110D0] ;  (1 found)
0x1001a0e8: call dword [0x100110D0] ;  (1 found)
0x100212c0: call dword [0x100110D0] ;  (1 found)
0x100152d7: call dword [0x100110D4] ;  (1 found)
0x100212e0: call dword [0x100110D4] ;  (1 found)
0x100153be: call dword [0x100110D8] ;  (1 found)
0x1001a27d: call dword [0x100110D8] ;  (1 found)
0x100212ad: call dword [0x100110D8] ;  (1 found)
0x100212f0: call dword [0x100110D8] ;  (1 found)
0x100153ff: call dword [0x100110DC] ;  (1 found)
0x100158f1: call dword [0x100110DC] ;  (1 found)
0x10015939: call dword [0x100110DC] ;  (1 found)
0x100158ae: call dword [0x100110DC] ;  (1 found)
0x1001a1fc: call dword [0x100110DC] ;  (1 found)
0x1001a1ad: call dword [0x100110DC] ;  (1 found)
0x1001a24d: call dword [0x100110DC] ;  (1 found)
0x1001586f: call dword [0x100110E0] ;  (1 found)
0x100157b6: call dword [0x100110E4] ;  (1 found)
0x10016111: call dword [0x100110E4] ;  (1 found)
0x100189ac: call dword [0x100110E4] ;  (1 found)
0x10021483: call dword [0x100110E4] ;  (1 found)
0x100159b4: call dword [0x100110E8] ;  (1 found)
0x10016781: call dword [0x100110E8] ;  (1 found)
0x1001a403: call dword [0x100110E8] ;  (1 found)
0x1001a882: call dword [0x100110E8] ;  (1 found)
0x10015eaa: call dword [0x100110EC] ;  (1 found)
0x10015e35: call dword [0x100110F0] ;  (1 found)
0x10015e8a: call dword [0x100110F0] ;  (1 found)
0x10016020: call dword [0x100110F4] ;  (1 found)
0x1001608f: call dword [0x100110F4] ;  (1 found)
0x1001623a: call dword [0x100110F8] ;  (1 found)
0x10016342: call dword [0x100110FC] ;  (1 found)
0x1001630f: call dword [0x10011100] ;  (1 found)
0x10011d18: call dword [0x10011104] ;  (1 found)
0x1001674d: call dword [0x10011108] ;  (1 found)
0x1001675f: call dword [0x10011108] ;  (1 found)
0x1001a39c: call dword [0x1001110C] ;  (1 found)
0x10016825: call dword [0x10011114] ;  (1 found)
0x100168be: call dword [0x10011118] ;  (1 found)
0x10016907: call dword [0x10011118] ;  (1 found)
0x100168b7: call dword [0x1001111C] ;  (1 found)
0x10016900: call dword [0x1001111C] ;  (1 found)
0x1001691b: call dword [0x1001111C] ;  (1 found)
0x10016942: call dword [0x1001111C] ;  (1 found)
0x100169c0: call dword [0x1001111C] ;  (1 found)
0x10016a1d: call dword [0x1001111C] ;  (1 found)
0x100169e4: call dword [0x1001111C] ;  (1 found)
0x10016a48: call dword [0x1001111C] ;  (1 found)
0x100214bc: call dword [0x1001111C] ;  (1 found)
0x100169c7: call dword [0x10011120] ;  (1 found)
0x10016949: call dword [0x10011124] ;  (1 found)
0x10016a24: call dword [0x10011124] ;  (1 found)
0x10016a4f: call dword [0x10011124] ;  (1 found)
0x10016922: call dword [0x10011128] ;  (1 found)
0x100169eb: call dword [0x1001112C] ;  (1 found)
0x10016b54: call dword [0x10011130] ;  (1 found)
0x1001cc05: call dword [0x10011130] ;  (1 found)
0x100252fd: call dword [0x10011130] ;  (1 found)
0x10025334: call dword [0x10011130] ;  (1 found)
0x100170e4: call dword [0x10011134] ;  (1 found)
0x10017118: call dword [0x10011134] ;  (1 found)
0x1001714c: call dword [0x10011134] ;  (1 found)
0x10016b30: call dword [0x10011134] ;  (1 found)
0x1001854c: call dword [0x10011134] ;  (1 found)
0x1001aefb: call dword [0x10011134] ;  (1 found)
0x1001a66f: call dword [0x10011134] ;  (1 found)
0x1001a68a: call dword [0x10011134] ;  (1 found)
0x1001ad4f: call dword [0x10011134] ;  (1 found)
0x1001c029: call dword [0x10011134] ;  (1 found)
0x1001cfc9: call dword [0x10011134] ;  (1 found)
0x1001cff8: call dword [0x10011134] ;  (1 found)
0x1001d0b2: call dword [0x10011134] ;  (1 found)
0x1001d195: call dword [0x10011134] ;  (1 found)
0x1001d0ff: call dword [0x10011134] ;  (1 found)
0x1001d2d4: call dword [0x10011134] ;  (1 found)
0x1001d293: call dword [0x10011134] ;  (1 found)
0x1001e7ab: call dword [0x10011134] ;  (1 found)
0x1001e7c6: call dword [0x10011134] ;  (1 found)
0x1001f856: call dword [0x10011134] ;  (1 found)
0x100252e1: call dword [0x10011134] ;  (1 found)
0x10025bda: call dword [0x10011134] ;  (1 found)
0x1001719c: call dword [0x10011138] ;  (1 found)
0x1001726f: call dword [0x1001113C] ;  (1 found)
0x10017251: call dword [0x10011140] ;  (1 found)
0x10017410: call dword [0x10011144] ;  (1 found)
0x1001866b: call dword [0x10011148] ;  (1 found)
0x1001876e: call dword [0x1001114C] ;  (1 found)
0x10018979: call dword [0x10011150] ;  (1 found)
0x10021721: call dword [0x10011150] ;  (1 found)
0x1002173d: call dword [0x10011150] ;  (1 found)
0x10018f56: call dword [0x10011154] ;  (1 found)
0x10019249: call dword [0x10011158] ;  (1 found)
0x100193f4: call dword [0x1001115C] ;  (1 found)
0x100194cb: call dword [0x1001115C] ;  (1 found)
0x10019562: call dword [0x10011160] ;  (1 found)
0x10019728: call dword [0x10011164] ;  (1 found)
0x1001a13c: call dword [0x10011168] ;  (1 found)
0x1001a6a2: call dword [0x1001116C] ;  (1 found)
0x1001b49f: call dword [0x1001116C] ;  (1 found)
0x1001b446: call dword [0x1001116C] ;  (1 found)
0x1001e7de: call dword [0x1001116C] ;  (1 found)
0x100203aa: call dword [0x1001116C] ;  (1 found)
0x1001af5e: call dword [0x10011170] ;  (1 found)
0x1001adb2: call dword [0x10011170] ;  (1 found)
0x1001c230: call dword [0x10011170] ;  (1 found)
0x1001b943: call dword [0x10011170] ;  (1 found)
0x1001b970: call dword [0x10011170] ;  (1 found)
0x1001fffe: call dword [0x10011170] ;  (1 found)
0x10020b0b: call dword [0x10011170] ;  (1 found)
0x10020ab1: call dword [0x10011170] ;  (1 found)
0x10020b89: call dword [0x10011170] ;  (1 found)
0x10020d03: call dword [0x10011170] ;  (1 found)
0x10025cb9: call dword [0x10011170] ;  (1 found)
0x10025ce8: call dword [0x10011170] ;  (1 found)
0x1001af2c: call dword [0x10011174] ;  (1 found)
0x1001ad80: call dword [0x10011174] ;  (1 found)
0x1001b533: call dword [0x10011174] ;  (1 found)
0x1001b564: call dword [0x10011174] ;  (1 found)
0x1001b70a: call dword [0x10011174] ;  (1 found)
0x1001b73b: call dword [0x10011174] ;  (1 found)
0x1001f874: call dword [0x10011174] ;  (1 found)
0x1001f8a0: call dword [0x10011174] ;  (1 found)
0x1001fdb2: call dword [0x10011174] ;  (1 found)
0x1001fe6c: call dword [0x10011174] ;  (1 found)
0x10020c23: call dword [0x10011174] ;  (1 found)
0x10020c3f: call dword [0x10011174] ;  (1 found)
0x1001b01b: call dword [0x10011178] ;  (1 found)
0x1001b29e: call dword [0x1001117C] ;  (1 found)
0x1001b878: call dword [0x10011180] ;  (1 found)
0x1001b8a2: call dword [0x10011180] ;  (1 found)
0x10021539: call dword [0x10011180] ;  (1 found)
0x1001c4a1: call dword [0x10011184] ;  (1 found)
0x1001bc64: call dword [0x10011184] ;  (1 found)
0x1001c4d1: call dword [0x10011188] ;  (1 found)
0x1001dc18: call dword [0x1001118C] ;  (1 found)
0x1001fa4a: call dword [0x10011190] ;  (1 found)
0x1002146c: call dword [0x10011194] ;  (1 found)
0x100213de: call dword [0x10011198] ;  (1 found)
0x100215fd: call dword [0x1001119C] ;  (1 found)
0x1002161b: call dword [0x100111A4] ;  (1 found)
0x10021633: call dword [0x100111A8] ;  (1 found)
0x10022459: call dword [0x100111AC] ;  (1 found)
0x10025274: call dword [0x100111B0] ;  (1 found)
0x100255ff: call dword [0x100111B4] ;  (1 found)
0x100255ac: call dword [0x100111B4] ;  (1 found)
0x10025653: call dword [0x100111B4] ;  (1 found)
0x100256a7: call dword [0x100111B4] ;  (1 found)
0x100256da: call dword [0x100111B4] ;  (1 found)
0x10025c52: call dword [0x100111B4] ;  (1 found)
0x10025c73: call dword [0x100111B4] ;  (1 found)
0x10025c9f: call dword [0x100111B4] ;  (1 found)
0x10025d22: call dword [0x100111B4] ;  (1 found)
0x100255da: call dword [0x100111B8] ;  (1 found)
0x10025548: call dword [0x100111B8] ;  (1 found)
0x10025587: call dword [0x100111B8] ;  (1 found)
0x10025632: call dword [0x100111B8] ;  (1 found)
0x1002555d: call dword [0x100111BC] ;  (1 found)
0x1002552e: call dword [0x100111C0] ;  (1 found)
0x1002a637: call dword [0x100111C4] ;  (1 found)
0x10011dce: call dword [0x1002E004] ;  (1 found)
0x1001376e: call dword [0x1002FF58] ;  (1 found)
0x10021c7a: call dword [0x1002FF58] ;  (1 found)
0x10022d18: call dword [0x1002FF58] ;  (1 found)
0x100137a8: call dword [0x1002FF5C] ;  (1 found)
0x10021cb4: call dword [0x1002FF5C] ;  (1 found)
0x10022d53: call dword [0x1002FF5C] ;  (1 found)
0x10013ec4: call dword [0x1002FF60] ;  (1 found)
0x10023723: call dword [0x1002FF60] ;  (1 found)
0x10024126: call dword [0x1002FF60] ;  (1 found)
0x1001378e: call dword [0x1002FF64] ;  (1 found)
0x10021c9a: call dword [0x1002FF64] ;  (1 found)
0x10022d39: call dword [0x1002FF64] ;  (1 found)
0x10012c57: call dword [0x10032BDC] ;  (1 found)
0x10012cbf: call dword [0x10032BE0] ;  (1 found)
0x1001a1aa: call dword [eax+0x51] ;  (1 found)
0x1001a1f9: call dword [eax+0x51] ;  (1 found)
0x1001a24a: call dword [eax+0x51] ;  (1 found)
0x1001a0e5: call dword [eax+0x56] ;  (1 found)
0x100166c5: call dword [eax+0x68] ;  (1 found)
0x1001e29b: call dword [eax+0x68] ;  (1 found)
0x100165fb: call dword [eax+0x6A] ;  (1 found)
0x10015492: call dword [eax+0x741002E7] ;  (1 found)
0x10011ca8: call dword [eax-0x01] ;  (1 found)
0x10011c7f: call dword [eax-0x01] ;  (1 found)
0x100137a6: call dword [eax-0x01] ;  (1 found)
0x1001378c: call dword [eax-0x01] ;  (1 found)
0x100149d5: call dword [eax-0x01] ;  (1 found)
0x1001b019: call dword [eax-0x01] ;  (1 found)
0x1001dee9: call dword [eax-0x01] ;  (1 found)
0x1002146a: call dword [eax-0x01] ;  (1 found)
0x100256ba: call dword [eax-0x01] ;  (1 found)
0x10021c98: call dword [eax-0x01] ;  (1 found)
0x10021cb2: call dword [eax-0x01] ;  (1 found)
0x10022d37: call dword [eax-0x01] ;  (1 found)
0x10022d51: call dword [eax-0x01] ;  (1 found)
0x10027f0a: call dword [eax-0x01] ;  (1 found)
0x10028589: call dword [eax-0x01] ;  (1 found)
0x10028646: call dword [eax-0x01] ;  (1 found)
0x100134af: call dword [eax-0x18] ;  (1 found)
0x10015257: call dword [eax-0x18] ;  (1 found)
0x10015269: call dword [eax-0x18] ;  (1 found)
0x10015281: call dword [eax-0x18] ;  (1 found)
0x10015351: call dword [eax-0x18] ;  (1 found)
0x1001537b: call dword [eax-0x18] ;  (1 found)
0x10015363: call dword [eax-0x18] ;  (1 found)
0x1001e281: call dword [eax-0x18] ;  (1 found)
0x1001fc73: call dword [eax-0x18] ;  (1 found)
0x100269e4: call dword [eax-0x18] ;  (1 found)
0x100219bb: call dword [eax-0x18] ;  (1 found)
0x100143c6: call dword [eax-0x75] ;  (1 found)
0x100194ba: call dword [eax-0x75] ;  (1 found)
0x100256ed: call dword [eax-0x75] ;  (1 found)
0x1001a163: call dword [eax] ;  (1 found)
0x100283c6: call dword [eax] ;  (1 found)
0x100283cf: call dword [eax] ;  (1 found)
0x100283bd: call dword [eax] ;  (1 found)
0x1002871f: call dword [eax] ;  (1 found)
0x1002810f: call dword [ebp+0x10] ;  (1 found)
0x100284ae: call dword [ebp+0x10] ;  (1 found)
0x1002858b: call dword [ebp+0x10] ;  (1 found)
0x10028648: call dword [ebp+0x10] ;  (1 found)
0x1001db40: call dword [ebp+0x14] ;  (1 found)
0x1001da7f: call dword [ebp+0x14] ;  (1 found)
0x1001da66: call dword [ebp+0x14] ;  (1 found)
0x10017368: call dword [ebp+0x18] ;  (1 found)
0x1001bc38: call dword [ebp+0x18] ;  (1 found)
0x1001bbf7: call dword [ebp+0x18] ;  (1 found)
0x1002a1ea: call dword [ebp+0x33] ;  (1 found)
0x100156ae: call dword [ebp-0x18] ;  (1 found)
0x10029c72: call dword [ebp-0x75] ;  (1 found)
0x1001977d: call dword [ebx+0x04] ;  (1 found)
0x1001e06d: call dword [ebx+0x1002F1A0] ;  (1 found)
0x100284f0: call dword [ebx+0x50] ;  (1 found)
0x10028479: call dword [ebx+0x50] ;  (1 found)
0x10029c51: call dword [ebx+0x50] ;  (1 found)
0x100168f5: call dword [ebx+0x56] ;  (1 found)
0x100226ae: call dword [ebx+0x74] ;  (1 found)
0x10012ab0: call dword [ebx+esi*4+0x08] ;  (1 found)
0x100140c6: call dword [ebx-0x01] ;  (1 found)
0x10029afb: call dword [ebx-0x01] ;  (1 found)
0x10029c7b: call dword [ebx-0x01] ;  (1 found)
0x1001f175: call dword [ebx-0x15] ;  (1 found)
0x10014806: call dword [ebx-0x18] ;  (1 found)
0x100148b6: call dword [ebx-0x18] ;  (1 found)
0x100216da: call dword [ebx-0x18] ;  (1 found)
0x10029a80: call dword [ebx-0x65] ;  (1 found)
0x10029abe: call dword [ebx-0x65] ;  (1 found)
0x1001a14f: call dword [ebx-0x77] ;  (1 found)
0x1001a156: call dword [ebx-0x78] ;  (1 found)
0x10016b26: call dword [ecx+0x6A] ;  (1 found)
0x1001aef1: call dword [ecx+0x6A] ;  (1 found)
0x1001ad45: call dword [ecx+0x6A] ;  (1 found)
0x10013066: call dword [ecx-0x01] ;  (1 found)
0x10026a33: call dword [ecx-0x18] ;  (1 found)
0x10018bec: call dword [ecx-0x75] ;  (1 found)
0x1002157e: call dword [ecx] ;  (1 found)
0x10018543: call dword [edi+0x50] ;  (1 found)
0x1002410c: call dword [edi+0x50] ;  (1 found)
0x1001de8c: call dword [edi+0x57] ;  (1 found)
0x1001a69d: call dword [edi+0x6A] ;  (1 found)
0x1001e7d9: call dword [edi+0x6A] ;  (1 found)
0x10014863: call dword [edi+ecx*4+0x04] ;  (1 found)
0x10021687: call dword [edi+ecx*4+0x04] ;  (1 found)
0x10014894: call dword [edi+ecx*4+0x08] ;  (1 found)
0x100216b8: call dword [edi+ecx*4+0x08] ;  (1 found)
0x1001f833: call dword [edi-0x18] ;  (1 found)
0x1001ba6c: call dword [edx+0x51] ;  (1 found)
0x100170de: call dword [edx+0x6A] ;  (1 found)
0x10017112: call dword [edx+0x6A] ;  (1 found)
0x10017146: call dword [edx+0x6A] ;  (1 found)
0x100226a9: call dword [edx+0x74] ;  (1 found)
0x1001297f: call dword [esi+0x0F] ;  (1 found)
0x1001d948: call dword [esi+0x2B] ;  (1 found)
0x1001e48c: call dword [esi+0x2B] ;  (1 found)
0x1001a115: call dword [esi+0x33] ;  (1 found)
0x1001abf3: call dword [esi+0x33] ;  (1 found)
0x10012c67: call dword [esi+0x3C] ;  (1 found)
0x1001de16: call dword [esi+0x50] ;  (1 found)
0x10025cdf: call dword [esi+0x53] ;  (1 found)
0x10025cb5: call dword [esi+0x53] ;  (1 found)
0x100151d2: call dword [esi+0x57] ;  (1 found)
0x100152d0: call dword [esi+0x57] ;  (1 found)
0x100162e9: call dword [esi+0x57] ;  (1 found)
0x1001ff90: call dword [esi+0x57] ;  (1 found)
0x100161df: call dword [esi+0x74] ;  (1 found)
0x100143f1: call dword [esi-0x01] ;  (1 found)
0x10018a2d: call dword [esi-0x18] ;  (1 found)
0x100144c4: call dword [esi-0x39] ;  (1 found)
0x10014942: call dword [esi-0x77] ;  (1 found)
0x100148e1: call dword [esi-0x77] ;  (1 found)
0x10014a17: call dword [esi-0x77] ;  (1 found)
0x100149af: call dword [esi-0x77] ;  (1 found)
0x1001992a: call dword [esi-0x77] ;  (1 found)
0x100199fe: call dword [esi-0x77] ;  (1 found)
0x10019a63: call dword [esi-0x77] ;  (1 found)
0x1001998e: call dword [esi-0x77] ;  (1 found)
0x1001716f: call dword [esp+0x28] ;  (1 found)
0x100226b3: call dword [esp+esi*2+0x75] ;  (1 found)
0x10011fe2: call eax ;  (1 found)
0x10011f39: call eax ;  (1 found)
0x10012052: call eax ;  (1 found)
0x1001c4b7: call eax ;  (1 found)
0x1001bc7a: call eax ;  (1 found)
0x1001cf27: call eax ;  (1 found)
0x100214de: call eax ;  (1 found)
0x1002a04d: call eax ;  (1 found)
0x1002a0c6: call eax ;  (1 found)
0x10012414: call edi ;  (1 found)
0x1001255f: call edi ;  (1 found)
0x10012567: call edi ;  (1 found)
0x10011ee8: call edx ;  (1 found)
0x10011ede: call edx ;  (1 found)
0x100215b8: call esi ;  (1 found)
0x100215a8: call esi ;  (1 found)
0x100215b0: call esi ;  (1 found)
0x1002158d: call esi ;  (1 found)
0x10021551: call esi ;  (1 found)
0x10021559: call esi ;  (1 found)
0x10021561: call esi ;  (1 found)
0x10020829: cdq  ; ret  ;  (1 found)
0x1001b9a6: cdq  ; xor eax, edx ; sub eax, edx ; ret  ;  (1 found)
0x1001cd1e: cdq  ; xor eax, edx ; sub eax, edx ; ret  ;  (1 found)
0x100192af: clc  ; add dh, bh ; fcomp dword [edi+0x5E] ; ret  ;  (1 found)
0x100155bd: clc  ; add dword [eax+0x00000000], edi ; adc eax, 0xFFFFFFFF ; pop esi ; ret  ;  (1 found)
0x10021461: clc  ; add dword [eax-0x0000000B], edi ; adc eax, 0xFFFFFFFF ; push eax ; call dword [0x10011194] ;  (1 found)
0x10024688: clc  ; add dword [ebx], ebx ; sal bh, 0xFFFFFFD8 ; ret  ;  (1 found)
0x10017887: clc  ; add dword [ebx], ebx ; shl byte [ebx], 0xFFFFFFC2 ; pop ebx ; ret  ;  (1 found)
0x10011f29: clc  ; add dword [ebx], ebx ; shl byte [ebx], 0xFFFFFFC2 ; ret  ;  (1 found)
0x100125be: clc  ; add dword [ebx], ebx ; shl byte [ebx], 0xFFFFFFC2 ; ret  ;  (1 found)
0x10026870: clc  ; add edi, dword [edx+esi*8-0x48] ; add dword [eax], eax ; add byte [eax], al ; ret  ;  (1 found)
0x1002a291: clc  ; add esp, 0x08 ; mov esp, ebp ; pop ebp ; ret  ;  (1 found)
0x10027b27: clc  ; add esp, 0x08 ; pop esi ; mov esp, ebp ; pop ebp ; ret  ;  (1 found)
0x100296c4: clc  ; add esp, 0x08 ; pop esi ; mov esp, ebp ; pop ebp ; ret  ;  (1 found)
0x100299c9: clc  ; add esp, 0x08 ; pop esi ; mov esp, ebp ; pop ebp ; ret  ;  (1 found)
0x100299ca: clc  ; add esp, 0x08 ; pop esi ; mov esp, ebp ; pop ebp ; ret  ;  (1 found)
0x100130ea: clc  ; call dword [0x10011058] ;  (1 found)
0x10022460: clc  ; call dword [0x10011058] ;  (1 found)
0x10019032: clc  ; call dword [0x10011094] ;  (1 found)
0x10018bfe: clc  ; call dword [0x100110C4] ;  (1 found)
0x10018bcc: clc  ; call dword [0x100110C4] ;  (1 found)
0x10018d67: clc  ; call dword [0x100110C4] ;  (1 found)
0x10018def: clc  ; call dword [0x100110C4] ;  (1 found)
0x1001da65: clc  ; call dword [ebp+0x14] ;  (1 found)
0x10020478: clc  ; dec eax ; ret  ;  (1 found)
0x10015075: clc  ; insd  ; add byte [eax], al ; add esp, 0x04 ; ret  ;  (1 found)
0x10028c44: clc  ; leave  ; ret  ;  (1 found)
0x1001bd64: clc  ; mov edx, dword [ebp-0x04] ; pop esi ; mov esp, ebp ; pop ebp ; ret  ;  (1 found)
0x1001cd52: clc  ; mov edx, dword [ebp-0x04] ; pop esi ; mov esp, ebp ; pop ebp ; ret  ;  (1 found)
0x10027a01: clc  ; mov esp, ebp ; pop ebp ; ret  ;  (1 found)
0x10027a20: clc  ; mov esp, ebp ; pop ebp ; ret  ;  (1 found)
0x10028d14: clc  ; mov esp, ebp ; pop ebp ; ret  ;  (1 found)
0x10028d89: clc  ; mov esp, ebp ; pop ebp ; ret  ;  (1 found)
0x10028f88: clc  ; mov esp, ebp ; pop ebp ; ret  ;  (1 found)
0x100290a4: clc  ; mov esp, ebp ; pop ebp ; ret  ;  (1 found)
0x1002aa6c: clc  ; mov esp, ebp ; pop ebp ; ret  ;  (1 found)
0x10011cf9: clc  ; or eax, dword [eax] ; add cl, ch ; test al, 0x00 ; add byte [eax], al ; call dword [0x10011044] ;  (1 found)
0x10026bb1: clc  ; or ecx, dword [edi] ; xchg dword [edx+0x04], esi ; add byte [eax], al ; jmp dword [0x1002718E+eax*4] ;  (1 found)
0x10020410: clc  ; pop esi ; pop ebx ; ret  ;  (1 found)
0x100205e0: clc  ; pop esi ; pop ebx ; ret  ;  (1 found)
0x10018338: clc  ; pop esi ; ret  ;  (1 found)
0x10016b24: clc  ; push 0xFFFFFFFF ; push ecx ; push 0x00000001 ; push dword [0x1002FF90] ; call dword [0x10011134] ;  (1 found)
0x10018bf4: clc  ; push dword [0x1002F4C0+eax*4] ; push dword [ebp-0x08] ; call dword [0x100110C4] ;  (1 found)
0x10012dc8: clc  ; push dword [0x1002FF44] ; call dword [0x10011098] ;  (1 found)
0x10012af2: clc  ; push dword [ebp+0x16] ; call dword [0x10011058] ;  (1 found)
0x100151e3: clc  ; push dword [ebp+0x49] ; call dword [0x10011058] ;  (1 found)
0x100224e0: clc  ; push dword [ebp-0x1C] ; call dword [0x10011094] ;  (1 found)
0x10018d61: clc  ; push dword [ebp-0x24] ; push dword [ebp-0x08] ; call dword [0x100110C4] ;  (1 found)
0x10018de9: clc  ; push dword [ebp-0x24] ; push dword [ebp-0x08] ; call dword [0x100110C4] ;  (1 found)
0x10012900: clc  ; push dword [ecx+edx+0x50] ; call dword [0x1001106C] ;  (1 found)
0x10012cde: clc  ; push dword [edi+eax+0x50] ; call dword [0x10011094] ;  (1 found)
0x10021761: clc  ; push dword [edi+eax+0x50] ; call dword [0x10011094] ;  (1 found)
0x10021750: clc  ; push dword [edi+eax+0x50] ; call dword [0x10011094] ;  (1 found)
0x1001718c: clc  ; push dword [esp+0x04] ; call dword [0x10011048] ;  (1 found)
0x10018f54: clc  ; push eax ; call dword [0x10011154] ;  (1 found)
0x1002569f: clc  ; push eax ; push 0x00001001 ; push ecx ; call dword [0x100111B4] ;  (1 found)
0x10012d37: clc  ; push eax ; push dword [0x1002FF44] ; call dword [0x100110A0] ;  (1 found)
0x10016307: clc  ; push eax ; push dword [0x1002FF44] ; call dword [0x10011100] ;  (1 found)
0x10025d1a: clc  ; push eax ; push dword [ebp+0x10] ; push dword [ebp+0x0C] ; call dword [0x100111B4] ;  (1 found)
0x100224ad: clc  ; push eax ; push dword [ebp-0x20] ; call dword [0x100110BC] ;  (1 found)
0x10018bc8: clc  ; push ecx ; push dword [ebp-0x08] ; call dword [0x100110C4] ;  (1 found)
0x10018970: clc  ; push ecx ; push edi ; push dword [ebp-0x0C] ; push dword [ebp+0x08] ; call dword [0x10011150] ;  (1 found)
0x1001633f: clc  ; push esi ; push eax ; call dword [0x100110FC] ;  (1 found)
0x10013cb9: clc  ; sbb byte [edi+0x0E], dh ; movzx ecx, byte [eax+0x1001435F] ; jmp dword [0x1001432F+ecx*4] ;  (1 found)
0x100234ea: clc  ; sbb byte [edi+0x0E], dh ; movzx ecx, byte [eax+0x10023C3F] ; jmp dword [0x10023C0F+ecx*4] ;  (1 found)
0x10023ea4: clc  ; sbb byte [edi+0x0E], dh ; movzx ecx, byte [eax+0x100245A7] ; jmp dword [0x10024577+ecx*4] ;  (1 found)
0x1001346d: clc  ; xor eax, 0x03AD870F ; add byte [eax], al ; movzx ecx, byte [eax+0x1001399C] ; jmp dword [0x10013958+ecx*4] ;  (1 found)
0x10021979: clc  ; xor eax, 0x03AD870F ; add byte [eax], al ; movzx ecx, byte [eax+0x10021EBA] ; jmp dword [0x10021E76+ecx*4] ;  (1 found)
0x10022a1b: clc  ; xor eax, 0x03D9870F ; add byte [eax], al ; movzx ecx, byte [eax+0x10022F91] ; jmp dword [0x10022F4D+ecx*4] ;  (1 found)
0x10012c5f: cld  ; add byte [eax], al ; add byte [eax], al ; push dword [esi+0x40] ; call dword [esi+0x3C] ;  (1 found)
0x10025629: cld  ; add byte [esi+edx+0x0F], dh ; mov bh, 0x45 ; cld  ; push eax ; call dword [0x100111B8] ;  (1 found)
0x1001de0c: cld  ; add eax, 0x8D57327F ; test dword [edi+edi*8-0x01], ebp ; call dword [esi+0x50] ;  (1 found)
0x1001903b: cld  ; call dword [0x10011094] ;  (1 found)
0x10015e34: cld  ; call dword [0x100110F0] ;  (1 found)
0x10015e89: cld  ; call dword [0x100110F0] ;  (1 found)
0x1001da7e: cld  ; call dword [ebp+0x14] ;  (1 found)
0x1001bd2e: cld  ; fild dword [ebp-0x04] ; mov esp, ebp ; pop ebp ; ret  ;  (1 found)
0x10028e72: cld  ; fimul dword [ebp-0x04] ; pop esi ; mov esp, ebp ; pop ebp ; ret  ;  (1 found)
0x100279fe: cld  ; fld qword [ebp-0x08] ; mov esp, ebp ; pop ebp ; ret  ;  (1 found)
0x10027a1d: cld  ; fld qword [ebp-0x08] ; mov esp, ebp ; pop ebp ; ret  ;  (1 found)
0x1002abef: cld  ; fldcw word [ebp-0x04] ; movsx eax, word [ebp-0x02] ; mov esp, ebp ; pop ebp ; ret  ;  (1 found)
0x1002ac5d: cld  ; fstp qword [esp+0x00] ; fld qword [esp+0x00] ; add esp, 0x08 ; ret  ;  (1 found)
0x1001693d: cld  ; lea eax, dword [ebp-0x38] ; push eax ; call dword [0x1001111C] ;  (1 found)
0x10012efb: cld  ; mov byte [ebp-0x03], 0x0000003A ; mov byte [ebp-0x02], 0x00000000 ; lea ebx, dword [ebp-0x04] ; push ebx ; call dword [0x100110A8] ;  (1 found)
0x10012dbe: cld  ; mov byte [edi+0x01], cl ; mov byte [eax+0x02], 0x00000000 ; push dword [ebp-0x08] ; push dword [0x1002FF44] ; call dword [0x10011098] ;  (1 found)
0x10025fc5: cld  ; mov dword [edx], ecx ; mov esp, ebp ; pop ebp ; ret  ;  (1 found)
0x1001d440: cld  ; mov eax, dword [ebp+0x08] ; pop esi ; pop edi ; leave  ; ret  ;  (1 found)
0x1001d42e: cld  ; mov eax, dword [ebp+0x08] ; pop esi ; pop edi ; leave  ; ret  ;  (1 found)
0x1001d486: cld  ; mov eax, dword [ebp+0x08] ; pop esi ; pop edi ; leave  ; ret  ;  (1 found)
0x1001d44e: cld  ; mov eax, dword [ebp+0x08] ; pop esi ; pop edi ; leave  ; ret  ;  (1 found)
0x1001d59e: cld  ; mov eax, dword [ebp+0x08] ; pop esi ; pop edi ; leave  ; ret  ;  (1 found)
0x1001d590: cld  ; mov eax, dword [ebp+0x08] ; pop esi ; pop edi ; leave  ; ret  ;  (1 found)
0x1001d57e: cld  ; mov eax, dword [ebp+0x08] ; pop esi ; pop edi ; leave  ; ret  ;  (1 found)
0x1001d5d6: cld  ; mov eax, dword [ebp+0x08] ; pop esi ; pop edi ; leave  ; ret  ;  (1 found)
0x10016a8f: cld  ; mov esp, ebp ; pop ebp ; ret  ;  (1 found)
0x1001bd31: cld  ; mov esp, ebp ; pop ebp ; ret  ;  (1 found)
0x1002abf2: cld  ; movsx eax, word [ebp-0x02] ; mov esp, ebp ; pop ebp ; ret  ;  (1 found)
0x1001f30b: cld  ; pop edi ; leave  ; ret  ;  (1 found)
0x1001bd67: cld  ; pop esi ; mov esp, ebp ; pop ebp ; ret  ;  (1 found)
0x1001cd55: cld  ; pop esi ; mov esp, ebp ; pop ebp ; ret  ;  (1 found)
0x10028e75: cld  ; pop esi ; mov esp, ebp ; pop ebp ; ret  ;  (1 found)
0x10025331: cld  ; push 0x00000001 ; call dword [0x10011130] ;  (1 found)
0x100252fa: cld  ; push 0x00000001 ; call dword [0x10011130] ;  (1 found)
0x10014616: cld  ; push 0x00000001 ; push 0x00000000 ; push eax ; call dword [0x100110C8] ;  (1 found)
0x1001aeef: cld  ; push 0xFFFFFFFF ; push ecx ; push 0x00000001 ; push dword [0x1002FF90] ; call dword [0x10011134] ;  (1 found)
0x1001ad43: cld  ; push 0xFFFFFFFF ; push ecx ; push 0x00000001 ; push dword [0x1002FF90] ; call dword [0x10011134] ;  (1 found)
0x10016285: cld  ; push dword [0x1002FF44] ; call dword [0x10011098] ;  (1 found)
0x1001bbf3: cld  ; push dword [ebp+0x08] ; call dword [ebp+0x18] ;  (1 found)
0x10012559: cld  ; push dword [ecx+0x4C] ; push 0x00000008 ; call edi ;  (1 found)
0x10016716: cld  ; push eax ; call dword [0x1001103C] ;  (1 found)
0x10025585: cld  ; push eax ; call dword [0x100111B8] ;  (1 found)
0x10025546: cld  ; push eax ; call dword [0x100111B8] ;  (1 found)
0x100255d8: cld  ; push eax ; call dword [0x100111B8] ;  (1 found)
0x10025630: cld  ; push eax ; call dword [0x100111B8] ;  (1 found)
0x1001681f: cld  ; push eax ; mov word [ebp-0x02], dx ; call dword [0x10011114] ;  (1 found)
0x1001620e: cld  ; push eax ; push dword [0x1002FF44] ; call dword [0x100110A0] ;  (1 found)
0x100143ff: cld  ; push eax ; push esi ; call dword [0x100110BC] ;  (1 found)
0x10012f06: cld  ; push ebx ; call dword [0x100110A8] ;  (1 found)
0x10014447: cld  ; push esi ; call dword [0x10011094] ;  (1 found)
0x1001f893: cld  ; push esi ; push 0x00000400 ; push dword [0x1002FF7C] ; call dword [0x10011174] ;  (1 found)
0x10013a51: cld  ; ret  ;  (1 found)
0x10013a61: cld  ; ret  ;  (1 found)
0x10021f97: cld  ; ret  ;  (1 found)
0x10021fa7: cld  ; ret  ;  (1 found)
0x10023059: cld  ; ret  ;  (1 found)
0x1002552a: cli  ; add byte [ebp+0x3A], dh ; call dword [0x100111C0] ;  (1 found)
0x1001f167: cli  ; add dh, byte [eax+ecx-0x15] ; and cl, byte [ecx+0x02F3B41D] ; adc dh, al ; inc ebp ; call dword [ebx-0x15] ;  (1 found)
0x10021630: cli  ; add dl, byte [eax] ; call dword [0x100111A8] ;  (1 found)
0x10021556: cli  ; add dl, byte [eax] ; call esi ;  (1 found)
0x1002155c: cli  ; add dl, byte [eax] ; push eax ; call esi ;  (1 found)
0x1002155d: cli  ; add dl, byte [eax] ; push eax ; call esi ;  (1 found)
0x100215a3: cli  ; add dl, byte [eax] ; push eax ; call esi ;  (1 found)
0x100215a4: cli  ; add dl, byte [eax] ; push eax ; call esi ;  (1 found)
0x100215ac: cli  ; add dl, byte [eax] ; push eax ; call esi ;  (1 found)
0x100215b4: cli  ; add dl, byte [eax] ; push eax ; call esi ;  (1 found)
0x10021547: cli  ; add dl, byte [eax] ; push eax ; mov esi, dword [0x1001119C] ; call esi ;  (1 found)
0x10028d11: cli  ; fmul qword [ebp-0x08] ; mov esp, ebp ; pop ebp ; ret  ;  (1 found)
0x10028f85: cli  ; fmul qword [ebp-0x08] ; mov esp, ebp ; pop ebp ; ret  ;  (1 found)
0x100290a1: cli  ; fmul qword [ebp-0x08] ; mov esp, ebp ; pop ebp ; ret  ;  (1 found)
0x10016818: cli  ; lea eax, dword [ebp-0x10] ; mov word [ebp-0x04], cx ; push eax ; mov word [ebp-0x02], dx ; call dword [0x10011114] ;  (1 found)
0x1002a9f3: cli  ; mov eax, 0x72100338 ; xor eax, eax ; ret  ;  (1 found)
0x100256d0: cli  ; push 0x00000040 ; push ecx ; push 0x00001002 ; push edx ; call dword [0x100111B4] ;  (1 found)
0x100255fa: cli  ; push eax ; push 0x0000000B ; push ecx ; call dword [0x100111B4] ;  (1 found)
0x100255a7: cli  ; push eax ; push 0x0000000B ; push ecx ; call dword [0x100111B4] ;  (1 found)
0x1002564e: cli  ; push eax ; push 0x0000000B ; push ecx ; call dword [0x100111B4] ;  (1 found)
0x1001a830: cli  ; rep stosb  ; mov eax, edx ; pop edi ; leave  ; ret  ;  (1 found)
0x10029a38: cli  ; ret  ;  (1 found)
0x1002a1d5: cli  ; ret  ;  (1 found)
0x1001203a: cmc  ; add byte [eax], al ; add esp, 0x04 ; ret  ;  (1 found)
0x1001202f: cmc  ; add byte [eax], al ; add esp, 0x04 ; ret  ;  (1 found)
0x10017cf1: cmc  ; pop edi ; pop esi ; pop ebx ; ret  ;  (1 found)
0x10018007: cmc  ; pop edi ; pop esi ; pop ebx ; ret  ;  (1 found)
0x10020472: cmc  ; sub eax, dword [esp+0x04] ; sar eax, 1  ; dec eax ; ret  ;  (1 found)
0x1001d9c8: cmp al, 0x00 ; add byte [ebx-0x3974FB3C], al ; pop edi ; pop esi ; pop ebx ; ret  ;  (1 found)
0x1001d937: cmp al, 0x00 ; add byte [ebx-0x3C74FB3C], al ; pop edi ; pop esi ; pop ebx ; ret  ;  (1 found)
0x1001772b: cmp al, 0x01 ; sbb eax, eax ; add eax, 0x02 ; ret  ;  (1 found)
0x1001760c: cmp al, 0x01 ; sbb eax, eax ; and al, 0xFD ; add eax, 0x02 ; ret  ;  (1 found)
0x1001dc05: cmp al, 0x03 ; adc bh, bh ; adc eax, 0x100110CC ; pop ebp ; ret  ;  (1 found)
0x1001876b: cmp al, 0x03 ; adc bh, bh ; adc eax, 0x1001114C ; ret  ;  (1 found)
0x1001c4ce: cmp al, 0x03 ; adc bh, bh ; adc eax, 0x10011188 ; ret  ;  (1 found)
0x1001c49b: cmp al, 0x03 ; adc byte [edx+0x00], ch ; push eax ; call dword [0x10011184] ;  (1 found)
0x1001bc5e: cmp al, 0x03 ; adc byte [edx+0x08], ch ; push eax ; call dword [0x10011184] ;  (1 found)
0x10014eed: cmp al, 0x03 ; adc byte [edx+0x10], ch ; push eax ; call dword [0x100110CC] ;  (1 found)
0x10012eff: cmp al, dh ; inc ebp ; inc byte [eax] ; lea ebx, dword [ebp-0x04] ; push ebx ; call dword [0x100110A8] ;  (1 found)
0x10020321: cmp ax, 0x00000001 ; sbb eax, eax ; and eax, ecx ; ret  ;  (1 found)
0x10027dc0: cmp ax, 0x00000001 ; sbb eax, eax ; inc eax ; ret  ;  (1 found)
0x1001b557: cmp bh, 0x00000002 ; adc byte [edi+0x53], dl ; push esi ; push 0x00000100 ; push eax ; call dword [0x10011174] ;  (1 found)
0x1001b72e: cmp bh, 0x00000002 ; adc byte [edi+0x53], dl ; push esi ; push 0x00000200 ; push eax ; call dword [0x10011174] ;  (1 found)
0x10026ac7: cmp bl, byte [edi+0x5E] ; pop ebx ; mov esp, ebp ; pop ebp ; ret  ;  (1 found)
0x10029b2f: cmp byte [0x03E80000], al ; add byte [eax], al ; add byte [ebx-0x37], bl ; ret  ;  (1 found)
0x1002a9f5: cmp byte [ebx], al ; adc byte [edx-0x10], dh ; xor eax, eax ; ret  ;  (1 found)
0x1002b9e4: cmp byte [ecx+0x00], dl ; add byte [ebx-0x45FFFFAF], bh ; push ebx ; add byte [eax], al ; ret  ;  (1 found)
0x100212d3: cmp byte [ecx+0x10033B60], ah ; push eax ; mov eax, dword [0x10033B5C] ; push eax ; call dword [0x100110D4] ;  (1 found)
0x10018266: cmp byte [ecx], 0x00000001 ; adc eax, 0xFFFFFFFF ; pop ebx ; and eax, ecx ; ret  ;  (1 found)
0x10018411: cmp byte [ecx], 0x00000001 ; adc eax, 0xFFFFFFFF ; pop ebx ; and eax, ecx ; ret  ;  (1 found)
0x10016f91: cmp byte [ecx], 0xFFFFFFEF ; add dl, byte [eax] ; add al, 0x74 ; or al, 0x8B ; retn 0x3B42 ;  (1 found)
0x1001a86b: cmp byte [edi], 0x00000001 ; adc eax, 0xFFFFFFFF ; and eax, edi ; pop edi ; pop esi ; ret  ;  (1 found)
0x10020557: cmp byte [esi+0x39], ah ; cmp dh, byte [esp+edx-0x7D] ; retn 0x6602 ;  (1 found)
0x100175af: cmp ch, ch ; add dl, byte [eax] ; pop edi ; pop esi ; pop ebx ; ret  ;  (1 found)
0x10017540: cmp ch, ch ; add dl, byte [eax] ; pop esi ; ret  ;  (1 found)
0x1002059c: cmp cx, 0x0001 ; sbb eax, eax ; and eax, edx ; ret  ;  (1 found)
0x1002055a: cmp dh, byte [esp+edx-0x7D] ; retn 0x6602 ;  (1 found)
0x10021681: cmp dl, byte [esi+0x55] ; lea ebp, dword [ebx+0x10] ; call dword [edi+ecx*4+0x04] ;  (1 found)
0x1001485d: cmp dl, byte [esi+0x55] ; mov ebp, dword [ebx+0x10] ; call dword [edi+ecx*4+0x04] ;  (1 found)
0x1001dc95: cmp dword [eax], eax ; add byte [ebx+0x5E5F04C4], al ; pop ebx ; ret  ;  (1 found)
0x1001dcc6: cmp dword [eax], eax ; add byte [ebx-0x3974FB3C], al ; pop esi ; ret  ;  (1 found)
0x10018267: cmp dword [ecx], eax ; adc eax, 0xFFFFFFFF ; pop ebx ; and eax, ecx ; ret  ;  (1 found)
0x10018412: cmp dword [ecx], eax ; adc eax, 0xFFFFFFFF ; pop ebx ; and eax, ecx ; ret  ;  (1 found)
0x100127ea: cmp dword [esp+0x04], 0x00000080 ; mov eax, 0x00000001 ; adc eax, 0xFFFFFFFF ; ret  ;  (1 found)
0x10011c74: cmp eax, 0x00010468 ; add byte [ebp-0x0001037B], cl ; call dword [eax-0x01] ;  (1 found)
0x10027de9: cmp eax, 0x00B87FF8 ; add byte [eax], al ; add byte [ebp+0x05], dh ; mov eax, 0x00000001 ; ret  ;  (1 found)
0x1001cf47: cmp eax, 0x01 ; adc eax, 0x00000000 ; mov esp, dword [edx+0x10] ; add esp, 0x04 ; jmp dword [edx+0x14] ;  (1 found)
0x100155bc: cmp eax, 0x01 ; mov eax, 0x00000000 ; adc eax, 0xFFFFFFFF ; pop esi ; ret  ;  (1 found)
0x10021460: cmp eax, 0x01 ; mov eax, 0xFFFFFFF5 ; adc eax, 0xFFFFFFFF ; push eax ; call dword [0x10011194] ;  (1 found)
0x100168c4: cmp eax, 0x01 ; sbb eax, eax ; and al, 0xFE ; sub eax, 0x02 ; ret  ;  (1 found)
0x10017886: cmp eax, 0x01 ; sbb eax, eax ; and eax, edx ; pop ebx ; ret  ;  (1 found)
0x10011f28: cmp eax, 0x01 ; sbb eax, eax ; and eax, edx ; ret  ;  (1 found)
0x100125bd: cmp eax, 0x01 ; sbb eax, eax ; and eax, edx ; ret  ;  (1 found)
0x10024687: cmp eax, 0x01 ; sbb eax, eax ; neg eax ; ret  ;  (1 found)
0x100120f3: cmp eax, 0x01 ; sbb eax, eax ; ret  ;  (1 found)
0x100169f1: cmp eax, 0x01 ; sbb eax, eax ; ret  ;  (1 found)
0x1001be91: cmp eax, 0x01 ; sbb eax, eax ; ret  ;  (1 found)
0x10028d0b: cmp eax, 0x10011AF0 ; fsqrt  ; fmul qword [ebp-0x08] ; mov esp, ebp ; pop ebp ; ret  ;  (1 found)
0x10028f7f: cmp eax, 0x10011AF0 ; fsqrt  ; fmul qword [ebp-0x08] ; mov esp, ebp ; pop ebp ; ret  ;  (1 found)
0x1002909b: cmp eax, 0x10011AF0 ; fsqrt  ; fmul qword [ebp-0x08] ; mov esp, ebp ; pop ebp ; ret  ;  (1 found)
0x10012305: cmp eax, 0x1002E138 ; add byte [ebp+0x1B], dh ; mov esi, 0x00000001 ; push esi ; push 0x100123B7 ; call dword [0x1001105C] ;  (1 found)
0x1001297a: cmp eax, 0x1002E148 ; call dword [esi+0x0F] ;  (1 found)
0x100162e4: cmp eax, 0x1002E768 ; call dword [esi+0x57] ;  (1 found)
0x100161da: cmp eax, 0x1002E768 ; call dword [esi+0x74] ;  (1 found)
0x100177b6: cmp eax, 0x1002FF94 ; add bl, ch ; or dword [eax-0x18], edx ; add byte [eax], al ; add esp, 0x04 ; ret  ;  (1 found)
0x10012c4f: cmp eax, 0x10032BDC ; add byte [esi+eax-0x01], dh ; adc eax, 0x10032BDC ; mov dword [ebp-0x04], 0x00000000 ; push dword [esi+0x40] ; call dword [esi+0x3C] ;  (1 found)
0x10012cb6: cmp eax, 0x10032BE0 ; add byte [esi+0x74], dl ; push es ; call dword [0x10032BE0] ;  (1 found)
0x10020322: cmp eax, 0xC01B0001 ; and eax, ecx ; ret  ;  (1 found)
0x10027dc1: cmp eax, 0xC01B0001 ; inc eax ; ret  ;  (1 found)
0x1001d8f0: cmp eax, 0xC4830000 ; add al, 0x5F ; ret  ;  (1 found)
0x10022118: cmp eax, dword [ebp-0x687AF001] ; add byte [eax], al ; add byte [edx-0x17], al ; retn 0x0000 ;  (1 found)
0x100275c6: cmp eax, dword [ebx-0x74AB03BB] ; ret  ;  (1 found)
0x100212bb: cmp eax, dword [ebx] ; adc byte [eax+0x57], dl ; call dword [0x100110D0] ;  (1 found)
0x10025b79: cmp eax, dword [ebx] ; adc byte [ebx+0x10033BB0], ah ; xor eax, eax ; ret  ;  (1 found)
0x10021306: cmp eax, dword [ebx] ; adc byte [ebx+0x5E5F2CC0], al ; ret  ;  (1 found)
0x10025b6f: cmp eax, dword [ebx] ; adc byte [ecx+0x05EB0441], cl ; mov dword [0x10033BB4], eax ; mov dword [0x10033BB0], eax ; xor eax, eax ; ret  ;  (1 found)
0x100212b6: cmp eax, dword [ebx] ; adc byte [ecx+0x10033B60], ah ; push eax ; push edi ; call dword [0x100110D0] ;  (1 found)
0x10027e8c: cmp ecx, 0x01 ; sbb eax, eax ; and eax, 0x000000F8 ; add eax, 0x08 ; pop ebp ; ret  ;  (1 found)
0x1002059d: cmp ecx, 0x01 ; sbb eax, eax ; and eax, edx ; ret  ;  (1 found)
0x10012e2a: cmp ecx, dword [ebp+0x53560477] ; call dword [0x100110A4] ;  (1 found)
0x10016f92: cmp edi, ebp ; add dl, byte [eax] ; add al, 0x74 ; or al, 0x8B ; retn 0x3B42 ;  (1 found)
0x1001f88e: cmp edx, dword [edi+0x53] ; push dword [ebp-0x04] ; push esi ; push 0x00000400 ; push dword [0x1002FF7C] ; call dword [0x10011174] ;  (1 found)
0x1001cd0a: cmp word [esp+0x04], 0x0080 ; mov eax, 0x00000001 ; adc eax, 0xFFFFFFFF ; ret  ;  (1 found)
0x10011dde: cmpsb  ; add byte [eax], al ; add esp, 0x04 ; ret  ;  (1 found)
0x10011deb: cmpsb  ; add byte [eax], al ; add esp, 0x04 ; ret  ;  (1 found)
0x1001907b: cmpsb  ; test dword [eax], eax ; add byte [ebx-0x3974FB3C], al ; pop esi ; ret  ;  (1 found)
0x10013aca: cmpsd  ; dec esp ; add byte [eax], al ; add esp, 0x0C ; ret  ;  (1 found)
0x10023eab: cmpsd  ; inc ebp ; add dl, byte [eax] ; jmp dword [0x10024577+ecx*4] ;  (1 found)
0x1001628e: cwde  ; adc byte [ecx], al ; adc byte [ebx-0x1A74A13A], cl ; pop ebp ; ret  ;  (1 found)
0x10025c67: cwde  ; add byte [eax], al ; add byte [edi+0x57], dl ; push dword [ebp+0x10] ; push dword [ebp+0x0C] ; call dword [0x100111B4] ;  (1 found)
0x1001c01b: cwde  ; inc dword [edx] ; adc byte [ecx+0x0C], dl ; add dword [eax-0x01], edx ; xor eax, 0x1002FF90 ; call dword [0x10011134] ;  (1 found)
0x1001cfbc: cwde  ; inc dword [edx] ; adc byte [ecx+eax], cl ; push eax ; push dword [0x1002FF90] ; call dword [0x10011134] ;  (1 found)
0x1001d285: cwde  ; inc dword [edx] ; adc byte [edx+0x0C], dl ; add dword [eax-0x01], edx ; xor eax, 0x1002FF90 ; call dword [0x10011134] ;  (1 found)
0x1001d2c6: cwde  ; inc dword [edx] ; adc byte [edx+0x0C], dl ; add dword [eax-0x01], edx ; xor eax, 0x1002FF90 ; call dword [0x10011134] ;  (1 found)
0x10013190: das  ; add byte [eax], al ; add esp, 0x04 ; push eax ; call dword [0x10011094] ;  (1 found)
0x100130c2: das  ; add byte [eax], al ; add esp, 0x04 ; push eax ; call dword [0x100110B0] ;  (1 found)
0x10022a27: das  ; add dl, byte [eax] ; jmp dword [0x10022F4D+ecx*4] ;  (1 found)
0x100260e1: dec byte [ebx+0x0ABE41DA] ; add byte [eax], al ; add byte [ebx], bh ; fidivr word [esi+ecx-0x75] ; ret  ;  (1 found)
0x10028c3e: dec byte [ebx+0x558BF445] ; clc  ; leave  ; ret  ;  (1 found)
0x1001db35: dec byte [ebx+0x5D39FC5D] ; or al, 0x72 ; push ss ; push edi ; push ebx ; call dword [ebp+0x14] ;  (1 found)
0x10027efa: dec byte [ebx-0x1A74A13A] ; pop ebp ; ret  ;  (1 found)
0x100288ac: dec byte [ecx-0x74A1A0F6] ; in eax, 0x5D ; ret  ;  (1 found)
0x1001a3a6: dec cl ; shr eax, cl ; and eax, 0x01 ; ret  ;  (1 found)
0x10021583: dec dword [0xFF831274] ; or dword [ebp+ecx+0x50], esi ; call esi ;  (1 found)
0x10018d95: dec dword [eax+0x02F37F8E] ; adc byte [esi-0x18], dl ; or dword [eax-0x3B7D0000], 0x04 ; push dword [ebp-0x24] ; call dword [0x10011094] ;  (1 found)
0x1002574b: dec dword [ebp+0x2B993E04] ; retn 0xF8D1 ;  (1 found)
0x1001b867: dec dword [ebp+0x5350FC45] ; push ecx ; mov eax, dword [ebp+0x08] ; push dword [0x1002F4C0+eax*4] ; call dword [0x10011180] ;  (1 found)
0x10029c4b: dec dword [ebp-0x0000A363] ; call dword [ebx+0x50] ;  (1 found)
0x10015375: dec dword [ebp-0x00011343] ; call dword [eax-0x18] ;  (1 found)
0x1001527b: dec dword [ebp-0x00011743] ; call dword [eax-0x18] ;  (1 found)
0x1001b8ad: dec dword [ebx+0x08EBFC75] ; call dword [0x10011058] ;  (1 found)
0x10012196: dec dword [ebx+0x5B5E5FC7] ; ret  ;  (1 found)
0x1001c44f: dec dword [ebx+0x5E5F1045] ; pop ebx ; mov esp, ebp ; pop ebp ; ret  ;  (1 found)
0x1001c937: dec dword [ebx+0x5E5F1045] ; pop ebx ; mov esp, ebp ; pop ebp ; ret  ;  (1 found)
0x1001392d: dec dword [ebx+0x5E5FE445] ; pop ebx ; mov esp, ebp ; pop ebp ; ret  ;  (1 found)
0x10021e4b: dec dword [ebx+0x5E5FE445] ; pop ebx ; mov esp, ebp ; pop ebp ; ret  ;  (1 found)
0x10022f22: dec dword [ebx+0x5E5FEC45] ; pop ebx ; mov esp, ebp ; pop ebp ; ret  ;  (1 found)
0x10018b86: dec dword [ebx-0x27BA3822] ; add dword [eax], eax ; add byte [eax], al ; mov dword [ebp-0x2C], 0x00000001 ; call dword [0x100110C8] ;  (1 found)
0x10018614: dec dword [ebx-0x36A0A139] ; ret  ;  (1 found)
0x1001bbe7: dec dword [ebx-0x50F0EBB3] ; enter 0xCE03, 0x51 ; mov dword [ebp-0x04], ecx ; push dword [ebp+0x08] ; call dword [ebp+0x18] ;  (1 found)
0x1001fb2a: dec dword [ebx-0x7CFC9528] ; ret  ;  (1 found)
0x1001375d: dec dword [ecx+0x4D8DB84D] ; mov eax, 0x0FBC5589 ; mov esi, 0x5052F755 ; push ecx ; call dword [0x1002FF58] ;  (1 found)
0x10021c69: dec dword [ecx+0x4D8DB84D] ; mov eax, 0x0FBC5589 ; mov esi, 0x5052F755 ; push ecx ; call dword [0x1002FF58] ;  (1 found)
0x10018755: dec dword [ecx+0x5DC03318] ; pop edi ; pop esi ; pop ebx ; add esp, 0x04 ; ret  ;  (1 found)
0x1001d0a7: dec dword [ecx+eax] ; push edi ; push eax ; push dword [0x1002FF90] ; call dword [0x10011134] ;  (1 found)
0x10017193: dec eax ; adc byte [ecx], al ; adc bl, al ; push dword [esp+0x04] ; call dword [0x10011138] ;  (1 found)
0x1002174b: dec eax ; inc dword [edx] ; adc byte [ebx+0x0774FFF8], al ; push eax ; call dword [0x10011094] ;  (1 found)
0x1001d1b1: dec eax ; pop edi ; pop esi ; pop ebx ; pop ebp ; ret  ;  (1 found)
0x1002411e: dec eax ; push dword [ebp-0x14] ; push dword [ebp-0x24] ; push eax ; call dword [0x1002FF60] ;  (1 found)
0x10013ec2: dec eax ; push eax ; call dword [0x1002FF60] ;  (1 found)
0x10023721: dec eax ; push eax ; call dword [0x1002FF60] ;  (1 found)
0x100125d5: dec eax ; ret  ;  (1 found)
0x1001a482: dec eax ; ret  ;  (1 found)
0x10020479: dec eax ; ret  ;  (1 found)
0x10017c9d: dec eax ; sub eax, dword [esp+0x04] ; ret  ;  (1 found)
0x10025c5b: dec ebp ; call dword [0x10011058] ;  (1 found)
0x100194b9: dec ebp ; call dword [eax-0x75] ;  (1 found)
0x10028d13: dec ebp ; clc  ; mov esp, ebp ; pop ebp ; ret  ;  (1 found)
0x10028f87: dec ebp ; clc  ; mov esp, ebp ; pop ebp ; ret  ;  (1 found)
0x100290a3: dec ebp ; clc  ; mov esp, ebp ; pop ebp ; ret  ;  (1 found)
0x1002569e: dec ebp ; clc  ; push eax ; push 0x00001001 ; push ecx ; call dword [0x100111B4] ;  (1 found)
0x10025fc4: dec ebp ; cld  ; mov dword [edx], ecx ; mov esp, ebp ; pop ebp ; ret  ;  (1 found)
0x10028e74: dec ebp ; cld  ; pop esi ; mov esp, ebp ; pop ebp ; ret  ;  (1 found)
0x1001bbf2: dec ebp ; cld  ; push dword [ebp+0x08] ; call dword [ebp+0x18] ;  (1 found)
0x10012558: dec ebp ; cld  ; push dword [ecx+0x4C] ; push 0x00000008 ; call edi ;  (1 found)
0x1001681e: dec ebp ; cld  ; push eax ; mov word [ebp-0x02], dx ; call dword [0x10011114] ;  (1 found)
0x100255f9: dec ebp ; cli  ; push eax ; push 0x0000000B ; push ecx ; call dword [0x100111B4] ;  (1 found)
0x100255a6: dec ebp ; cli  ; push eax ; push 0x0000000B ; push ecx ; call dword [0x100111B4] ;  (1 found)
0x1002564d: dec ebp ; cli  ; push eax ; push 0x0000000B ; push ecx ; call dword [0x100111B4] ;  (1 found)
0x10018d94: dec ebp ; dec dword [eax+0x02F37F8E] ; adc byte [esi-0x18], dl ; or dword [eax-0x3B7D0000], 0x04 ; push dword [ebp-0x24] ; call dword [0x10011094] ;  (1 found)
0x100132d4: dec ebp ; enter 0x870F, 0x3F ; push es ; add byte [eax], al ; jmp dword [0x10013938+eax*4] ;  (1 found)
0x100217da: dec ebp ; enter 0x870F, 0x57 ; push es ; add byte [eax], al ; jmp dword [0x10021E56+eax*4] ;  (1 found)
0x10029231: dec ebp ; fcomp dword [esi-0x75] ; in eax, 0x5D ; ret  ;  (1 found)
0x1001622e: dec ebp ; in al, 0x50 ; push 0x00000001 ; push ecx ; push dword [0x1002FF44] ; call dword [0x100110F8] ;  (1 found)
0x10028580: dec ebp ; lodsb  ; fnclex  ; lea eax, dword [ebp-0x00000094] ; push eax ; call dword [ebp+0x10] ;  (1 found)
0x10013762: dec ebp ; mov eax, 0x0FBC5589 ; mov esi, 0x5052F755 ; push ecx ; call dword [0x1002FF58] ;  (1 found)
0x10021c6e: dec ebp ; mov eax, 0x0FBC5589 ; mov esi, 0x5052F755 ; push ecx ; call dword [0x1002FF58] ;  (1 found)
0x10015e7b: dec ebp ; mov eax, dword [eax] ; push ecx ; mov word [ebp-0x02], 0x0000 ; mov word [ebp-0x04], ax ; call dword [0x100110F0] ;  (1 found)
0x1002a62f: dec ebp ; or byte [ecx+0x6A], dl ; add dword [edx+0x00], ebp ; push edi ; call dword [0x100111C4] ;  (1 found)
0x10018ed3: dec ebp ; or byte [ecx], bh ; or byte [edi+eax-0x7D], dh ; ror byte [eax], 0x0000003B ; retn 0xF272 ;  (1 found)
0x1001fda2: dec ebp ; or byte [edx+0x01], ch ; push ecx ; push 0x00000100 ; push dword [0x1002FF80] ; call dword [0x10011174] ;  (1 found)
0x1001fe5c: dec ebp ; or byte [edx+0x01], ch ; push ecx ; push 0x00000200 ; push dword [0x1002FF80] ; call dword [0x10011174] ;  (1 found)
0x100153fb: dec ebp ; push ecx ; push eax ; call dword [0x100110DC] ;  (1 found)
0x100158aa: dec ebp ; rcl byte [eax+0x51], 1  ; call dword [0x100110DC] ;  (1 found)
0x100228b9: dec ebp ; ror byte [edi], 0xFFFFFF87 ; dec edi ; push es ; add byte [eax], al ; jmp dword [0x10022F2D+eax*4] ;  (1 found)
0x100158a2: dec ebx ; add al, 0xB6 ; add dword [ebp+0x4D8DF045], ecx ; rcl byte [eax+0x51], 1  ; call dword [0x100110DC] ;  (1 found)
0x1001728e: dec ebx ; call dword [0x10011080] ;  (1 found)
0x100151e6: dec ecx ; call dword [0x10011058] ;  (1 found)
0x100152e0: dec ecx ; call dword [0x10011058] ;  (1 found)
0x10021530: dec ecx ; mov eax, dword [0x1002F4C8] ; push ecx ; push edx ; push eax ; call dword [0x10011180] ;  (1 found)
0x1001f210: dec ecx ; mov eax, ecx ; pop edi ; leave  ; ret  ;  (1 found)
0x10013a94: dec ecx ; push ecx ; push dword [esp+0x1C] ; push edx ; call dword [0x100110B8] ;  (1 found)
0x100162d2: dec edi ; mov bl, 0x00 ; add byte [ebx-0x3974FB3C], al ; pop esi ; ret  ;  (1 found)
0x100228bd: dec edi ; push es ; add byte [eax], al ; jmp dword [0x10022F2D+eax*4] ;  (1 found)
0x1001a272: dec edx ; add dword [eax], 0x00000000 ; add esp, 0x18 ; push ebx ; mov dword [edi+0x1C], eax ; call dword [0x100110D8] ;  (1 found)
0x100252bc: dec edx ; add dword [ebx], edi ; enter 0xF37D, 0x83 ; retn 0x8002 ;  (1 found)
0x100126c0: dec edx ; and eax, 0x00000080 ; ret  ;  (1 found)
0x10012603: dec edx ; and eax, 0x00000103 ; ret  ;  (1 found)
0x10016ca6: dec edx ; and eax, 0x00000103 ; ret  ;  (1 found)
0x1001274f: dec edx ; and eax, 0x00000107 ; ret  ;  (1 found)
0x100127b5: dec edx ; and eax, 0x00000117 ; ret  ;  (1 found)
0x10012782: dec edx ; and eax, 0x00000157 ; ret  ;  (1 found)
0x1001cc4f: dec edx ; and eax, 0x00008000 ; ret  ;  (1 found)
0x10012633: dec edx ; and eax, 0x01 ; ret  ;  (1 found)
0x10016f76: dec edx ; and eax, 0x01 ; ret  ;  (1 found)
0x10012661: dec edx ; and eax, 0x02 ; ret  ;  (1 found)
0x10016e58: dec edx ; and eax, 0x02 ; ret  ;  (1 found)
0x1001268f: dec edx ; and eax, 0x04 ; ret  ;  (1 found)
0x10016d03: dec edx ; and eax, 0x04 ; ret  ;  (1 found)
0x100126f0: dec edx ; and eax, 0x08 ; ret  ;  (1 found)
0x10016f1b: dec edx ; and eax, 0x08 ; ret  ;  (1 found)
0x1001271e: dec edx ; and eax, 0x10 ; ret  ;  (1 found)
0x100127e5: dec edx ; and eax, 0x20 ; ret  ;  (1 found)
0x1001a13a: dec edx ; push edx ; call dword [0x10011168] ;  (1 found)
0x10015a0a: dec esi ; or byte [ecx-0x1A74A1FA], cl ; pop ebp ; ret  ;  (1 found)
0x1001c9ca: dec esp ; add byte [eax], al ; add esp, 0x04 ; mov eax, esi ; pop esi ; ret  ;  (1 found)
0x10013acb: dec esp ; add byte [eax], al ; add esp, 0x0C ; ret  ;  (1 found)
0x1001a3a3: dec esp ; and al, 0x04 ; dec cl ; shr eax, cl ; and eax, 0x01 ; ret  ;  (1 found)
0x100126ba: dec esp ; and al, 0x04 ; mov ax, word [edx+ecx*2] ; and eax, 0x00000080 ; ret  ;  (1 found)
0x100125fd: dec esp ; and al, 0x04 ; mov ax, word [edx+ecx*2] ; and eax, 0x00000103 ; ret  ;  (1 found)
0x10012749: dec esp ; and al, 0x04 ; mov ax, word [edx+ecx*2] ; and eax, 0x00000107 ; ret  ;  (1 found)
0x100127af: dec esp ; and al, 0x04 ; mov ax, word [edx+ecx*2] ; and eax, 0x00000117 ; ret  ;  (1 found)
0x1001277c: dec esp ; and al, 0x04 ; mov ax, word [edx+ecx*2] ; and eax, 0x00000157 ; ret  ;  (1 found)
0x1001262d: dec esp ; and al, 0x04 ; mov ax, word [edx+ecx*2] ; and eax, 0x01 ; ret  ;  (1 found)
0x1001265b: dec esp ; and al, 0x04 ; mov ax, word [edx+ecx*2] ; and eax, 0x02 ; ret  ;  (1 found)
0x10012689: dec esp ; and al, 0x04 ; mov ax, word [edx+ecx*2] ; and eax, 0x04 ; ret  ;  (1 found)
0x100126ea: dec esp ; and al, 0x04 ; mov ax, word [edx+ecx*2] ; and eax, 0x08 ; ret  ;  (1 found)
0x10012718: dec esp ; and al, 0x04 ; mov ax, word [edx+ecx*2] ; and eax, 0x10 ; ret  ;  (1 found)
0x100127df: dec esp ; and al, 0x04 ; mov ax, word [edx+ecx*2] ; and eax, 0x20 ; ret  ;  (1 found)
0x1001b290: dec esp ; and al, 0x04 ; mov dword [0x1002E088], ecx ; ret  ;  (1 found)
0x10011df8: dec esp ; and al, 0x04 ; mov dword [0x1002F124], ecx ; ret  ;  (1 found)
0x1001dba8: dec esp ; and al, 0x04 ; mov dword [eax+0x14], ecx ; ret  ;  (1 found)
0x1001a753: dec esp ; and al, 0x04 ; movzx eax, byte [ecx] ; ret  ;  (1 found)
0x100271da: dec esp ; and al, 0x10 ; mov dword [ecx], esi ; pop esi ; ret  ;  (1 found)
0x1001255c: dec esp ; push 0x00000008 ; call edi ;  (1 found)
0x100125cc: dec esp ; ret  ;  (1 found)
0x10012938: div byte [eax+esi+0x56] ; mov eax, dword [0x1002E148] ; push eax ; call dword [0x10011064] ;  (1 found)
0x1001298c: div byte [ebp+0x12] ; mov eax, dword [0x1002E148] ; push eax ; call dword [0x10011070] ;  (1 found)
0x100202d2: div byte [ebp-0x13] ; pop edi ; pop esi ; ret  ;  (1 found)
0x100128bf: div byte [esi+ebp+0x56] ; mov eax, dword [0x1002E148] ; push eax ; call dword [0x10011064] ;  (1 found)
0x1001b011: div dword [ebp+0x6F] ; lea eax, dword [ebp-0x000000AC] ; push eax ; call dword [0x10011178] ;  (1 found)
0x1001b673: div dword [edi-0x16] ; pop edi ; pop esi ; ret  ;  (1 found)
0x100283b7: div esi ; test dword [edi+edi*8-0x01], esi ; call dword [eax] ;  (1 found)
0x10015759: enter 0x00BE, 0x00 ; add esp, 0x04 ; mov eax, edi ; pop edi ; pop esi ; ret  ;  (1 found)
0x1001462f: enter 0x0110, 0x10 ; push eax ; call dword [0x100110C4] ;  (1 found)
0x100144f7: enter 0x0110, 0x10 ; push eax ; call dword [0x100110C4] ;  (1 found)
0x10021532: enter 0x02F4, 0x10 ; push ecx ; push edx ; push eax ; call dword [0x10011180] ;  (1 found)
0x10012127: enter 0x033E, 0x10 ; mov dword [0x10033EC0], ecx ; ret  ;  (1 found)
0x1001211b: enter 0x033E, 0x10 ; mov dword [ecx], 0x00000000 ; mov ecx, dword [0x10033EC8] ; mov dword [0x10033EC0], ecx ; ret  ;  (1 found)
0x10025c1a: enter 0x0983, 0x00 ; mov eax, esp ; mov esp, ecx ; mov ecx, dword [eax] ; mov eax, dword [eax+0x04] ; jmp eax ;  (1 found)
0x1001693a: enter 0x4589, 0xFC ; lea eax, dword [ebp-0x38] ; push eax ; call dword [0x1001111C] ;  (1 found)
0x1001d5f1: enter 0x6610, 0x8B ; retn 0x7D8B ;  (1 found)
0x1002059b: enter 0x8366, 0xF9 ; add dword [ebx], ebx ; shl byte [ebx], 0xFFFFFFC2 ; ret  ;  (1 found)
0x100132d5: enter 0x870F, 0x3F ; push es ; add byte [eax], al ; jmp dword [0x10013938+eax*4] ;  (1 found)
0x100217db: enter 0x870F, 0x57 ; push es ; add byte [eax], al ; jmp dword [0x10021E56+eax*4] ;  (1 found)
0x1001bce7: enter 0xB70F, 0x44 ; and al, 0x04 ; add eax, ecx ; add esp, 0x0C ; ret  ;  (1 found)
0x1001bbed: enter 0xCE03, 0x51 ; mov dword [ebp-0x04], ecx ; push dword [ebp+0x08] ; call dword [ebp+0x18] ;  (1 found)
0x1001d3cd: enter 0xE083, 0x03 ; shr ecx, 0x02 ; rep movsd  ; jmp dword [0x1001D378+eax*4] ;  (1 found)
0x1001d51d: enter 0xE083, 0x03 ; shr ecx, 0x02 ; rep movsd  ; jmp dword [0x1001D4C8+eax*4] ;  (1 found)
0x1001d46d: enter 0xE083, 0x03 ; sub esi, 0x03 ; sub edi, 0x03 ; shr ecx, 0x02 ; rep movsd  ; jmp dword [0x1001D410+eax*4] ;  (1 found)
0x1001d5bd: enter 0xE083, 0x03 ; sub esi, 0x03 ; sub edi, 0x03 ; shr ecx, 0x02 ; rep movsd  ; jmp dword [0x1001D560+eax*4] ;  (1 found)
0x100179aa: enter 0xE183, 0x01 ; sub edx, ecx ; lea eax, dword [edx-0x01] ; ret  ;  (1 found)
0x1001e8e0: enter 0xE183, 0x03 ; rep movsb  ; mov eax, edx ; pop edi ; pop esi ; ret  ;  (1 found)
0x100252bf: enter 0xF37D, 0x83 ; retn 0x8002 ;  (1 found)
0x10016940: enter 0xFF50, 0x15 ; sbb al, 0x11 ; add dword [eax], edx ; push eax ; call dword [0x10011124] ;  (1 found)
0x10029f9a: f2xm1  ; ret  ;  (1 found)
0x10029f98: fabs  ; f2xm1  ; ret  ;  (1 found)
0x100294eb: fabs  ; pop esi ; pop ebp ; ret  ;  (1 found)
0x10026189: fadd dword [ebx] ; ret  ;  (1 found)
0x1002a13a: fadd qword [0x100337A4] ; ret  ;  (1 found)
0x10028d84: fadd qword [ebp-0x10] ; fdivr qword [ebp-0x08] ; mov esp, ebp ; pop ebp ; ret  ;  (1 found)
0x10029e03: fadd st0, st1 ; fchs  ; fxch st0, st1 ; fdivrp st1, st0 ; ret  ;  (1 found)
0x10029df6: fadd st1, st0 ; faddp st1, st0 ; ret  ;  (1 found)
0x10029df8: faddp st1, st0 ; ret  ;  (1 found)
0x1002a168: faddp st1, st0 ; ret  ;  (1 found)
0x1002a1a7: faddp st1, st0 ; ret  ;  (1 found)
0x10029e05: fchs  ; fxch st0, st1 ; fdivrp st1, st0 ; ret  ;  (1 found)
0x10029a0d: fchs  ; ret  ;  (1 found)
0x10029a57: fchs  ; ret  ;  (1 found)
0x10029f2c: fchs  ; ret  ;  (1 found)
0x10029ee1: fchs  ; ret  ;  (1 found)
0x1002a1cb: fchs  ; ret  ;  (1 found)
0x10017eee: fcmovb st0, st6 ; push es ; add byte [ebx+0x5B5E5FC7], cl ; ret  ;  (1 found)
0x1001be61: fcom dword [edi-0x18] ; mov ebp, 0x83000057 ; les eax,  [ebx+ecx*4] ; ret  ;  (1 found)
0x1001bba4: fcomp dword [ebp+0x5F] ; pop esi ; pop ebx ; ret  ;  (1 found)
0x1002171d: fcomp dword [ecx] ; add dword [eax], edx ; call dword [0x10011150] ;  (1 found)
0x100192b2: fcomp dword [edi+0x5E] ; ret  ;  (1 found)
0x10029232: fcomp dword [esi-0x75] ; in eax, 0x5D ; ret  ;  (1 found)
0x1002a10b: fcomp st0, st1 ; out dx, al ; ret  ;  (1 found)
0x10029e77: fcomp st0, st3 ; sub eax, 0x100336A4 ; mov byte [ebp-0x00000090], 0x00000002 ; ret  ;  (1 found)
0x10029f3e: fcomp st0, st3 ; sub eax, 0x100336A4 ; mov byte [ebp-0x00000090], 0x00000003 ; ret  ;  (1 found)
0x10029d92: fcomp st0, st3 ; sub eax, 0x100336A4 ; ret  ;  (1 found)
0x10029f52: fcomp st0, st3 ; sub eax, 0x100336A4 ; ret  ;  (1 found)
0x10029ea8: fcomp st0, st3 ; sub eax, 0x100336AE ; ret  ;  (1 found)
0x10029a41: fcomp st0, st3 ; sub eax, 0x1003379A ; ret  ;  (1 found)
0x1002a109: fcomp st0, st5 ; fcomp st0, st1 ; out dx, al ; ret  ;  (1 found)
0x10029e75: fcomp st0, st5 ; fcomp st0, st3 ; sub eax, 0x100336A4 ; mov byte [ebp-0x00000090], 0x00000002 ; ret  ;  (1 found)
0x10029f3c: fcomp st0, st5 ; fcomp st0, st3 ; sub eax, 0x100336A4 ; mov byte [ebp-0x00000090], 0x00000003 ; ret  ;  (1 found)
0x10028241: fdiv dword [ebx] ; test dword [edi+edi*8-0x01], esi ; jmp dword [ebx] ;  (1 found)
0x10026359: fdiv st0, st6 ; ret  ;  (1 found)
0x10029dd6: fdiv st0, st6 ; retn 0x7540 ;  (1 found)
0x100155b6: fdiv st7, st0 ; inc dword [ebx-0x077CFB3C] ; add dword [eax+0x00000000], edi ; adc eax, 0xFFFFFFFF ; pop esi ; ret  ;  (1 found)
0x100133be: fdivr dword [ebx] ; ret  ;  (1 found)
0x100218ca: fdivr dword [ebx] ; ret  ;  (1 found)
0x10028d0a: fdivr qword [0x10011AF0] ; fsqrt  ; fmul qword [ebp-0x08] ; mov esp, ebp ; pop ebp ; ret  ;  (1 found)
0x10028f7e: fdivr qword [0x10011AF0] ; fsqrt  ; fmul qword [ebp-0x08] ; mov esp, ebp ; pop ebp ; ret  ;  (1 found)
0x1002909a: fdivr qword [0x10011AF0] ; fsqrt  ; fmul qword [ebp-0x08] ; mov esp, ebp ; pop ebp ; ret  ;  (1 found)
0x10028d86: fdivr qword [ebp-0x08] ; mov esp, ebp ; pop ebp ; ret  ;  (1 found)
0x10028d87: fdivr qword [ebp-0x08] ; mov esp, ebp ; pop ebp ; ret  ;  (1 found)
0x1001d339: fdivr st0, st7 ; pop esi ; pop edi ; leave  ; ret  ;  (1 found)
0x1001e6e1: fdivr st0, st7 ; pop esi ; pop edi ; leave  ; ret  ;  (1 found)
0x10029d5f: fdivrp st1, st0 ; ret  ;  (1 found)
0x10029e09: fdivrp st1, st0 ; ret  ;  (1 found)
0x100260fb: fiadd dword [eax] ; pop ecx ; add dword [ebx+0x5E5F0845], ecx ; pop ebx ; pop ebp ; ret  ;  (1 found)
0x100260eb: fidivr word [esi+ecx-0x75] ; ret  ;  (1 found)
0x100260d3: fidivr word [esi+ecx-0x75] ; ret  ;  (1 found)
0x10013aae: fild dword [eax] ; add byte [ebx-0x3974FB3C], al ; pop edi ; pop esi ; add esp, 0x04 ; ret  ;  (1 found)
0x1001bd2f: fild dword [ebp-0x04] ; mov esp, ebp ; pop ebp ; ret  ;  (1 found)
0x1002040b: fild qword [ebx] ; rcr dword [edi-0x2F], 0xFFFFFFF8 ; pop esi ; pop ebx ; ret  ;  (1 found)
0x100205db: fild qword [ebx] ; rcr dword [edi-0x2F], 0xFFFFFFF8 ; pop esi ; pop ebx ; ret  ;  (1 found)
0x10028e73: fimul dword [ebp-0x04] ; pop esi ; mov esp, ebp ; pop ebp ; ret  ;  (1 found)
0x10028c39: fistp qword [ebp-0x0C] ; fldcw word [ebp-0x02] ; mov eax, dword [ebp-0x0C] ; mov edx, dword [ebp-0x08] ; leave  ; ret  ;  (1 found)
0x1001c783: fisttp qword [ebx+0x03102444] ; ret  ;  (1 found)
0x10022a1f: fld dword [ebx] ; add byte [eax], al ; movzx ecx, byte [eax+0x10022F91] ; jmp dword [0x10022F4D+ecx*4] ;  (1 found)
0x1001bb06: fld qword [eax+0x10] ; add esp, 0x14 ; pop edi ; pop esi ; add esp, 0x18 ; ret  ;  (1 found)
0x100294e8: fld qword [ebp+0x08] ; fabs  ; pop esi ; pop ebp ; ret  ;  (1 found)
0x10029cdc: fld qword [ebp+0x08] ; pop ebx ; leave  ; ret  ;  (1 found)
0x1002a230: fld qword [ebp+0x0C] ; add esp, 0x08 ; pop ebp ; ret  ;  (1 found)
0x1002a326: fld qword [ebp+0x18] ; add esp, 0x08 ; pop esi ; mov esp, ebp ; pop ebp ; ret  ;  (1 found)
0x1002a9a7: fld qword [ebp+0x20] ; add esp, 0x04 ; mov esp, ebp ; pop ebp ; ret  ;  (1 found)
0x1002a3d7: fld qword [ebp+0x20] ; add esp, 0x08 ; pop esi ; mov esp, ebp ; pop ebp ; ret  ;  (1 found)
0x1002a28f: fld qword [ebp-0x08] ; add esp, 0x08 ; mov esp, ebp ; pop ebp ; ret  ;  (1 found)
0x10027b25: fld qword [ebp-0x08] ; add esp, 0x08 ; pop esi ; mov esp, ebp ; pop ebp ; ret  ;  (1 found)
0x100296c2: fld qword [ebp-0x08] ; add esp, 0x08 ; pop esi ; mov esp, ebp ; pop ebp ; ret  ;  (1 found)
0x100279ff: fld qword [ebp-0x08] ; mov esp, ebp ; pop ebp ; ret  ;  (1 found)
0x10027a1e: fld qword [ebp-0x08] ; mov esp, ebp ; pop ebp ; ret  ;  (1 found)
0x1002aa6a: fld qword [ebp-0x08] ; mov esp, ebp ; pop ebp ; ret  ;  (1 found)
0x10028d81: fld qword [ecx] ; fadd qword [ebp-0x10] ; fdivr qword [ebp-0x08] ; mov esp, ebp ; pop ebp ; ret  ;  (1 found)
0x10028d82: fld qword [ecx] ; fadd qword [ebp-0x10] ; fdivr qword [ebp-0x08] ; mov esp, ebp ; pop ebp ; ret  ;  (1 found)
0x1002ac62: fld qword [esp+0x00] ; add esp, 0x08 ; ret  ;  (1 found)
0x1002ac58: fld qword [esp+0x0C] ; frndint  ; fstp qword [esp+0x00] ; fld qword [esp+0x00] ; add esp, 0x08 ; ret  ;  (1 found)
0x10029e78: fld tword [0x100336A4] ; mov byte [ebp-0x00000090], 0x00000002 ; ret  ;  (1 found)
0x10029f3f: fld tword [0x100336A4] ; mov byte [ebp-0x00000090], 0x00000003 ; ret  ;  (1 found)
0x10029d93: fld tword [0x100336A4] ; ret  ;  (1 found)
0x10029f53: fld tword [0x100336A4] ; ret  ;  (1 found)
0x10029ea9: fld tword [0x100336AE] ; ret  ;  (1 found)
0x10029a42: fld tword [0x1003379A] ; ret  ;  (1 found)
0x10029df4: fld1  ; fadd st1, st0 ; faddp st1, st0 ; ret  ;  (1 found)
0x1002a113: fld1  ; ret  ;  (1 found)
0x10029b97: fldcw word [ebp-0x000000A4] ; wait  ; ret  ;  (1 found)
0x10028c3c: fldcw word [ebp-0x02] ; mov eax, dword [ebp-0x0C] ; mov edx, dword [ebp-0x08] ; leave  ; ret  ;  (1 found)
0x10027ef8: fldcw word [ebp-0x02] ; mov eax, esi ; pop esi ; mov esp, ebp ; pop ebp ; ret  ;  (1 found)
0x1002abf0: fldcw word [ebp-0x04] ; movsx eax, word [ebp-0x02] ; mov esp, ebp ; pop ebp ; ret  ;  (1 found)
0x1002ac4b: fldpi  ; fstp qword [ebp-0x0C] ; wait  ; mov esp, ebp ; pop ebp ; ret  ;  (1 found)
0x1002a10c: fldz  ; ret  ;  (1 found)
0x1001b861: fmul dword [ebp-0x00041373] ; dec dword [ebp+0x5350FC45] ; push ecx ; mov eax, dword [ebp+0x08] ; push dword [0x1002F4C0+eax*4] ; call dword [0x10011180] ;  (1 found)
0x10024ab5: fmul dword [ebx+0x5E5F5DC3] ; pop ebx ; add esp, 0x04 ; ret  ;  (1 found)
0x10025156: fmul dword [ebx+0x5E5F5DC3] ; pop ebx ; ret  ;  (1 found)
0x1001c4bf: fmul dword [ebx-0x3CA1A03A] ; push dword [esp+0x04] ; push 0x00000000 ; push dword [0x10033CB8] ; call dword [0x10011188] ;  (1 found)
0x10028d12: fmul qword [ebp-0x08] ; mov esp, ebp ; pop ebp ; ret  ;  (1 found)
0x10028f86: fmul qword [ebp-0x08] ; mov esp, ebp ; pop ebp ; ret  ;  (1 found)
0x100290a2: fmul qword [ebp-0x08] ; mov esp, ebp ; pop ebp ; ret  ;  (1 found)
0x10029320: fmul qword [ebp-0x14] ; pop edi ; pop esi ; mov esp, ebp ; pop ebp ; ret  ;  (1 found)
0x10029230: fmul qword [ebp-0x28] ; pop esi ; mov esp, ebp ; pop ebp ; ret  ;  (1 found)
0x1002857b: fmul qword [ecx+0x4D89B045] ; lodsb  ; fnclex  ; lea eax, dword [ebp-0x00000094] ; push eax ; call dword [ebp+0x10] ;  (1 found)
0x10013ebd: fmul qword [edi] ; mov esi, 0x5048FD45 ; call dword [0x1002FF60] ;  (1 found)
0x1002371c: fmul qword [edi] ; mov esi, 0x5048FD45 ; call dword [0x1002FF60] ;  (1 found)
0x10028582: fnclex  ; lea eax, dword [ebp-0x00000094] ; push eax ; call dword [ebp+0x10] ;  (1 found)
0x1002abc2: fnclex  ; movsx eax, word [esp+0x02] ; add esp, 0x04 ; ret  ;  (1 found)
0x1002ac5c: frndint  ; fstp qword [esp+0x00] ; fld qword [esp+0x00] ; add esp, 0x08 ; ret  ;  (1 found)
0x10028d10: fsqrt  ; fmul qword [ebp-0x08] ; mov esp, ebp ; pop ebp ; ret  ;  (1 found)
0x100290a0: fsqrt  ; fmul qword [ebp-0x08] ; mov esp, ebp ; pop ebp ; ret  ;  (1 found)
0x10028f84: fsqrt  ; fmul qword [ebp-0x08] ; mov esp, ebp ; pop ebp ; ret  ;  (1 found)
0x10029a37: fsqrt  ; ret  ;  (1 found)
0x1002a1d4: fsqrt  ; ret  ;  (1 found)
0x100245e9: fstenv  [ebp+0x03] ; lea eax, dword [esi-0x07] ; pop esi ; ret  ;  (1 found)
0x1002ac4d: fstp qword [ebp-0x0C] ; wait  ; mov esp, ebp ; pop ebp ; ret  ;  (1 found)
0x1002ac5e: fstp qword [esp+0x00] ; fld qword [esp+0x00] ; add esp, 0x08 ; ret  ;  (1 found)
0x10029e76: fstp st0 ; fld tword [0x100336A4] ; mov byte [ebp-0x00000090], 0x00000002 ; ret  ;  (1 found)
0x10029f3d: fstp st0 ; fld tword [0x100336A4] ; mov byte [ebp-0x00000090], 0x00000003 ; ret  ;  (1 found)
0x10029d91: fstp st0 ; fld tword [0x100336A4] ; ret  ;  (1 found)
0x10029f51: fstp st0 ; fld tword [0x100336A4] ; ret  ;  (1 found)
0x10029ea7: fstp st0 ; fld tword [0x100336AE] ; ret  ;  (1 found)
0x10029a40: fstp st0 ; fld tword [0x1003379A] ; ret  ;  (1 found)
0x1002a111: fstp st0 ; fld1  ; ret  ;  (1 found)
0x1002a10a: fstp st0 ; fldz  ; ret  ;  (1 found)
0x10029e74: fstp st0 ; fstp st0 ; fld tword [0x100336A4] ; mov byte [ebp-0x00000090], 0x00000002 ; ret  ;  (1 found)
0x10029f3b: fstp st0 ; fstp st0 ; fld tword [0x100336A4] ; mov byte [ebp-0x00000090], 0x00000003 ; ret  ;  (1 found)
0x1002a10f: fstp st0 ; fstp st0 ; fld1  ; ret  ;  (1 found)
0x1002a108: fstp st0 ; fstp st0 ; fldz  ; ret  ;  (1 found)
0x1002a0fe: fstp st0 ; ret  ;  (1 found)
0x10027713: fstp st1 ; ret  ;  (1 found)
0x10029f92: fstsw word [ebp-0x000000A0] ; fabs  ; f2xm1  ; ret  ;  (1 found)
0x1002abbe: fstsw word [esp+0x02] ; fnclex  ; movsx eax, word [esp+0x02] ; add esp, 0x04 ; ret  ;  (1 found)
0x1002abae: fstsw word [esp+0x02] ; movsx eax, word [esp+0x02] ; add esp, 0x04 ; ret  ;  (1 found)
0x1001e067: fsub dword [ebx+0x1002FF90] ; call dword [ebx+0x1002F1A0] ;  (1 found)
0x100299c8: fsub qword [ebp-0x08] ; add esp, 0x08 ; pop esi ; mov esp, ebp ; pop ebp ; ret  ;  (1 found)
0x10029d5d: fsubp st1, st0 ; fdivrp st1, st0 ; ret  ;  (1 found)
0x10012c59: fsubr qword [ebx] ; add edx, dword [eax] ; mov dword [ebp-0x04], 0x00000000 ; push dword [esi+0x40] ; call dword [esi+0x3C] ;  (1 found)
0x10029f8f: ftst  ; wait  ; fstsw word [ebp-0x000000A0] ; fabs  ; f2xm1  ; ret  ;  (1 found)
0x10029e07: fxch st0, st1 ; fdivrp st1, st0 ; ret  ;  (1 found)
0x1002a0fc: fxch st0, st1 ; fstp st0 ; ret  ;  (1 found)
0x10029e9d: fyl2x  ; ret  ;  (1 found)
0x10029ec1: fyl2x  ; ret  ;  (1 found)
0x10018c11: hlt  ; add dl, byte [eax] ; call dword [0x10011094] ;  (1 found)
0x10018d72: hlt  ; add dl, byte [eax] ; call dword [0x10011094] ;  (1 found)
0x10018dfa: hlt  ; add dl, byte [eax] ; call dword [0x10011094] ;  (1 found)
0x1001586c: hlt  ; add dl, byte [eax] ; call dword [0x100110E0] ;  (1 found)
0x100157b3: hlt  ; add dl, byte [eax] ; call dword [0x100110E4] ;  (1 found)
0x1001b89f: hlt  ; add dl, byte [eax] ; call dword [0x10011180] ;  (1 found)
0x1001b875: hlt  ; add dl, byte [eax] ; call dword [0x10011180] ;  (1 found)
0x10018bf9: hlt  ; add dl, byte [eax] ; push dword [ebp-0x08] ; call dword [0x100110C4] ;  (1 found)
0x10021533: hlt  ; add dl, byte [eax] ; push ecx ; push edx ; push eax ; call dword [0x10011180] ;  (1 found)
0x1001601f: hlt  ; call dword [0x100110F4] ;  (1 found)
0x1001608e: hlt  ; call dword [0x100110F4] ;  (1 found)
0x10028c3b: hlt  ; fldcw word [ebp-0x02] ; mov eax, dword [ebp-0x0C] ; mov edx, dword [ebp-0x08] ; leave  ; ret  ;  (1 found)
0x10025269: hlt  ; lea eax, dword [ebp-0x20] ; push eax ; push dword [0x1002FF90] ; call dword [0x100111B0] ;  (1 found)
0x1001e87b: hlt  ; mov eax, ecx ; pop esi ; pop edi ; leave  ; ret  ;  (1 found)
0x1001f343: hlt  ; mov eax, ecx ; pop esi ; pop edi ; leave  ; ret  ;  (1 found)
0x10028c41: hlt  ; mov edx, dword [ebp-0x08] ; leave  ; ret  ;  (1 found)
0x10025329: hlt  ; push 0x00000100 ; push dword [ebp-0x04] ; push 0x00000001 ; call dword [0x10011130] ;  (1 found)
0x10018975: hlt  ; push dword [ebp+0x08] ; call dword [0x10011150] ;  (1 found)
0x10016b4d: hlt  ; push eax ; push 0x00000002 ; push ecx ; push 0x00000001 ; call dword [0x10011130] ;  (1 found)
0x1001ad72: hlt  ; push eax ; push edx ; push 0x00000100 ; push dword [0x1002FF80] ; call dword [0x10011174] ;  (1 found)
0x1001af1e: hlt  ; push eax ; push edx ; push 0x00000200 ; push dword [0x1002FF80] ; call dword [0x10011174] ;  (1 found)
0x1001221e: hlt  ; push es ; add byte [eax], al ; add eax, 0x0C ; ret  ;  (1 found)
0x1001b695: hlt  ; ret  ;  (1 found)
0x1002ac4f: hlt  ; wait  ; mov esp, ebp ; pop ebp ; ret  ;  (1 found)
0x10013925: idiv dword [edx] ; ret  ;  (1 found)
0x10021e43: idiv dword [edx] ; ret  ;  (1 found)
0x100159aa: idiv ecx ; mov word [esi+0x06], ax ; lea eax, dword [ebp-0x10] ; push eax ; call dword [0x100110E8] ;  (1 found)
0x10021788: idiv edi ; inc ebp ; or al, 0x3A ; ret  ;  (1 found)
0x10013282: idiv edi ; inc ebp ; or byte [edx], bh ; ret  ;  (1 found)
0x1001baa0: idiv esi ; add dl, 0x00000030 ; lea eax, dword [ecx+0x01] ; pop esi ; mov byte [ecx], dl ; ret  ;  (1 found)
0x100147ff: imul bl ; add eax, 0xFFFFFFBE ; call dword [ebx-0x18] ;  (1 found)
0x10029cd9: imul bl ; add ebx, ebp ; inc ebp ; or byte [ebx-0x37], bl ; ret  ;  (1 found)
0x100130c1: imul dword [edi] ; add byte [eax], al ; add esp, 0x04 ; push eax ; call dword [0x100110B0] ;  (1 found)
0x100169bd: imul eax, dword [ecx], 0x1C15FF10 ; adc dword [ecx], eax ; adc byte [eax-0x01], dl ; adc eax, 0x10011120 ; ret  ;  (1 found)
0x10025800: imul eax, eax, 0x06 ; mov ax, word [eax+0x100329C0] ; ret  ;  (1 found)
0x1001bbeb: imul ecx, eax ; add ecx, esi ; push ecx ; mov dword [ebp-0x04], ecx ; push dword [ebp+0x08] ; call dword [ebp+0x18] ;  (1 found)
0x1001bce0: imul ecx, ecx, 0x000003E8 ; sub ecx, eax ; movzx eax, word [esp+0x04] ; add eax, ecx ; add esp, 0x0C ; ret  ;  (1 found)
0x1001c44c: imul edi, edi, 0xFF ; dec dword [ebx+0x5E5F1045] ; pop ebx ; mov esp, ebp ; pop ebp ; ret  ;  (1 found)
0x100222f1: imul edi, esp, 0x5F5DB2EB ; pop esi ; pop ebx ; ret  ;  (1 found)
0x100148b3: imul edx, dword [eax], 0x6A ; call dword [ebx-0x18] ;  (1 found)
0x100216d7: imul edx, dword [eax], 0x6A ; call dword [ebx-0x18] ;  (1 found)
0x10013158: in al, 0x00 ; add byte [ebx-0x3974FB3C], al ; pop edi ; pop esi ; ret  ;  (1 found)
0x1002a0e2: in al, 0x0A ; les ecx,  [edi] ; mov esi, 0x04E181C0 ; add al, 0x00 ; add byte [ebx-0x7C27FC26], cl ; ret  ;  (1 found)
0x1001622f: in al, 0x50 ; push 0x00000001 ; push ecx ; push dword [0x1002FF44] ; call dword [0x100110F8] ;  (1 found)
0x10013a40: in al, 0x5E ; pop ebp ; ret  ;  (1 found)
0x10013930: in al, 0x5F ; pop esi ; pop ebx ; mov esp, ebp ; pop ebp ; ret  ;  (1 found)
0x10021e4e: in al, 0x5F ; pop esi ; pop ebx ; mov esp, ebp ; pop ebp ; ret  ;  (1 found)
0x10021780: in al, 0x8A ; add byte [ecx+0x4588C85D], cl ; idiv edi ; inc ebp ; or al, 0x3A ; ret  ;  (1 found)
0x1001327a: in al, 0x8A ; add byte [ecx+0x4588C85D], cl ; idiv edi ; inc ebp ; or byte [edx], bh ; ret  ;  (1 found)
0x10029f90: in al, 0x9B ; fstsw word [ebp-0x000000A0] ; fabs  ; f2xm1  ; ret  ;  (1 found)
0x1002688a: in al, dx ; adc al, 0x03 ; retn 0xF8C1 ;  (1 found)
0x1002abab: in al, dx ; add al, 0x9B ; fstsw word [esp+0x02] ; movsx eax, word [esp+0x02] ; add esp, 0x04 ; ret  ;  (1 found)
0x10012899: in al, dx ; add byte [eax], al ; call dword [0x10011068] ;  (1 found)
0x1001a0df: in al, dx ; lea eax, dword [ebp-0x00000154] ; push eax ; push esi ; call dword [0x100110D0] ;  (1 found)
0x100194be: in al, dx ; mov dword [ebp-0x10], 0x00000000 ; push 0x00000001 ; push ecx ; push dword [edx] ; call dword [0x1001115C] ;  (1 found)
0x10029322: in al, dx ; pop edi ; pop esi ; mov esp, ebp ; pop ebp ; ret  ;  (1 found)
0x1001ee5f: in al, dx ; pop esi ; pop ebx ; ret  ;  (1 found)
0x1002162b: in al, dx ; push dword [0x1002FA40+eax*4] ; call dword [0x100111A8] ;  (1 found)
0x10024121: in al, dx ; push dword [ebp-0x24] ; push eax ; call dword [0x1002FF60] ;  (1 found)
0x100193ef: in al, dx ; push edi ; push ecx ; push dword [eax] ; call dword [0x1001115C] ;  (1 found)
0x1001a3fb: in al, dx ; push esi ; push edi ; mov bx, 0x0064 ; push eax ; call dword [0x100110E8] ;  (1 found)
0x100161d7: in al, dx ; sbb al, 0x83 ; cmp eax, 0x1002E768 ; call dword [esi+0x74] ;  (1 found)
0x10016779: in al, dx ; sub esp, 0x10 ; lea eax, dword [ebp-0x10] ; push eax ; call dword [0x100110E8] ;  (1 found)
0x1001fa42: in al, dx ; sub esp, 0x10 ; lea eax, dword [ebp-0x10] ; push eax ; call dword [0x10011190] ;  (1 found)
0x10011f58: in eax, 0x00 ; add byte [eax], al ; add esp, 0x08 ; ret  ;  (1 found)
0x10012595: in eax, 0x5D ; ret  ;  (1 found)
0x10012a45: in eax, 0x5D ; ret  ;  (1 found)
0x10012de5: in eax, 0x5D ; ret  ;  (1 found)
0x10012f58: in eax, 0x5D ; ret  ;  (1 found)
0x10013110: in eax, 0x5D ; ret  ;  (1 found)
0x10013935: in eax, 0x5D ; ret  ;  (1 found)
0x100146f1: in eax, 0x5D ; ret  ;  (1 found)
0x100146be: in eax, 0x5D ; ret  ;  (1 found)
0x10014720: in eax, 0x5D ; ret  ;  (1 found)
0x1001432c: in eax, 0x5D ; ret  ;  (1 found)
0x10014472: in eax, 0x5D ; ret  ;  (1 found)
0x100148cb: in eax, 0x5D ; ret  ;  (1 found)
0x1001492c: in eax, 0x5D ; ret  ;  (1 found)
0x10014999: in eax, 0x5D ; ret  ;  (1 found)
0x10014a01: in eax, 0x5D ; ret  ;  (1 found)
0x10014cbd: in eax, 0x5D ; ret  ;  (1 found)
0x10014a6e: in eax, 0x5D ; ret  ;  (1 found)
0x10014c61: in eax, 0x5D ; ret  ;  (1 found)
0x10014ed1: in eax, 0x5D ; ret  ;  (1 found)
0x100152be: in eax, 0x5D ; ret  ;  (1 found)
0x100153b7: in eax, 0x5D ; ret  ;  (1 found)
0x10015432: in eax, 0x5D ; ret  ;  (1 found)
0x10015544: in eax, 0x5D ; ret  ;  (1 found)
0x1001598d: in eax, 0x5D ; ret  ;  (1 found)
0x10015a10: in eax, 0x5D ; ret  ;  (1 found)
0x10015d82: in eax, 0x5D ; ret  ;  (1 found)
0x10015ecb: in eax, 0x5D ; ret  ;  (1 found)
0x10015f6f: in eax, 0x5D ; ret  ;  (1 found)
0x10016296: in eax, 0x5D ; ret  ;  (1 found)
0x10016a91: in eax, 0x5D ; ret  ;  (1 found)
0x100163ab: in eax, 0x5D ; ret  ;  (1 found)
0x10016678: in eax, 0x5D ; ret  ;  (1 found)
0x10016730: in eax, 0x5D ; ret  ;  (1 found)
0x100167d5: in eax, 0x5D ; ret  ;  (1 found)
0x1001683c: in eax, 0x5D ; ret  ;  (1 found)
0x100169df: in eax, 0x5D ; ret  ;  (1 found)
0x100170ee: in eax, 0x5D ; ret  ;  (1 found)
0x10017122: in eax, 0x5D ; ret  ;  (1 found)
0x10017156: in eax, 0x5D ; ret  ;  (1 found)
0x10016b6c: in eax, 0x5D ; ret  ;  (1 found)
0x10018b04: in eax, 0x5D ; ret  ;  (1 found)
0x10018dda: in eax, 0x5D ; ret  ;  (1 found)
0x100190c0: in eax, 0x5D ; ret  ;  (1 found)
0x10019051: in eax, 0x5D ; ret  ;  (1 found)
0x100172da: in eax, 0x5D ; ret  ;  (1 found)
0x1001adef: in eax, 0x5D ; ret  ;  (1 found)
0x1001955b: in eax, 0x5D ; ret  ;  (1 found)
0x10019721: in eax, 0x5D ; ret  ;  (1 found)
0x10019794: in eax, 0x5D ; ret  ;  (1 found)
0x1001989c: in eax, 0x5D ; ret  ;  (1 found)
0x10019914: in eax, 0x5D ; ret  ;  (1 found)
0x100199e8: in eax, 0x5D ; ret  ;  (1 found)
0x10019978: in eax, 0x5D ; ret  ;  (1 found)
0x10019a4d: in eax, 0x5D ; ret  ;  (1 found)
0x10019d17: in eax, 0x5D ; ret  ;  (1 found)
0x10019cba: in eax, 0x5D ; ret  ;  (1 found)
0x10019abd: in eax, 0x5D ; ret  ;  (1 found)
0x1001a057: in eax, 0x5D ; ret  ;  (1 found)
0x10019f11: in eax, 0x5D ; ret  ;  (1 found)
0x1001a2c5: in eax, 0x5D ; ret  ;  (1 found)
0x1001a47b: in eax, 0x5D ; ret  ;  (1 found)
0x1001a708: in eax, 0x5D ; ret  ;  (1 found)
0x1001abeb: in eax, 0x5D ; ret  ;  (1 found)
0x1001bf0c: in eax, 0x5D ; ret  ;  (1 found)
0x1001c069: in eax, 0x5D ; ret  ;  (1 found)
0x1001c1a8: in eax, 0x5D ; ret  ;  (1 found)
0x1001c457: in eax, 0x5D ; ret  ;  (1 found)
0x1001c329: in eax, 0x5D ; ret  ;  (1 found)
0x1001af9b: in eax, 0x5D ; ret  ;  (1 found)
0x1001b1d1: in eax, 0x5D ; ret  ;  (1 found)
0x1001b32b: in eax, 0x5D ; ret  ;  (1 found)
0x1001b3a2: in eax, 0x5D ; ret  ;  (1 found)
0x1001b953: in eax, 0x5D ; ret  ;  (1 found)
0x1001b926: in eax, 0x5D ; ret  ;  (1 found)
0x1001b980: in eax, 0x5D ; ret  ;  (1 found)
0x1001bc28: in eax, 0x5D ; ret  ;  (1 found)
0x1001bd6a: in eax, 0x5D ; ret  ;  (1 found)
0x1001bd33: in eax, 0x5D ; ret  ;  (1 found)
0x1001cc1f: in eax, 0x5D ; ret  ;  (1 found)
0x1001cee3: in eax, 0x5D ; ret  ;  (1 found)
0x1001cd58: in eax, 0x5D ; ret  ;  (1 found)
0x1001d84d: in eax, 0x5D ; ret  ;  (1 found)
0x1001db18: in eax, 0x5D ; ret  ;  (1 found)
0x1001db72: in eax, 0x5D ; ret  ;  (1 found)
0x1001c93f: in eax, 0x5D ; ret  ;  (1 found)
0x100216ef: in eax, 0x5D ; ret  ;  (1 found)
0x1001df57: in eax, 0x5D ; ret  ;  (1 found)
0x1001e0d3: in eax, 0x5D ; ret  ;  (1 found)
0x1001e34d: in eax, 0x5D ; ret  ;  (1 found)
0x1001e659: in eax, 0x5D ; ret  ;  (1 found)
0x1001e61b: in eax, 0x5D ; ret  ;  (1 found)
0x1001e844: in eax, 0x5D ; ret  ;  (1 found)
0x1001e9c4: in eax, 0x5D ; ret  ;  (1 found)
0x1001ef34: in eax, 0x5D ; ret  ;  (1 found)
0x1001f1fd: in eax, 0x5D ; ret  ;  (1 found)
0x1001f495: in eax, 0x5D ; ret  ;  (1 found)
0x1001f56f: in eax, 0x5D ; ret  ;  (1 found)
0x1001f794: in eax, 0x5D ; ret  ;  (1 found)
0x1001f96e: in eax, 0x5D ; ret  ;  (1 found)
0x1001f8f7: in eax, 0x5D ; ret  ;  (1 found)
0x1001fa3d: in eax, 0x5D ; ret  ;  (1 found)
0x1001fa80: in eax, 0x5D ; ret  ;  (1 found)
0x1001f9a7: in eax, 0x5D ; ret  ;  (1 found)
0x1001fdd9: in eax, 0x5D ; ret  ;  (1 found)
0x1001fe93: in eax, 0x5D ; ret  ;  (1 found)
0x10020094: in eax, 0x5D ; ret  ;  (1 found)
0x100201e4: in eax, 0x5D ; ret  ;  (1 found)
0x1002025a: in eax, 0x5D ; ret  ;  (1 found)
0x10020756: in eax, 0x5D ; ret  ;  (1 found)
0x100209df: in eax, 0x5D ; ret  ;  (1 found)
0x10020baf: in eax, 0x5D ; ret  ;  (1 found)
0x10020d24: in eax, 0x5D ; ret  ;  (1 found)
0x10020e36: in eax, 0x5D ; ret  ;  (1 found)
0x10020ff8: in eax, 0x5D ; ret  ;  (1 found)
0x10021279: in eax, 0x5D ; ret  ;  (1 found)
0x100210a1: in eax, 0x5D ; ret  ;  (1 found)
0x100214b9: in eax, 0x5D ; ret  ;  (1 found)
0x10024574: in eax, 0x5D ; ret  ;  (1 found)
0x10024da1: in eax, 0x5D ; ret  ;  (1 found)
0x1002545d: in eax, 0x5D ; ret  ;  (1 found)
0x1002571f: in eax, 0x5D ; ret  ;  (1 found)
0x10025b41: in eax, 0x5D ; ret  ;  (1 found)
0x10025d4e: in eax, 0x5D ; ret  ;  (1 found)
0x10025dc5: in eax, 0x5D ; ret  ;  (1 found)
0x10025fc9: in eax, 0x5D ; ret  ;  (1 found)
0x10026037: in eax, 0x5D ; ret  ;  (1 found)
0x10026162: in eax, 0x5D ; ret  ;  (1 found)
0x100262b5: in eax, 0x5D ; ret  ;  (1 found)
0x10026306: in eax, 0x5D ; ret  ;  (1 found)
0x100263b9: in eax, 0x5D ; ret  ;  (1 found)
0x100266a3: in eax, 0x5D ; ret  ;  (1 found)
0x10026834: in eax, 0x5D ; ret  ;  (1 found)
0x10026b27: in eax, 0x5D ; ret  ;  (1 found)
0x10026acc: in eax, 0x5D ; ret  ;  (1 found)
0x10026928: in eax, 0x5D ; ret  ;  (1 found)
0x10026b56: in eax, 0x5D ; ret  ;  (1 found)
0x1002718b: in eax, 0x5D ; ret  ;  (1 found)
0x10027606: in eax, 0x5D ; ret  ;  (1 found)
0x1002738e: in eax, 0x5D ; ret  ;  (1 found)
0x10027591: in eax, 0x5D ; ret  ;  (1 found)
0x1002775d: in eax, 0x5D ; ret  ;  (1 found)
0x10027743: in eax, 0x5D ; ret  ;  (1 found)
0x100279de: in eax, 0x5D ; ret  ;  (1 found)
0x10021e53: in eax, 0x5D ; ret  ;  (1 found)
0x10022290: in eax, 0x5D ; ret  ;  (1 found)
0x100224f1: in eax, 0x5D ; ret  ;  (1 found)
0x100227c0: in eax, 0x5D ; ret  ;  (1 found)
0x10022f2a: in eax, 0x5D ; ret  ;  (1 found)
0x100232fe: in eax, 0x5D ; ret  ;  (1 found)
0x10023c0c: in eax, 0x5D ; ret  ;  (1 found)
0x10027a22: in eax, 0x5D ; ret  ;  (1 found)
0x10027b2d: in eax, 0x5D ; ret  ;  (1 found)
0x10027a03: in eax, 0x5D ; ret  ;  (1 found)
0x10027db0: in eax, 0x5D ; ret  ;  (1 found)
0x10027eff: in eax, 0x5D ; ret  ;  (1 found)
0x10028734: in eax, 0x5D ; ret  ;  (1 found)
0x100288b2: in eax, 0x5D ; ret  ;  (1 found)
0x10028a43: in eax, 0x5D ; ret  ;  (1 found)
0x10028d8b: in eax, 0x5D ; ret  ;  (1 found)
0x10028d16: in eax, 0x5D ; ret  ;  (1 found)
0x10028e78: in eax, 0x5D ; ret  ;  (1 found)
0x100290a6: in eax, 0x5D ; ret  ;  (1 found)
0x10028f8a: in eax, 0x5D ; ret  ;  (1 found)
0x10029326: in eax, 0x5D ; ret  ;  (1 found)
0x10029356: in eax, 0x5D ; ret  ;  (1 found)
0x10029235: in eax, 0x5D ; ret  ;  (1 found)
0x10029443: in eax, 0x5D ; ret  ;  (1 found)
0x100296ca: in eax, 0x5D ; ret  ;  (1 found)
0x100295d7: in eax, 0x5D ; ret  ;  (1 found)
0x100299d0: in eax, 0x5D ; ret  ;  (1 found)
0x100298e6: in eax, 0x5D ; ret  ;  (1 found)
0x1002a296: in eax, 0x5D ; ret  ;  (1 found)
0x1002a32e: in eax, 0x5D ; ret  ;  (1 found)
0x1002a3df: in eax, 0x5D ; ret  ;  (1 found)
0x1002a6f1: in eax, 0x5D ; ret  ;  (1 found)
0x1002a9ae: in eax, 0x5D ; ret  ;  (1 found)
0x1002aa6e: in eax, 0x5D ; ret  ;  (1 found)
0x1002aba7: in eax, 0x5D ; ret  ;  (1 found)
0x1002abf8: in eax, 0x5D ; ret  ;  (1 found)
0x1002ac52: in eax, 0x5D ; ret  ;  (1 found)
0x1002ad73: in eax, 0x5D ; ret  ;  (1 found)
0x1002af4d: in eax, 0x5D ; ret  ;  (1 found)
0x1002af9f: in eax, 0x5D ; ret  ;  (1 found)
0x10012cb0: in eax, 0x5D ; retn 0x0004 ;  (1 found)
0x100246b1: in eax, 0x5D ; retn 0x0004 ;  (1 found)
0x10011db3: in eax, 0x5D ; retn 0x000C ;  (1 found)
0x100175b0: in eax, dx ; add dl, byte [eax] ; pop edi ; pop esi ; pop ebx ; ret  ;  (1 found)
0x10017541: in eax, dx ; add dl, byte [eax] ; pop esi ; ret  ;  (1 found)
0x1001e9e8: in eax, dx ; add dword [eax], edx ; jmp dword [0x1001ED83+ecx*4] ;  (1 found)
0x10029a36: in eax, dx ; fsqrt  ; ret  ;  (1 found)
0x100202f3: in eax, dx ; mov eax, dword [esp+0x08] ; pop esi ; ret  ;  (1 found)
0x1001b640: in eax, dx ; pop edi ; pop esi ; ret  ;  (1 found)
0x100202d4: in eax, dx ; pop edi ; pop esi ; ret  ;  (1 found)
0x10015e2e: inc byte [eax] ; add byte [esi-0x77], ah ; inc ebp ; cld  ; call dword [0x100110F0] ;  (1 found)
0x10015e83: inc byte [eax] ; add byte [esi-0x77], ah ; inc ebp ; cld  ; call dword [0x100110F0] ;  (1 found)
0x10012f02: inc byte [eax] ; lea ebx, dword [ebp-0x04] ; push ebx ; call dword [0x100110A8] ;  (1 found)
0x10027ef4: inc byte [ebx+0x6DD904C4] ; dec byte [ebx-0x1A74A13A] ; pop ebp ; ret  ;  (1 found)
0x100167d0: inc byte [ebx-0x1A74FB3C] ; pop ebp ; ret  ;  (1 found)
0x1001fdd4: inc byte [ebx-0x1A74FB3C] ; pop ebp ; ret  ;  (1 found)
0x1001fe8e: inc byte [ebx-0x1A74FB3C] ; pop ebp ; ret  ;  (1 found)
0x1002aa80: inc byte [ebx] ; movsx eax, ax ; ret  ;  (1 found)
0x1001dced: inc byte [edi] ; add byte [eax], al ; add esp, 0x10 ; ret  ;  (1 found)
0x10011c81: inc dword [0x1002E000] ; push dword [ebp+0x08] ; call dword [0x1001104C] ;  (1 found)
0x100284a8: inc dword [eax+0x50FEBC65] ; call dword [ebp+0x10] ;  (1 found)
0x10011dca: inc dword [eax] ; add byte [eax], al ; call dword [0x1002E004] ;  (1 found)
0x10016742: inc dword [eax] ; add byte [edi+0x20], bh ; push dword [ebp+0x10] ; push dword [ebp+0x08] ; call dword [0x10011108] ;  (1 found)
0x100232f7: inc dword [eax] ; add byte [edi+0x5E], bl ; pop ebx ; mov esp, ebp ; pop ebp ; ret  ;  (1 found)
0x1002312d: inc dword [eax] ; add byte [edi+0x5E], bl ; pop ebx ; ret  ;  (1 found)
0x10021f2d: inc dword [eax] ; pop ebp ; ret  ;  (1 found)
0x10022fea: inc dword [eax] ; pop ebp ; ret  ;  (1 found)
0x100139ef: inc dword [eax] ; ret  ;  (1 found)
0x1001dedf: inc dword [ebp-0x72E58B40] ; test dword [edi+edi*8-0x01], ebp ; call dword [eax-0x01] ;  (1 found)
0x10012cee: inc dword [ebx+0x006A04C4] ; call dword [0x10011090] ;  (1 found)
0x1001460e: inc dword [ebx+0x026A04C4] ; lea eax, dword [ebp-0x04] ; push 0x00000001 ; push 0x00000000 ; push eax ; call dword [0x100110C8] ;  (1 found)
0x1001bd16: inc dword [ebx+0x02EB04C4] ; xor eax, eax ; ret  ;  (1 found)
0x10012115: inc dword [ebx+0x0D8B04C4] ; enter 0x033E, 0x10 ; mov dword [ecx], 0x00000000 ; mov ecx, dword [0x10033EC8] ; mov dword [0x10033EC0], ecx ; ret  ;  (1 found)
0x10016f65: inc dword [ebx+0x0FEB08C4] ; mov edx, dword [0x1002E188] ; xor eax, eax ; mov ax, word [edx+ecx*2] ; and eax, 0x01 ; ret  ;  (1 found)
0x10016e47: inc dword [ebx+0x0FEB08C4] ; mov edx, dword [0x1002E188] ; xor eax, eax ; mov ax, word [edx+ecx*2] ; and eax, 0x02 ; ret  ;  (1 found)
0x10016cf2: inc dword [ebx+0x0FEB08C4] ; mov edx, dword [0x1002E188] ; xor eax, eax ; mov ax, word [edx+ecx*2] ; and eax, 0x04 ; ret  ;  (1 found)
0x10016f0a: inc dword [ebx+0x0FEB08C4] ; mov edx, dword [0x1002E188] ; xor eax, eax ; mov ax, word [edx+ecx*2] ; and eax, 0x08 ; ret  ;  (1 found)
0x10016c95: inc dword [ebx+0x11EB08C4] ; mov edx, dword [0x1002E188] ; xor eax, eax ; mov ax, word [edx+ecx*2] ; and eax, 0x00000103 ; ret  ;  (1 found)
0x10017099: inc dword [ebx+0x458B10C4] ; or al, 0x5D ; ret  ;  (1 found)
0x100170b4: inc dword [ebx+0x458B10C4] ; or al, 0x5D ; ret  ;  (1 found)
0x10012cd6: inc dword [ebx+0x468B04C4] ; add al, 0x83 ; clc  ; push dword [edi+eax+0x50] ; call dword [0x10011094] ;  (1 found)
0x10018d8f: inc dword [ebx+0x4D8A08C4] ; dec dword [eax+0x02F37F8E] ; adc byte [esi-0x18], dl ; or dword [eax-0x3B7D0000], 0x04 ; push dword [ebp-0x24] ; call dword [0x10011094] ;  (1 found)
0x1002109a: inc dword [ebx+0x5E5F04C4] ; mov esp, ebp ; pop ebp ; ret  ;  (1 found)
0x1002ad6b: inc dword [ebx+0x5E5F04C4] ; pop ebx ; mov esp, ebp ; pop ebp ; ret  ;  (1 found)
0x1002632d: inc dword [ebx+0x5E5F0CC4] ; ret  ;  (1 found)
0x10027238: inc dword [ebx+0x5E5F0CC4] ; ret  ;  (1 found)
0x100262ad: inc dword [ebx+0x5E5F14C4] ; pop ebx ; mov esp, ebp ; pop ebp ; ret  ;  (1 found)
0x1001e4e6: inc dword [ebx+0x5F5D10C4] ; pop esi ; pop ebx ; ret  ;  (1 found)
0x100155b8: inc dword [ebx-0x077CFB3C] ; add dword [eax+0x00000000], edi ; adc eax, 0xFFFFFFFF ; pop esi ; ret  ;  (1 found)
0x10019894: inc dword [ebx-0x3974F73C] ; pop esi ; mov esp, ebp ; pop ebp ; ret  ;  (1 found)
0x1001990c: inc dword [ebx-0x3974F73C] ; pop esi ; mov esp, ebp ; pop ebp ; ret  ;  (1 found)
0x1001b39a: inc dword [ebx-0x3974F73C] ; pop esi ; mov esp, ebp ; pop ebp ; ret  ;  (1 found)
0x1001b323: inc dword [ebx-0x3974F73C] ; pop esi ; mov esp, ebp ; pop ebp ; ret  ;  (1 found)
0x1001e613: inc dword [ebx-0x3974F73C] ; pop esi ; mov esp, ebp ; pop ebp ; ret  ;  (1 found)
0x1001f966: inc dword [ebx-0x3974F73C] ; pop esi ; mov esp, ebp ; pop ebp ; ret  ;  (1 found)
0x100201dc: inc dword [ebx-0x3974F73C] ; pop esi ; mov esp, ebp ; pop ebp ; ret  ;  (1 found)
0x10020252: inc dword [ebx-0x3974F73C] ; pop esi ; mov esp, ebp ; pop ebp ; ret  ;  (1 found)
0x10022569: inc dword [ebx-0x3974FB3C] ; pop ebp ; pop edi ; pop esi ; pop ebx ; ret  ;  (1 found)
0x10015db7: inc dword [ebx-0x3974FB3C] ; pop edi ; pop esi ; ret  ;  (1 found)
0x10012971: inc dword [ebx-0x3974FB3C] ; pop esi ; ret  ;  (1 found)
0x10018133: inc dword [ebx-0x39FCF73C] ; pop esi ; ret  ;  (1 found)
0x10020459: inc dword [ebx-0x3C74FB3C] ; pop edi ; pop esi ; pop ebx ; pop ebp ; ret  ;  (1 found)
0x1001fa37: inc dword [ebx-0x74A1EF3C] ; in eax, 0x5D ; ret  ;  (1 found)
0x10029f4a: inc dword [ebx] ; ret  ;  (1 found)
0x10029e99: inc dword [ecx+0x75] ; rcr cl, cl ; int1  ; ret  ;  (1 found)
0x1002a138: inc dword [ecx] ; fadd qword [0x100337A4] ; ret  ;  (1 found)
0x1002a166: inc dword [ecx] ; faddp st1, st0 ; ret  ;  (1 found)
0x1002a1a5: inc dword [ecx] ; faddp st1, st0 ; ret  ;  (1 found)
0x1002a1c2: inc dword [ecx] ; or cl, cl ; ret  ;  (1 found)
0x1002a130: inc dword [edi] ; ret  ;  (1 found)
0x10016213: inc dword [edx] ; adc bh, bh ; adc eax, 0x100110A0 ; push 0x00000000 ; push dword [0x1002FF44] ; call dword [0x10011098] ;  (1 found)
0x10012d3c: inc dword [edx] ; adc bh, bh ; adc eax, 0x100110A0 ; push 0x00000007 ; push dword [0x1002FF44] ; call dword [0x10011098] ;  (1 found)
0x1002174c: inc dword [edx] ; adc byte [ebx+0x0774FFF8], al ; push eax ; call dword [0x10011094] ;  (1 found)
0x1002175d: inc dword [edx] ; adc byte [ebx+0x0774FFF8], al ; push eax ; call dword [0x10011094] ;  (1 found)
0x10025eb2: inc dword [edx] ; adc byte [ebx+0x1002FF6C], ah ; ret  ;  (1 found)
0x100252dc: inc dword [edx] ; adc byte [ebx+0x50], dl ; call dword [0x10011134] ;  (1 found)
0x1001a698: inc dword [edx] ; adc byte [ebx+0x6A], dl ; call dword [edi+0x6A] ;  (1 found)
0x1001e7d4: inc dword [edx] ; adc byte [ebx+0x6A], dl ; call dword [edi+0x6A] ;  (1 found)
0x10025cb0: inc dword [edx] ; adc byte [ebx+0x6A], dl ; call dword [esi+0x53] ;  (1 found)
0x1001c01c: inc dword [edx] ; adc byte [ecx+0x0C], dl ; add dword [eax-0x01], edx ; xor eax, 0x1002FF90 ; call dword [0x10011134] ;  (1 found)
0x1001cfbd: inc dword [edx] ; adc byte [ecx+eax], cl ; push eax ; push dword [0x1002FF90] ; call dword [0x10011134] ;  (1 found)
0x1001b558: inc dword [edx] ; adc byte [edi+0x53], dl ; push esi ; push 0x00000100 ; push eax ; call dword [0x10011174] ;  (1 found)
0x1001b72f: inc dword [edx] ; adc byte [edi+0x53], dl ; push esi ; push 0x00000200 ; push eax ; call dword [0x10011174] ;  (1 found)
0x10025ea4: inc dword [edx] ; adc byte [edi+ebx*2+0x02], dh ; adc byte [eax+0x100262B8], bh ; mov dword [0x1002FF58], eax ; mov dword [0x1002FF6C], eax ; ret  ;  (1 found)
0x1001d286: inc dword [edx] ; adc byte [edx+0x0C], dl ; add dword [eax-0x01], edx ; xor eax, 0x1002FF90 ; call dword [0x10011134] ;  (1 found)
0x1001d2c7: inc dword [edx] ; adc byte [edx+0x0C], dl ; add dword [eax-0x01], edx ; xor eax, 0x1002FF90 ; call dword [0x10011134] ;  (1 found)
0x10012d5e: inc dword [edx] ; adc byte [edx+0x53], dl ; push eax ; call dword [0x1001109C] ;  (1 found)
0x10029ea5: inc dword [edx] ; fstp st0 ; fld tword [0x100336AE] ; ret  ;  (1 found)
0x10029e83: inc dword [edx] ; ret  ;  (1 found)
0x1001bb07: inc eax ; adc byte [ebx+0x5E5F14C4], al ; add esp, 0x18 ; ret  ;  (1 found)
0x10011d0f: inc eax ; adc byte [ecx], al ; adc byte [ebx+0x10033ED0], ah ; call dword [0x10011104] ;  (1 found)
0x10012dc3: inc eax ; add al, byte [eax] ; push dword [ebp-0x08] ; push dword [0x1002FF44] ; call dword [0x10011098] ;  (1 found)
0x10012c66: inc eax ; call dword [esi+0x3C] ;  (1 found)
0x1002162f: inc eax ; cli  ; add dl, byte [eax] ; call dword [0x100111A8] ;  (1 found)
0x1001be90: inc eax ; cmp eax, 0x01 ; sbb eax, eax ; ret  ;  (1 found)
0x10025872: inc eax ; pop ebp ; pop edi ; pop esi ; pop ebx ; ret  ;  (1 found)
0x10021737: inc eax ; push 0x100119D0 ; call dword [0x10011150] ;  (1 found)
0x10012b8e: inc eax ; push eax ; call dword [0x10011080] ;  (1 found)
0x100256d2: inc eax ; push ecx ; push 0x00001002 ; push edx ; call dword [0x100111B4] ;  (1 found)
0x10016aaf: inc eax ; ret  ;  (1 found)
0x10017abb: inc eax ; ret  ;  (1 found)
0x1001a70f: inc eax ; ret  ;  (1 found)
0x10027dc6: inc eax ; ret  ;  (1 found)
0x100188fe: inc ebp ; adc al, 0x85 ; ret  ;  (1 found)
0x1001da4d: inc ebp ; adc byte [ebx], al ; ret  ;  (1 found)
0x1002aba1: inc ebp ; adc byte [ecx-0x1A74A1D0], cl ; pop ebp ; ret  ;  (1 found)
0x1001c451: inc ebp ; adc byte [edi+0x5E], bl ; pop ebx ; mov esp, ebp ; pop ebp ; ret  ;  (1 found)
0x1001c939: inc ebp ; adc byte [edi+0x5E], bl ; pop ebx ; mov esp, ebp ; pop ebp ; ret  ;  (1 found)
0x10025799: inc ebp ; add byte [eax], al ; add byte [ebp+0x2B993E04], cl ; retn 0xF8D1 ;  (1 found)
0x1001d031: inc ebp ; add byte [eax], al ; add esp, 0x04 ; mov eax, esi ; pop esi ; ret  ;  (1 found)
0x1001d032: inc ebp ; add byte [eax], al ; add esp, 0x04 ; mov eax, esi ; pop esi ; ret  ;  (1 found)
0x10023eac: inc ebp ; add dl, byte [eax] ; jmp dword [0x10024577+ecx*4] ;  (1 found)
0x1002a9a8: inc ebp ; and byte [ebx-0x1A74FB3C], al ; pop ebp ; ret  ;  (1 found)
0x1002a3d8: inc ebp ; and byte [ebx-0x74A1F73C], al ; in eax, 0x5D ; ret  ;  (1 found)
0x100193fd: inc ebp ; call dword [0x10011058] ;  (1 found)
0x100165fa: inc ebp ; call dword [eax+0x6A] ;  (1 found)
0x1001f174: inc ebp ; call dword [ebx-0x15] ;  (1 found)
0x10018beb: inc ebp ; call dword [ecx-0x75] ;  (1 found)
0x1002a290: inc ebp ; clc  ; add esp, 0x08 ; mov esp, ebp ; pop ebp ; ret  ;  (1 found)
0x10027a1f: inc ebp ; clc  ; mov esp, ebp ; pop ebp ; ret  ;  (1 found)
0x10027a00: inc ebp ; clc  ; mov esp, ebp ; pop ebp ; ret  ;  (1 found)
0x1002aa6b: inc ebp ; clc  ; mov esp, ebp ; pop ebp ; ret  ;  (1 found)
0x100224df: inc ebp ; clc  ; push dword [ebp-0x1C] ; call dword [0x10011094] ;  (1 found)
0x10018f53: inc ebp ; clc  ; push eax ; call dword [0x10011154] ;  (1 found)
0x10012d36: inc ebp ; clc  ; push eax ; push dword [0x1002FF44] ; call dword [0x100110A0] ;  (1 found)
0x10016306: inc ebp ; clc  ; push eax ; push dword [0x1002FF44] ; call dword [0x10011100] ;  (1 found)
0x10025d19: inc ebp ; clc  ; push eax ; push dword [ebp+0x10] ; push dword [ebp+0x0C] ; call dword [0x100111B4] ;  (1 found)
0x100224ac: inc ebp ; clc  ; push eax ; push dword [ebp-0x20] ; call dword [0x100110BC] ;  (1 found)
0x10012c5e: inc ebp ; cld  ; add byte [eax], al ; add byte [eax], al ; push dword [esi+0x40] ; call dword [esi+0x3C] ;  (1 found)
0x10015e33: inc ebp ; cld  ; call dword [0x100110F0] ;  (1 found)
0x10015e88: inc ebp ; cld  ; call dword [0x100110F0] ;  (1 found)
0x1001bd2d: inc ebp ; cld  ; fild dword [ebp-0x04] ; mov esp, ebp ; pop ebp ; ret  ;  (1 found)
0x100279fd: inc ebp ; cld  ; fld qword [ebp-0x08] ; mov esp, ebp ; pop ebp ; ret  ;  (1 found)
0x10027a1c: inc ebp ; cld  ; fld qword [ebp-0x08] ; mov esp, ebp ; pop ebp ; ret  ;  (1 found)
0x1001693c: inc ebp ; cld  ; lea eax, dword [ebp-0x38] ; push eax ; call dword [0x1001111C] ;  (1 found)
0x10016a8e: inc ebp ; cld  ; mov esp, ebp ; pop ebp ; ret  ;  (1 found)
0x1001bd30: inc ebp ; cld  ; mov esp, ebp ; pop ebp ; ret  ;  (1 found)
0x10014615: inc ebp ; cld  ; push 0x00000001 ; push 0x00000000 ; push eax ; call dword [0x100110C8] ;  (1 found)
0x10016715: inc ebp ; cld  ; push eax ; call dword [0x1001103C] ;  (1 found)
0x10025584: inc ebp ; cld  ; push eax ; call dword [0x100111B8] ;  (1 found)
0x10025545: inc ebp ; cld  ; push eax ; call dword [0x100111B8] ;  (1 found)
0x100255d7: inc ebp ; cld  ; push eax ; call dword [0x100111B8] ;  (1 found)
0x1002562f: inc ebp ; cld  ; push eax ; call dword [0x100111B8] ;  (1 found)
0x1001620d: inc ebp ; cld  ; push eax ; push dword [0x1002FF44] ; call dword [0x100110A0] ;  (1 found)
0x100143fe: inc ebp ; cld  ; push eax ; push esi ; call dword [0x100110BC] ;  (1 found)
0x10016939: inc ebp ; enter 0x4589, 0xFC ; lea eax, dword [ebp-0x38] ; push eax ; call dword [0x1001111C] ;  (1 found)
0x1001693f: inc ebp ; enter 0xFF50, 0x15 ; sbb al, 0x11 ; add dword [eax], edx ; push eax ; call dword [0x10011124] ;  (1 found)
0x100133bd: inc ebp ; fdivr dword [ebx] ; ret  ;  (1 found)
0x100218c9: inc ebp ; fdivr dword [ebx] ; ret  ;  (1 found)
0x10028d85: inc ebp ; fdivr qword [ebp-0x08] ; mov esp, ebp ; pop ebp ; ret  ;  (1 found)
0x1001e066: inc ebp ; fsub dword [ebx+0x1002FF90] ; call dword [ebx+0x1002F1A0] ;  (1 found)
0x10028c40: inc ebp ; hlt  ; mov edx, dword [ebp-0x08] ; leave  ; ret  ;  (1 found)
0x10025328: inc ebp ; hlt  ; push 0x00000100 ; push dword [ebp-0x04] ; push 0x00000001 ; call dword [0x10011130] ;  (1 found)
0x10013924: inc ebp ; idiv dword [edx] ; ret  ;  (1 found)
0x10021e42: inc ebp ; idiv dword [edx] ; ret  ;  (1 found)
0x10021787: inc ebp ; idiv edi ; inc ebp ; or al, 0x3A ; ret  ;  (1 found)
0x10013281: inc ebp ; idiv edi ; inc ebp ; or byte [edx], bh ; ret  ;  (1 found)
0x1001a0de: inc ebp ; in al, dx ; lea eax, dword [ebp-0x00000154] ; push eax ; push esi ; call dword [0x100110D0] ;  (1 found)
0x100193ee: inc ebp ; in al, dx ; push edi ; push ecx ; push dword [eax] ; call dword [0x1001115C] ;  (1 found)
0x10015e2d: inc ebp ; inc byte [eax] ; add byte [esi-0x77], ah ; inc ebp ; cld  ; call dword [0x100110F0] ;  (1 found)
0x10015e82: inc ebp ; inc byte [eax] ; add byte [esi-0x77], ah ; inc ebp ; cld  ; call dword [0x100110F0] ;  (1 found)
0x10012f01: inc ebp ; inc byte [eax] ; lea ebx, dword [ebp-0x04] ; push ebx ; call dword [0x100110A8] ;  (1 found)
0x10027ef3: inc ebp ; inc byte [ebx+0x6DD904C4] ; dec byte [ebx-0x1A74A13A] ; pop ebp ; ret  ;  (1 found)
0x100167cf: inc ebp ; inc byte [ebx-0x1A74FB3C] ; pop ebp ; ret  ;  (1 found)
0x1001fdd3: inc ebp ; inc byte [ebx-0x1A74FB3C] ; pop ebp ; ret  ;  (1 found)
0x1001fe8d: inc ebp ; inc byte [ebx-0x1A74FB3C] ; pop ebp ; ret  ;  (1 found)
0x1001f123: inc ebp ; jmp dword [ebx+ebp*8+0x67] ;  (1 found)
0x1001f129: inc ebp ; jmp dword [ecx-0x15] ;  (1 found)
0x1001f0f6: inc ebp ; jmp dword [edx-0x17] ;  (1 found)
0x1001a1a3: inc ebp ; lea ecx, dword [ebp-0x00000140] ; push eax ; push ecx ; call dword [0x100110DC] ;  (1 found)
0x1001a1f2: inc ebp ; lea ecx, dword [ebp-0x00000148] ; push eax ; push ecx ; call dword [0x100110DC] ;  (1 found)
0x1001a243: inc ebp ; lea ecx, dword [ebp-0x00000150] ; push eax ; push ecx ; call dword [0x100110DC] ;  (1 found)
0x100158a7: inc ebp ; lea ecx, dword [ebp-0x30] ; push eax ; push ecx ; call dword [0x100110DC] ;  (1 found)
0x100158ea: inc ebp ; lea ecx, dword [ebp-0x38] ; push eax ; push ecx ; call dword [0x100110DC] ;  (1 found)
0x10015932: inc ebp ; lea ecx, dword [ebp-0x40] ; push eax ; push ecx ; call dword [0x100110DC] ;  (1 found)
0x1001681a: inc ebp ; mov word [ebp-0x04], cx ; push eax ; mov word [ebp-0x02], dx ; call dword [0x10011114] ;  (1 found)
0x1002178a: inc ebp ; or al, 0x3A ; ret  ;  (1 found)
0x10016b68: inc ebp ; or al, 0x5B ; mov esp, ebp ; pop ebp ; ret  ;  (1 found)
0x1002031e: inc ebp ; or al, 0x5D ; cmp ax, 0x00000001 ; sbb eax, eax ; and eax, ecx ; ret  ;  (1 found)
0x1001709e: inc ebp ; or al, 0x5D ; ret  ;  (1 found)
0x10017013: inc ebp ; or al, 0x5D ; ret  ;  (1 found)
0x100170b9: inc ebp ; or al, 0x5D ; ret  ;  (1 found)
0x10017397: inc ebp ; or al, 0x5F ; pop esi ; pop ebx ; pop ebp ; ret  ;  (1 found)
0x1002a231: inc ebp ; or al, 0x83 ; les ecx,  [eax] ; pop ebp ; ret  ;  (1 found)
0x100170eb: inc ebp ; or al, 0x8B ; in eax, 0x5D ; ret  ;  (1 found)
0x1001711f: inc ebp ; or al, 0x8B ; in eax, 0x5D ; ret  ;  (1 found)
0x10017153: inc ebp ; or al, 0x8B ; in eax, 0x5D ; ret  ;  (1 found)
0x100280f9: inc ebp ; or al, 0x8B ; or byte [ebx-0x3E7CFBA8], cl ; adc al, 0x83 ; ret  ;  (1 found)
0x1001f39f: inc ebp ; or bl, ch ; add dh, byte [ebx] ; rcr byte [ebx+0x5F], 0x0000005E ; leave  ; ret  ;  (1 found)
0x10029cdd: inc ebp ; or byte [ebx-0x37], bl ; ret  ;  (1 found)
0x100259e2: inc ebp ; or byte [ebx], ch ; ret  ;  (1 found)
0x1001782f: inc ebp ; or byte [edi+0x5E], bl ; leave  ; ret  ;  (1 found)
0x1001e693: inc ebp ; or byte [edi+0x5E], bl ; leave  ; ret  ;  (1 found)
0x10028b79: inc ebp ; or byte [edi+0x5E], bl ; pop ebp ; ret  ;  (1 found)
0x10026100: inc ebp ; or byte [edi+0x5E], bl ; pop ebx ; pop ebp ; ret  ;  (1 found)
0x1001d61d: inc ebp ; or byte [edi-0x37], bl ; ret  ;  (1 found)
0x10013284: inc ebp ; or byte [edx], bh ; ret  ;  (1 found)
0x1001d395: inc ebp ; or byte [esi+0x5F], bl ; leave  ; ret  ;  (1 found)
0x1001d3b1: inc ebp ; or byte [esi+0x5F], bl ; leave  ; ret  ;  (1 found)
0x1001d3a3: inc ebp ; or byte [esi+0x5F], bl ; leave  ; ret  ;  (1 found)
0x1001d3e3: inc ebp ; or byte [esi+0x5F], bl ; leave  ; ret  ;  (1 found)
0x1001d450: inc ebp ; or byte [esi+0x5F], bl ; leave  ; ret  ;  (1 found)
0x1001d430: inc ebp ; or byte [esi+0x5F], bl ; leave  ; ret  ;  (1 found)
0x1001d442: inc ebp ; or byte [esi+0x5F], bl ; leave  ; ret  ;  (1 found)
0x1001d488: inc ebp ; or byte [esi+0x5F], bl ; leave  ; ret  ;  (1 found)
0x1001d501: inc ebp ; or byte [esi+0x5F], bl ; leave  ; ret  ;  (1 found)
0x1001d4e5: inc ebp ; or byte [esi+0x5F], bl ; leave  ; ret  ;  (1 found)
0x1001d4f3: inc ebp ; or byte [esi+0x5F], bl ; leave  ; ret  ;  (1 found)
0x1001d533: inc ebp ; or byte [esi+0x5F], bl ; leave  ; ret  ;  (1 found)
0x1001d592: inc ebp ; or byte [esi+0x5F], bl ; leave  ; ret  ;  (1 found)
0x1001d5a0: inc ebp ; or byte [esi+0x5F], bl ; leave  ; ret  ;  (1 found)
0x1001d580: inc ebp ; or byte [esi+0x5F], bl ; leave  ; ret  ;  (1 found)
0x1001d5d8: inc ebp ; or byte [esi+0x5F], bl ; leave  ; ret  ;  (1 found)
0x100159b1: inc ebp ; push eax ; call dword [0x100110E8] ;  (1 found)
0x1001677e: inc ebp ; push eax ; call dword [0x100110E8] ;  (1 found)
0x1001fa47: inc ebp ; push eax ; call dword [0x10011190] ;  (1 found)
0x10014326: inc ebp ; rcr byte [edi+0x5E], 1  ; pop ebx ; mov esp, ebp ; pop ebp ; ret  ;  (1 found)
0x10023c06: inc ebp ; rcr byte [edi+0x5E], 1  ; pop ebx ; mov esp, ebp ; pop ebp ; ret  ;  (1 found)
0x1002a327: inc ebp ; sbb byte [ebx-0x74A1F73C], al ; in eax, 0x5D ; ret  ;  (1 found)
0x10013ec0: inc ebp ; std  ; dec eax ; push eax ; call dword [0x1002FF60] ;  (1 found)
0x1002371f: inc ebp ; std  ; dec eax ; push eax ; call dword [0x1002FF60] ;  (1 found)
0x1001f9a3: inc ebx ; add byte [eax], al ; mov esp, ebp ; pop ebp ; ret  ;  (1 found)
0x10013cc1: inc ebx ; add dword [eax], edx ; jmp dword [0x1001432F+ecx*4] ;  (1 found)
0x100127f9: inc ebx ; mov eax, dword [esp+0x04] ; and eax, 0x7F ; ret  ;  (1 found)
0x1001cd18: inc ebx ; mov eax, dword [esp+0x04] ; cdq  ; xor eax, edx ; sub eax, edx ; ret  ;  (1 found)
0x10027389: inc ebx ; or bl, byte [esi+0x5B] ; mov esp, ebp ; pop ebp ; ret  ;  (1 found)
0x1001536e: inc ebx ; or byte [ebp-0x00012B7B], cl ; dec dword [ebp-0x00011343] ; call dword [eax-0x18] ;  (1 found)
0x10015274: inc ebx ; or byte [ebp-0x00012F7B], cl ; dec dword [ebp-0x00011743] ; call dword [eax-0x18] ;  (1 found)
0x1001585d: inc ebx ; or dl, byte [ecx+0x66] ; mov dword [ebx+0x08], eax ; mov word [ebx+0x02], ax ; push dword [0x1002F4C0+edi*4] ; call dword [0x100110E0] ;  (1 found)
0x10012914: inc ebx ; push esi ; mov eax, dword [0x1002E148] ; push eax ; call dword [0x10011070] ;  (1 found)
0x10025b73: inc ecx ; add al, 0xEB ; add eax, 0x033BB4A3 ; adc byte [ebx+0x10033BB0], ah ; xor eax, eax ; ret  ;  (1 found)
0x10018988: inc ecx ; call dword [0x10011058] ;  (1 found)
0x100189b9: inc ecx ; call dword [0x10011094] ;  (1 found)
0x10013a50: inc ecx ; cld  ; ret  ;  (1 found)
0x10013a60: inc ecx ; cld  ; ret  ;  (1 found)
0x10021f96: inc ecx ; cld  ; ret  ;  (1 found)
0x10021fa6: inc ecx ; cld  ; ret  ;  (1 found)
0x10023058: inc ecx ; cld  ; ret  ;  (1 found)
0x1001802d: inc ecx ; mov edx, eax ; movzx eax, byte [ecx] ; add eax, edx ; ret  ;  (1 found)
0x10016a87: inc ecx ; or byte [eax], al ; add byte [eax], al ; add byte [ebx-0x1A7403BB], cl ; pop ebp ; ret  ;  (1 found)
0x1001668b: inc edi ; add byte [0xE8000000], cl ; xchg byte [ebx-0x0F740001], bh ; call dword [0x10011058] ;  (1 found)
0x100160ae: inc edi ; add byte [eax], al ; add byte [eax], al ; add byte [eax-0x00000001], bh ; pop esi ; ret  ;  (1 found)
0x100160e9: inc edi ; add byte [eax], al ; add byte [eax], al ; add byte [eax-0x00000001], bh ; ret  ;  (1 found)
0x100153d1: inc edi ; add byte [esi], dl ; add byte [eax], al ; add byte [eax-0x00000001], bh ; ret  ;  (1 found)
0x1001983a: inc edi ; add byte [esi], dl ; add byte [eax], al ; add byte [eax-0x00000001], bh ; ret  ;  (1 found)
0x1001d392: inc edi ; add cl, byte [ebx+0x5F5E0845] ; leave  ; ret  ;  (1 found)
0x1001d4e2: inc edi ; add cl, byte [ebx+0x5F5E0845] ; leave  ; ret  ;  (1 found)
0x1001bbe6: inc edi ; dec dword [ebx-0x50F0EBB3] ; enter 0xCE03, 0x51 ; mov dword [ebp-0x04], ecx ; push dword [ebp+0x08] ; call dword [ebp+0x18] ;  (1 found)
0x1001a2bd: inc edi ; or al, 0x33 ; rcr byte [edi+0x5E], 0x0000005B ; mov esp, ebp ; pop ebp ; ret  ;  (1 found)
0x100125b9: inc edx ; add al, 0x2B ; rol dword [ebx-0x3FE4FE08], 0x23 ; retn 0xE8C3 ;  (1 found)
0x10025dbe: inc edx ; or al, 0x8B ; retn 0x5B5E ;  (1 found)
0x100190df: inc edx ; test dword [eax], eax ; add byte [ebx-0x3974FB3C], al ; pop esi ; ret  ;  (1 found)
0x10015621: inc esi ; add al, 0x00 ; add byte [eax], al ; add byte [edi+0x5E], bl ; pop ebx ; ret  ;  (1 found)
0x100225b7: inc esi ; add al, 0x00 ; add byte [eax], al ; add byte [esi+0x5B], bl ; ret  ;  (1 found)
0x10023082: inc esi ; add al, 0x5E ; ret  ;  (1 found)
0x10012cdb: inc esi ; add al, 0x83 ; clc  ; push dword [edi+eax+0x50] ; call dword [0x10011094] ;  (1 found)
0x1001d38f: inc esi ; add cl, byte [eax+0x458B0247] ; or byte [esi+0x5F], bl ; leave  ; ret  ;  (1 found)
0x1001d4df: inc esi ; add cl, byte [eax+0x458B0247] ; or byte [esi+0x5F], bl ; leave  ; ret  ;  (1 found)
0x1001d429: inc esi ; add dword [eax-0x7403FEB9], ecx ; inc ebp ; or byte [esi+0x5F], bl ; leave  ; ret  ;  (1 found)
0x1001d579: inc esi ; add dword [eax-0x7403FEB9], ecx ; inc ebp ; or byte [esi+0x5F], bl ; leave  ; ret  ;  (1 found)
0x1001d449: inc esi ; add ecx, dword [eax-0x7403FCB9] ; inc ebp ; or byte [esi+0x5F], bl ; leave  ; ret  ;  (1 found)
0x1001d599: inc esi ; add ecx, dword [eax-0x7403FCB9] ; inc ebp ; or byte [esi+0x5F], bl ; leave  ; ret  ;  (1 found)
0x100245e8: inc esi ; fstenv  [ebp+0x03] ; lea eax, dword [esi-0x07] ; pop esi ; ret  ;  (1 found)
0x100181a6: inc esi ; jmp dword [eax] ;  (1 found)
0x10018322: inc esi ; jmp dword [eax] ;  (1 found)
0x10017787: inc esi ; mov eax, esi ; pop esi ; ret  ;  (1 found)
0x1002307b: inc esi ; or byte [eax-0x7608F39A], al ; inc esi ; add al, 0x5E ; ret  ;  (1 found)
0x100159ae: inc esi ; push es ; lea eax, dword [ebp-0x10] ; push eax ; call dword [0x100110E8] ;  (1 found)
0x100143b1: inc esi ; stc  ; pop esi ; ret  ;  (1 found)
0x100245ed: inc esi ; stc  ; pop esi ; ret  ;  (1 found)
0x10023c91: inc esi ; stc  ; pop esi ; ret  ;  (1 found)
0x10011d04: inc esp ; adc byte [ecx], al ; adc byte [ebx+0x10033ECC], ah ; call dword [0x10011040] ;  (1 found)
0x1001d1dc: inc esp ; add byte [eax], al ; add esp, 0x04 ; mov eax, esi ; pop esi ; ret  ;  (1 found)
0x1002ac63: inc esp ; and al, 0x00 ; add esp, 0x08 ; ret  ;  (1 found)
0x1002abb4: inc esp ; and al, 0x02 ; add esp, 0x04 ; ret  ;  (1 found)
0x1002abc6: inc esp ; and al, 0x02 ; add esp, 0x04 ; ret  ;  (1 found)
0x1001ac47: inc esp ; and al, 0x04 ; add eax, 0x20 ; ret  ;  (1 found)
0x1001a7b2: inc esp ; and al, 0x04 ; add eax, dword [esp+0x08] ; ret  ;  (1 found)
0x1001bcea: inc esp ; and al, 0x04 ; add eax, ecx ; add esp, 0x0C ; ret  ;  (1 found)
0x100127fc: inc esp ; and al, 0x04 ; and eax, 0x7F ; ret  ;  (1 found)
0x1001b9a3: inc esp ; and al, 0x04 ; cdq  ; xor eax, edx ; sub eax, edx ; ret  ;  (1 found)
0x1001cd1b: inc esp ; and al, 0x04 ; cdq  ; xor eax, edx ; sub eax, edx ; ret  ;  (1 found)
0x1001a70c: inc esp ; and al, 0x04 ; inc eax ; ret  ;  (1 found)
0x1001be11: inc esp ; and al, 0x04 ; mov eax, dword [eax+0x0C] ; and eax, 0x10 ; ret  ;  (1 found)
0x1001be1c: inc esp ; and al, 0x04 ; mov eax, dword [eax+0x0C] ; and eax, 0x20 ; ret  ;  (1 found)
0x100151bc: inc esp ; and al, 0x04 ; mov eax, dword [eax+0x10] ; ret  ;  (1 found)
0x10017c9f: inc esp ; and al, 0x04 ; ret  ;  (1 found)
0x10020474: inc esp ; and al, 0x04 ; sar eax, 1  ; dec eax ; ret  ;  (1 found)
0x1001adf3: inc esp ; and al, 0x04 ; sub eax, 0x20 ; ret  ;  (1 found)
0x1001a47f: inc esp ; and al, 0x08 ; dec eax ; ret  ;  (1 found)
0x10021627: inc esp ; and al, 0x08 ; mov ebp, esp ; push dword [0x1002FA40+eax*4] ; call dword [0x100111A8] ;  (1 found)
0x10012a5b: inc esp ; and al, 0x08 ; mov edx, dword [esp+0x10] ; mov dword [edx], eax ; mov eax, 0x00000003 ; ret  ;  (1 found)
0x100202f5: inc esp ; and al, 0x08 ; pop esi ; ret  ;  (1 found)
0x1001a7b6: inc esp ; and al, 0x08 ; ret  ;  (1 found)
0x10012e07: inc esp ; and al, 0x0C ; push eax ; push 0x00000000 ; call dword [0x100110A4] ;  (1 found)
0x1002175c: inc esp ; inc dword [edx] ; adc byte [ebx+0x0774FFF8], al ; push eax ; call dword [0x10011094] ;  (1 found)
0x10012d5d: inc esp ; inc dword [edx] ; adc byte [edx+0x53], dl ; push eax ; call dword [0x1001109C] ;  (1 found)
0x10021341: inc esp ; mov cl, 0xFF ; jmp dword [ebx+0x1002E0C4] ;  (1 found)
0x10012fdd: inc esp ; out 0x00, al ; add byte [ebx-0x3974FB3C], al ; pop edi ; pop esi ; ret  ;  (1 found)
0x10029351: inc esp ; sldt word [eax] ; mov esp, ebp ; pop ebp ; ret  ;  (1 found)
0x10015076: insd  ; add byte [eax], al ; add esp, 0x04 ; ret  ;  (1 found)
0x1002abf1: insd  ; cld  ; movsx eax, word [ebp-0x02] ; mov esp, ebp ; pop ebp ; ret  ;  (1 found)
0x10028c3d: insd  ; dec byte [ebx+0x558BF445] ; clc  ; leave  ; ret  ;  (1 found)
0x10027ef9: insd  ; dec byte [ebx-0x1A74A13A] ; pop ebp ; ret  ;  (1 found)
0x10029cd8: insd  ; imul bl ; add ebx, ebp ; inc ebp ; or byte [ebx-0x37], bl ; ret  ;  (1 found)
0x10022744: int 0x80 ;  (1 found)
0x10011df4: int1  ; add dl, byte [eax] ; mov ecx, dword [esp+0x04] ; mov dword [0x1002F124], ecx ; ret  ;  (1 found)
0x10011dfe: int1  ; add dl, byte [eax] ; ret  ;  (1 found)
0x1001cd5d: int1  ; add dl, byte [eax] ; ret  ;  (1 found)
0x10017e61: int1  ; pop ebp ; pop edi ; pop esi ; pop ebx ; ret  ;  (1 found)
0x1001a939: int1  ; pop esi ; pop ebx ; pop ebp ; ret  ;  (1 found)
0x10029d60: int1  ; ret  ;  (1 found)
0x10029e0a: int1  ; ret  ;  (1 found)
0x10029e9e: int1  ; ret  ;  (1 found)
0x10029ec2: int1  ; ret  ;  (1 found)
0x1001dc0a: int3  ; adc byte [ecx], al ; adc byte [ebp-0x3D], bl ; push dword [esp+0x08] ; push dword [esp+0x08] ; call dword [0x1001118C] ;  (1 found)
0x10011d09: int3  ; add edx, dword [eax] ; call dword [0x10011040] ;  (1 found)
0x100257d0: int3  ; xor ax, ax ; pop edi ; pop esi ; pop ebx ; ret  ;  (1 found)
0x1002577f: int3  ; xor ax, ax ; pop edi ; pop esi ; pop ebx ; ret  ;  (1 found)
0x10020622: int3  ; xor eax, eax ; pop esi ; ret  ;  (1 found)
0x100169bc: into  ; imul eax, dword [ecx], 0x1C15FF10 ; adc dword [ecx], eax ; adc byte [eax-0x01], dl ; adc eax, 0x10011120 ; ret  ;  (1 found)
0x100215a1: into  ; mov eax, dword [0x1002FA64] ; push eax ; call esi ;  (1 found)
0x1001bbef: into  ; push ecx ; mov dword [ebp-0x04], ecx ; push dword [ebp+0x08] ; call dword [ebp+0x18] ;  (1 found)
0x1001847f: into  ; xor eax, eax ; pop edi ; pop esi ; pop ebx ; ret  ;  (1 found)
0x10028188: jmp dword [0x0001FFE0] ;  (1 found)
0x100171ab: jmp dword [0x10011058] ;  (1 found)
0x10012a1a: jmp dword [0x10011060] ;  (1 found)
0x10012a20: jmp dword [0x10011074] ;  (1 found)
0x1002afa2: jmp dword [0x10011078] ;  (1 found)
0x1001676b: jmp dword [0x1001110C] ;  (1 found)
0x10016771: jmp dword [0x10011110] ;  (1 found)
0x100132dc: jmp dword [0x10013938+eax*4] ;  (1 found)
0x1001347c: jmp dword [0x10013958+ecx*4] ;  (1 found)
0x10013cc4: jmp dword [0x1001432F+ecx*4] ;  (1 found)
0x1001d3d6: jmp dword [0x1001D378+eax*4] ;  (1 found)
0x1001d370: jmp dword [0x1001D378+edx*4] ;  (1 found)
0x1001d47c: jmp dword [0x1001D410+eax*4] ;  (1 found)
0x1001d409: jmp dword [0x1001D410+edx*4] ;  (1 found)
0x1001d526: jmp dword [0x1001D4C8+eax*4] ;  (1 found)
0x1001d4c0: jmp dword [0x1001D4C8+edx*4] ;  (1 found)
0x1001d5cc: jmp dword [0x1001D560+eax*4] ;  (1 found)
0x1001d559: jmp dword [0x1001D560+edx*4] ;  (1 found)
0x1001e9eb: jmp dword [0x1001ED83+ecx*4] ;  (1 found)
0x100217e2: jmp dword [0x10021E56+eax*4] ;  (1 found)
0x10021988: jmp dword [0x10021E76+ecx*4] ;  (1 found)
0x100228c1: jmp dword [0x10022F2D+eax*4] ;  (1 found)
0x10022a2a: jmp dword [0x10022F4D+ecx*4] ;  (1 found)
0x100234f5: jmp dword [0x10023C0F+ecx*4] ;  (1 found)
0x10023eaf: jmp dword [0x10024577+ecx*4] ;  (1 found)
0x10026bb9: jmp dword [0x1002718E+eax*4] ;  (1 found)
0x1002875f: jmp dword [0x100288B5+eax*4] ;  (1 found)
0x10028960: jmp dword [0x10028A46+ecx*4] ;  (1 found)
0x100281c8: jmp dword [0x8589010C+edi*8] ;  (1 found)
0x100187d9: jmp dword [eax+eax*4] ;  (1 found)
0x1002ba48: jmp dword [eax+eax+0x00] ;  (1 found)
0x10017d69: jmp dword [eax-0x7E] ;  (1 found)
0x1001808d: jmp dword [eax-0x7E] ;  (1 found)
0x100181a7: jmp dword [eax] ;  (1 found)
0x10018323: jmp dword [eax] ;  (1 found)
0x100241ce: jmp dword [eax] ;  (1 found)
0x10029c32: jmp dword [ebp+0x0C7B80A5] ;  (1 found)
0x10011c9e: jmp dword [ebp-0x725B5A9A] ;  (1 found)
0x100226bd: jmp dword [ebx+0x0F] ;  (1 found)
0x10021344: jmp dword [ebx+0x1002E0C4] ;  (1 found)
0x1001e2c4: jmp dword [ebx+0x1002F1E8] ;  (1 found)
0x1001f124: jmp dword [ebx+ebp*8+0x67] ;  (1 found)
0x1002820c: jmp dword [ebx+ebp*8] ;  (1 found)
0x1001a870: jmp dword [ebx] ;  (1 found)
0x1001f568: jmp dword [ebx] ;  (1 found)
0x100207f4: jmp dword [ebx] ;  (1 found)
0x10028247: jmp dword [ebx] ;  (1 found)
0x100282c9: jmp dword [ebx] ;  (1 found)
0x1002a069: jmp dword [ebx] ;  (1 found)
0x1002a0f5: jmp dword [ebx] ;  (1 found)
0x10014fc8: jmp dword [ecx+0x1002E178] ;  (1 found)
0x1001d7e9: jmp dword [ecx+0x1002E3B4] ;  (1 found)
0x1001e197: jmp dword [ecx+0x1002F19C] ;  (1 found)
0x1001a695: jmp dword [ecx+0x1002FF7C] ;  (1 found)
0x1001e7d1: jmp dword [ecx+0x1002FF7C] ;  (1 found)
0x1001a67e: jmp dword [ecx+0x1002FF90] ;  (1 found)
0x1001e7ba: jmp dword [ecx+0x1002FF90] ;  (1 found)
0x10012064: jmp dword [ecx+0x10033EC8] ;  (1 found)
0x1001f12a: jmp dword [ecx-0x15] ;  (1 found)
0x1002821e: jmp dword [edi] ;  (1 found)
0x1001cf53: jmp dword [edx+0x14] ;  (1 found)
0x100226b8: jmp dword [edx+0x74] ;  (1 found)
0x1001f0f7: jmp dword [edx-0x17] ;  (1 found)
0x10029ba5: jmp dword [esi+0x25] ;  (1 found)
0x10027164: jmp dword [esi+0x33] ;  (1 found)
0x1002710e: jmp dword [esi+0x33] ;  (1 found)
0x1002712e: jmp dword [esi+0x33] ;  (1 found)
0x10024283: jmp dword [esi+0x39] ;  (1 found)
0x1002424b: jmp dword [esi+0x3B] ;  (1 found)
0x100281da: jmp dword [esi+edi*8] ;  (1 found)
0x10027374: jmp dword [esi-0x01] ;  (1 found)
0x1001cf91: jmp dword [esi-0x75] ;  (1 found)
0x10024628: jmp dword [esi-0x75] ;  (1 found)
0x100242e1: jmp dword [esi-0x75] ;  (1 found)
0x10026942: jmp dword [esi-0x75] ;  (1 found)
0x10023913: jmp dword [esi-0x75] ;  (1 found)
0x100254f9: jmp dword [esi-0x77] ;  (1 found)
0x10024279: jmp dword [esi-0x7D] ;  (1 found)
0x10029b7b: jmp dword [esi-0x7D] ;  (1 found)
0x10025c27: jmp eax ;  (1 found)
0x10028230: jmp ebx ;  (1 found)
0x10014546: lahf  ; sal bl, 0x00000002 ; adc bl, ch ; sbb ebp, eax ; retn 0xFFDC ;  (1 found)
0x1001c0be: lds ebx,  [ebp+0x5F] ; pop esi ; pop ebx ; ret  ;  (1 found)
0x1001ba7f: lds ebx,  [ebp+0x5F] ; pop esi ; pop ebx ; ret  ;  (1 found)
0x1001c7e4: lds ebx,  [ebp+0x5F] ; pop esi ; pop ebx ; ret  ;  (1 found)
0x100200e8: lds ebx,  [ebp+0x5F] ; pop esi ; pop ebx ; ret  ;  (1 found)
0x1002013f: lds ebx,  [ebp+0x5F] ; pop esi ; pop ebx ; ret  ;  (1 found)
0x10027601: lds ebx,  [edi+0x5E] ; pop ebx ; mov esp, ebp ; pop ebp ; ret  ;  (1 found)
0x1002a62a: lea eax, dword [0x4D8D0000] ; or byte [ecx+0x6A], dl ; add dword [edx+0x00], ebp ; push edi ; call dword [0x100111C4] ;  (1 found)
0x10019242: lea eax, dword [eax+0x01] ; and ecx, eax ; push ecx ; push ebx ; call dword [0x10011158] ;  (1 found)
0x1002559e: lea eax, dword [ebp-0x00000088] ; movzx ecx, word [ebp-0x06] ; push eax ; push 0x0000000B ; push ecx ; call dword [0x100111B4] ;  (1 found)
0x100255f1: lea eax, dword [ebp-0x00000088] ; movzx ecx, word [ebp-0x06] ; push eax ; push 0x0000000B ; push ecx ; call dword [0x100111B4] ;  (1 found)
0x10025645: lea eax, dword [ebp-0x00000088] ; movzx ecx, word [ebp-0x06] ; push eax ; push 0x0000000B ; push ecx ; call dword [0x100111B4] ;  (1 found)
0x10025696: lea eax, dword [ebp-0x00000088] ; movzx ecx, word [ebp-0x08] ; push eax ; push 0x00001001 ; push ecx ; call dword [0x100111B4] ;  (1 found)
0x100284a3: lea eax, dword [ebp-0x00000094] ; and byte [ebp-0x44], 0xFFFFFFFE ; push eax ; call dword [ebp+0x10] ;  (1 found)
0x10028641: lea eax, dword [ebp-0x00000094] ; push eax ; call dword [ebp+0x10] ;  (1 found)
0x10028584: lea eax, dword [ebp-0x00000094] ; push eax ; call dword [ebp+0x10] ;  (1 found)
0x1001b014: lea eax, dword [ebp-0x000000AC] ; push eax ; call dword [0x10011178] ;  (1 found)
0x10011ca3: lea eax, dword [ebp-0x00000104] ; push eax ; call dword [0x10011048] ;  (1 found)
0x10011c7a: lea eax, dword [ebp-0x00000104] ; push eax ; inc dword [0x1002E000] ; push dword [ebp+0x08] ; call dword [0x1001104C] ;  (1 found)
0x100166c0: lea eax, dword [ebp-0x00000108] ; push eax ; push 0x00000104 ; call dword [0x100110A4] ;  (1 found)
0x100152cb: lea eax, dword [ebp-0x00000140] ; push esi ; push edi ; push eax ; push dword [ebp+0x08] ; call dword [0x100110D4] ;  (1 found)
0x100151cd: lea eax, dword [ebp-0x00000144] ; push esi ; push edi ; push eax ; push dword [ebp+0x08] ; call dword [0x100110D0] ;  (1 found)
0x1001a0e0: lea eax, dword [ebp-0x00000154] ; push eax ; push esi ; call dword [0x100110D0] ;  (1 found)
0x100137a1: lea eax, dword [ebp-0x00000248] ; push eax ; call dword [0x1002FF5C] ;  (1 found)
0x10021cad: lea eax, dword [ebp-0x00000248] ; push eax ; call dword [0x1002FF5C] ;  (1 found)
0x10013787: lea eax, dword [ebp-0x00000248] ; push eax ; call dword [0x1002FF64] ;  (1 found)
0x10021c93: lea eax, dword [ebp-0x00000248] ; push eax ; call dword [0x1002FF64] ;  (1 found)
0x10022d4c: lea eax, dword [ebp-0x0000044C] ; push eax ; call dword [0x1002FF5C] ;  (1 found)
0x10022d32: lea eax, dword [ebp-0x0000044C] ; push eax ; call dword [0x1002FF64] ;  (1 found)
0x100165f9: lea eax, dword [ebp-0x01] ; push eax ; push 0x00000001 ; call dword [0x100110A4] ;  (1 found)
0x10014614: lea eax, dword [ebp-0x04] ; push 0x00000001 ; push 0x00000000 ; push eax ; call dword [0x100110C8] ;  (1 found)
0x10016714: lea eax, dword [ebp-0x04] ; push eax ; call dword [0x1001103C] ;  (1 found)
0x1001620c: lea eax, dword [ebp-0x04] ; push eax ; push dword [0x1002FF44] ; call dword [0x100110A0] ;  (1 found)
0x100143fd: lea eax, dword [ebp-0x04] ; push eax ; push esi ; call dword [0x100110BC] ;  (1 found)
0x10018f52: lea eax, dword [ebp-0x08] ; push eax ; call dword [0x10011154] ;  (1 found)
0x10012d35: lea eax, dword [ebp-0x08] ; push eax ; push dword [0x1002FF44] ; call dword [0x100110A0] ;  (1 found)
0x10016305: lea eax, dword [ebp-0x08] ; push eax ; push dword [0x1002FF44] ; call dword [0x10011100] ;  (1 found)
0x10025d18: lea eax, dword [ebp-0x08] ; push eax ; push dword [ebp+0x10] ; push dword [ebp+0x0C] ; call dword [0x100111B4] ;  (1 found)
0x100224ab: lea eax, dword [ebp-0x08] ; push eax ; push dword [ebp-0x20] ; call dword [0x100110BC] ;  (1 found)
0x1001a1a2: lea eax, dword [ebp-0x10] ; lea ecx, dword [ebp-0x00000140] ; push eax ; push ecx ; call dword [0x100110DC] ;  (1 found)
0x1001a1f1: lea eax, dword [ebp-0x10] ; lea ecx, dword [ebp-0x00000148] ; push eax ; push ecx ; call dword [0x100110DC] ;  (1 found)
0x1001a242: lea eax, dword [ebp-0x10] ; lea ecx, dword [ebp-0x00000150] ; push eax ; push ecx ; call dword [0x100110DC] ;  (1 found)
0x100158a6: lea eax, dword [ebp-0x10] ; lea ecx, dword [ebp-0x30] ; push eax ; push ecx ; call dword [0x100110DC] ;  (1 found)
0x100158e9: lea eax, dword [ebp-0x10] ; lea ecx, dword [ebp-0x38] ; push eax ; push ecx ; call dword [0x100110DC] ;  (1 found)
0x10015931: lea eax, dword [ebp-0x10] ; lea ecx, dword [ebp-0x40] ; push eax ; push ecx ; call dword [0x100110DC] ;  (1 found)
0x10016819: lea eax, dword [ebp-0x10] ; mov word [ebp-0x04], cx ; push eax ; mov word [ebp-0x02], dx ; call dword [0x10011114] ;  (1 found)
0x100159b0: lea eax, dword [ebp-0x10] ; push eax ; call dword [0x100110E8] ;  (1 found)
0x1001677d: lea eax, dword [ebp-0x10] ; push eax ; call dword [0x100110E8] ;  (1 found)
0x1001fa46: lea eax, dword [ebp-0x10] ; push eax ; call dword [0x10011190] ;  (1 found)
0x1001a3f9: lea eax, dword [ebp-0x14] ; push esi ; push edi ; mov bx, 0x0064 ; push eax ; call dword [0x100110E8] ;  (1 found)
0x10016a44: lea eax, dword [ebp-0x20] ; push eax ; call dword [0x1001111C] ;  (1 found)
0x10016a19: lea eax, dword [ebp-0x20] ; push eax ; call dword [0x1001111C] ;  (1 found)
0x1002526a: lea eax, dword [ebp-0x20] ; push eax ; push dword [0x1002FF90] ; call dword [0x100111B0] ;  (1 found)
0x1001693e: lea eax, dword [ebp-0x38] ; push eax ; call dword [0x1001111C] ;  (1 found)
0x100213d8: lea eax, dword [ebp-0x48] ; push esi ; push edi ; push eax ; call dword [0x10011198] ;  (1 found)
0x1001baa5: lea eax, dword [ecx+0x01] ; pop esi ; mov byte [ecx], dl ; ret  ;  (1 found)
0x100252ef: lea eax, dword [edi+0x02] ; push eax ; push 0x00000100 ; push dword [ebp-0x04] ; push 0x00000001 ; call dword [0x10011130] ;  (1 found)
0x1001d31a: lea eax, dword [edi-0x01] ; pop edi ; leave  ; ret  ;  (1 found)
0x100179b0: lea eax, dword [edx-0x01] ; ret  ;  (1 found)
0x1002145d: lea eax, dword [esi-0x01] ; cmp eax, 0x01 ; mov eax, 0xFFFFFFF5 ; adc eax, 0xFFFFFFFF ; push eax ; call dword [0x10011194] ;  (1 found)
0x1001b4ba: lea eax, dword [esi-0x02] ; pop esi ; pop ebp ; ret  ;  (1 found)
0x100203cf: lea eax, dword [esi-0x02] ; pop esi ; pop ebp ; ret  ;  (1 found)
0x100143b0: lea eax, dword [esi-0x07] ; pop esi ; ret  ;  (1 found)
0x100245ec: lea eax, dword [esi-0x07] ; pop esi ; ret  ;  (1 found)
0x10023c90: lea eax, dword [esi-0x07] ; pop esi ; ret  ;  (1 found)
0x10012e9f: lea eax, dword [esp+0x00] ; push esi ; xor esi, esi ; push eax ; push 0x00000104 ; call dword [0x100110A4] ;  (1 found)
0x10012e06: lea eax, dword [esp+0x0C] ; push eax ; push 0x00000000 ; call dword [0x100110A4] ;  (1 found)
0x100144d9: lea eax, dword [esp+0x10] ; push 0x00000002 ; push 0x00000001 ; push 0x00000000 ; push eax ; call dword [0x100110C8] ;  (1 found)
0x10021684: lea ebp, dword [ebx+0x10] ; call dword [edi+ecx*4+0x04] ;  (1 found)
0x10012f04: lea ebx, dword [ebp-0x04] ; push ebx ; call dword [0x100110A8] ;  (1 found)
0x10021479: lea ebx, dword [esi+0x1002F3C0] ; push eax ; mov byte [ebx], 0xFFFFFF81 ; call dword [0x100110E4] ;  (1 found)
0x1001fda1: lea ecx, dword [ebp+0x08] ; push 0x00000001 ; push ecx ; push 0x00000100 ; push dword [0x1002FF80] ; call dword [0x10011174] ;  (1 found)
0x1001fe5b: lea ecx, dword [ebp+0x08] ; push 0x00000001 ; push ecx ; push 0x00000200 ; push dword [0x1002FF80] ; call dword [0x10011174] ;  (1 found)
0x1001cbfc: lea ecx, dword [ebp+0x08] ; push eax ; push 0x00000001 ; push ecx ; push 0x00000001 ; call dword [0x10011130] ;  (1 found)
0x1002a62e: lea ecx, dword [ebp+0x08] ; push ecx ; push 0x00000001 ; push 0x00000000 ; push edi ; call dword [0x100111C4] ;  (1 found)
0x1001a1a4: lea ecx, dword [ebp-0x00000140] ; push eax ; push ecx ; call dword [0x100110DC] ;  (1 found)
0x1001a1a5: lea ecx, dword [ebp-0x00000140] ; push eax ; push ecx ; call dword [0x100110DC] ;  (1 found)
0x1001a1f4: lea ecx, dword [ebp-0x00000148] ; push eax ; push ecx ; call dword [0x100110DC] ;  (1 found)
0x1001a1f3: lea ecx, dword [ebp-0x00000148] ; push eax ; push ecx ; call dword [0x100110DC] ;  (1 found)
0x1001a244: lea ecx, dword [ebp-0x00000150] ; push eax ; push ecx ; call dword [0x100110DC] ;  (1 found)
0x1001a245: lea ecx, dword [ebp-0x00000150] ; push eax ; push ecx ; call dword [0x100110DC] ;  (1 found)
0x1001aeed: lea ecx, dword [ebp-0x04] ; push 0xFFFFFFFF ; push ecx ; push 0x00000001 ; push dword [0x1002FF90] ; call dword [0x10011134] ;  (1 found)
0x1001ad41: lea ecx, dword [ebp-0x04] ; push 0xFFFFFFFF ; push ecx ; push 0x00000001 ; push dword [0x1002FF90] ; call dword [0x10011134] ;  (1 found)
0x10016b22: lea ecx, dword [ebp-0x08] ; push 0xFFFFFFFF ; push ecx ; push 0x00000001 ; push dword [0x1002FF90] ; call dword [0x10011134] ;  (1 found)
0x10016b4b: lea ecx, dword [ebp-0x0C] ; push eax ; push 0x00000002 ; push ecx ; push 0x00000001 ; call dword [0x10011130] ;  (1 found)
0x10015e7a: lea ecx, dword [ebp-0x10] ; mov eax, dword [eax] ; push ecx ; mov word [ebp-0x02], 0x0000 ; mov word [ebp-0x04], ax ; call dword [0x100110F0] ;  (1 found)
0x100153fa: lea ecx, dword [ebp-0x10] ; push ecx ; push eax ; call dword [0x100110DC] ;  (1 found)
0x1001622d: lea ecx, dword [ebp-0x1C] ; push eax ; push 0x00000001 ; push ecx ; push dword [0x1002FF44] ; call dword [0x100110F8] ;  (1 found)
0x100158a8: lea ecx, dword [ebp-0x30] ; push eax ; push ecx ; call dword [0x100110DC] ;  (1 found)
0x100158a9: lea ecx, dword [ebp-0x30] ; push eax ; push ecx ; call dword [0x100110DC] ;  (1 found)
0x100158ec: lea ecx, dword [ebp-0x38] ; push eax ; push ecx ; call dword [0x100110DC] ;  (1 found)
0x100158eb: lea ecx, dword [ebp-0x38] ; push eax ; push ecx ; call dword [0x100110DC] ;  (1 found)
0x10015933: lea ecx, dword [ebp-0x40] ; push eax ; push ecx ; call dword [0x100110DC] ;  (1 found)
0x10015934: lea ecx, dword [ebp-0x40] ; push eax ; push ecx ; call dword [0x100110DC] ;  (1 found)
0x10022a80: lea ecx, dword [ebx] ; add eax, dword [eax] ; add byte [ecx+0x03E9C875], cl ; add eax, dword [eax] ; add byte [esi-0x7D], ah ; ret  ;  (1 found)
0x1001488b: lea ecx, dword [esi+esi*2] ; mov eax, dword [edi+ecx*4] ; mov dword [ebx+0x0C], eax ; call dword [edi+ecx*4+0x08] ;  (1 found)
0x100216af: lea ecx, dword [esi+esi*2] ; mov eax, dword [edi+ecx*4] ; mov dword [ebx+0x0C], eax ; call dword [edi+ecx*4+0x08] ;  (1 found)
0x1001a1f5: lea edi, dword [eax+0x50FFFFFE] ; push ecx ; call dword [0x100110DC] ;  (1 found)
0x1001753f: lea edi, dword [edx] ; in eax, dx ; add dl, byte [eax] ; pop esi ; ret  ;  (1 found)
0x100190a3: lea edx, dword [ebp-0x01] ; push 0x00000001 ; push edx ; push ecx ; call dword [0x100110B8] ;  (1 found)
0x1001ad70: lea edx, dword [ebp-0x0C] ; push eax ; push edx ; push 0x00000100 ; push dword [0x1002FF80] ; call dword [0x10011174] ;  (1 found)
0x1001af1c: lea edx, dword [ebp-0x0C] ; push eax ; push edx ; push 0x00000200 ; push dword [0x1002FF80] ; call dword [0x10011174] ;  (1 found)
0x10015e25: lea edx, dword [ebp-0x10] ; mov eax, dword [eax] ; push edx ; mov word [ebp-0x02], 0x0000 ; mov word [ebp-0x04], ax ; call dword [0x100110F0] ;  (1 found)
0x1001a246: lea esi, dword [eax+0x50FFFFFE] ; push ecx ; call dword [0x100110DC] ;  (1 found)
0x10012ecb: lea esi, dword [eax-0x40] ; mov eax, esi ; pop esi ; add esp, 0x00000104 ; ret  ;  (1 found)
0x10012e2b: lea esi, dword [edi+0x04] ; push esi ; push ebx ; call dword [0x100110A4] ;  (1 found)
0x10027da7: lea esp, dword [eax+eax] ; add byte [ebx-0x74A1E73C], al ; in eax, 0x5D ; ret  ;  (1 found)
0x10028718: leave  ; add al, 0xF6 ; test dword [edi+edi*8-0x01], esi ; call dword [eax] ;  (1 found)
0x10029e08: leave  ; fdivrp st1, st0 ; ret  ;  (1 found)
0x1002a0fd: leave  ; fstp st0 ; ret  ;  (1 found)
0x10018b50: leave  ; or byte [ebp+0x6851E045], 0x00000000 ; add al, 0x00 ; add byte [eax-0x18], dl ; retn 0x0003 ;  (1 found)
0x10012df1: leave  ; out 0x00, eax ; add byte [ebx+0x74FF04C4], al ; and al, 0x14 ; call dword [0x100110A8] ;  (1 found)
0x10017833: leave  ; ret  ;  (1 found)
0x100179d8: leave  ; ret  ;  (1 found)
0x10018619: leave  ; ret  ;  (1 found)
0x10018663: leave  ; ret  ;  (1 found)
0x1001a3f0: leave  ; ret  ;  (1 found)
0x1001a4a8: leave  ; ret  ;  (1 found)
0x1001a733: leave  ; ret  ;  (1 found)
0x1001a7af: leave  ; ret  ;  (1 found)
0x1001a7e3: leave  ; ret  ;  (1 found)
0x1001a816: leave  ; ret  ;  (1 found)
0x1001a836: leave  ; ret  ;  (1 found)
0x1001a913: leave  ; ret  ;  (1 found)
0x1001d31e: leave  ; ret  ;  (1 found)
0x1001d33d: leave  ; ret  ;  (1 found)
0x1001d399: leave  ; ret  ;  (1 found)
0x1001d3a7: leave  ; ret  ;  (1 found)
0x1001d3b5: leave  ; ret  ;  (1 found)
0x1001d3e7: leave  ; ret  ;  (1 found)
0x1001d446: leave  ; ret  ;  (1 found)
0x1001d454: leave  ; ret  ;  (1 found)
0x1001d434: leave  ; ret  ;  (1 found)
0x1001d48c: leave  ; ret  ;  (1 found)
0x1001d4f7: leave  ; ret  ;  (1 found)
0x1001d4e9: leave  ; ret  ;  (1 found)
0x1001d505: leave  ; ret  ;  (1 found)
0x1001d537: leave  ; ret  ;  (1 found)
0x1001d596: leave  ; ret  ;  (1 found)
0x1001d5a4: leave  ; ret  ;  (1 found)
0x1001d584: leave  ; ret  ;  (1 found)
0x1001d5dc: leave  ; ret  ;  (1 found)
0x1001d620: leave  ; ret  ;  (1 found)
0x1001e697: leave  ; ret  ;  (1 found)
0x1001e6bf: leave  ; ret  ;  (1 found)
0x1001e6e5: leave  ; ret  ;  (1 found)
0x1001e880: leave  ; ret  ;  (1 found)
0x1001f214: leave  ; ret  ;  (1 found)
0x1001f282: leave  ; ret  ;  (1 found)
0x1001f247: leave  ; ret  ;  (1 found)
0x1001f2a6: leave  ; ret  ;  (1 found)
0x1001f2e4: leave  ; ret  ;  (1 found)
0x1001f3a8: leave  ; ret  ;  (1 found)
0x1001f348: leave  ; ret  ;  (1 found)
0x1001f30d: leave  ; ret  ;  (1 found)
0x10028c45: leave  ; ret  ;  (1 found)
0x10029aa5: leave  ; ret  ;  (1 found)
0x10029ae9: leave  ; ret  ;  (1 found)
0x10029b39: leave  ; ret  ;  (1 found)
0x10029ce0: leave  ; ret  ;  (1 found)
0x10029ca4: leave  ; ret  ;  (1 found)
0x1002a1c5: leave  ; ret  ;  (1 found)
0x1001a3a7: leave  ; shr eax, cl ; and eax, 0x01 ; ret  ;  (1 found)
0x100203cd: les eax,  [0x5D5EFE46+ecx*4] ; ret  ;  (1 found)
0x10024636: les eax,  [0x66E275C0+eax*4] ; mov eax, esi ; pop edi ; pop esi ; ret  ;  (1 found)
0x10012ec9: les eax,  [0xC68BC070+ecx*4] ; pop esi ; add esp, 0x00000104 ; ret  ;  (1 found)
0x100284e0: les eax,  [0xCB840FC0+eax*4] ; add byte [eax], al ; add byte [edi-0x73], dl ; test dword [edi+edi*8-0x01], edi ; call dword [ebx+0x50] ;  (1 found)
0x10011dc7: les eax,  [eax+ebp*2] ; inc dword [eax] ; add byte [eax], al ; call dword [0x1002E004] ;  (1 found)
0x10012420: les eax,  [eax+edi*4] ; add dword [eax], eax ; add byte [eax], al ; pop edi ; pop esi ; retn 0x0004 ;  (1 found)
0x10013194: les eax,  [eax+edx*2] ; call dword [0x10011094] ;  (1 found)
0x100130c6: les eax,  [eax+edx*2] ; call dword [0x100110B0] ;  (1 found)
0x1001462a: les eax,  [eax+edx*2] ; call dword [0x100110C8] ;  (1 found)
0x100144f2: les eax,  [eax+edx*2] ; call dword [0x100110C8] ;  (1 found)
0x10015ea7: les eax,  [eax+edx*2] ; call dword [0x100110EC] ;  (1 found)
0x1001726c: les eax,  [eax+edx*2] ; call dword [0x1001113C] ;  (1 found)
0x1001724e: les eax,  [eax+edx*2] ; call dword [0x10011140] ;  (1 found)
0x1001740d: les eax,  [eax+edx*2] ; call dword [0x10011144] ;  (1 found)
0x100155ba: les eax,  [ebx+eax*4] ; clc  ; add dword [eax+0x00000000], edi ; adc eax, 0xFFFFFFFF ; pop esi ; ret  ;  (1 found)
0x1002253e: les eax,  [ebx+eax*4] ; ret  ;  (1 found)
0x10011def: les eax,  [ebx+eax*8] ; mov eax, dword [0x1002F124] ; mov ecx, dword [esp+0x04] ; mov dword [0x1002F124], ecx ; ret  ;  (1 found)
0x1001b99f: les eax,  [ebx+eax*8] ; mov eax, dword [esp+0x04] ; cdq  ; xor eax, edx ; sub eax, edx ; ret  ;  (1 found)
0x100168b0: les eax,  [ebx+eax*8] ; push 0x00000000 ; push 0x00000000 ; call dword [0x1001111C] ;  (1 found)
0x1001875f: les eax,  [ebx+eax*8] ; push dword [esp+0x04] ; push 0x00000000 ; push dword [0x10033CB8] ; call dword [0x1001114C] ;  (1 found)
0x10021541: les eax,  [ebx+eax*8] ; push esi ; mov eax, dword [0x1002FA84] ; push eax ; mov esi, dword [0x1001119C] ; call esi ;  (1 found)
0x1001b60d: les eax,  [ebx+ebp] ; rcr dword [edi+0x5E], 0x5B ; pop ebp ; ret  ;  (1 found)
0x1001be5e: les eax,  [ebx+ecx*4] ; fcom dword [edi-0x18] ; mov ebp, 0x83000057 ; les eax,  [ebx+ecx*4] ; ret  ;  (1 found)
0x100167d2: les eax,  [ebx+ecx*4] ; in eax, 0x5D ; ret  ;  (1 found)
0x1001fdd6: les eax,  [ebx+ecx*4] ; in eax, 0x5D ; ret  ;  (1 found)
0x1001fe90: les eax,  [ebx+ecx*4] ; in eax, 0x5D ; ret  ;  (1 found)
0x1002a9ab: les eax,  [ebx+ecx*4] ; in eax, 0x5D ; ret  ;  (1 found)
0x10012cd8: les eax,  [ebx+ecx*4] ; inc esi ; add al, 0x83 ; clc  ; push dword [edi+eax+0x50] ; call dword [0x10011094] ;  (1 found)
0x1001c0bb: les eax,  [ebx+ecx*4] ; lds ebx,  [ebp+0x5F] ; pop esi ; pop ebx ; ret  ;  (1 found)
0x1001c7e1: les eax,  [ebx+ecx*4] ; lds ebx,  [ebp+0x5F] ; pop esi ; pop ebx ; ret  ;  (1 found)
0x1002013c: les eax,  [ebx+ecx*4] ; lds ebx,  [ebp+0x5F] ; pop esi ; pop ebx ; ret  ;  (1 found)
0x100200e5: les eax,  [ebx+ecx*4] ; lds ebx,  [ebp+0x5F] ; pop esi ; pop ebx ; ret  ;  (1 found)
0x10012117: les eax,  [ebx+ecx*4] ; or eax, 0x10033EC8 ; mov dword [ecx], 0x00000000 ; mov ecx, dword [0x10033EC8] ; mov dword [0x10033EC0], ecx ; ret  ;  (1 found)
0x10014924: les eax,  [ebx+ecx*4] ; ret  ;  (1 found)
0x10014991: les eax,  [ebx+ecx*4] ; ret  ;  (1 found)
0x100149f9: les eax,  [ebx+ecx*4] ; ret  ;  (1 found)
0x10014a66: les eax,  [ebx+ecx*4] ; ret  ;  (1 found)
0x100151b2: les eax,  [ebx+ecx*4] ; ret  ;  (1 found)
0x10016adb: les eax,  [ebx+ecx*4] ; ret  ;  (1 found)
0x1001af3e: les eax,  [ebx+ecx*4] ; ret  ;  (1 found)
0x1001ad92: les eax,  [ebx+ecx*4] ; ret  ;  (1 found)
0x1001ad61: les eax,  [ebx+ecx*4] ; ret  ;  (1 found)
0x1001ae9f: les eax,  [ebx+ecx*4] ; ret  ;  (1 found)
0x1001adc6: les eax,  [ebx+ecx*4] ; ret  ;  (1 found)
0x1001ae59: les eax,  [ebx+ecx*4] ; ret  ;  (1 found)
0x1001af0d: les eax,  [ebx+ecx*4] ; ret  ;  (1 found)
0x100199e0: les eax,  [ebx+ecx*4] ; ret  ;  (1 found)
0x10019970: les eax,  [ebx+ecx*4] ; ret  ;  (1 found)
0x10019a45: les eax,  [ebx+ecx*4] ; ret  ;  (1 found)
0x10019ab5: les eax,  [ebx+ecx*4] ; ret  ;  (1 found)
0x1001acad: les eax,  [ebx+ecx*4] ; ret  ;  (1 found)
0x1001acf3: les eax,  [ebx+ecx*4] ; ret  ;  (1 found)
0x1001be69: les eax,  [ebx+ecx*4] ; ret  ;  (1 found)
0x1001c113: les eax,  [ebx+ecx*4] ; ret  ;  (1 found)
0x1001af72: les eax,  [ebx+ecx*4] ; ret  ;  (1 found)
0x1001d93b: les eax,  [ebx+ecx*4] ; ret  ;  (1 found)
0x1001df4b: les eax,  [ebx+ecx*4] ; ret  ;  (1 found)
0x1001e5bc: les eax,  [ebx+ecx*4] ; ret  ;  (1 found)
0x1001fb1b: les eax,  [ebx+ecx*4] ; ret  ;  (1 found)
0x10020187: les eax,  [ebx+ecx*4] ; ret  ;  (1 found)
0x1002029f: les eax,  [ebx+ecx*4] ; ret  ;  (1 found)
0x1002045b: les eax,  [ebx+ecx*4] ; ret  ;  (1 found)
0x10020c72: les eax,  [ebx+ecx*4] ; ret  ;  (1 found)
0x10020d6a: les eax,  [ebx+ecx*4] ; ret  ;  (1 found)
0x1001e0c7: les eax,  [ebx+ecx*4] ; sbb dword [ecx+esi*8+0x5E5F1002], 0x5B ; mov esp, ebp ; pop ebp ; ret  ;  (1 found)
0x10018dd2: les eax,  [ebx+esi] ; rcr byte [edi+0x5E], 0x0000005B ; mov esp, ebp ; pop ebp ; ret  ;  (1 found)
0x1001ac3e: les eax,  [ebx+esi] ; rcr byte [edi+0x5E], 0x0000005B ; ret  ;  (1 found)
0x1001fbdd: les eax,  [ebx+esi] ; rcr byte [edi+0x5E], 0x0000005B ; ret  ;  (1 found)
0x10023074: les eax,  [ebx+esi] ; ror byte [ecx+0x08468906], 0xFFFFFF80 ; or al, 0xF7 ; mov dword [esi+0x04], eax ; pop esi ; ret  ;  (1 found)
0x10012e6e: les eax,  [ebx+esi] ; shr bl, 0x0000001E ; call dword [0x10011058] ;  (1 found)
0x10012f1a: les eax,  [ebx+esi] ; shr bl, 0x00000036 ; call dword [0x10011058] ;  (1 found)
0x10012d2c: les eax,  [ebx+esi] ; shr cl, 0xFFFFFFAC ; add byte [eax], al ; add byte [ebp-0x00AF07BB], cl ; xor eax, 0x1002FF44 ; call dword [0x100110A0] ;  (1 found)
0x10012ed2: les eax,  [ecx+eax] ; add byte [eax], al ; ret  ;  (1 found)
0x10027ef6: les eax,  [ecx+ebx*8] ; insd  ; dec byte [ebx-0x1A74A13A] ; pop ebp ; ret  ;  (1 found)
0x100133ba: les eax,  [ecx+ecx*4] ; inc ebp ; fdivr dword [ebx] ; ret  ;  (1 found)
0x100218c6: les eax,  [ecx+ecx*4] ; inc ebp ; fdivr dword [ebx] ; ret  ;  (1 found)
0x1001536b: les eax,  [ecx+ecx*4] ; inc ebx ; or byte [ebp-0x00012B7B], cl ; dec dword [ebp-0x00011343] ; call dword [eax-0x18] ;  (1 found)
0x10015271: les eax,  [ecx+ecx*4] ; inc ebx ; or byte [ebp-0x00012F7B], cl ; dec dword [ebp-0x00011743] ; call dword [eax-0x18] ;  (1 found)
0x1001b1cc: les eax,  [edi+ebx*2] ; pop esi ; mov esp, ebp ; pop ebp ; ret  ;  (1 found)
0x1002109c: les eax,  [edi+ebx*2] ; pop esi ; mov esp, ebp ; pop ebp ; ret  ;  (1 found)
0x1001c063: les eax,  [edi+ebx*2] ; pop esi ; pop ebx ; mov esp, ebp ; pop ebp ; ret  ;  (1 found)
0x10025b3b: les eax,  [edi+ebx*2] ; pop esi ; pop ebx ; mov esp, ebp ; pop ebp ; ret  ;  (1 found)
0x1002ad6d: les eax,  [edi+ebx*2] ; pop esi ; pop ebx ; mov esp, ebp ; pop ebp ; ret  ;  (1 found)
0x1001dc99: les eax,  [edi+ebx*2] ; pop esi ; pop ebx ; ret  ;  (1 found)
0x1001bf51: les eax,  [edi+ebx*2] ; pop esi ; ret  ;  (1 found)
0x1001c1e3: les eax,  [edi+ebx*2] ; pop esi ; ret  ;  (1 found)
0x1001bcba: les eax,  [edi+ebx*2] ; pop esi ; ret  ;  (1 found)
0x1001ff80: les eax,  [edi+ebx*2] ; pop esi ; ret  ;  (1 found)
0x1001d8f4: les eax,  [edi+ebx*2] ; ret  ;  (1 found)
0x10021617: les eax,  [edi+edi*8] ; aaa  ; call dword [0x100111A4] ;  (1 found)
0x1002160d: les eax,  [edx+ebp*2] ; adc eax, ebp ; sldt word [eax] ; add byte [ebx+0x37FF04C4], al ; call dword [0x100111A4] ;  (1 found)
0x10012cf0: les eax,  [edx+ebp*2] ; add bh, bh ; adc eax, 0x10011090 ; pop esi ; ret  ;  (1 found)
0x10012a08: les eax,  [edx+ebp*2] ; add byte [ecx+0x1002E148], ah ; push eax ; call dword [0x10011064] ;  (1 found)
0x10014610: les eax,  [edx+ebp*2] ; add cl, byte [ebp+0x016AFC45] ; push 0x00000000 ; push eax ; call dword [0x100110C8] ;  (1 found)
0x10012e64: les eax,  [edx+ebp*2] ; or al, 0xE8 ; mov eax, 0x830000E7 ; les eax,  [ebx+esi] ; shr bl, 0x0000001E ; call dword [0x10011058] ;  (1 found)
0x10024cc4: les eax,  [esi+ebx*2] ; ret  ;  (1 found)
0x100251ba: les eax,  [esi+ebx*2] ; ret  ;  (1 found)
0x10013212: les eax,  [esi+edi*4] ; add byte [eax], al ; add byte [eax], al ; push eax ; call dword [0x100110B4] ;  (1 found)
0x10012411: les eax,  [esi+edx*2] ; call edi ;  (1 found)
0x10026b18: les ebx,  [0x75FFF055+ecx*4] ; or byte [edx-0x18], dl ; test eax, 0x8BFFFFFF ; in eax, 0x5D ; ret  ;  (1 found)
0x100279da: les ebx,  [eax] ; pop esi ; mov esp, ebp ; pop ebp ; ret  ;  (1 found)
0x10027dac: les ebx,  [eax] ; pop esi ; mov esp, ebp ; pop ebp ; ret  ;  (1 found)
0x1001a277: les ebx,  [eax] ; push ebx ; mov dword [edi+0x1C], eax ; call dword [0x100110D8] ;  (1 found)
0x1001bb0f: les ebx,  [eax] ; ret  ;  (1 found)
0x10026356: les ebx,  [ebx+ecx*4] ; fdiv st0, st6 ; ret  ;  (1 found)
0x1002943f: les ebx,  [esi+ebx*2] ; mov esp, ebp ; pop ebp ; ret  ;  (1 found)
0x100295d3: les ebx,  [esi+ebx*2] ; mov esp, ebp ; pop ebp ; ret  ;  (1 found)
0x10022a7b: les ecx,  [0x0B8D0FC0+eax*4] ; add eax, dword [eax] ; add byte [ecx+0x03E9C875], cl ; add eax, dword [eax] ; add byte [esi-0x7D], ah ; ret  ;  (1 found)
0x1002863f: les ecx,  [0xFFFF6C85+ecx*4] ; call dword [eax-0x01] ;  (1 found)
0x100284a1: les ecx,  [0xFFFF6C85+ecx*4] ; inc dword [eax+0x50FEBC65] ; call dword [ebp+0x10] ;  (1 found)
0x1002411c: les ecx,  [eax+ecx*2] ; push dword [ebp-0x14] ; push dword [ebp-0x24] ; push eax ; call dword [0x1002FF60] ;  (1 found)
0x10018135: les ecx,  [eax] ; add eax, esi ; pop esi ; ret  ;  (1 found)
0x1002922e: les ecx,  [eax] ; fmul qword [ebp-0x28] ; pop esi ; mov esp, ebp ; pop ebp ; ret  ;  (1 found)
0x10014889: les ecx,  [eax] ; lea ecx, dword [esi+esi*2] ; mov eax, dword [edi+ecx*4] ; mov dword [ebx+0x0C], eax ; call dword [edi+ecx*4+0x08] ;  (1 found)
0x100216ad: les ecx,  [eax] ; lea ecx, dword [esi+esi*2] ; mov eax, dword [edi+ecx*4] ; mov dword [ebx+0x0C], eax ; call dword [edi+ecx*4+0x08] ;  (1 found)
0x10019896: les ecx,  [eax] ; mov eax, esi ; pop esi ; mov esp, ebp ; pop ebp ; ret  ;  (1 found)
0x1001990e: les ecx,  [eax] ; mov eax, esi ; pop esi ; mov esp, ebp ; pop ebp ; ret  ;  (1 found)
0x1001b325: les ecx,  [eax] ; mov eax, esi ; pop esi ; mov esp, ebp ; pop ebp ; ret  ;  (1 found)
0x1001b39c: les ecx,  [eax] ; mov eax, esi ; pop esi ; mov esp, ebp ; pop ebp ; ret  ;  (1 found)
0x1001e615: les ecx,  [eax] ; mov eax, esi ; pop esi ; mov esp, ebp ; pop ebp ; ret  ;  (1 found)
0x1001f968: les ecx,  [eax] ; mov eax, esi ; pop esi ; mov esp, ebp ; pop ebp ; ret  ;  (1 found)
0x10020254: les ecx,  [eax] ; mov eax, esi ; pop esi ; mov esp, ebp ; pop ebp ; ret  ;  (1 found)
0x100201de: les ecx,  [eax] ; mov eax, esi ; pop esi ; mov esp, ebp ; pop ebp ; ret  ;  (1 found)
0x10025fc1: les ecx,  [eax] ; mov ecx, dword [ebp-0x04] ; mov dword [edx], ecx ; mov esp, ebp ; pop ebp ; ret  ;  (1 found)
0x1002a293: les ecx,  [eax] ; mov esp, ebp ; pop ebp ; ret  ;  (1 found)
0x1002a234: les ecx,  [eax] ; pop ebp ; ret  ;  (1 found)
0x10021707: les ecx,  [eax] ; pop ebp ; retn 0x0004 ;  (1 found)
0x1001c324: les ecx,  [eax] ; pop edi ; pop esi ; mov esp, ebp ; pop ebp ; ret  ;  (1 found)
0x100298e1: les ecx,  [eax] ; pop edi ; pop esi ; mov esp, ebp ; pop ebp ; ret  ;  (1 found)
0x10027b29: les ecx,  [eax] ; pop esi ; mov esp, ebp ; pop ebp ; ret  ;  (1 found)
0x100299cc: les ecx,  [eax] ; pop esi ; mov esp, ebp ; pop ebp ; ret  ;  (1 found)
0x100296c6: les ecx,  [eax] ; pop esi ; mov esp, ebp ; pop ebp ; ret  ;  (1 found)
0x1002a3db: les ecx,  [eax] ; pop esi ; mov esp, ebp ; pop ebp ; ret  ;  (1 found)
0x1002a32a: les ecx,  [eax] ; pop esi ; mov esp, ebp ; pop ebp ; ret  ;  (1 found)
0x1002893f: les ecx,  [eax] ; pop esi ; pop ebp ; ret  ;  (1 found)
0x10011f5d: les ecx,  [eax] ; ret  ;  (1 found)
0x10012c88: les ecx,  [eax] ; ret  ;  (1 found)
0x10013ae1: les ecx,  [eax] ; ret  ;  (1 found)
0x10013264: les ecx,  [eax] ; ret  ;  (1 found)
0x1001571f: les ecx,  [eax] ; ret  ;  (1 found)
0x10015700: les ecx,  [eax] ; ret  ;  (1 found)
0x100172eb: les ecx,  [eax] ; ret  ;  (1 found)
0x10017326: les ecx,  [eax] ; ret  ;  (1 found)
0x1001c12a: les ecx,  [eax] ; ret  ;  (1 found)
0x1001cc30: les ecx,  [eax] ; ret  ;  (1 found)
0x1001ccb3: les ecx,  [eax] ; ret  ;  (1 found)
0x1001cc65: les ecx,  [eax] ; ret  ;  (1 found)
0x1001cc74: les ecx,  [eax] ; ret  ;  (1 found)
0x1001cc92: les ecx,  [eax] ; ret  ;  (1 found)
0x1001ccc2: les ecx,  [eax] ; ret  ;  (1 found)
0x1001cc83: les ecx,  [eax] ; ret  ;  (1 found)
0x1001cca4: les ecx,  [eax] ; ret  ;  (1 found)
0x1001cd07: les ecx,  [eax] ; ret  ;  (1 found)
0x1001ccd4: les ecx,  [eax] ; ret  ;  (1 found)
0x1001ccf8: les ecx,  [eax] ; ret  ;  (1 found)
0x1001cce6: les ecx,  [eax] ; ret  ;  (1 found)
0x1001d62e: les ecx,  [eax] ; ret  ;  (1 found)
0x10024615: les ecx,  [eax] ; ret  ;  (1 found)
0x10023ccd: les ecx,  [eax] ; ret  ;  (1 found)
0x10027ead: les ecx,  [eax] ; ret  ;  (1 found)
0x10027ec3: les ecx,  [eax] ; ret  ;  (1 found)
0x10027f16: les ecx,  [eax] ; ret  ;  (1 found)
0x1002ac67: les ecx,  [eax] ; ret  ;  (1 found)
0x10019f42: les ecx,  [ebx+eax*4] ; ret  ;  (1 found)
0x1001da4a: les ecx,  [ebx+ecx*4] ; inc ebp ; adc byte [ebx], al ; ret  ;  (1 found)
0x1001c748: les ecx,  [ebx+edi] ; ret  ;  (1 found)
0x100147fc: les ecx,  [ebx+esi] ; imul bl ; add eax, 0xFFFFFFBE ; call dword [ebx-0x18] ;  (1 found)
0x10028976: les ecx,  [ecx+ebp*8] ; ret  ;  (1 found)
0x1001e655: les ecx,  [edi+ebx*2] ; mov esp, ebp ; pop ebp ; ret  ;  (1 found)
0x10012abe: les ecx,  [edi+ebx*2] ; pop esi ; pop ebx ; ret  ;  (1 found)
0x1002632f: les ecx,  [edi+ebx*2] ; pop esi ; ret  ;  (1 found)
0x1002723a: les ecx,  [edi+ebx*2] ; pop esi ; ret  ;  (1 found)
0x1002a0e4: les ecx,  [edi] ; mov esi, 0x04E181C0 ; add al, 0x00 ; add byte [ebx-0x7C27FC26], cl ; ret  ;  (1 found)
0x10018d6a: les edx,  [eax] ; add dword [eax], edx ; push dword [0x1002F4C0+esi*4] ; call dword [0x10011094] ;  (1 found)
0x10018df2: les edx,  [eax] ; add dword [eax], edx ; push dword [0x1002F4C0+esi*4] ; call dword [0x10011094] ;  (1 found)
0x1001709b: les edx,  [eax] ; mov eax, dword [ebp+0x0C] ; pop ebp ; ret  ;  (1 found)
0x10017010: les edx,  [eax] ; mov eax, dword [ebp+0x0C] ; pop ebp ; ret  ;  (1 found)
0x100170b6: les edx,  [eax] ; mov eax, dword [ebp+0x0C] ; pop ebp ; ret  ;  (1 found)
0x1002615c: les edx,  [eax] ; mov eax, esi ; pop esi ; mov esp, ebp ; pop ebp ; ret  ;  (1 found)
0x1001e4e8: les edx,  [eax] ; pop ebp ; pop edi ; pop esi ; pop ebx ; ret  ;  (1 found)
0x1001ed7c: les edx,  [eax] ; pop edi ; pop esi ; pop ebx ; pop ebp ; ret  ;  (1 found)
0x1001fa39: les edx,  [eax] ; pop esi ; mov esp, ebp ; pop ebp ; ret  ;  (1 found)
0x10018789: les edx,  [eax] ; ret  ;  (1 found)
0x10019ad4: les edx,  [eax] ; ret  ;  (1 found)
0x10019d2e: les edx,  [eax] ; ret  ;  (1 found)
0x1001a8f1: les edx,  [eax] ; ret  ;  (1 found)
0x1001dcf2: les edx,  [eax] ; ret  ;  (1 found)
0x1001f586: les edx,  [eax] ; ret  ;  (1 found)
0x1001f7ab: les edx,  [eax] ; ret  ;  (1 found)
0x1002080d: les edx,  [eax] ; ret  ;  (1 found)
0x100209f6: les edx,  [eax] ; ret  ;  (1 found)
0x1001bb0a: les edx,  [edi+ebx*2] ; pop esi ; add esp, 0x18 ; ret  ;  (1 found)
0x100262af: les edx,  [edi+ebx*2] ; pop esi ; pop ebx ; mov esp, ebp ; pop ebp ; ret  ;  (1 found)
0x10011c5a: les esp, eax ; add dl, byte [eax] ; mov dword [eax], edx ; ret  ;  (1 found)
0x100194c1: lock add byte [eax], al ; add byte [eax], al ; push 0x00000001 ; push ecx ; push dword [edx] ; call dword [0x1001115C] ;  (1 found)
0x10022d2e: lock add byte [ebp+0x10], dh ; lea eax, dword [ebp-0x0000044C] ; push eax ; call dword [0x1002FF64] ;  (1 found)
0x10012d31: lodsb  ; add byte [eax], al ; add byte [ebp-0x00AF07BB], cl ; xor eax, 0x1002FF44 ; call dword [0x100110A0] ;  (1 found)
0x10028581: lodsb  ; fnclex  ; lea eax, dword [ebp-0x00000094] ; push eax ; call dword [ebp+0x10] ;  (1 found)
0x10016187: mov ah, 0x00 ; add byte [ebx-0x3974FB3C], al ; pop esi ; pop ebx ; pop ebp ; ret  ;  (1 found)
0x100161a9: mov ah, 0x00 ; add byte [ebx-0x3974FB3C], al ; pop esi ; ret  ;  (1 found)
0x100161c9: mov ah, 0x00 ; add byte [ebx-0x3974FB3C], al ; pop esi ; ret  ;  (1 found)
0x1001bc21: mov ah, 0x33 ; rcr byte [edi+0x5E], 0x0000005B ; mov esp, ebp ; pop ebp ; ret  ;  (1 found)
0x10025b78: mov ah, 0x3B ; add edx, dword [eax] ; mov dword [0x10033BB0], eax ; xor eax, eax ; ret  ;  (1 found)
0x10022d0e: mov ah, 0x89 ; push ebp ; mov eax, 0x52D3BE0F ; push eax ; push ecx ; call dword [0x1002FF58] ;  (1 found)
0x10016524: mov al, 0x00 ; add byte [ebx-0x3974FB3C], al ; pop esi ; ret  ;  (1 found)
0x10025b7d: mov al, 0x3B ; add edx, dword [eax] ; xor eax, eax ; ret  ;  (1 found)
0x1001698d: mov al, 0xB8 ; add dword [eax], eax ; add byte [eax], al ; ret  ;  (1 found)
0x1001b28b: mov al, ah ; add dl, byte [eax] ; mov ecx, dword [esp+0x04] ; mov dword [0x1002E088], ecx ; ret  ;  (1 found)
0x1001b295: mov al, ah ; add dl, byte [eax] ; ret  ;  (1 found)
0x100178fc: mov al, byte [0x5B5EC033] ; ret  ;  (1 found)
0x10016218: mov al, byte [0x6A100110] ; add bh, bh ; xor eax, 0x1002FF44 ; call dword [0x10011098] ;  (1 found)
0x10012d41: mov al, byte [0x6A100110] ; pop es ; push dword [0x1002FF44] ; call dword [0x10011098] ;  (1 found)
0x1001b398: mov al, byte [0xC483FFFF] ; or byte [ebx-0x1A74A13A], cl ; pop ebp ; ret  ;  (1 found)
0x1001762e: mov al, byte [eax+0x01] ; mov byte [ecx+0x01], al ; ret  ;  (1 found)
0x10017723: mov al, byte [eax+0x1002EF39] ; and al, 0x04 ; cmp al, 0x01 ; sbb eax, eax ; add eax, 0x02 ; ret  ;  (1 found)
0x10011ed6: mov al, byte [eax] ; add byte [eax], al ; push dword [esi] ; push 0x00000008 ; call edx ;  (1 found)
0x10016aa7: mov al, byte [ecx+0x1002F3C0] ; and eax, 0x40 ; ret  ;  (1 found)
0x1002008d: mov ax, 0xFFFF ; pop edi ; pop esi ; mov esp, ebp ; pop ebp ; ret  ;  (1 found)
0x1001bf4d: mov ax, si ; add esp, 0x04 ; pop edi ; pop esi ; ret  ;  (1 found)
0x1001c1df: mov ax, si ; add esp, 0x04 ; pop edi ; pop esi ; ret  ;  (1 found)
0x1001ff7c: mov ax, si ; add esp, 0x04 ; pop edi ; pop esi ; ret  ;  (1 found)
0x1002463c: mov ax, si ; pop edi ; pop esi ; ret  ;  (1 found)
0x1001a395: mov ax, si ; pop esi ; pop ebx ; ret  ;  (1 found)
0x1001a396: mov ax, si ; pop esi ; pop ebx ; ret  ;  (1 found)
0x10025803: mov ax, word [eax+0x100329C0] ; ret  ;  (1 found)
0x1001fdd1: mov ax, word [ebp-0x02] ; add esp, 0x04 ; mov esp, ebp ; pop ebp ; ret  ;  (1 found)
0x1001fe8b: mov ax, word [ebp-0x02] ; add esp, 0x04 ; mov esp, ebp ; pop ebp ; ret  ;  (1 found)
0x10013a5e: mov ax, word [ecx-0x04] ; ret  ;  (1 found)
0x10021fa4: mov ax, word [ecx-0x04] ; ret  ;  (1 found)
0x100126bd: mov ax, word [edx+ecx*2] ; and eax, 0x00000080 ; ret  ;  (1 found)
0x10012600: mov ax, word [edx+ecx*2] ; and eax, 0x00000103 ; ret  ;  (1 found)
0x10016ca3: mov ax, word [edx+ecx*2] ; and eax, 0x00000103 ; ret  ;  (1 found)
0x1001274c: mov ax, word [edx+ecx*2] ; and eax, 0x00000107 ; ret  ;  (1 found)
0x100127b2: mov ax, word [edx+ecx*2] ; and eax, 0x00000117 ; ret  ;  (1 found)
0x1001277f: mov ax, word [edx+ecx*2] ; and eax, 0x00000157 ; ret  ;  (1 found)
0x1001cc4c: mov ax, word [edx+ecx*2] ; and eax, 0x00008000 ; ret  ;  (1 found)
0x10012630: mov ax, word [edx+ecx*2] ; and eax, 0x01 ; ret  ;  (1 found)
0x10016f73: mov ax, word [edx+ecx*2] ; and eax, 0x01 ; ret  ;  (1 found)
0x1001265e: mov ax, word [edx+ecx*2] ; and eax, 0x02 ; ret  ;  (1 found)
0x10016e55: mov ax, word [edx+ecx*2] ; and eax, 0x02 ; ret  ;  (1 found)
0x1001268c: mov ax, word [edx+ecx*2] ; and eax, 0x04 ; ret  ;  (1 found)
0x10016d00: mov ax, word [edx+ecx*2] ; and eax, 0x04 ; ret  ;  (1 found)
0x100126ed: mov ax, word [edx+ecx*2] ; and eax, 0x08 ; ret  ;  (1 found)
0x10016f18: mov ax, word [edx+ecx*2] ; and eax, 0x08 ; ret  ;  (1 found)
0x1001271b: mov ax, word [edx+ecx*2] ; and eax, 0x10 ; ret  ;  (1 found)
0x100127e2: mov ax, word [edx+ecx*2] ; and eax, 0x20 ; ret  ;  (1 found)
0x1002aa71: mov ax, word [esp+0x0A] ; and ax, 0x00007FF0 ; shr ax, 0x0004 ; sub ax, 0x000003FE ; movsx eax, ax ; ret  ;  (1 found)
0x100204ee: mov bh, 0x00 ; movzx ecx, word [esi] ; sub eax, ecx ; pop esi ; pop ebp ; ret  ;  (1 found)
0x1001753d: mov bh, 0x04 ; lea edi, dword [edx] ; in eax, dx ; add dl, byte [eax] ; pop esi ; ret  ;  (1 found)
0x100204f1: mov bh, 0x0E ; sub eax, ecx ; pop esi ; pop ebp ; ret  ;  (1 found)
0x10012314: mov bh, 0x23 ; add dword [eax], edx ; call dword [0x1001105C] ;  (1 found)
0x1001bce9: mov bh, 0x44 ; and al, 0x04 ; add eax, ecx ; add esp, 0x0C ; ret  ;  (1 found)
0x10025583: mov bh, 0x45 ; cld  ; push eax ; call dword [0x100111B8] ;  (1 found)
0x10025544: mov bh, 0x45 ; cld  ; push eax ; call dword [0x100111B8] ;  (1 found)
0x100255d6: mov bh, 0x45 ; cld  ; push eax ; call dword [0x100111B8] ;  (1 found)
0x1002562e: mov bh, 0x45 ; cld  ; push eax ; call dword [0x100111B8] ;  (1 found)
0x100167ce: mov bh, 0x45 ; inc byte [ebx-0x1A74FB3C] ; pop ebp ; ret  ;  (1 found)
0x1002569d: mov bh, 0x4D ; clc  ; push eax ; push 0x00001001 ; push ecx ; call dword [0x100111B4] ;  (1 found)
0x100255f8: mov bh, 0x4D ; cli  ; push eax ; push 0x0000000B ; push ecx ; call dword [0x100111B4] ;  (1 found)
0x100255a5: mov bh, 0x4D ; cli  ; push eax ; push 0x0000000B ; push ecx ; call dword [0x100111B4] ;  (1 found)
0x1002564c: mov bh, 0x4D ; cli  ; push eax ; push 0x0000000B ; push ecx ; call dword [0x100111B4] ;  (1 found)
0x100257fe: mov bh, 0xC2 ; imul eax, eax, 0x06 ; mov ax, word [eax+0x100329C0] ; ret  ;  (1 found)
0x100162d3: mov bl, 0x00 ; add byte [ebx-0x3974FB3C], al ; pop esi ; ret  ;  (1 found)
0x10012aab: mov bl, 0x04 ; add byte [ebp+0x04], dh ; call dword [ebx+esi*4+0x08] ;  (1 found)
0x1002ba40: mov bl, 0x61 ; add byte [eax], al ; shl byte [eax+eax+0x00], cl ; jmp dword [eax+eax+0x00] ;  (1 found)
0x10017eec: mov bl, 0xEB ; fcmovb st0, st6 ; push es ; add byte [ebx+0x5B5E5FC7], cl ; ret  ;  (1 found)
0x1001e9e6: mov bl, ah ; in eax, dx ; add dword [eax], edx ; jmp dword [0x1001ED83+ecx*4] ;  (1 found)
0x1001202e: mov bp, seg? ; add byte [eax], al ; add esp, 0x04 ; ret  ;  (1 found)
0x1001a3fe: mov bx, 0x0064 ; push eax ; call dword [0x100110E8] ;  (1 found)
0x10024f2b: mov byte [0x1002E140], al ; xor eax, eax ; pop edi ; pop esi ; pop ebx ; ret  ;  (1 found)
0x1001491f: mov byte [0x8300007B], al ; les eax,  [ebx+ecx*4] ; ret  ;  (1 found)
0x1001fa35: mov byte [0xC483FFFF], al ; adc byte [esi-0x75], bl ; in eax, 0x5D ; ret  ;  (1 found)
0x10012dc2: mov byte [eax+0x02], 0x00000000 ; push dword [ebp-0x08] ; push dword [0x1002FF44] ; call dword [0x10011098] ;  (1 found)
0x10014f4a: mov byte [eax], 0x00000000 ; add esp, 0x04 ; mov eax, edi ; pop edi ; pop esi ; ret  ;  (1 found)
0x1001923f: mov byte [eax], 0x00000000 ; lea eax, dword [eax+0x01] ; and ecx, eax ; push ecx ; push ebx ; call dword [0x10011158] ;  (1 found)
0x1002573d: mov byte [eax], 0x00000000 ; ret  ;  (1 found)
0x1002573e: mov byte [eax], 0x00000000 ; ret  ;  (1 found)
0x10016208: mov byte [eax], al ; add byte [eax], al ; lea eax, dword [ebp-0x04] ; push eax ; push dword [0x1002FF44] ; call dword [0x100110A0] ;  (1 found)
0x1002a133: mov byte [ebp-0x00000090], 0x00000001 ; fadd qword [0x100337A4] ; ret  ;  (1 found)
0x1002a1a0: mov byte [ebp-0x00000090], 0x00000001 ; faddp st1, st0 ; ret  ;  (1 found)
0x1002a161: mov byte [ebp-0x00000090], 0x00000001 ; faddp st1, st0 ; ret  ;  (1 found)
0x1002a1bd: mov byte [ebp-0x00000090], 0x00000001 ; or cl, cl ; ret  ;  (1 found)
0x10029ea0: mov byte [ebp-0x00000090], 0x00000002 ; fstp st0 ; fld tword [0x100336AE] ; ret  ;  (1 found)
0x10029e7e: mov byte [ebp-0x00000090], 0x00000002 ; ret  ;  (1 found)
0x10029f45: mov byte [ebp-0x00000090], 0x00000003 ; ret  ;  (1 found)
0x1002a12b: mov byte [ebp-0x00000090], 0x00000007 ; ret  ;  (1 found)
0x10012f00: mov byte [ebp-0x02], 0x00000000 ; lea ebx, dword [ebp-0x04] ; push ebx ; call dword [0x100110A8] ;  (1 found)
0x10012efc: mov byte [ebp-0x03], 0x0000003A ; mov byte [ebp-0x02], 0x00000000 ; lea ebx, dword [ebp-0x04] ; push ebx ; call dword [0x100110A8] ;  (1 found)
0x10012ef9: mov byte [ebp-0x04], bl ; mov byte [ebp-0x03], 0x0000003A ; mov byte [ebp-0x02], 0x00000000 ; lea ebx, dword [ebp-0x04] ; push ebx ; call dword [0x100110A8] ;  (1 found)
0x10016688: mov byte [ebx+0x00C7FFFF], bh ; or eax, 0xE8000000 ; xchg byte [ebx-0x0F740001], bh ; call dword [0x10011058] ;  (1 found)
0x1001ca99: mov byte [ebx+0x00], cl ; add byte [ebx-0x3874FB3C], al ; pop edi ; pop esi ; ret  ;  (1 found)
0x1002577a: mov byte [ebx-0x338A0008], 0x00000066 ; xor eax, eax ; pop edi ; pop esi ; pop ebx ; ret  ;  (1 found)
0x10021480: mov byte [ebx], 0xFFFFFF81 ; call dword [0x100110E4] ;  (1 found)
0x10017631: mov byte [ecx+0x01], al ; ret  ;  (1 found)
0x1001a8ea: mov byte [ecx+0x07], dl ; pop edi ; pop esi ; pop ebx ; add esp, 0x10 ; ret  ;  (1 found)
0x1001a475: mov byte [ecx+0x07], dl ; pop esi ; pop ebx ; mov esp, ebp ; pop ebp ; ret  ;  (1 found)
0x1001c4d3: mov byte [ecx], dl ; add dword [eax], edx ; ret  ;  (1 found)
0x1001baa9: mov byte [ecx], dl ; ret  ;  (1 found)
0x10012dbf: mov byte [edi+0x01], cl ; mov byte [eax+0x02], 0x00000000 ; push dword [ebp-0x08] ; push dword [0x1002FF44] ; call dword [0x10011098] ;  (1 found)
0x1001d391: mov byte [edi+0x02], al ; mov eax, dword [ebp+0x08] ; pop esi ; pop edi ; leave  ; ret  ;  (1 found)
0x1001d4e1: mov byte [edi+0x02], al ; mov eax, dword [ebp+0x08] ; pop esi ; pop edi ; leave  ; ret  ;  (1 found)
0x100131ca: mov byte [edi+0x1002F3C0], 0x00000000 ; xor eax, eax ; pop edi ; pop esi ; ret  ;  (1 found)
0x10013cbf: mov byte [edi+0x43], bl ; add dword [eax], edx ; jmp dword [0x1001432F+ecx*4] ;  (1 found)
0x10013eb8: mov byte [edi], 0x00000000 ; push dword [ebp-0x24] ; movsx eax, byte [ebp-0x03] ; dec eax ; push eax ; call dword [0x1002FF60] ;  (1 found)
0x10023717: mov byte [edi], 0x00000000 ; push dword [ebp-0x24] ; movsx eax, byte [ebp-0x03] ; dec eax ; push eax ; call dword [0x1002FF60] ;  (1 found)
0x1001d3ae: mov byte [edi], al ; mov eax, dword [ebp+0x08] ; pop esi ; pop edi ; leave  ; ret  ;  (1 found)
0x1001d4fe: mov byte [edi], al ; mov eax, dword [ebp+0x08] ; pop esi ; pop edi ; leave  ; ret  ;  (1 found)
0x1002895b: mov byte [edx-0x76], dh ; add dl, byte [eax] ; jmp dword [0x10028A46+ecx*4] ;  (1 found)
0x10017bca: mov byte [esi], 0x00000000 ; mov eax, edi ; pop edi ; pop esi ; pop ebx ; ret  ;  (1 found)
0x10017eef: mov byte [esi], 0x00000000 ; mov eax, edi ; pop edi ; pop esi ; pop ebx ; ret  ;  (1 found)
0x100174e0: mov byte [esi], 0x00000000 ; pop esi ; pop ebp ; ret  ;  (1 found)
0x100181f2: mov byte [esi], 0x00000020 ; pop edi ; pop esi ; pop ebx ; pop ebp ; ret  ;  (1 found)
0x1002133a: mov ch, 0x04 ; add byte [eax], al ; add byte [eax-0x18], dl ; inc esp ; mov cl, 0xFF ; jmp dword [ebx+0x1002E0C4] ;  (1 found)
0x10018c0f: mov ch, 0xC0 ; hlt  ; add dl, byte [eax] ; call dword [0x10011094] ;  (1 found)
0x10018d70: mov ch, 0xC0 ; hlt  ; add dl, byte [eax] ; call dword [0x10011094] ;  (1 found)
0x10018df8: mov ch, 0xC0 ; hlt  ; add dl, byte [eax] ; call dword [0x10011094] ;  (1 found)
0x100164f5: mov cl, 0x00 ; add byte [ebx-0x3974FB3C], al ; pop esi ; ret  ;  (1 found)
0x10021342: mov cl, 0xFF ; jmp dword [ebx+0x1002E0C4] ;  (1 found)
0x10016c9d: mov cl, ah ; add dl, byte [eax] ; xor eax, eax ; mov ax, word [edx+ecx*2] ; and eax, 0x00000103 ; ret  ;  (1 found)
0x1001cc46: mov cl, ah ; add dl, byte [eax] ; xor eax, eax ; mov ax, word [edx+ecx*2] ; and eax, 0x00008000 ; ret  ;  (1 found)
0x10016f6d: mov cl, ah ; add dl, byte [eax] ; xor eax, eax ; mov ax, word [edx+ecx*2] ; and eax, 0x01 ; ret  ;  (1 found)
0x10016e4f: mov cl, ah ; add dl, byte [eax] ; xor eax, eax ; mov ax, word [edx+ecx*2] ; and eax, 0x02 ; ret  ;  (1 found)
0x10016cfa: mov cl, ah ; add dl, byte [eax] ; xor eax, eax ; mov ax, word [edx+ecx*2] ; and eax, 0x04 ; ret  ;  (1 found)
0x10016f12: mov cl, ah ; add dl, byte [eax] ; xor eax, eax ; mov ax, word [edx+ecx*2] ; and eax, 0x08 ; ret  ;  (1 found)
0x10029c45: mov cl, byte [ebp-0x00008D7B] ; dec dword [ebp-0x0000A363] ; call dword [ebx+0x50] ;  (1 found)
0x10012dbc: mov cl, byte [ebp-0x04] ; mov byte [edi+0x01], cl ; mov byte [eax+0x02], 0x00000000 ; push dword [ebp-0x08] ; push dword [0x1002FF44] ; call dword [0x10011098] ;  (1 found)
0x1001cd5c: mov cl, dh ; add dl, byte [eax] ; ret  ;  (1 found)
0x10020596: mov cx, word [edx] ; sub cx, ax ; cmp cx, 0x0001 ; sbb eax, eax ; and eax, edx ; ret  ;  (1 found)
0x10016917: mov dh, 0x00 ; add byte [eax], al ; call dword [0x1001111C] ;  (1 found)
0x10018031: mov dh, 0x01 ; add eax, edx ; ret  ;  (1 found)
0x100158a4: mov dh, 0x01 ; lea eax, dword [ebp-0x10] ; lea ecx, dword [ebp-0x30] ; push eax ; push ecx ; call dword [0x100110DC] ;  (1 found)
0x1001a757: mov dh, 0x01 ; ret  ;  (1 found)
0x100252bb: mov dh, 0x4A ; add dword [ebx], edi ; enter 0xF37D, 0x83 ; retn 0x8002 ;  (1 found)
0x10023ea9: mov dh, 0x88 ; cmpsd  ; inc ebp ; add dl, byte [eax] ; jmp dword [0x10024577+ecx*4] ;  (1 found)
0x10013cbe: mov dh, 0x88 ; pop edi ; inc ebx ; add dword [eax], edx ; jmp dword [0x1001432F+ecx*4] ;  (1 found)
0x10022a24: mov dh, 0x88 ; xchg eax, ecx ; das  ; add dl, byte [eax] ; jmp dword [0x10022F4D+ecx*4] ;  (1 found)
0x100163cb: mov dl, 0x00 ; add byte [ebx-0x3974FB3C], al ; pop esi ; ret  ;  (1 found)
0x100222f4: mov dl, 0x5D ; pop edi ; pop esi ; pop ebx ; ret  ;  (1 found)
0x100169d6: mov dword [0x00000000], ecx ; pop esi ; pop ebx ; mov esp, ebp ; pop ebp ; ret  ;  (1 found)
0x1001b293: mov dword [0x1002E088], ecx ; ret  ;  (1 found)
0x10020e2f: mov dword [0x1002E0BC], eax ; pop esi ; mov esp, ebp ; pop ebp ; ret  ;  (1 found)
0x1001290b: mov dword [0x1002E148], 0xFFFFFFFF ; ret  ;  (1 found)
0x10011dfb: mov dword [0x1002F124], ecx ; ret  ;  (1 found)
0x1001e1af: mov dword [0x1002F19C], 0x00000000 ; pop ebp ; pop edi ; pop esi ; pop ebx ; ret  ;  (1 found)
0x10021744: mov dword [0x1002FF48], eax ; ret  ;  (1 found)
0x10025eb0: mov dword [0x1002FF58], eax ; mov dword [0x1002FF6C], eax ; ret  ;  (1 found)
0x10025e97: mov dword [0x1002FF64], 0x10025EBB ; mov dword [0x1002FF68], 0x10025F74 ; mov eax, 0x100262B8 ; mov dword [0x1002FF58], eax ; mov dword [0x1002FF6C], eax ; ret  ;  (1 found)
0x10025ea1: mov dword [0x1002FF68], 0x10025F74 ; mov eax, 0x100262B8 ; mov dword [0x1002FF58], eax ; mov dword [0x1002FF6C], eax ; ret  ;  (1 found)
0x10025eb5: mov dword [0x1002FF6C], eax ; ret  ;  (1 found)
0x1001e068: mov dword [0x1002FF90], eax ; call dword [ebx+0x1002F1A0] ;  (1 found)
0x10025bee: mov dword [0x1002FF98], 0x00000000 ; ret  ;  (1 found)
0x10024752: mov dword [0x10030038], 0x00000000 ; add esp, 0x04 ; xor eax, eax ; pop esi ; ret  ;  (1 found)
0x10025015: mov dword [0x10030048], 0x00000000 ; add esp, 0x04 ; xor eax, eax ; pop esi ; ret  ;  (1 found)
0x100212b3: mov dword [0x10033B5C], esi ; mov eax, dword [0x10033B60] ; push eax ; push edi ; call dword [0x100110D0] ;  (1 found)
0x10025b7c: mov dword [0x10033BB0], eax ; xor eax, eax ; ret  ;  (1 found)
0x10025b77: mov dword [0x10033BB4], eax ; mov dword [0x10033BB0], eax ; xor eax, eax ; ret  ;  (1 found)
0x100214c2: mov dword [0x10033CB8], eax ; ret  ;  (1 found)
0x1001212b: mov dword [0x10033EC0], ecx ; ret  ;  (1 found)
0x10011d08: mov dword [0x10033ECC], eax ; call dword [0x10011040] ;  (1 found)
0x10011d13: mov dword [0x10033ED0], eax ; call dword [0x10011104] ;  (1 found)
0x10018dce: mov dword [0xC483FFFF], eax ; add al, 0x33 ; rcr byte [edi+0x5E], 0x0000005B ; mov esp, ebp ; pop ebp ; ret  ;  (1 found)
0x1001f33f: mov dword [0xF472E045], eax ; mov eax, ecx ; pop esi ; pop edi ; leave  ; ret  ;  (1 found)
0x1001e877: mov dword [0xF473E045], eax ; mov eax, ecx ; pop esi ; pop edi ; leave  ; ret  ;  (1 found)
0x10027f39: mov dword [eax+0x08], 0x0000FFFF ; ret  ;  (1 found)
0x100263b4: mov dword [eax+0x10], ebx ; pop ebx ; mov esp, ebp ; pop ebp ; ret  ;  (1 found)
0x1001dbc3: mov dword [eax+0x14], ecx ; mov eax, ecx ; and eax, 0x7FFF0000 ; shr eax, 0x10 ; ret  ;  (1 found)
0x1001dbab: mov dword [eax+0x14], ecx ; ret  ;  (1 found)
0x100263b1: mov dword [eax+0x14], edx ; mov dword [eax+0x10], ebx ; pop ebx ; mov esp, ebp ; pop ebp ; ret  ;  (1 found)
0x10027f33: mov dword [eax+0x20], ecx ; add eax, 0x1C ; mov dword [eax+0x08], 0x0000FFFF ; ret  ;  (1 found)
0x1001603f: mov dword [eax], 0x00000000 ; mov eax, 0xFFFFFFFF ; pop esi ; pop ebp ; ret  ;  (1 found)
0x100160af: mov dword [eax], 0x00000000 ; mov eax, 0xFFFFFFFF ; pop esi ; ret  ;  (1 found)
0x100160ea: mov dword [eax], 0x00000000 ; mov eax, 0xFFFFFFFF ; ret  ;  (1 found)
0x10012f4b: mov dword [eax], 0x0000000F ; mov eax, 0xFFFFFFFF ; pop ebx ; mov esp, ebp ; pop ebp ; ret  ;  (1 found)
0x1001c626: mov dword [eax], 0x00000016 ; mov eax, 0xFFFFFFFF ; pop edi ; pop esi ; pop ebx ; ret  ;  (1 found)
0x10015ebe: mov dword [eax], 0x00000016 ; mov eax, 0xFFFFFFFF ; pop esi ; mov esp, ebp ; pop ebp ; ret  ;  (1 found)
0x100153d2: mov dword [eax], 0x00000016 ; mov eax, 0xFFFFFFFF ; ret  ;  (1 found)
0x1001983b: mov dword [eax], 0x00000016 ; mov eax, 0xFFFFFFFF ; ret  ;  (1 found)
0x1001220c: mov dword [eax], 0x00000016 ; pop esi ; ret  ;  (1 found)
0x1002a9d8: mov dword [eax], 0x00000022 ; ret  ;  (1 found)
0x10020d17: mov dword [eax], 0x0000002A ; mov eax, 0xFFFFFFFF ; pop esi ; mov esp, ebp ; pop ebp ; ret  ;  (1 found)
0x10020d98: mov dword [eax], ecx ; add byte [eax], al ; add esp, 0x04 ; mov eax, esi ; pop esi ; ret  ;  (1 found)
0x10013a5c: mov dword [eax], ecx ; mov ax, word [ecx-0x04] ; ret  ;  (1 found)
0x10021fa2: mov dword [eax], ecx ; mov ax, word [ecx-0x04] ; ret  ;  (1 found)
0x10013a4d: mov dword [eax], ecx ; mov eax, dword [ecx-0x04] ; ret  ;  (1 found)
0x10021f93: mov dword [eax], ecx ; mov eax, dword [ecx-0x04] ; ret  ;  (1 found)
0x10023055: mov dword [eax], ecx ; mov eax, dword [ecx-0x04] ; ret  ;  (1 found)
0x10028c1c: mov dword [eax], ecx ; ret  ;  (1 found)
0x10011c5e: mov dword [eax], edx ; ret  ;  (1 found)
0x1002aba3: mov dword [eax], esi ; pop esi ; mov esp, ebp ; pop ebp ; ret  ;  (1 found)
0x10015e2c: mov dword [ebp-0x02], 0x89660000 ; inc ebp ; cld  ; call dword [0x100110F0] ;  (1 found)
0x10015e81: mov dword [ebp-0x02], 0x89660000 ; inc ebp ; cld  ; call dword [0x100110F0] ;  (1 found)
0x1002aa67: mov dword [ebp-0x02], eax ; fld qword [ebp-0x08] ; mov esp, ebp ; pop ebp ; ret  ;  (1 found)
0x10016822: mov dword [ebp-0x02], edx ; call dword [0x10011114] ;  (1 found)
0x10012c5d: mov dword [ebp-0x04], 0x00000000 ; push dword [esi+0x40] ; call dword [esi+0x3C] ;  (1 found)
0x100169b4: mov dword [ebp-0x04], 0xFFFFFFFF ; push 0x100169CE ; call dword [0x1001111C] ;  (1 found)
0x10015e32: mov dword [ebp-0x04], eax ; call dword [0x100110F0] ;  (1 found)
0x10015e87: mov dword [ebp-0x04], eax ; call dword [0x100110F0] ;  (1 found)
0x1001bd2c: mov dword [ebp-0x04], eax ; fild dword [ebp-0x04] ; mov esp, ebp ; pop ebp ; ret  ;  (1 found)
0x100279fc: mov dword [ebp-0x04], eax ; fld qword [ebp-0x08] ; mov esp, ebp ; pop ebp ; ret  ;  (1 found)
0x10027a1b: mov dword [ebp-0x04], eax ; fld qword [ebp-0x08] ; mov esp, ebp ; pop ebp ; ret  ;  (1 found)
0x1001693b: mov dword [ebp-0x04], eax ; lea eax, dword [ebp-0x38] ; push eax ; call dword [0x1001111C] ;  (1 found)
0x1002abed: mov dword [ebp-0x04], ecx ; fldcw word [ebp-0x04] ; movsx eax, word [ebp-0x02] ; mov esp, ebp ; pop ebp ; ret  ;  (1 found)
0x1001bbf1: mov dword [ebp-0x04], ecx ; push dword [ebp+0x08] ; call dword [ebp+0x18] ;  (1 found)
0x1001681d: mov dword [ebp-0x04], ecx ; push eax ; mov word [ebp-0x02], dx ; call dword [0x10011114] ;  (1 found)
0x10014445: mov dword [ebp-0x04], edi ; push esi ; call dword [0x10011094] ;  (1 found)
0x10028e70: mov dword [ebp-0x04], esi ; fimul dword [ebp-0x04] ; pop esi ; mov esp, ebp ; pop ebp ; ret  ;  (1 found)
0x10016816: mov dword [ebp-0x06], eax ; lea eax, dword [ebp-0x10] ; mov word [ebp-0x04], cx ; push eax ; mov word [ebp-0x02], dx ; call dword [0x10011114] ;  (1 found)
0x100224de: mov dword [ebp-0x08], eax ; push dword [ebp-0x1C] ; call dword [0x10011094] ;  (1 found)
0x10025327: mov dword [ebp-0x0C], eax ; push 0x00000100 ; push dword [ebp-0x04] ; push 0x00000001 ; call dword [0x10011130] ;  (1 found)
0x100194bf: mov dword [ebp-0x10], 0x00000000 ; push 0x00000001 ; push ecx ; push dword [edx] ; call dword [0x1001115C] ;  (1 found)
0x1001a0dd: mov dword [ebp-0x14], eax ; lea eax, dword [ebp-0x00000154] ; push eax ; push esi ; call dword [0x100110D0] ;  (1 found)
0x100193ed: mov dword [ebp-0x14], eax ; push edi ; push ecx ; push dword [eax] ; call dword [0x1001115C] ;  (1 found)
0x100168f9: mov dword [ebp-0x18], esp ; push 0x00000000 ; push 0x00000000 ; call dword [0x1001111C] ;  (1 found)
0x10012c35: mov dword [ebp-0x18], esp ; push esi ; push eax ; call dword [0x10011064] ;  (1 found)
0x100169ad: mov dword [ebp-0x1C], 0xFFFFFFFC ; mov dword [ebp-0x04], 0xFFFFFFFF ; push 0x100169CE ; call dword [0x1001111C] ;  (1 found)
0x10018b89: mov dword [ebp-0x28], 0x00000001 ; mov dword [ebp-0x2C], 0x00000001 ; call dword [0x100110C8] ;  (1 found)
0x10018b90: mov dword [ebp-0x2C], 0x00000001 ; call dword [0x100110C8] ;  (1 found)
0x10016938: mov dword [ebp-0x38], eax ; mov dword [ebp-0x04], eax ; lea eax, dword [ebp-0x38] ; push eax ; call dword [0x1001111C] ;  (1 found)
0x10013764: mov dword [ebp-0x44], edx ; movsx edx, byte [ebp-0x09] ; push edx ; push eax ; push ecx ; call dword [0x1002FF58] ;  (1 found)
0x10021c70: mov dword [ebp-0x44], edx ; movsx edx, byte [ebp-0x09] ; push edx ; push eax ; push ecx ; call dword [0x1002FF58] ;  (1 found)
0x10022d0f: mov dword [ebp-0x48], edx ; movsx edx, bl ; push edx ; push eax ; push ecx ; call dword [0x1002FF58] ;  (1 found)
0x1002857c: mov dword [ebp-0x50], eax ; mov dword [ebp-0x54], ecx ; fnclex  ; lea eax, dword [ebp-0x00000094] ; push eax ; call dword [ebp+0x10] ;  (1 found)
0x1002857f: mov dword [ebp-0x54], ecx ; fnclex  ; lea eax, dword [ebp-0x00000094] ; push eax ; call dword [ebp+0x10] ;  (1 found)
0x100156ce: mov dword [ebx+0x0114247C], 0xC38B0274 ; pop ebp ; pop edi ; pop esi ; pop ebx ; ret  ;  (1 found)
0x10015865: mov dword [ebx+0x02], eax ; push dword [0x1002F4C0+edi*4] ; call dword [0x100110E0] ;  (1 found)
0x10015861: mov dword [ebx+0x08], eax ; mov word [ebx+0x02], ax ; push dword [0x1002F4C0+edi*4] ; call dword [0x100110E0] ;  (1 found)
0x10027388: mov dword [ebx+0x0A], eax ; pop esi ; pop ebx ; mov esp, ebp ; pop ebp ; ret  ;  (1 found)
0x1001585c: mov dword [ebx+0x0A], eax ; push ecx ; mov word [ebx+0x08], ax ; mov word [ebx+0x02], ax ; push dword [0x1002F4C0+edi*4] ; call dword [0x100110E0] ;  (1 found)
0x10014891: mov dword [ebx+0x0C], eax ; call dword [edi+ecx*4+0x08] ;  (1 found)
0x100216b5: mov dword [ebx+0x0C], eax ; call dword [edi+ecx*4+0x08] ;  (1 found)
0x100257cb: mov dword [ebx-0x338A0008], 0x5FC03366 ; pop esi ; pop ebx ; ret  ;  (1 found)
0x10023125: mov dword [ebx], 0x00000000 ; mov eax, 0x0000FFFF ; pop edi ; pop esi ; pop ebx ; ret  ;  (1 found)
0x10015129: mov dword [ebx], 0x00000000 ; mov eax, 0xFFFFFFFF ; pop edi ; pop esi ; pop ebx ; ret  ;  (1 found)
0x100213c4: mov dword [ebx], 0x00000000 ; pop edi ; pop esi ; pop ebx ; add esp, 0x04 ; ret  ;  (1 found)
0x1002af42: mov dword [ecx+0x04], 0x3FF00000 ; mov eax, esi ; pop esi ; mov esp, ebp ; pop ebp ; ret  ;  (1 found)
0x10016a86: mov dword [ecx+0x08], 0x00000000 ; mov eax, dword [ebp-0x04] ; mov esp, ebp ; pop ebp ; ret  ;  (1 found)
0x1001cbba: mov dword [ecx+0x20], 0x00000000 ; pop ebp ; pop edi ; pop esi ; pop ebx ; ret  ;  (1 found)
0x1001211f: mov dword [ecx], 0x00000000 ; mov ecx, dword [0x10033EC8] ; mov dword [0x10033EC0], ecx ; ret  ;  (1 found)
0x1001be8e: mov dword [ecx], eax ; inc eax ; cmp eax, 0x01 ; sbb eax, eax ; ret  ;  (1 found)
0x1001fa7d: mov dword [ecx], eax ; mov esp, ebp ; pop ebp ; ret  ;  (1 found)
0x10011c56: mov dword [ecx], edx ; mov edx, dword [0x1002E0C4] ; mov dword [eax], edx ; ret  ;  (1 found)
0x10014783: mov dword [ecx], edx ; pop edi ; pop esi ; pop ebp ; ret  ;  (1 found)
0x100271dd: mov dword [ecx], esi ; pop esi ; ret  ;  (1 found)
0x10025e75: mov dword [edi+0x08], esi ; pop ebp ; pop edi ; pop esi ; pop ebx ; ret  ;  (1 found)
0x1001a27a: mov dword [edi+0x1C], eax ; call dword [0x100110D8] ;  (1 found)
0x1001eecc: mov dword [edi], 0x00000000 ; pop edi ; pop esi ; pop ebx ; pop ebp ; ret  ;  (1 found)
0x1001d3a0: mov dword [edi], eax ; mov eax, dword [ebp+0x08] ; pop esi ; pop edi ; leave  ; ret  ;  (1 found)
0x1001d4f0: mov dword [edi], eax ; mov eax, dword [ebp+0x08] ; pop esi ; pop edi ; leave  ; ret  ;  (1 found)
0x10027278: mov dword [edx+0x08], eax ; ret  ;  (1 found)
0x10019762: mov dword [edx+0x1C], eax ; sub eax, eax ; ret  ;  (1 found)
0x10012a62: mov dword [edx], eax ; mov eax, 0x00000003 ; ret  ;  (1 found)
0x10025fc6: mov dword [edx], ecx ; mov esp, ebp ; pop ebp ; ret  ;  (1 found)
0x100288ad: mov dword [edx], ecx ; pop edi ; pop esi ; mov esp, ebp ; pop ebp ; ret  ;  (1 found)
0x10015620: mov dword [esi+0x04], 0x00000000 ; pop edi ; pop esi ; pop ebx ; ret  ;  (1 found)
0x100225b6: mov dword [esi+0x04], 0x00000000 ; pop esi ; pop ebx ; ret  ;  (1 found)
0x10023081: mov dword [esi+0x04], eax ; pop esi ; ret  ;  (1 found)
0x100159ad: mov dword [esi+0x06], eax ; lea eax, dword [ebp-0x10] ; push eax ; call dword [0x100110E8] ;  (1 found)
0x1002307a: mov dword [esi+0x08], eax ; and byte [esi+0x0C], 0xFFFFFFF7 ; mov dword [esi+0x04], eax ; pop esi ; ret  ;  (1 found)
0x10015a09: mov dword [esi+0x08], ecx ; mov dword [esi], eax ; pop esi ; mov esp, ebp ; pop ebp ; ret  ;  (1 found)
0x100231da: mov dword [esi+0x08], edi ; pop edi ; pop esi ; ret  ;  (1 found)
0x100231db: mov dword [esi+0x08], edi ; pop edi ; pop esi ; ret  ;  (1 found)
0x1001be04: mov dword [esi+0x0C], 0x00000000 ; mov eax, edi ; pop edi ; pop esi ; ret  ;  (1 found)
0x100231d6: mov dword [esi+0x18], edi ; mov dword [esi], edi ; mov dword [esi+0x08], edi ; pop edi ; pop esi ; ret  ;  (1 found)
0x10012bd2: mov dword [esi+0x44], 0x1002E008 ; push esi ; push 0x10012C0A ; push dword [esp+0x20] ; push 0x00000000 ; call dword [0x1001108C] ;  (1 found)
0x10011ed4: mov dword [esi], 0x0000008A ; push dword [esi] ; push 0x00000008 ; call edx ;  (1 found)
0x100204b6: mov dword [esi], 0x5E5F0000 ; pop ebp ; ret  ;  (1 found)
0x100225b4: mov dword [esi], eax ; mov dword [esi+0x04], 0x00000000 ; pop esi ; pop ebx ; ret  ;  (1 found)
0x10023078: mov dword [esi], eax ; mov dword [esi+0x08], eax ; and byte [esi+0x0C], 0xFFFFFFF7 ; mov dword [esi+0x04], eax ; pop esi ; ret  ;  (1 found)
0x10015a0c: mov dword [esi], eax ; pop esi ; mov esp, ebp ; pop ebp ; ret  ;  (1 found)
0x100272ab: mov dword [esi], eax ; pop esi ; ret  ;  (1 found)
0x100231d9: mov dword [esi], edi ; mov dword [esi+0x08], edi ; pop edi ; pop esi ; ret  ;  (1 found)
0x1002a6ec: mov dword [esi], edx ; pop esi ; pop ebx ; mov esp, ebp ; pop ebp ; ret  ;  (1 found)
0x100169d5: mov dword [fs:0x00000000], ecx ; pop esi ; pop ebx ; mov esp, ebp ; pop ebp ; ret  ;  (1 found)
0x100155bf: mov eax, 0x00000000 ; adc eax, 0xFFFFFFFF ; pop esi ; ret  ;  (1 found)
0x100207ec: mov eax, 0x00000000 ; pop esi ; adc eax, 0xFFFFFFFF ; and eax, ebx ; pop ebx ; ret  ;  (1 found)
0x100127f2: mov eax, 0x00000001 ; adc eax, 0xFFFFFFFF ; ret  ;  (1 found)
0x1001cd11: mov eax, 0x00000001 ; adc eax, 0xFFFFFFFF ; ret  ;  (1 found)
0x100271d4: mov eax, 0x00000001 ; mov ecx, dword [esp+0x10] ; mov dword [ecx], esi ; pop esi ; ret  ;  (1 found)
0x10012845: mov eax, 0x00000001 ; pop ebp ; ret  ;  (1 found)
0x1001288e: mov eax, 0x00000001 ; pop ebp ; ret  ;  (1 found)
0x10016eca: mov eax, 0x00000001 ; pop ebx ; ret  ;  (1 found)
0x10026732: mov eax, 0x00000001 ; pop edi ; pop esi ; ret  ;  (1 found)
0x10026733: mov eax, 0x00000001 ; pop edi ; pop esi ; ret  ;  (1 found)
0x10012422: mov eax, 0x00000001 ; pop edi ; pop esi ; retn 0x0004 ;  (1 found)
0x10020360: mov eax, 0x00000001 ; pop esi ; ret  ;  (1 found)
0x10012ae1: mov eax, 0x00000001 ; ret  ;  (1 found)
0x1001698e: mov eax, 0x00000001 ; ret  ;  (1 found)
0x10026873: mov eax, 0x00000001 ; ret  ;  (1 found)
0x10026874: mov eax, 0x00000001 ; ret  ;  (1 found)
0x10027df3: mov eax, 0x00000001 ; ret  ;  (1 found)
0x10028b35: mov eax, 0x00000001 ; ret  ;  (1 found)
0x10029fbd: mov eax, 0x00000001 ; ret  ;  (1 found)
0x10016c35: mov eax, 0x00000001 ; retn 0x0004 ;  (1 found)
0x10012a64: mov eax, 0x00000003 ; ret  ;  (1 found)
0x10028b1d: mov eax, 0x0000001F ; ret  ;  (1 found)
0x1002312b: mov eax, 0x0000FFFF ; pop edi ; pop esi ; pop ebx ; ret  ;  (1 found)
0x10013763: mov eax, 0x0FBC5589 ; mov esi, 0x5052F755 ; push ecx ; call dword [0x1002FF58] ;  (1 found)
0x10021c6f: mov eax, 0x0FBC5589 ; mov esi, 0x5052F755 ; push ecx ; call dword [0x1002FF58] ;  (1 found)
0x10025eab: mov eax, 0x100262B8 ; mov dword [0x1002FF58], eax ; mov dword [0x1002FF6C], eax ; ret  ;  (1 found)
0x100137a3: mov eax, 0x50FFFFFD ; call dword [0x1002FF5C] ;  (1 found)
0x10021caf: mov eax, 0x50FFFFFD ; call dword [0x1002FF5C] ;  (1 found)
0x10013789: mov eax, 0x50FFFFFD ; call dword [0x1002FF64] ;  (1 found)
0x10021c95: mov eax, 0x50FFFFFD ; call dword [0x1002FF64] ;  (1 found)
0x1001a1f6: mov eax, 0x50FFFFFE ; push ecx ; call dword [0x100110DC] ;  (1 found)
0x10022d11: mov eax, 0x52D3BE0F ; push eax ; push ecx ; call dword [0x1002FF58] ;  (1 found)
0x1002008e: mov eax, 0x5E5FFFFF ; mov esp, ebp ; pop ebp ; ret  ;  (1 found)
0x1002a9f4: mov eax, 0x72100338 ; xor eax, eax ; ret  ;  (1 found)
0x10016a9f: mov eax, 0x761002F3 ; or esi, dword [ebx] ; ror byte [edx+0x02F3C081], 0x00000010 ; and eax, 0x40 ; ret  ;  (1 found)
0x10015fd5: mov eax, 0x7E1002F3 ; add cl, byte [ebx+0x5B5E5FC6] ; ret  ;  (1 found)
0x1001b455: mov eax, 0x7FFFFFFF ; pop ebp ; ret  ;  (1 found)
0x10012e69: mov eax, 0x830000E7 ; les eax,  [ebx+esi] ; shr bl, 0x0000001E ; call dword [0x10011058] ;  (1 found)
0x10025eac: mov eax, 0xA3100262 ; pop eax ; inc dword [edx] ; adc byte [ebx+0x1002FF6C], ah ; ret  ;  (1 found)
0x1001dc04: mov eax, 0xFF10033C ; adc eax, 0x100110CC ; pop ebp ; ret  ;  (1 found)
0x1001876a: mov eax, 0xFF10033C ; adc eax, 0x1001114C ; ret  ;  (1 found)
0x1001c4cd: mov eax, 0xFF10033C ; adc eax, 0x10011188 ; ret  ;  (1 found)
0x10021463: mov eax, 0xFFFFFFF5 ; adc eax, 0xFFFFFFFF ; push eax ; call dword [0x10011194] ;  (1 found)
0x100190ba: mov eax, 0xFFFFFFFF ; mov esp, ebp ; pop ebp ; ret  ;  (1 found)
0x1001e47d: mov eax, 0xFFFFFFFF ; pop ebp ; pop edi ; pop esi ; pop ebx ; ret  ;  (1 found)
0x10012f51: mov eax, 0xFFFFFFFF ; pop ebx ; mov esp, ebp ; pop ebp ; ret  ;  (1 found)
0x1001446a: mov eax, 0xFFFFFFFF ; pop edi ; pop esi ; mov esp, ebp ; pop ebp ; ret  ;  (1 found)
0x10019049: mov eax, 0xFFFFFFFF ; pop edi ; pop esi ; mov esp, ebp ; pop ebp ; ret  ;  (1 found)
0x10012e8d: mov eax, 0xFFFFFFFF ; pop edi ; pop esi ; pop ebx ; add esp, 0x04 ; ret  ;  (1 found)
0x1001512f: mov eax, 0xFFFFFFFF ; pop edi ; pop esi ; pop ebx ; ret  ;  (1 found)
0x1001c62c: mov eax, 0xFFFFFFFF ; pop edi ; pop esi ; pop ebx ; ret  ;  (1 found)
0x1001ff3f: mov eax, 0xFFFFFFFF ; pop edi ; pop esi ; pop ebx ; ret  ;  (1 found)
0x10012c02: mov eax, 0xFFFFFFFF ; pop edi ; pop esi ; ret  ;  (1 found)
0x10015ec4: mov eax, 0xFFFFFFFF ; pop esi ; mov esp, ebp ; pop ebp ; ret  ;  (1 found)
0x10020d1d: mov eax, 0xFFFFFFFF ; pop esi ; mov esp, ebp ; pop ebp ; ret  ;  (1 found)
0x10016045: mov eax, 0xFFFFFFFF ; pop esi ; pop ebp ; ret  ;  (1 found)
0x1002262a: mov eax, 0xFFFFFFFF ; pop esi ; pop ebp ; ret  ;  (1 found)
0x100160b5: mov eax, 0xFFFFFFFF ; pop esi ; ret  ;  (1 found)
0x100162b6: mov eax, 0xFFFFFFFF ; pop esi ; ret  ;  (1 found)
0x100177f1: mov eax, 0xFFFFFFFF ; pop esi ; ret  ;  (1 found)
0x10012f9a: mov eax, 0xFFFFFFFF ; ret  ;  (1 found)
0x100153d8: mov eax, 0xFFFFFFFF ; ret  ;  (1 found)
0x100160f0: mov eax, 0xFFFFFFFF ; ret  ;  (1 found)
0x100163f5: mov eax, 0xFFFFFFFF ; ret  ;  (1 found)
0x10019841: mov eax, 0xFFFFFFFF ; ret  ;  (1 found)
0x1001b28a: mov eax, dword [0x1002E088] ; mov ecx, dword [esp+0x04] ; mov dword [0x1002E088], ecx ; ret  ;  (1 found)
0x100128c3: mov eax, dword [0x1002E148] ; push eax ; call dword [0x10011064] ;  (1 found)
0x1001293c: mov eax, dword [0x1002E148] ; push eax ; call dword [0x10011064] ;  (1 found)
0x10012a0c: mov eax, dword [0x1002E148] ; push eax ; call dword [0x10011064] ;  (1 found)
0x10012917: mov eax, dword [0x1002E148] ; push eax ; call dword [0x10011070] ;  (1 found)
0x1001298f: mov eax, dword [0x1002E148] ; push eax ; call dword [0x10011070] ;  (1 found)
0x10011df2: mov eax, dword [0x1002F124] ; mov ecx, dword [esp+0x04] ; mov dword [0x1002F124], ecx ; ret  ;  (1 found)
0x1001cd5b: mov eax, dword [0x1002F188] ; ret  ;  (1 found)
0x10021531: mov eax, dword [0x1002F4C8] ; push ecx ; push edx ; push eax ; call dword [0x10011180] ;  (1 found)
0x1002155b: mov eax, dword [0x1002FA64] ; push eax ; call esi ;  (1 found)
0x100215a2: mov eax, dword [0x1002FA64] ; push eax ; call esi ;  (1 found)
0x100215aa: mov eax, dword [0x1002FA74] ; push eax ; call esi ;  (1 found)
0x100215b2: mov eax, dword [0x1002FA84] ; push eax ; call esi ;  (1 found)
0x10021545: mov eax, dword [0x1002FA84] ; push eax ; mov esi, dword [0x1001119C] ; call esi ;  (1 found)
0x10016338: mov eax, dword [0x1002FF44] ; push dword [ebp-0x08] ; push esi ; push eax ; call dword [0x100110FC] ;  (1 found)
0x10012d5c: mov eax, dword [0x1002FF44] ; push edx ; push ebx ; push eax ; call dword [0x1001109C] ;  (1 found)
0x1001a67f: mov eax, dword [0x1002FF90] ; push dword [ebp+0x0C] ; push 0x00000001 ; push eax ; call dword [0x10011134] ;  (1 found)
0x1001e7bb: mov eax, dword [0x1002FF90] ; push dword [ebp+0x0C] ; push 0x00000001 ; push eax ; call dword [0x10011134] ;  (1 found)
0x100252da: mov eax, dword [0x1002FF90] ; push ebx ; push eax ; call dword [0x10011134] ;  (1 found)
0x1001cfbb: mov eax, dword [0x1002FF98] ; or al, 0x01 ; push eax ; push dword [0x1002FF90] ; call dword [0x10011134] ;  (1 found)
0x1001c01a: mov eax, dword [0x1002FF98] ; push ecx ; or al, 0x01 ; push eax ; push dword [0x1002FF90] ; call dword [0x10011134] ;  (1 found)
0x1001d2c5: mov eax, dword [0x1002FF98] ; push edx ; or al, 0x01 ; push eax ; push dword [0x1002FF90] ; call dword [0x10011134] ;  (1 found)
0x1001d284: mov eax, dword [0x1002FF98] ; push edx ; or al, 0x01 ; push eax ; push dword [0x1002FF90] ; call dword [0x10011134] ;  (1 found)
0x100212da: mov eax, dword [0x10033B5C] ; push eax ; call dword [0x100110D4] ;  (1 found)
0x100212ea: mov eax, dword [0x10033B5C] ; push eax ; call dword [0x100110D8] ;  (1 found)
0x10021304: mov eax, dword [0x10033B60] ; add eax, 0x2C ; pop edi ; pop esi ; ret  ;  (1 found)
0x100212d4: mov eax, dword [0x10033B60] ; push eax ; mov eax, dword [0x10033B5C] ; push eax ; call dword [0x100110D4] ;  (1 found)
0x100212b9: mov eax, dword [0x10033B60] ; push eax ; push edi ; call dword [0x100110D0] ;  (1 found)
0x1001c499: mov eax, dword [0x10033CB8] ; push 0x00000000 ; push eax ; call dword [0x10011184] ;  (1 found)
0x1001bc5c: mov eax, dword [0x10033CB8] ; push 0x00000008 ; push eax ; call dword [0x10011184] ;  (1 found)
0x10014eeb: mov eax, dword [0x10033CB8] ; push 0x00000010 ; push eax ; call dword [0x100110CC] ;  (1 found)
0x10016301: mov eax, dword [0x8D000000] ; inc ebp ; clc  ; push eax ; push dword [0x1002FF44] ; call dword [0x10011100] ;  (1 found)
0x1001b321: mov eax, dword [0xC483FFFF] ; or byte [ebx-0x1A74A13A], cl ; pop ebp ; ret  ;  (1 found)
0x10017757: mov eax, dword [0xEB000000] ; push es ; sub esi, 0x000000A2 ; mov eax, esi ; pop esi ; ret  ;  (1 found)
0x10025c24: mov eax, dword [eax+0x04] ; jmp eax ;  (1 found)
0x1001be14: mov eax, dword [eax+0x0C] ; and eax, 0x10 ; ret  ;  (1 found)
0x1001be1f: mov eax, dword [eax+0x0C] ; and eax, 0x20 ; ret  ;  (1 found)
0x1001975f: mov eax, dword [eax+0x0C] ; mov dword [edx+0x1C], eax ; sub eax, eax ; ret  ;  (1 found)
0x10025804: mov eax, dword [eax+0x100329C0] ; ret  ;  (1 found)
0x100151bf: mov eax, dword [eax+0x10] ; ret  ;  (1 found)
0x1002bc4d: mov eax, dword [eax] ; add byte [eax+edx*4+0x00], dl ; add byte [edi-0x70], bl ; add byte [eax], al ; ret  ;  (1 found)
0x10024680: mov eax, dword [eax] ; add eax, 0x3FFFFFFB ; cmp eax, 0x01 ; sbb eax, eax ; neg eax ; ret  ;  (1 found)
0x10015e7d: mov eax, dword [eax] ; push ecx ; mov word [ebp-0x02], 0x0000 ; mov word [ebp-0x04], ax ; call dword [0x100110F0] ;  (1 found)
0x10015e7c: mov eax, dword [eax] ; push ecx ; mov word [ebp-0x02], 0x0000 ; mov word [ebp-0x04], ax ; call dword [0x100110F0] ;  (1 found)
0x10015e27: mov eax, dword [eax] ; push edx ; mov word [ebp-0x02], 0x0000 ; mov word [ebp-0x04], ax ; call dword [0x100110F0] ;  (1 found)
0x10015e28: mov eax, dword [eax] ; push edx ; mov word [ebp-0x02], 0x0000 ; mov word [ebp-0x04], ax ; call dword [0x100110F0] ;  (1 found)
0x1001d61c: mov eax, dword [ebp+0x08] ; pop edi ; leave  ; ret  ;  (1 found)
0x1001782e: mov eax, dword [ebp+0x08] ; pop edi ; pop esi ; leave  ; ret  ;  (1 found)
0x1001e692: mov eax, dword [ebp+0x08] ; pop edi ; pop esi ; leave  ; ret  ;  (1 found)
0x10028b78: mov eax, dword [ebp+0x08] ; pop edi ; pop esi ; pop ebp ; ret  ;  (1 found)
0x100260ff: mov eax, dword [ebp+0x08] ; pop edi ; pop esi ; pop ebx ; pop ebp ; ret  ;  (1 found)
0x1001d394: mov eax, dword [ebp+0x08] ; pop esi ; pop edi ; leave  ; ret  ;  (1 found)
0x1001d3a2: mov eax, dword [ebp+0x08] ; pop esi ; pop edi ; leave  ; ret  ;  (1 found)
0x1001d3b0: mov eax, dword [ebp+0x08] ; pop esi ; pop edi ; leave  ; ret  ;  (1 found)
0x1001d3e2: mov eax, dword [ebp+0x08] ; pop esi ; pop edi ; leave  ; ret  ;  (1 found)
0x1001d42f: mov eax, dword [ebp+0x08] ; pop esi ; pop edi ; leave  ; ret  ;  (1 found)
0x1001d44f: mov eax, dword [ebp+0x08] ; pop esi ; pop edi ; leave  ; ret  ;  (1 found)
0x1001d441: mov eax, dword [ebp+0x08] ; pop esi ; pop edi ; leave  ; ret  ;  (1 found)
0x1001d487: mov eax, dword [ebp+0x08] ; pop esi ; pop edi ; leave  ; ret  ;  (1 found)
0x1001d500: mov eax, dword [ebp+0x08] ; pop esi ; pop edi ; leave  ; ret  ;  (1 found)
0x1001d4f2: mov eax, dword [ebp+0x08] ; pop esi ; pop edi ; leave  ; ret  ;  (1 found)
0x1001d4e4: mov eax, dword [ebp+0x08] ; pop esi ; pop edi ; leave  ; ret  ;  (1 found)
0x1001d532: mov eax, dword [ebp+0x08] ; pop esi ; pop edi ; leave  ; ret  ;  (1 found)
0x1001d591: mov eax, dword [ebp+0x08] ; pop esi ; pop edi ; leave  ; ret  ;  (1 found)
0x1001d59f: mov eax, dword [ebp+0x08] ; pop esi ; pop edi ; leave  ; ret  ;  (1 found)
0x1001d57f: mov eax, dword [ebp+0x08] ; pop esi ; pop edi ; leave  ; ret  ;  (1 found)
0x1001d5d7: mov eax, dword [ebp+0x08] ; pop esi ; pop edi ; leave  ; ret  ;  (1 found)
0x1001b86e: mov eax, dword [ebp+0x08] ; push dword [0x1002F4C0+eax*4] ; call dword [0x10011180] ;  (1 found)
0x1001b892: mov eax, dword [ebp+0x08] ; push dword [ebp+0x10] ; push dword [ebp+0x0C] ; push dword [0x1002F4C0+eax*4] ; call dword [0x10011180] ;  (1 found)
0x100170ea: mov eax, dword [ebp+0x0C] ; mov esp, ebp ; pop ebp ; ret  ;  (1 found)
0x1001711e: mov eax, dword [ebp+0x0C] ; mov esp, ebp ; pop ebp ; ret  ;  (1 found)
0x10017152: mov eax, dword [ebp+0x0C] ; mov esp, ebp ; pop ebp ; ret  ;  (1 found)
0x10017012: mov eax, dword [ebp+0x0C] ; pop ebp ; ret  ;  (1 found)
0x1001709d: mov eax, dword [ebp+0x0C] ; pop ebp ; ret  ;  (1 found)
0x100170b8: mov eax, dword [ebp+0x0C] ; pop ebp ; ret  ;  (1 found)
0x10017396: mov eax, dword [ebp+0x0C] ; pop edi ; pop esi ; pop ebx ; pop ebp ; ret  ;  (1 found)
0x1002aba0: mov eax, dword [ebp+0x10] ; mov dword [eax], esi ; pop esi ; mov esp, ebp ; pop ebp ; ret  ;  (1 found)
0x10011c52: mov eax, dword [ebp+0x10] ; pop ebp ; mov dword [ecx], edx ; mov edx, dword [0x1002E0C4] ; mov dword [eax], edx ; ret  ;  (1 found)
0x10018bee: mov eax, dword [ebp+ebx*4-0x20] ; push dword [ebp-0x08] ; push dword [0x1002F4C0+eax*4] ; push dword [ebp-0x08] ; call dword [0x100110C4] ;  (1 found)
0x1001fdd2: mov eax, dword [ebp-0x02] ; add esp, 0x04 ; mov esp, ebp ; pop ebp ; ret  ;  (1 found)
0x1001fe8c: mov eax, dword [ebp-0x02] ; add esp, 0x04 ; mov esp, ebp ; pop ebp ; ret  ;  (1 found)
0x10016a8d: mov eax, dword [ebp-0x04] ; mov esp, ebp ; pop ebp ; ret  ;  (1 found)
0x1001bd62: mov eax, dword [ebp-0x08] ; mov edx, dword [ebp-0x04] ; pop esi ; mov esp, ebp ; pop ebp ; ret  ;  (1 found)
0x1001cd50: mov eax, dword [ebp-0x08] ; mov edx, dword [ebp-0x04] ; pop esi ; mov esp, ebp ; pop ebp ; ret  ;  (1 found)
0x10028c3f: mov eax, dword [ebp-0x0C] ; mov edx, dword [ebp-0x08] ; leave  ; ret  ;  (1 found)
0x100224db: mov eax, dword [ebp-0x20] ; mov dword [ebp-0x08], eax ; push dword [ebp-0x1C] ; call dword [0x10011094] ;  (1 found)
0x1001e065: mov eax, dword [ebp-0x28] ; mov dword [0x1002FF90], eax ; call dword [ebx+0x1002F1A0] ;  (1 found)
0x10013a4f: mov eax, dword [ecx-0x04] ; ret  ;  (1 found)
0x10013a5f: mov eax, dword [ecx-0x04] ; ret  ;  (1 found)
0x10021f95: mov eax, dword [ecx-0x04] ; ret  ;  (1 found)
0x10021fa5: mov eax, dword [ecx-0x04] ; ret  ;  (1 found)
0x10023057: mov eax, dword [ecx-0x04] ; ret  ;  (1 found)
0x1001488e: mov eax, dword [edi+ecx*4] ; mov dword [ebx+0x0C], eax ; call dword [edi+ecx*4+0x08] ;  (1 found)
0x100216b2: mov eax, dword [edi+ecx*4] ; mov dword [ebx+0x0C], eax ; call dword [edi+ecx*4+0x08] ;  (1 found)
0x100125b8: mov eax, dword [edx+0x04] ; sub eax, ecx ; cmp eax, 0x01 ; sbb eax, eax ; and eax, edx ; ret  ;  (1 found)
0x100126be: mov eax, dword [edx+ecx*2] ; and eax, 0x00000080 ; ret  ;  (1 found)
0x10012601: mov eax, dword [edx+ecx*2] ; and eax, 0x00000103 ; ret  ;  (1 found)
0x10016ca4: mov eax, dword [edx+ecx*2] ; and eax, 0x00000103 ; ret  ;  (1 found)
0x1001274d: mov eax, dword [edx+ecx*2] ; and eax, 0x00000107 ; ret  ;  (1 found)
0x100127b3: mov eax, dword [edx+ecx*2] ; and eax, 0x00000117 ; ret  ;  (1 found)
0x10012780: mov eax, dword [edx+ecx*2] ; and eax, 0x00000157 ; ret  ;  (1 found)
0x1001cc4d: mov eax, dword [edx+ecx*2] ; and eax, 0x00008000 ; ret  ;  (1 found)
0x10012631: mov eax, dword [edx+ecx*2] ; and eax, 0x01 ; ret  ;  (1 found)
0x10016f74: mov eax, dword [edx+ecx*2] ; and eax, 0x01 ; ret  ;  (1 found)
0x1001265f: mov eax, dword [edx+ecx*2] ; and eax, 0x02 ; ret  ;  (1 found)
0x10016e56: mov eax, dword [edx+ecx*2] ; and eax, 0x02 ; ret  ;  (1 found)
0x1001268d: mov eax, dword [edx+ecx*2] ; and eax, 0x04 ; ret  ;  (1 found)
0x10016d01: mov eax, dword [edx+ecx*2] ; and eax, 0x04 ; ret  ;  (1 found)
0x100126ee: mov eax, dword [edx+ecx*2] ; and eax, 0x08 ; ret  ;  (1 found)
0x10016f19: mov eax, dword [edx+ecx*2] ; and eax, 0x08 ; ret  ;  (1 found)
0x1001271c: mov eax, dword [edx+ecx*2] ; and eax, 0x10 ; ret  ;  (1 found)
0x100127e3: mov eax, dword [edx+ecx*2] ; and eax, 0x20 ; ret  ;  (1 found)
0x10011f24: mov eax, dword [edx] ; sub eax, ecx ; cmp eax, 0x01 ; sbb eax, eax ; and eax, edx ; ret  ;  (1 found)
0x1001ac46: mov eax, dword [esp+0x04] ; add eax, 0x20 ; ret  ;  (1 found)
0x1001a7b1: mov eax, dword [esp+0x04] ; add eax, dword [esp+0x08] ; ret  ;  (1 found)
0x100127fb: mov eax, dword [esp+0x04] ; and eax, 0x7F ; ret  ;  (1 found)
0x1001b9a2: mov eax, dword [esp+0x04] ; cdq  ; xor eax, edx ; sub eax, edx ; ret  ;  (1 found)
0x1001cd1a: mov eax, dword [esp+0x04] ; cdq  ; xor eax, edx ; sub eax, edx ; ret  ;  (1 found)
0x1001a70b: mov eax, dword [esp+0x04] ; inc eax ; ret  ;  (1 found)
0x1001be10: mov eax, dword [esp+0x04] ; mov eax, dword [eax+0x0C] ; and eax, 0x10 ; ret  ;  (1 found)
0x1001be1b: mov eax, dword [esp+0x04] ; mov eax, dword [eax+0x0C] ; and eax, 0x20 ; ret  ;  (1 found)
0x100151bb: mov eax, dword [esp+0x04] ; mov eax, dword [eax+0x10] ; ret  ;  (1 found)
0x10013a53: mov eax, dword [esp+0x04] ; mov ecx, dword [eax] ; add ecx, 0x04 ; mov dword [eax], ecx ; mov ax, word [ecx-0x04] ; ret  ;  (1 found)
0x10021f99: mov eax, dword [esp+0x04] ; mov ecx, dword [eax] ; add ecx, 0x04 ; mov dword [eax], ecx ; mov ax, word [ecx-0x04] ; ret  ;  (1 found)
0x10013a44: mov eax, dword [esp+0x04] ; mov ecx, dword [eax] ; add ecx, 0x04 ; mov dword [eax], ecx ; mov eax, dword [ecx-0x04] ; ret  ;  (1 found)
0x10021f8a: mov eax, dword [esp+0x04] ; mov ecx, dword [eax] ; add ecx, 0x04 ; mov dword [eax], ecx ; mov eax, dword [ecx-0x04] ; ret  ;  (1 found)
0x1002304c: mov eax, dword [esp+0x04] ; mov ecx, dword [eax] ; add ecx, 0x04 ; mov dword [eax], ecx ; mov eax, dword [ecx-0x04] ; ret  ;  (1 found)
0x1001adf2: mov eax, dword [esp+0x04] ; sub eax, 0x20 ; ret  ;  (1 found)
0x1001cf43: mov eax, dword [esp+0x08] ; cmp eax, 0x01 ; adc eax, 0x00000000 ; mov esp, dword [edx+0x10] ; add esp, 0x04 ; jmp dword [edx+0x14] ;  (1 found)
0x1001a47e: mov eax, dword [esp+0x08] ; dec eax ; ret  ;  (1 found)
0x10021626: mov eax, dword [esp+0x08] ; mov ebp, esp ; push dword [0x1002FA40+eax*4] ; call dword [0x100111A8] ;  (1 found)
0x10012a5a: mov eax, dword [esp+0x08] ; mov edx, dword [esp+0x10] ; mov dword [edx], eax ; mov eax, 0x00000003 ; ret  ;  (1 found)
0x100202f4: mov eax, dword [esp+0x08] ; pop esi ; ret  ;  (1 found)
0x1002aa72: mov eax, dword [esp+0x0A] ; and ax, 0x00007FF0 ; shr ax, 0x0004 ; sub ax, 0x000003FE ; movsx eax, ax ; ret  ;  (1 found)
0x1001c0bd: mov eax, ebp ; pop ebp ; pop edi ; pop esi ; pop ebx ; ret  ;  (1 found)
0x1001ba7e: mov eax, ebp ; pop ebp ; pop edi ; pop esi ; pop ebx ; ret  ;  (1 found)
0x1001c7e3: mov eax, ebp ; pop ebp ; pop edi ; pop esi ; pop ebx ; ret  ;  (1 found)
0x100200e7: mov eax, ebp ; pop ebp ; pop edi ; pop esi ; pop ebx ; ret  ;  (1 found)
0x1002013e: mov eax, ebp ; pop ebp ; pop edi ; pop esi ; pop ebx ; ret  ;  (1 found)
0x100156d6: mov eax, ebx ; pop ebp ; pop edi ; pop esi ; pop ebx ; ret  ;  (1 found)
0x100151b4: mov eax, ebx ; pop ebp ; pop edi ; pop esi ; pop ebx ; ret  ;  (1 found)
0x1001a5c1: mov eax, ebx ; pop ebp ; pop edi ; pop esi ; pop ebx ; ret  ;  (1 found)
0x10025157: mov eax, ebx ; pop ebp ; pop edi ; pop esi ; pop ebx ; ret  ;  (1 found)
0x1001c115: mov eax, ebx ; pop edi ; pop esi ; pop ebx ; pop ebp ; ret  ;  (1 found)
0x1001e5be: mov eax, ebx ; pop edi ; pop esi ; pop ebx ; pop ebp ; ret  ;  (1 found)
0x1002045d: mov eax, ebx ; pop edi ; pop esi ; pop ebx ; pop ebp ; ret  ;  (1 found)
0x10020c74: mov eax, ebx ; pop edi ; pop esi ; pop ebx ; pop ebp ; ret  ;  (1 found)
0x10026216: mov eax, ebx ; pop edi ; pop esi ; pop ebx ; pop ebp ; ret  ;  (1 found)
0x1001be6b: mov eax, ebx ; pop edi ; pop esi ; pop ebx ; ret  ;  (1 found)
0x1001d93d: mov eax, ebx ; pop edi ; pop esi ; pop ebx ; ret  ;  (1 found)
0x1001fb1d: mov eax, ebx ; pop edi ; pop esi ; pop ebx ; ret  ;  (1 found)
0x10020189: mov eax, ebx ; pop edi ; pop esi ; pop ebx ; ret  ;  (1 found)
0x100202a1: mov eax, ebx ; pop edi ; pop esi ; pop ebx ; ret  ;  (1 found)
0x10020535: mov eax, ebx ; pop edi ; pop esi ; pop ebx ; ret  ;  (1 found)
0x10020d6c: mov eax, ebx ; pop edi ; pop esi ; pop ebx ; ret  ;  (1 found)
0x1001dbc6: mov eax, ecx ; and eax, 0x7FFF0000 ; shr eax, 0x10 ; ret  ;  (1 found)
0x1001865e: mov eax, ecx ; pop ebx ; pop esi ; pop edi ; leave  ; ret  ;  (1 found)
0x1001a7aa: mov eax, ecx ; pop ebx ; pop esi ; pop edi ; leave  ; ret  ;  (1 found)
0x1001f27d: mov eax, ecx ; pop ebx ; pop esi ; pop edi ; leave  ; ret  ;  (1 found)
0x1001f211: mov eax, ecx ; pop edi ; leave  ; ret  ;  (1 found)
0x1001a74e: mov eax, ecx ; pop edi ; ret  ;  (1 found)
0x1001e87c: mov eax, ecx ; pop esi ; pop edi ; leave  ; ret  ;  (1 found)
0x1001f344: mov eax, ecx ; pop esi ; pop edi ; leave  ; ret  ;  (1 found)
0x1001f309: mov eax, edi ; cld  ; pop edi ; leave  ; ret  ;  (1 found)
0x1001561e: mov eax, edi ; mov dword [esi+0x04], 0x00000000 ; pop edi ; pop esi ; pop ebx ; ret  ;  (1 found)
0x1001e6bc: mov eax, edi ; pop edi ; leave  ; ret  ;  (1 found)
0x10026032: mov eax, edi ; pop edi ; pop esi ; mov esp, ebp ; pop ebp ; ret  ;  (1 found)
0x1001c368: mov eax, edi ; pop edi ; pop esi ; pop ebp ; ret  ;  (1 found)
0x1001c5b6: mov eax, edi ; pop edi ; pop esi ; pop ebp ; ret  ;  (1 found)
0x1001c577: mov eax, edi ; pop edi ; pop esi ; pop ebp ; ret  ;  (1 found)
0x1001c826: mov eax, edi ; pop edi ; pop esi ; pop ebp ; ret  ;  (1 found)
0x1001c9a7: mov eax, edi ; pop edi ; pop esi ; pop ebp ; ret  ;  (1 found)
0x10018eb4: mov eax, edi ; pop edi ; pop esi ; pop ebx ; add esp, 0x04 ; ret  ;  (1 found)
0x10012197: mov eax, edi ; pop edi ; pop esi ; pop ebx ; ret  ;  (1 found)
0x10017bcd: mov eax, edi ; pop edi ; pop esi ; pop ebx ; ret  ;  (1 found)
0x10017ef2: mov eax, edi ; pop edi ; pop esi ; pop ebx ; ret  ;  (1 found)
0x100195f5: mov eax, edi ; pop edi ; pop esi ; pop ebx ; ret  ;  (1 found)
0x1001bdb3: mov eax, edi ; pop edi ; pop esi ; pop ebx ; ret  ;  (1 found)
0x100143d6: mov eax, edi ; pop edi ; pop esi ; ret  ;  (1 found)
0x10015760: mov eax, edi ; pop edi ; pop esi ; ret  ;  (1 found)
0x10014f50: mov eax, edi ; pop edi ; pop esi ; ret  ;  (1 found)
0x10017443: mov eax, edi ; pop edi ; pop esi ; ret  ;  (1 found)
0x1001c538: mov eax, edi ; pop edi ; pop esi ; ret  ;  (1 found)
0x1001be0b: mov eax, edi ; pop edi ; pop esi ; ret  ;  (1 found)
0x1001caa0: mov eax, edi ; pop edi ; pop esi ; ret  ;  (1 found)
0x10018615: mov eax, edi ; pop esi ; pop edi ; leave  ; ret  ;  (1 found)
0x1001a731: mov eax, edx ; leave  ; ret  ;  (1 found)
0x1001a911: mov eax, edx ; leave  ; ret  ;  (1 found)
0x1001a7df: mov eax, edx ; pop ebx ; pop edi ; leave  ; ret  ;  (1 found)
0x1001a833: mov eax, edx ; pop edi ; leave  ; ret  ;  (1 found)
0x1001e8e6: mov eax, edx ; pop edi ; pop esi ; ret  ;  (1 found)
0x10015f6a: mov eax, edx ; pop esi ; pop ebx ; mov esp, ebp ; pop ebp ; ret  ;  (1 found)
0x10025dc0: mov eax, edx ; pop esi ; pop ebx ; mov esp, ebp ; pop ebp ; ret  ;  (1 found)
0x1001a812: mov eax, edx ; pop esi ; pop edi ; leave  ; ret  ;  (1 found)
0x1001a811: mov eax, edx ; pop esi ; pop edi ; leave  ; ret  ;  (1 found)
0x1001f2a2: mov eax, edx ; pop esi ; pop edi ; leave  ; ret  ;  (1 found)
0x1001f243: mov eax, edx ; pop esi ; pop edi ; leave  ; ret  ;  (1 found)
0x1001bf4e: mov eax, esi ; add esp, 0x04 ; pop edi ; pop esi ; ret  ;  (1 found)
0x1001c1e0: mov eax, esi ; add esp, 0x04 ; pop edi ; pop esi ; ret  ;  (1 found)
0x1001ff7d: mov eax, esi ; add esp, 0x04 ; pop edi ; pop esi ; ret  ;  (1 found)
0x10014781: mov eax, esi ; mov dword [ecx], edx ; pop edi ; pop esi ; pop ebp ; ret  ;  (1 found)
0x1001932b: mov eax, esi ; pop ebp ; pop edi ; pop esi ; pop ebx ; ret  ;  (1 found)
0x1001b58b: mov eax, esi ; pop ebp ; pop edi ; pop esi ; pop ebx ; ret  ;  (1 found)
0x1001b762: mov eax, esi ; pop ebp ; pop edi ; pop esi ; pop ebx ; ret  ;  (1 found)
0x1002256d: mov eax, esi ; pop ebp ; pop edi ; pop esi ; pop ebx ; ret  ;  (1 found)
0x10013ab4: mov eax, esi ; pop edi ; pop esi ; add esp, 0x04 ; ret  ;  (1 found)
0x10014810: mov eax, esi ; pop edi ; pop esi ; pop ebx ; ret  ;  (1 found)
0x10015fdb: mov eax, esi ; pop edi ; pop esi ; pop ebx ; ret  ;  (1 found)
0x100185a0: mov eax, esi ; pop edi ; pop esi ; pop ebx ; ret  ;  (1 found)
0x1001d9ce: mov eax, esi ; pop edi ; pop esi ; pop ebx ; ret  ;  (1 found)
0x10013250: mov eax, esi ; pop edi ; pop esi ; ret  ;  (1 found)
0x10012fe4: mov eax, esi ; pop edi ; pop esi ; ret  ;  (1 found)
0x1001315e: mov eax, esi ; pop edi ; pop esi ; ret  ;  (1 found)
0x10015588: mov eax, esi ; pop edi ; pop esi ; ret  ;  (1 found)
0x10015dbb: mov eax, esi ; pop edi ; pop esi ; ret  ;  (1 found)
0x10017b2d: mov eax, esi ; pop edi ; pop esi ; ret  ;  (1 found)
0x100185f2: mov eax, esi ; pop edi ; pop esi ; ret  ;  (1 found)
0x100173f1: mov eax, esi ; pop edi ; pop esi ; ret  ;  (1 found)
0x10019385: mov eax, esi ; pop edi ; pop esi ; ret  ;  (1 found)
0x100197db: mov eax, esi ; pop edi ; pop esi ; ret  ;  (1 found)
0x1001c4c0: mov eax, esi ; pop edi ; pop esi ; ret  ;  (1 found)
0x1001c67c: mov eax, esi ; pop edi ; pop esi ; ret  ;  (1 found)
0x1001b7bc: mov eax, esi ; pop edi ; pop esi ; ret  ;  (1 found)
0x1001bc83: mov eax, esi ; pop edi ; pop esi ; ret  ;  (1 found)
0x1001fecc: mov eax, esi ; pop edi ; pop esi ; ret  ;  (1 found)
0x1002463d: mov eax, esi ; pop edi ; pop esi ; ret  ;  (1 found)
0x10023cf3: mov eax, esi ; pop edi ; pop esi ; ret  ;  (1 found)
0x10012ece: mov eax, esi ; pop esi ; add esp, 0x00000104 ; ret  ;  (1 found)
0x10014cb9: mov eax, esi ; pop esi ; mov esp, ebp ; pop ebp ; ret  ;  (1 found)
0x10016292: mov eax, esi ; pop esi ; mov esp, ebp ; pop ebp ; ret  ;  (1 found)
0x10019898: mov eax, esi ; pop esi ; mov esp, ebp ; pop ebp ; ret  ;  (1 found)
0x10019910: mov eax, esi ; pop esi ; mov esp, ebp ; pop ebp ; ret  ;  (1 found)
0x10019d13: mov eax, esi ; pop esi ; mov esp, ebp ; pop ebp ; ret  ;  (1 found)
0x1001b327: mov eax, esi ; pop esi ; mov esp, ebp ; pop ebp ; ret  ;  (1 found)
0x1001b39e: mov eax, esi ; pop esi ; mov esp, ebp ; pop ebp ; ret  ;  (1 found)
0x1001e617: mov eax, esi ; pop esi ; mov esp, ebp ; pop ebp ; ret  ;  (1 found)
0x1001f96a: mov eax, esi ; pop esi ; mov esp, ebp ; pop ebp ; ret  ;  (1 found)
0x100201e0: mov eax, esi ; pop esi ; mov esp, ebp ; pop ebp ; ret  ;  (1 found)
0x10020256: mov eax, esi ; pop esi ; mov esp, ebp ; pop ebp ; ret  ;  (1 found)
0x1002615e: mov eax, esi ; pop esi ; mov esp, ebp ; pop ebp ; ret  ;  (1 found)
0x10027efb: mov eax, esi ; pop esi ; mov esp, ebp ; pop ebp ; ret  ;  (1 found)
0x1002af49: mov eax, esi ; pop esi ; mov esp, ebp ; pop ebp ; ret  ;  (1 found)
0x1001618d: mov eax, esi ; pop esi ; pop ebx ; pop ebp ; ret  ;  (1 found)
0x1001a397: mov eax, esi ; pop esi ; pop ebx ; ret  ;  (1 found)
0x100120e3: mov eax, esi ; pop esi ; ret  ;  (1 found)
0x10012975: mov eax, esi ; pop esi ; ret  ;  (1 found)
0x100161af: mov eax, esi ; pop esi ; ret  ;  (1 found)
0x100161cf: mov eax, esi ; pop esi ; ret  ;  (1 found)
0x100162d9: mov eax, esi ; pop esi ; ret  ;  (1 found)
0x100163d1: mov eax, esi ; pop esi ; ret  ;  (1 found)
0x1001652a: mov eax, esi ; pop esi ; ret  ;  (1 found)
0x100164fb: mov eax, esi ; pop esi ; ret  ;  (1 found)
0x10019082: mov eax, esi ; pop esi ; ret  ;  (1 found)
0x10017788: mov eax, esi ; pop esi ; ret  ;  (1 found)
0x10017763: mov eax, esi ; pop esi ; ret  ;  (1 found)
0x100190e6: mov eax, esi ; pop esi ; ret  ;  (1 found)
0x1001d038: mov eax, esi ; pop esi ; ret  ;  (1 found)
0x1001d1e2: mov eax, esi ; pop esi ; ret  ;  (1 found)
0x1001c9d0: mov eax, esi ; pop esi ; ret  ;  (1 found)
0x1001dccc: mov eax, esi ; pop esi ; ret  ;  (1 found)
0x10020a24: mov eax, esi ; pop esi ; ret  ;  (1 found)
0x10020ca2: mov eax, esi ; pop esi ; ret  ;  (1 found)
0x10020d9f: mov eax, esi ; pop esi ; ret  ;  (1 found)
0x10025c1e: mov eax, esp ; mov esp, ecx ; mov ecx, dword [eax] ; mov eax, dword [eax+0x04] ; jmp eax ;  (1 found)
0x1001586a: mov ebp, 0x1002F4C0 ; call dword [0x100110E0] ;  (1 found)
0x100157b1: mov ebp, 0x1002F4C0 ; call dword [0x100110E4] ;  (1 found)
0x1001be64: mov ebp, 0x83000057 ; les eax,  [ebx+ecx*4] ; ret  ;  (1 found)
0x10029f93: mov ebp, 0xFFFFFF60 ; fabs  ; f2xm1  ; ret  ;  (1 found)
0x1002a1b5: mov ebp, 0xFFFFFF70 ; add byte [edi+0x07], bh ; mov byte [ebp-0x00000090], 0x00000001 ; or cl, cl ; ret  ;  (1 found)
0x100179d1: mov ebp, dword [eax+eax+0x00] ; pop edx ; pop edx ; pop edi ; leave  ; ret  ;  (1 found)
0x10014860: mov ebp, dword [ebx+0x10] ; call dword [edi+ecx*4+0x04] ;  (1 found)
0x1002162a: mov ebp, esp ; push dword [0x1002FA40+eax*4] ; call dword [0x100111A8] ;  (1 found)
0x10016778: mov ebp, esp ; sub esp, 0x10 ; lea eax, dword [ebp-0x10] ; push eax ; call dword [0x100110E8] ;  (1 found)
0x1001fa41: mov ebp, esp ; sub esp, 0x10 ; lea eax, dword [ebp-0x10] ; push eax ; call dword [0x10011190] ;  (1 found)
0x10016689: mov ebx, 0x00C7FFFF ; or eax, 0xE8000000 ; xchg byte [ebx-0x0F740001], bh ; call dword [0x10011058] ;  (1 found)
0x1001a4a1: mov ebx, 0x5A000041 ; pop edx ; pop edi ; leave  ; ret  ;  (1 found)
0x1002b9e8: mov ebx, 0xBA000051 ; push ebx ; add byte [eax], al ; ret  ;  (1 found)
0x10019892: mov ebx, 0xC483FFFF ; or byte [ebx-0x1A74A13A], cl ; pop ebp ; ret  ;  (1 found)
0x1001990a: mov ebx, 0xC483FFFF ; or byte [ebx-0x1A74A13A], cl ; pop ebp ; ret  ;  (1 found)
0x10016694: mov ebx, 0xF08BFFFF ; call dword [0x10011058] ;  (1 found)
0x1002a062: mov ebx, edx ; add ebx, eax ; add ebx, 0x10 ; jmp dword [ebx] ;  (1 found)
0x1002a0ee: mov ebx, edx ; add ebx, eax ; add ebx, 0x10 ; jmp dword [ebx] ;  (1 found)
0x10018b87: mov ebx, esi ; mov dword [ebp-0x28], 0x00000001 ; mov dword [ebp-0x2C], 0x00000001 ; call dword [0x100110C8] ;  (1 found)
0x10021608: mov ecx, 0x83FFFFAE ; les eax,  [edx+ebp*2] ; adc eax, ebp ; sldt word [eax] ; add byte [ebx+0x37FF04C4], al ; call dword [0x100111A4] ;  (1 found)
0x10012125: mov ecx, dword [0x10033EC8] ; mov dword [0x10033EC0], ecx ; ret  ;  (1 found)
0x10012119: mov ecx, dword [0x10033EC8] ; mov dword [ecx], 0x00000000 ; mov ecx, dword [0x10033EC8] ; mov dword [0x10033EC0], ecx ; ret  ;  (1 found)
0x10013a57: mov ecx, dword [eax] ; add ecx, 0x04 ; mov dword [eax], ecx ; mov ax, word [ecx-0x04] ; ret  ;  (1 found)
0x10021f9d: mov ecx, dword [eax] ; add ecx, 0x04 ; mov dword [eax], ecx ; mov ax, word [ecx-0x04] ; ret  ;  (1 found)
0x10013a48: mov ecx, dword [eax] ; add ecx, 0x04 ; mov dword [eax], ecx ; mov eax, dword [ecx-0x04] ; ret  ;  (1 found)
0x10021f8e: mov ecx, dword [eax] ; add ecx, 0x04 ; mov dword [eax], ecx ; mov eax, dword [ecx-0x04] ; ret  ;  (1 found)
0x10023050: mov ecx, dword [eax] ; add ecx, 0x04 ; mov dword [eax], ecx ; mov eax, dword [ecx-0x04] ; ret  ;  (1 found)
0x10025c22: mov ecx, dword [eax] ; mov eax, dword [eax+0x04] ; jmp eax ;  (1 found)
0x10016a83: mov ecx, dword [ebp+0x08] ; mov dword [ecx+0x08], 0x00000000 ; mov eax, dword [ebp-0x04] ; mov esp, ebp ; pop ebp ; ret  ;  (1 found)
0x10025fc3: mov ecx, dword [ebp-0x04] ; mov dword [edx], ecx ; mov esp, ebp ; pop ebp ; ret  ;  (1 found)
0x10012557: mov ecx, dword [ebp-0x04] ; push dword [ecx+0x4C] ; push 0x00000008 ; call edi ;  (1 found)
0x10020597: mov ecx, dword [edx] ; sub cx, ax ; cmp cx, 0x0001 ; sbb eax, eax ; and eax, edx ; ret  ;  (1 found)
0x1001a3a2: mov ecx, dword [esp+0x04] ; dec cl ; shr eax, cl ; and eax, 0x01 ; ret  ;  (1 found)
0x100126b9: mov ecx, dword [esp+0x04] ; mov ax, word [edx+ecx*2] ; and eax, 0x00000080 ; ret  ;  (1 found)
0x100125fc: mov ecx, dword [esp+0x04] ; mov ax, word [edx+ecx*2] ; and eax, 0x00000103 ; ret  ;  (1 found)
0x10012748: mov ecx, dword [esp+0x04] ; mov ax, word [edx+ecx*2] ; and eax, 0x00000107 ; ret  ;  (1 found)
0x100127ae: mov ecx, dword [esp+0x04] ; mov ax, word [edx+ecx*2] ; and eax, 0x00000117 ; ret  ;  (1 found)
0x1001277b: mov ecx, dword [esp+0x04] ; mov ax, word [edx+ecx*2] ; and eax, 0x00000157 ; ret  ;  (1 found)
0x1001262c: mov ecx, dword [esp+0x04] ; mov ax, word [edx+ecx*2] ; and eax, 0x01 ; ret  ;  (1 found)
0x1001265a: mov ecx, dword [esp+0x04] ; mov ax, word [edx+ecx*2] ; and eax, 0x02 ; ret  ;  (1 found)
0x10012688: mov ecx, dword [esp+0x04] ; mov ax, word [edx+ecx*2] ; and eax, 0x04 ; ret  ;  (1 found)
0x100126e9: mov ecx, dword [esp+0x04] ; mov ax, word [edx+ecx*2] ; and eax, 0x08 ; ret  ;  (1 found)
0x10012717: mov ecx, dword [esp+0x04] ; mov ax, word [edx+ecx*2] ; and eax, 0x10 ; ret  ;  (1 found)
0x100127de: mov ecx, dword [esp+0x04] ; mov ax, word [edx+ecx*2] ; and eax, 0x20 ; ret  ;  (1 found)
0x1001b28f: mov ecx, dword [esp+0x04] ; mov dword [0x1002E088], ecx ; ret  ;  (1 found)
0x10011df7: mov ecx, dword [esp+0x04] ; mov dword [0x1002F124], ecx ; ret  ;  (1 found)
0x1001dba7: mov ecx, dword [esp+0x04] ; mov dword [eax+0x14], ecx ; ret  ;  (1 found)
0x1001a752: mov ecx, dword [esp+0x04] ; movzx eax, byte [ecx] ; ret  ;  (1 found)
0x100271d9: mov ecx, dword [esp+0x10] ; mov dword [ecx], esi ; pop esi ; ret  ;  (1 found)
0x1001d3cc: mov ecx, eax ; and eax, 0x03 ; shr ecx, 0x02 ; rep movsd  ; jmp dword [0x1001D378+eax*4] ;  (1 found)
0x1001d51c: mov ecx, eax ; and eax, 0x03 ; shr ecx, 0x02 ; rep movsd  ; jmp dword [0x1001D4C8+eax*4] ;  (1 found)
0x100179a7: mov ecx, edx ; sub ecx, eax ; and ecx, 0x01 ; sub edx, ecx ; lea eax, dword [edx-0x01] ; ret  ;  (1 found)
0x10025c92: mov edi, 0x00000001 ; push ebx ; push esi ; push dword [ebp+0x10] ; push dword [ebp+0x0C] ; call dword [0x100111B4] ;  (1 found)
0x1001c493: mov edi, 0x00000001 ; push edi ; mov eax, dword [0x10033CB8] ; push 0x00000000 ; push eax ; call dword [0x10011184] ;  (1 found)
0x1001bc56: mov edi, 0x00000001 ; push edi ; mov eax, dword [0x10033CB8] ; push 0x00000008 ; push eax ; call dword [0x10011184] ;  (1 found)
0x1001561f: mov edi, 0x00000446 ; add byte [eax], al ; pop edi ; pop esi ; pop ebx ; ret  ;  (1 found)
0x1002abf4: mov edi, 0xE58BFE45 ; pop ebp ; ret  ;  (1 found)
0x10014440: mov edi, 0xFFFFFFFF ; mov dword [ebp-0x04], edi ; push esi ; call dword [0x10011094] ;  (1 found)
0x10026857: mov edi, dword [esp+0x08] ; stosd  ; stosd  ; stosd  ; pop edi ; ret  ;  (1 found)
0x100130e9: mov edi, eax ; call dword [0x10011058] ;  (1 found)
0x1002245f: mov edi, eax ; call dword [0x10011058] ;  (1 found)
0x10019838: mov edi, edi ; inc edi ; add byte [esi], dl ; add byte [eax], al ; add byte [eax-0x00000001], bh ; ret  ;  (1 found)
0x1001a82f: mov edi, edx ; rep stosb  ; mov eax, edx ; pop edi ; leave  ; ret  ;  (1 found)
0x10011c58: mov edx, dword [0x1002E0C4] ; mov dword [eax], edx ; ret  ;  (1 found)
0x10016c9b: mov edx, dword [0x1002E188] ; xor eax, eax ; mov ax, word [edx+ecx*2] ; and eax, 0x00000103 ; ret  ;  (1 found)
0x1001cc44: mov edx, dword [0x1002E188] ; xor eax, eax ; mov ax, word [edx+ecx*2] ; and eax, 0x00008000 ; ret  ;  (1 found)
0x10016f6b: mov edx, dword [0x1002E188] ; xor eax, eax ; mov ax, word [edx+ecx*2] ; and eax, 0x01 ; ret  ;  (1 found)
0x10016e4d: mov edx, dword [0x1002E188] ; xor eax, eax ; mov ax, word [edx+ecx*2] ; and eax, 0x02 ; ret  ;  (1 found)
0x10016cf8: mov edx, dword [0x1002E188] ; xor eax, eax ; mov ax, word [edx+ecx*2] ; and eax, 0x04 ; ret  ;  (1 found)
0x10016f10: mov edx, dword [0x1002E188] ; xor eax, eax ; mov ax, word [edx+ecx*2] ; and eax, 0x08 ; ret  ;  (1 found)
0x100126b1: mov edx, dword [0x1002E188] ; xor eax, eax ; mov ecx, dword [esp+0x04] ; mov ax, word [edx+ecx*2] ; and eax, 0x00000080 ; ret  ;  (1 found)
0x100125f4: mov edx, dword [0x1002E188] ; xor eax, eax ; mov ecx, dword [esp+0x04] ; mov ax, word [edx+ecx*2] ; and eax, 0x00000103 ; ret  ;  (1 found)
0x10012740: mov edx, dword [0x1002E188] ; xor eax, eax ; mov ecx, dword [esp+0x04] ; mov ax, word [edx+ecx*2] ; and eax, 0x00000107 ; ret  ;  (1 found)
0x100127a6: mov edx, dword [0x1002E188] ; xor eax, eax ; mov ecx, dword [esp+0x04] ; mov ax, word [edx+ecx*2] ; and eax, 0x00000117 ; ret  ;  (1 found)
0x10012773: mov edx, dword [0x1002E188] ; xor eax, eax ; mov ecx, dword [esp+0x04] ; mov ax, word [edx+ecx*2] ; and eax, 0x00000157 ; ret  ;  (1 found)
0x10012624: mov edx, dword [0x1002E188] ; xor eax, eax ; mov ecx, dword [esp+0x04] ; mov ax, word [edx+ecx*2] ; and eax, 0x01 ; ret  ;  (1 found)
0x10012652: mov edx, dword [0x1002E188] ; xor eax, eax ; mov ecx, dword [esp+0x04] ; mov ax, word [edx+ecx*2] ; and eax, 0x02 ; ret  ;  (1 found)
0x10012680: mov edx, dword [0x1002E188] ; xor eax, eax ; mov ecx, dword [esp+0x04] ; mov ax, word [edx+ecx*2] ; and eax, 0x04 ; ret  ;  (1 found)
0x100126e1: mov edx, dword [0x1002E188] ; xor eax, eax ; mov ecx, dword [esp+0x04] ; mov ax, word [edx+ecx*2] ; and eax, 0x08 ; ret  ;  (1 found)
0x1001270f: mov edx, dword [0x1002E188] ; xor eax, eax ; mov ecx, dword [esp+0x04] ; mov ax, word [edx+ecx*2] ; and eax, 0x10 ; ret  ;  (1 found)
0x100127d6: mov edx, dword [0x1002E188] ; xor eax, eax ; mov ecx, dword [esp+0x04] ; mov ax, word [edx+ecx*2] ; and eax, 0x20 ; ret  ;  (1 found)
0x1001bd65: mov edx, dword [ebp-0x04] ; pop esi ; mov esp, ebp ; pop ebp ; ret  ;  (1 found)
0x1001cd53: mov edx, dword [ebp-0x04] ; pop esi ; mov esp, ebp ; pop ebp ; ret  ;  (1 found)
0x10028c42: mov edx, dword [ebp-0x08] ; leave  ; ret  ;  (1 found)
0x100194bc: mov edx, dword [ebp-0x14] ; mov dword [ebp-0x10], 0x00000000 ; push 0x00000001 ; push ecx ; push dword [edx] ; call dword [0x1001115C] ;  (1 found)
0x10012a5e: mov edx, dword [esp+0x10] ; mov dword [edx], eax ; mov eax, 0x00000003 ; ret  ;  (1 found)
0x1001802e: mov edx, eax ; movzx eax, byte [ecx] ; add eax, edx ; ret  ;  (1 found)
0x1001d366: mov edx, ecx ; and edx, 0x03 ; shr ecx, 0x02 ; rep movsd  ; jmp dword [0x1001D378+edx*4] ;  (1 found)
0x1001d4b6: mov edx, ecx ; and edx, 0x03 ; shr ecx, 0x02 ; rep movsd  ; jmp dword [0x1001D4C8+edx*4] ;  (1 found)
0x10016b78: mov es, word [eax] ; add byte [eax], al ; ret  ;  (1 found)
0x10013214: mov esi, 0x00000000 ; push eax ; call dword [0x100110B4] ;  (1 found)
0x1001230d: mov esi, 0x00000001 ; push esi ; push 0x100123B7 ; call dword [0x1001105C] ;  (1 found)
0x10018b80: mov esi, 0x00000001 ; xor edi, edi ; mov ebx, esi ; mov dword [ebp-0x28], 0x00000001 ; mov dword [ebp-0x2C], 0x00000001 ; call dword [0x100110C8] ;  (1 found)
0x1002a05a: mov esi, 0x04E181C0 ; add al, 0x00 ; add byte [ebx-0x7C27FC26], cl ; ret  ;  (1 found)
0x1002a0e6: mov esi, 0x04E181C0 ; add al, 0x00 ; add byte [ebx-0x7C27FC26], cl ; ret  ;  (1 found)
0x10020db0: mov esi, 0x10033950 ; push esi ; push 0x00000000 ; call dword [0x1001104C] ;  (1 found)
0x10021008: mov esi, 0x10033A58 ; push esi ; push 0x00000000 ; call dword [0x1001104C] ;  (1 found)
0x10013ebf: mov esi, 0x5048FD45 ; call dword [0x1002FF60] ;  (1 found)
0x1002371e: mov esi, 0x5048FD45 ; call dword [0x1002FF60] ;  (1 found)
0x10013768: mov esi, 0x5052F755 ; push ecx ; call dword [0x1002FF58] ;  (1 found)
0x10021c74: mov esi, 0x5052F755 ; push ecx ; call dword [0x1002FF58] ;  (1 found)
0x10022d13: mov esi, 0x515052D3 ; call dword [0x1002FF58] ;  (1 found)
0x10027ebe: mov esi, 0x83000001 ; les ecx,  [eax] ; ret  ;  (1 found)
0x10012a03: mov esi, 0x8300009A ; les eax,  [edx+ebp*2] ; add byte [ecx+0x1002E148], ah ; push eax ; call dword [0x10011064] ;  (1 found)
0x100216a8: mov esi, 0x83FFFF13 ; les ecx,  [eax] ; lea ecx, dword [esi+esi*2] ; mov eax, dword [edi+ecx*4] ; mov dword [ebx+0x0C], eax ; call dword [edi+ecx*4+0x08] ;  (1 found)
0x100238b1: mov esi, 0x85E2D3C0 ; retn 0x840F ;  (1 found)
0x10018752: mov esi, 0x89FFFF9A ; sbb byte [ebx], dh ; rcr byte [ebp+0x5F], 0x0000005E ; pop ebx ; add esp, 0x04 ; ret  ;  (1 found)
0x10024118: mov esi, 0xC483D345 ; or al, 0x48 ; push dword [ebp-0x14] ; push dword [ebp-0x24] ; push eax ; call dword [0x1002FF60] ;  (1 found)
0x10015879: mov esi, 0xFFFFFFFF ; call dword [0x10011058] ;  (1 found)
0x100157eb: mov esi, 0xFFFFFFFF ; call dword [0x10011058] ;  (1 found)
0x1001627e: mov esi, 0xFFFFFFFF ; push dword [ebp-0x04] ; push dword [0x1002FF44] ; call dword [0x10011098] ;  (1 found)
0x1002154b: mov esi, dword [0x1001119C] ; call esi ;  (1 found)
0x100159a7: mov esi, dword [ebp+0x08] ; idiv ecx ; mov word [esi+0x06], ax ; lea eax, dword [ebp-0x10] ; push eax ; call dword [0x100110E8] ;  (1 found)
0x10012c32: mov esi, dword [ebp+0x08] ; mov dword [ebp-0x18], esp ; push esi ; push eax ; call dword [0x10011064] ;  (1 found)
0x10017166: mov esi, dword [esp+0x14] ; push esi ; push dword [esp+0x14] ; call dword [esp+0x28] ;  (1 found)
0x10012353: mov esi, eax ; call dword [0x10011058] ;  (1 found)
0x10016697: mov esi, eax ; call dword [0x10011058] ;  (1 found)
0x1001585a: mov esp, 0x0A438966 ; push ecx ; mov word [ebx+0x08], ax ; mov word [ebx+0x02], ax ; push dword [0x1002F4C0+edi*4] ; call dword [0x100110E0] ;  (1 found)
0x100151cf: mov esp, 0x56FFFFFE ; push edi ; push eax ; push dword [ebp+0x08] ; call dword [0x100110D0] ;  (1 found)
0x10020e30: mov esp, 0x5E1002E0 ; mov esp, ebp ; pop ebp ; ret  ;  (1 found)
0x10020d65: mov esp, 0x83000008 ; les eax,  [ebx+ecx*4] ; ret  ;  (1 found)
0x10015249: mov esp, 0x8BFFFFFE ; pop ebp ; or al, 0x89 ; add ecx, dword [ebp-0x00013F7B] ; call dword [eax-0x18] ;  (1 found)
0x10013766: mov esp, 0xF755BE0F ; push edx ; push eax ; push ecx ; call dword [0x1002FF58] ;  (1 found)
0x10021c72: mov esp, 0xF755BE0F ; push edx ; push eax ; push ecx ; call dword [0x1002FF58] ;  (1 found)
0x1001cf4d: mov esp, dword [edx+0x10] ; add esp, 0x04 ; jmp dword [edx+0x14] ;  (1 found)
0x1002a917: mov esp, ebp ; neg eax ; pop ebp ; ret  ;  (1 found)
0x10012594: mov esp, ebp ; pop ebp ; ret  ;  (1 found)
0x10012a44: mov esp, ebp ; pop ebp ; ret  ;  (1 found)
0x10012de4: mov esp, ebp ; pop ebp ; ret  ;  (1 found)
0x10012f57: mov esp, ebp ; pop ebp ; ret  ;  (1 found)
0x1001310f: mov esp, ebp ; pop ebp ; ret  ;  (1 found)
0x10013934: mov esp, ebp ; pop ebp ; ret  ;  (1 found)
0x100146bd: mov esp, ebp ; pop ebp ; ret  ;  (1 found)
0x100146f0: mov esp, ebp ; pop ebp ; ret  ;  (1 found)
0x1001471f: mov esp, ebp ; pop ebp ; ret  ;  (1 found)
0x1001432b: mov esp, ebp ; pop ebp ; ret  ;  (1 found)
0x10014471: mov esp, ebp ; pop ebp ; ret  ;  (1 found)
0x100148ca: mov esp, ebp ; pop ebp ; ret  ;  (1 found)
0x1001492b: mov esp, ebp ; pop ebp ; ret  ;  (1 found)
0x10014a00: mov esp, ebp ; pop ebp ; ret  ;  (1 found)
0x10014998: mov esp, ebp ; pop ebp ; ret  ;  (1 found)
0x10014c60: mov esp, ebp ; pop ebp ; ret  ;  (1 found)
0x10014a6d: mov esp, ebp ; pop ebp ; ret  ;  (1 found)
0x10014cbc: mov esp, ebp ; pop ebp ; ret  ;  (1 found)
0x10014ed0: mov esp, ebp ; pop ebp ; ret  ;  (1 found)
0x100152bd: mov esp, ebp ; pop ebp ; ret  ;  (1 found)
0x100153b6: mov esp, ebp ; pop ebp ; ret  ;  (1 found)
0x10015431: mov esp, ebp ; pop ebp ; ret  ;  (1 found)
0x10015543: mov esp, ebp ; pop ebp ; ret  ;  (1 found)
0x1001598c: mov esp, ebp ; pop ebp ; ret  ;  (1 found)
0x10015d81: mov esp, ebp ; pop ebp ; ret  ;  (1 found)
0x10015a0f: mov esp, ebp ; pop ebp ; ret  ;  (1 found)
0x10015eca: mov esp, ebp ; pop ebp ; ret  ;  (1 found)
0x10015f6e: mov esp, ebp ; pop ebp ; ret  ;  (1 found)
0x10016295: mov esp, ebp ; pop ebp ; ret  ;  (1 found)
0x100163aa: mov esp, ebp ; pop ebp ; ret  ;  (1 found)
0x10016677: mov esp, ebp ; pop ebp ; ret  ;  (1 found)
0x1001672f: mov esp, ebp ; pop ebp ; ret  ;  (1 found)
0x100167d4: mov esp, ebp ; pop ebp ; ret  ;  (1 found)
0x1001683b: mov esp, ebp ; pop ebp ; ret  ;  (1 found)
0x100169de: mov esp, ebp ; pop ebp ; ret  ;  (1 found)
0x10016a90: mov esp, ebp ; pop ebp ; ret  ;  (1 found)
0x100170ed: mov esp, ebp ; pop ebp ; ret  ;  (1 found)
0x10017121: mov esp, ebp ; pop ebp ; ret  ;  (1 found)
0x10017155: mov esp, ebp ; pop ebp ; ret  ;  (1 found)
0x10016b6b: mov esp, ebp ; pop ebp ; ret  ;  (1 found)
0x10018b03: mov esp, ebp ; pop ebp ; ret  ;  (1 found)
0x10018dd9: mov esp, ebp ; pop ebp ; ret  ;  (1 found)
0x10019050: mov esp, ebp ; pop ebp ; ret  ;  (1 found)
0x100190bf: mov esp, ebp ; pop ebp ; ret  ;  (1 found)
0x100172d9: mov esp, ebp ; pop ebp ; ret  ;  (1 found)
0x1001adee: mov esp, ebp ; pop ebp ; ret  ;  (1 found)
0x1001955a: mov esp, ebp ; pop ebp ; ret  ;  (1 found)
0x10019720: mov esp, ebp ; pop ebp ; ret  ;  (1 found)
0x10019793: mov esp, ebp ; pop ebp ; ret  ;  (1 found)
0x10019913: mov esp, ebp ; pop ebp ; ret  ;  (1 found)
0x1001989b: mov esp, ebp ; pop ebp ; ret  ;  (1 found)
0x10019977: mov esp, ebp ; pop ebp ; ret  ;  (1 found)
0x100199e7: mov esp, ebp ; pop ebp ; ret  ;  (1 found)
0x10019a4c: mov esp, ebp ; pop ebp ; ret  ;  (1 found)
0x10019d16: mov esp, ebp ; pop ebp ; ret  ;  (1 found)
0x10019cb9: mov esp, ebp ; pop ebp ; ret  ;  (1 found)
0x10019abc: mov esp, ebp ; pop ebp ; ret  ;  (1 found)
0x1001a056: mov esp, ebp ; pop ebp ; ret  ;  (1 found)
0x10019f10: mov esp, ebp ; pop ebp ; ret  ;  (1 found)
0x1001a2c4: mov esp, ebp ; pop ebp ; ret  ;  (1 found)
0x1001a47a: mov esp, ebp ; pop ebp ; ret  ;  (1 found)
0x1001a707: mov esp, ebp ; pop ebp ; ret  ;  (1 found)
0x1001abea: mov esp, ebp ; pop ebp ; ret  ;  (1 found)
0x1001bf0b: mov esp, ebp ; pop ebp ; ret  ;  (1 found)
0x1001c068: mov esp, ebp ; pop ebp ; ret  ;  (1 found)
0x1001c1a7: mov esp, ebp ; pop ebp ; ret  ;  (1 found)
0x1001c328: mov esp, ebp ; pop ebp ; ret  ;  (1 found)
0x1001c456: mov esp, ebp ; pop ebp ; ret  ;  (1 found)
0x1001af9a: mov esp, ebp ; pop ebp ; ret  ;  (1 found)
0x1001b1d0: mov esp, ebp ; pop ebp ; ret  ;  (1 found)
0x1001b32a: mov esp, ebp ; pop ebp ; ret  ;  (1 found)
0x1001b3a1: mov esp, ebp ; pop ebp ; ret  ;  (1 found)
0x1001b925: mov esp, ebp ; pop ebp ; ret  ;  (1 found)
0x1001b952: mov esp, ebp ; pop ebp ; ret  ;  (1 found)
0x1001b97f: mov esp, ebp ; pop ebp ; ret  ;  (1 found)
0x1001bc27: mov esp, ebp ; pop ebp ; ret  ;  (1 found)
0x1001bd32: mov esp, ebp ; pop ebp ; ret  ;  (1 found)
0x1001bd69: mov esp, ebp ; pop ebp ; ret  ;  (1 found)
0x1001cc1e: mov esp, ebp ; pop ebp ; ret  ;  (1 found)
0x1001cee2: mov esp, ebp ; pop ebp ; ret  ;  (1 found)
0x1001cd57: mov esp, ebp ; pop ebp ; ret  ;  (1 found)
0x1001d84c: mov esp, ebp ; pop ebp ; ret  ;  (1 found)
0x1001db17: mov esp, ebp ; pop ebp ; ret  ;  (1 found)
0x1001db71: mov esp, ebp ; pop ebp ; ret  ;  (1 found)
0x1001c93e: mov esp, ebp ; pop ebp ; ret  ;  (1 found)
0x100216ee: mov esp, ebp ; pop ebp ; ret  ;  (1 found)
0x1001df56: mov esp, ebp ; pop ebp ; ret  ;  (1 found)
0x1001e0d2: mov esp, ebp ; pop ebp ; ret  ;  (1 found)
0x1001e34c: mov esp, ebp ; pop ebp ; ret  ;  (1 found)
0x1001e61a: mov esp, ebp ; pop ebp ; ret  ;  (1 found)
0x1001e658: mov esp, ebp ; pop ebp ; ret  ;  (1 found)
0x1001e843: mov esp, ebp ; pop ebp ; ret  ;  (1 found)
0x1001e9c3: mov esp, ebp ; pop ebp ; ret  ;  (1 found)
0x1001ef33: mov esp, ebp ; pop ebp ; ret  ;  (1 found)
0x1001f1fc: mov esp, ebp ; pop ebp ; ret  ;  (1 found)
0x1001f494: mov esp, ebp ; pop ebp ; ret  ;  (1 found)
0x1001f793: mov esp, ebp ; pop ebp ; ret  ;  (1 found)
0x1001f56e: mov esp, ebp ; pop ebp ; ret  ;  (1 found)
0x1001f96d: mov esp, ebp ; pop ebp ; ret  ;  (1 found)
0x1001f8f6: mov esp, ebp ; pop ebp ; ret  ;  (1 found)
0x1001f9a6: mov esp, ebp ; pop ebp ; ret  ;  (1 found)
0x1001fa7f: mov esp, ebp ; pop ebp ; ret  ;  (1 found)
0x1001fa3c: mov esp, ebp ; pop ebp ; ret  ;  (1 found)
0x1001fdd8: mov esp, ebp ; pop ebp ; ret  ;  (1 found)
0x1001fe92: mov esp, ebp ; pop ebp ; ret  ;  (1 found)
0x10020093: mov esp, ebp ; pop ebp ; ret  ;  (1 found)
0x100201e3: mov esp, ebp ; pop ebp ; ret  ;  (1 found)
0x10020259: mov esp, ebp ; pop ebp ; ret  ;  (1 found)
0x10020755: mov esp, ebp ; pop ebp ; ret  ;  (1 found)
0x100209de: mov esp, ebp ; pop ebp ; ret  ;  (1 found)
0x10020bae: mov esp, ebp ; pop ebp ; ret  ;  (1 found)
0x10020d23: mov esp, ebp ; pop ebp ; ret  ;  (1 found)
0x10020e35: mov esp, ebp ; pop ebp ; ret  ;  (1 found)
0x10020ff7: mov esp, ebp ; pop ebp ; ret  ;  (1 found)
0x10021278: mov esp, ebp ; pop ebp ; ret  ;  (1 found)
0x100210a0: mov esp, ebp ; pop ebp ; ret  ;  (1 found)
0x100214b8: mov esp, ebp ; pop ebp ; ret  ;  (1 found)
0x10024573: mov esp, ebp ; pop ebp ; ret  ;  (1 found)
0x10024da0: mov esp, ebp ; pop ebp ; ret  ;  (1 found)
0x1002545c: mov esp, ebp ; pop ebp ; ret  ;  (1 found)
0x1002571e: mov esp, ebp ; pop ebp ; ret  ;  (1 found)
0x10025b40: mov esp, ebp ; pop ebp ; ret  ;  (1 found)
0x10025d4d: mov esp, ebp ; pop ebp ; ret  ;  (1 found)
0x10025dc4: mov esp, ebp ; pop ebp ; ret  ;  (1 found)
0x10025fc8: mov esp, ebp ; pop ebp ; ret  ;  (1 found)
0x10026036: mov esp, ebp ; pop ebp ; ret  ;  (1 found)
0x10026161: mov esp, ebp ; pop ebp ; ret  ;  (1 found)
0x100262b4: mov esp, ebp ; pop ebp ; ret  ;  (1 found)
0x10026305: mov esp, ebp ; pop ebp ; ret  ;  (1 found)
0x100263b8: mov esp, ebp ; pop ebp ; ret  ;  (1 found)
0x100266a2: mov esp, ebp ; pop ebp ; ret  ;  (1 found)
0x10026833: mov esp, ebp ; pop ebp ; ret  ;  (1 found)
0x10026acb: mov esp, ebp ; pop ebp ; ret  ;  (1 found)
0x10026927: mov esp, ebp ; pop ebp ; ret  ;  (1 found)
0x10026b26: mov esp, ebp ; pop ebp ; ret  ;  (1 found)
0x10026b55: mov esp, ebp ; pop ebp ; ret  ;  (1 found)
0x1002718a: mov esp, ebp ; pop ebp ; ret  ;  (1 found)
0x10027590: mov esp, ebp ; pop ebp ; ret  ;  (1 found)
0x1002738d: mov esp, ebp ; pop ebp ; ret  ;  (1 found)
0x10027742: mov esp, ebp ; pop ebp ; ret  ;  (1 found)
0x1002775c: mov esp, ebp ; pop ebp ; ret  ;  (1 found)
0x10027605: mov esp, ebp ; pop ebp ; ret  ;  (1 found)
0x100279dd: mov esp, ebp ; pop ebp ; ret  ;  (1 found)
0x10021e52: mov esp, ebp ; pop ebp ; ret  ;  (1 found)
0x1002228f: mov esp, ebp ; pop ebp ; ret  ;  (1 found)
0x100224f0: mov esp, ebp ; pop ebp ; ret  ;  (1 found)
0x100227bf: mov esp, ebp ; pop ebp ; ret  ;  (1 found)
0x10022f29: mov esp, ebp ; pop ebp ; ret  ;  (1 found)
0x100232fd: mov esp, ebp ; pop ebp ; ret  ;  (1 found)
0x10023c0b: mov esp, ebp ; pop ebp ; ret  ;  (1 found)
0x10027a21: mov esp, ebp ; pop ebp ; ret  ;  (1 found)
0x10027a02: mov esp, ebp ; pop ebp ; ret  ;  (1 found)
0x10027b2c: mov esp, ebp ; pop ebp ; ret  ;  (1 found)
0x10027daf: mov esp, ebp ; pop ebp ; ret  ;  (1 found)
0x10027efe: mov esp, ebp ; pop ebp ; ret  ;  (1 found)
0x100288b1: mov esp, ebp ; pop ebp ; ret  ;  (1 found)
0x10028733: mov esp, ebp ; pop ebp ; ret  ;  (1 found)
0x10028a42: mov esp, ebp ; pop ebp ; ret  ;  (1 found)
0x10028d8a: mov esp, ebp ; pop ebp ; ret  ;  (1 found)
0x10028d15: mov esp, ebp ; pop ebp ; ret  ;  (1 found)
0x10028e77: mov esp, ebp ; pop ebp ; ret  ;  (1 found)
0x100290a5: mov esp, ebp ; pop ebp ; ret  ;  (1 found)
0x10028f89: mov esp, ebp ; pop ebp ; ret  ;  (1 found)
0x10029234: mov esp, ebp ; pop ebp ; ret  ;  (1 found)
0x10029325: mov esp, ebp ; pop ebp ; ret  ;  (1 found)
0x10029355: mov esp, ebp ; pop ebp ; ret  ;  (1 found)
0x10029442: mov esp, ebp ; pop ebp ; ret  ;  (1 found)
0x100295d6: mov esp, ebp ; pop ebp ; ret  ;  (1 found)
0x100296c9: mov esp, ebp ; pop ebp ; ret  ;  (1 found)
0x100299cf: mov esp, ebp ; pop ebp ; ret  ;  (1 found)
0x100298e5: mov esp, ebp ; pop ebp ; ret  ;  (1 found)
0x1002a3de: mov esp, ebp ; pop ebp ; ret  ;  (1 found)
0x1002a295: mov esp, ebp ; pop ebp ; ret  ;  (1 found)
0x1002a32d: mov esp, ebp ; pop ebp ; ret  ;  (1 found)
0x1002a6f0: mov esp, ebp ; pop ebp ; ret  ;  (1 found)
0x1002a9ad: mov esp, ebp ; pop ebp ; ret  ;  (1 found)
0x1002aa6d: mov esp, ebp ; pop ebp ; ret  ;  (1 found)
0x1002aba6: mov esp, ebp ; pop ebp ; ret  ;  (1 found)
0x1002abf7: mov esp, ebp ; pop ebp ; ret  ;  (1 found)
0x1002ac51: mov esp, ebp ; pop ebp ; ret  ;  (1 found)
0x1002ad72: mov esp, ebp ; pop ebp ; ret  ;  (1 found)
0x1002af9e: mov esp, ebp ; pop ebp ; ret  ;  (1 found)
0x1002af4c: mov esp, ebp ; pop ebp ; ret  ;  (1 found)
0x10012caf: mov esp, ebp ; pop ebp ; retn 0x0004 ;  (1 found)
0x100246b0: mov esp, ebp ; pop ebp ; retn 0x0004 ;  (1 found)
0x10011db2: mov esp, ebp ; pop ebp ; retn 0x000C ;  (1 found)
0x10025c20: mov esp, ecx ; mov ecx, dword [eax] ; mov eax, dword [eax+0x04] ; jmp eax ;  (1 found)
0x100128b5: mov ss, word [ebx-0x3B7D0000] ; or byte [ebx+0x74F685F0], cl ; push esi ; mov eax, dword [0x1002E148] ; push eax ; call dword [0x10011064] ;  (1 found)
0x10015e80: mov word [ebp-0x02], 0x0000 ; mov word [ebp-0x04], ax ; call dword [0x100110F0] ;  (1 found)
0x10015e2b: mov word [ebp-0x02], 0x0000 ; mov word [ebp-0x04], ax ; call dword [0x100110F0] ;  (1 found)
0x1002aa66: mov word [ebp-0x02], ax ; fld qword [ebp-0x08] ; mov esp, ebp ; pop ebp ; ret  ;  (1 found)
0x10016821: mov word [ebp-0x02], dx ; call dword [0x10011114] ;  (1 found)
0x10015e31: mov word [ebp-0x04], ax ; call dword [0x100110F0] ;  (1 found)
0x10015e86: mov word [ebp-0x04], ax ; call dword [0x100110F0] ;  (1 found)
0x1002abec: mov word [ebp-0x04], cx ; fldcw word [ebp-0x04] ; movsx eax, word [ebp-0x02] ; mov esp, ebp ; pop ebp ; ret  ;  (1 found)
0x1001681c: mov word [ebp-0x04], cx ; push eax ; mov word [ebp-0x02], dx ; call dword [0x10011114] ;  (1 found)
0x1001681b: mov word [ebp-0x04], cx ; push eax ; mov word [ebp-0x02], dx ; call dword [0x10011114] ;  (1 found)
0x10016815: mov word [ebp-0x06], ax ; lea eax, dword [ebp-0x10] ; mov word [ebp-0x04], cx ; push eax ; mov word [ebp-0x02], dx ; call dword [0x10011114] ;  (1 found)
0x10016a3e: mov word [ebp-0x16], 0x0004 ; lea eax, dword [ebp-0x20] ; push eax ; call dword [0x1001111C] ;  (1 found)
0x10015864: mov word [ebx+0x02], ax ; push dword [0x1002F4C0+edi*4] ; call dword [0x100110E0] ;  (1 found)
0x10015860: mov word [ebx+0x08], ax ; mov word [ebx+0x02], ax ; push dword [0x1002F4C0+edi*4] ; call dword [0x100110E0] ;  (1 found)
0x10027387: mov word [ebx+0x0A], ax ; pop esi ; pop ebx ; mov esp, ebp ; pop ebp ; ret  ;  (1 found)
0x1001585b: mov word [ebx+0x0A], ax ; push ecx ; mov word [ebx+0x08], ax ; mov word [ebx+0x02], ax ; push dword [0x1002F4C0+edi*4] ; call dword [0x100110E0] ;  (1 found)
0x10025e73: mov word [edi+0x08], si ; pop ebp ; pop edi ; pop esi ; pop ebx ; ret  ;  (1 found)
0x10025e74: mov word [edi+0x08], si ; pop ebp ; pop edi ; pop esi ; pop ebx ; ret  ;  (1 found)
0x1001d39f: mov word [edi], ax ; mov eax, dword [ebp+0x08] ; pop esi ; pop edi ; leave  ; ret  ;  (1 found)
0x1001d4ef: mov word [edi], ax ; mov eax, dword [ebp+0x08] ; pop esi ; pop edi ; leave  ; ret  ;  (1 found)
0x100159ac: mov word [esi+0x06], ax ; lea eax, dword [ebp-0x10] ; push eax ; call dword [0x100110E8] ;  (1 found)
0x10015a08: mov word [esi+0x08], cx ; mov dword [esi], eax ; pop esi ; mov esp, ebp ; pop ebp ; ret  ;  (1 found)
0x100204b5: mov word [esi], 0x0000 ; pop edi ; pop esi ; pop ebp ; ret  ;  (1 found)
0x1002a13c: movsb  ; aaa  ; add edx, dword [eax] ; ret  ;  (1 found)
0x1002161d: movsb  ; adc dword [ecx], eax ; adc byte [edi+0x5E], bl ; pop ebp ; ret  ;  (1 found)
0x10029e7a: movsb  ; add edx, dword [eax] ; mov byte [ebp-0x00000090], 0x00000002 ; ret  ;  (1 found)
0x10029f41: movsb  ; add edx, dword [eax] ; mov byte [ebp-0x00000090], 0x00000003 ; ret  ;  (1 found)
0x10029d95: movsb  ; add edx, dword [eax] ; ret  ;  (1 found)
0x10029f55: movsb  ; add edx, dword [eax] ; ret  ;  (1 found)
0x10011ca2: movsb  ; lea eax, dword [ebp-0x00000104] ; push eax ; call dword [0x10011048] ;  (1 found)
0x1001782d: movsb  ; mov eax, dword [ebp+0x08] ; pop edi ; pop esi ; leave  ; ret  ;  (1 found)
0x1001e691: movsb  ; mov eax, dword [ebp+0x08] ; pop edi ; pop esi ; leave  ; ret  ;  (1 found)
0x1001d3e1: movsb  ; mov eax, dword [ebp+0x08] ; pop esi ; pop edi ; leave  ; ret  ;  (1 found)
0x1001d531: movsb  ; mov eax, dword [ebp+0x08] ; pop esi ; pop edi ; leave  ; ret  ;  (1 found)
0x1001e8e5: movsb  ; mov eax, edx ; pop edi ; pop esi ; ret  ;  (1 found)
0x1001d3cb: movsb  ; mov ecx, eax ; and eax, 0x03 ; shr ecx, 0x02 ; rep movsd  ; jmp dword [0x1001D378+eax*4] ;  (1 found)
0x1001d51b: movsb  ; mov ecx, eax ; and eax, 0x03 ; shr ecx, 0x02 ; rep movsd  ; jmp dword [0x1001D4C8+eax*4] ;  (1 found)
0x10022021: movsb  ; pop ebp ; pop edi ; pop esi ; pop ebx ; ret  ;  (1 found)
0x1001d3d5: movsd  ; jmp dword [0x1001D378+eax*4] ;  (1 found)
0x1001d36f: movsd  ; jmp dword [0x1001D378+edx*4] ;  (1 found)
0x1001d47b: movsd  ; jmp dword [0x1001D410+eax*4] ;  (1 found)
0x1001d408: movsd  ; jmp dword [0x1001D410+edx*4] ;  (1 found)
0x1001d525: movsd  ; jmp dword [0x1001D4C8+eax*4] ;  (1 found)
0x1001d4bf: movsd  ; jmp dword [0x1001D4C8+edx*4] ;  (1 found)
0x1001d5cb: movsd  ; jmp dword [0x1001D560+eax*4] ;  (1 found)
0x1001d558: movsd  ; jmp dword [0x1001D560+edx*4] ;  (1 found)
0x10028b77: movsd  ; mov eax, dword [ebp+0x08] ; pop edi ; pop esi ; pop ebp ; ret  ;  (1 found)
0x10011ca1: movsd  ; movsb  ; lea eax, dword [ebp-0x00000104] ; push eax ; call dword [0x10011048] ;  (1 found)
0x10011c9f: movsd  ; movsw  ; movsb  ; lea eax, dword [ebp-0x00000104] ; push eax ; call dword [0x10011048] ;  (1 found)
0x10028a3f: movsd  ; pop edi ; pop esi ; mov esp, ebp ; pop ebp ; ret  ;  (1 found)
0x10028b76: movsw  ; mov eax, dword [ebp+0x08] ; pop edi ; pop esi ; pop ebp ; ret  ;  (1 found)
0x10011ca0: movsw  ; movsb  ; lea eax, dword [ebp-0x00000104] ; push eax ; call dword [0x10011048] ;  (1 found)
0x10028a3e: movsw  ; pop edi ; pop esi ; mov esp, ebp ; pop ebp ; ret  ;  (1 found)
0x1002a059: movsx eax, al ; and ecx, 0x00000404 ; mov ebx, edx ; add ebx, eax ; add ebx, 0x10 ; jmp dword [ebx] ;  (1 found)
0x1002a0e5: movsx eax, al ; and ecx, 0x00000404 ; mov ebx, edx ; add ebx, eax ; add ebx, 0x10 ; jmp dword [ebx] ;  (1 found)
0x1001a3ec: movsx eax, al ; pop esi ; leave  ; ret  ;  (1 found)
0x1002aa82: movsx eax, ax ; ret  ;  (1 found)
0x10013ebe: movsx eax, byte [ebp-0x03] ; dec eax ; push eax ; call dword [0x1002FF60] ;  (1 found)
0x1002371d: movsx eax, byte [ebp-0x03] ; dec eax ; push eax ; call dword [0x1002FF60] ;  (1 found)
0x1002abf3: movsx eax, word [ebp-0x02] ; mov esp, ebp ; pop ebp ; ret  ;  (1 found)
0x1002abc4: movsx eax, word [esp+0x02] ; add esp, 0x04 ; ret  ;  (1 found)
0x1002abb2: movsx eax, word [esp+0x02] ; add esp, 0x04 ; ret  ;  (1 found)
0x10011c93: movsx edi, byte [edx+edx+0x01] ; adc byte [ebp-0x00010343], cl ; jmp dword [ebp-0x725B5A9A] ;  (1 found)
0x10022d12: movsx edx, bl ; push edx ; push eax ; push ecx ; call dword [0x1002FF58] ;  (1 found)
0x10013767: movsx edx, byte [ebp-0x09] ; push edx ; push eax ; push ecx ; call dword [0x1002FF58] ;  (1 found)
0x10021c73: movsx edx, byte [ebp-0x09] ; push edx ; push eax ; push ecx ; call dword [0x1002FF58] ;  (1 found)
0x100175ab: movzx eax, byte [0x1002ED38+esi*4] ; pop edi ; pop esi ; pop ebx ; ret  ;  (1 found)
0x10028758: movzx eax, byte [eax+0x100288E9] ; jmp dword [0x100288B5+eax*4] ;  (1 found)
0x10018030: movzx eax, byte [ecx] ; add eax, edx ; ret  ;  (1 found)
0x1001a756: movzx eax, byte [ecx] ; ret  ;  (1 found)
0x100257fd: movzx eax, dx ; imul eax, eax, 0x06 ; mov ax, word [eax+0x100329C0] ; ret  ;  (1 found)
0x1001753c: movzx eax, word [0x1002ED3A+ecx*4] ; pop esi ; ret  ;  (1 found)
0x100204ed: movzx eax, word [eax] ; movzx ecx, word [esi] ; sub eax, ecx ; pop esi ; pop ebp ; ret  ;  (1 found)
0x100167cd: movzx eax, word [ebp-0x02] ; add esp, 0x04 ; mov esp, ebp ; pop ebp ; ret  ;  (1 found)
0x10016b63: movzx eax, word [ebp-0x02] ; and eax, dword [ebp+0x0C] ; pop ebx ; mov esp, ebp ; pop ebp ; ret  ;  (1 found)
0x10025582: movzx eax, word [ebp-0x04] ; push eax ; call dword [0x100111B8] ;  (1 found)
0x10025543: movzx eax, word [ebp-0x04] ; push eax ; call dword [0x100111B8] ;  (1 found)
0x100255d5: movzx eax, word [ebp-0x04] ; push eax ; call dword [0x100111B8] ;  (1 found)
0x1002562d: movzx eax, word [ebp-0x04] ; push eax ; call dword [0x100111B8] ;  (1 found)
0x1001bce8: movzx eax, word [esp+0x04] ; add eax, ecx ; add esp, 0x0C ; ret  ;  (1 found)
0x10013475: movzx ecx, byte [eax+0x1001399C] ; jmp dword [0x10013958+ecx*4] ;  (1 found)
0x10013cbd: movzx ecx, byte [eax+0x1001435F] ; jmp dword [0x1001432F+ecx*4] ;  (1 found)
0x1001e9e4: movzx ecx, byte [eax+0x1001EDE3] ; jmp dword [0x1001ED83+ecx*4] ;  (1 found)
0x10021981: movzx ecx, byte [eax+0x10021EBA] ; jmp dword [0x10021E76+ecx*4] ;  (1 found)
0x10022a23: movzx ecx, byte [eax+0x10022F91] ; jmp dword [0x10022F4D+ecx*4] ;  (1 found)
0x100234ee: movzx ecx, byte [eax+0x10023C3F] ; jmp dword [0x10023C0F+ecx*4] ;  (1 found)
0x10023ea8: movzx ecx, byte [eax+0x100245A7] ; jmp dword [0x10024577+ecx*4] ;  (1 found)
0x10028959: movzx ecx, byte [eax+0x10028A72] ; jmp dword [0x10028A46+ecx*4] ;  (1 found)
0x100255a4: movzx ecx, word [ebp-0x06] ; push eax ; push 0x0000000B ; push ecx ; call dword [0x100111B4] ;  (1 found)
0x100255f7: movzx ecx, word [ebp-0x06] ; push eax ; push 0x0000000B ; push ecx ; call dword [0x100111B4] ;  (1 found)
0x1002564b: movzx ecx, word [ebp-0x06] ; push eax ; push 0x0000000B ; push ecx ; call dword [0x100111B4] ;  (1 found)
0x1002569c: movzx ecx, word [ebp-0x08] ; push eax ; push 0x00001001 ; push ecx ; call dword [0x100111B4] ;  (1 found)
0x100204f0: movzx ecx, word [esi] ; sub eax, ecx ; pop esi ; pop ebp ; ret  ;  (1 found)
0x100256cd: movzx edx, word [ebp-0x06] ; push 0x00000040 ; push ecx ; push 0x00001002 ; push edx ; call dword [0x100111B4] ;  (1 found)
0x10013799: mul dword [edi+0x75] ; adc al, 0x85 ; push dword [ebp+0x10] ; lea eax, dword [ebp-0x00000248] ; push eax ; call dword [0x1002FF5C] ;  (1 found)
0x10021ca5: mul dword [edi+0x75] ; adc al, 0x85 ; push dword [ebp+0x10] ; lea eax, dword [ebp-0x00000248] ; push eax ; call dword [0x1002FF5C] ;  (1 found)
0x1002a107: neg ch ; fcomp st0, st5 ; fcomp st0, st1 ; out dx, al ; ret  ;  (1 found)
0x1001bba3: neg eax ; pop ebp ; pop edi ; pop esi ; pop ebx ; ret  ;  (1 found)
0x1002a919: neg eax ; pop ebp ; ret  ;  (1 found)
0x100192b1: neg eax ; pop edi ; pop esi ; ret  ;  (1 found)
0x1002468c: neg eax ; ret  ;  (1 found)
0x1002bc51: nop  ; add byte [eax], al ; pop edi ; nop  ; add byte [eax], al ; ret  ;  (1 found)
0x1002bc55: nop  ; add byte [eax], al ; ret  ;  (1 found)
0x1002bc59: nop  ; add byte [eax], al ; ret  ;  (1 found)
0x100157e7: nop  ; add dword [eax], eax ; add byte [esi-0x00000001], bh ; call dword [0x10011058] ;  (1 found)
0x100252db: nop  ; inc dword [edx] ; adc byte [ebx+0x50], dl ; call dword [0x10011134] ;  (1 found)
0x10025caf: nop  ; inc dword [edx] ; adc byte [ebx+0x6A], dl ; call dword [esi+0x53] ;  (1 found)
0x10012ea5: not byte [eax+0x68] ; add al, 0x01 ; add byte [eax], al ; call dword [0x100110A4] ;  (1 found)
0x1001376a: not dword [edx+0x50] ; push ecx ; call dword [0x1002FF58] ;  (1 found)
0x10021c76: not dword [edx+0x50] ; push ecx ; call dword [0x1002FF58] ;  (1 found)
0x10028c15: not ecx ; and ecx, dword [eax] ; pop ebp ; or ecx, edx ; mov dword [eax], ecx ; ret  ;  (1 found)
0x1001f20e: not ecx ; dec ecx ; mov eax, ecx ; pop edi ; leave  ; ret  ;  (1 found)
0x10013a92: not ecx ; dec ecx ; push ecx ; push dword [esp+0x1C] ; push edx ; call dword [0x100110B8] ;  (1 found)
0x1002807b: or ah, 0x00000010 ; pop esi ; ret  ;  (1 found)
0x1002922f: or ah, bl ; dec ebp ; fcomp dword [esi-0x75] ; in eax, 0x5D ; ret  ;  (1 found)
0x100288a3: or ah, byte [ebp-0x145A995B] ; add eax, 0x89FEE180 ; or bl, byte [edi+0x5E] ; mov esp, ebp ; pop ebp ; ret  ;  (1 found)
0x10020598: or ah, byte [esi+0x2B] ; enter 0x8366, 0xF9 ; add dword [ebx], ebx ; shl byte [ebx], 0xFFFFFFC2 ; ret  ;  (1 found)
0x100178f7: or ah, byte [esi-0x7B] ; sal byte [ebp-0x60], cl ; xor eax, eax ; pop esi ; pop ebx ; ret  ;  (1 found)
0x10020a1e: or al, 0x00 ; add byte [ebx-0x3974FB3C], al ; pop esi ; ret  ;  (1 found)
0x100295cf: or al, 0x00 ; add byte [ebx-0x74A1E33C], al ; in eax, 0x5D ; ret  ;  (1 found)
0x1001cfec: or al, 0x01 ; push 0x00000001 ; push edx ; push eax ; push dword [0x1002FF90] ; call dword [0x10011134] ;  (1 found)
0x1001d187: or al, 0x01 ; push 0xFFFFFFFF ; push dword [ebp+0x0C] ; push eax ; push dword [0x1002FF90] ; call dword [0x10011134] ;  (1 found)
0x10018540: or al, 0x01 ; push 0xFFFFFFFF ; push edi ; push eax ; push dword [0x1002FF90] ; call dword [0x10011134] ;  (1 found)
0x1001c020: or al, 0x01 ; push eax ; push dword [0x1002FF90] ; call dword [0x10011134] ;  (1 found)
0x1001cfc0: or al, 0x01 ; push eax ; push dword [0x1002FF90] ; call dword [0x10011134] ;  (1 found)
0x1001d2cb: or al, 0x01 ; push eax ; push dword [0x1002FF90] ; call dword [0x10011134] ;  (1 found)
0x1001d28a: or al, 0x01 ; push eax ; push dword [0x1002FF90] ; call dword [0x10011134] ;  (1 found)
0x10012f75: or al, 0x01 ; push eax ; push dword [esp+0x08] ; call dword [0x100110AC] ;  (1 found)
0x1001d0a8: or al, 0x01 ; push edi ; push eax ; push dword [0x1002FF90] ; call dword [0x10011134] ;  (1 found)
0x1001676d: or al, 0x11 ; add dword [eax], edx ; jmp dword [0x10011110] ;  (1 found)
0x100147fd: or al, 0x33 ; imul bl ; add eax, 0xFFFFFFBE ; call dword [ebx-0x18] ;  (1 found)
0x1001a2be: or al, 0x33 ; rcr byte [edi+0x5E], 0x0000005B ; mov esp, ebp ; pop ebp ; ret  ;  (1 found)
0x10012adb: or al, 0x39 ; push ecx ; or byte [ebp+0x05], dh ; mov eax, 0x00000001 ; ret  ;  (1 found)
0x1002178b: or al, 0x3A ; ret  ;  (1 found)
0x1001c749: or al, 0x3B ; ret  ;  (1 found)
0x1002411d: or al, 0x48 ; push dword [ebp-0x14] ; push dword [ebp-0x24] ; push eax ; call dword [0x1002FF60] ;  (1 found)
0x10012e09: or al, 0x50 ; push 0x00000000 ; call dword [0x100110A4] ;  (1 found)
0x1001dbfe: or al, 0x50 ; push 0x00000000 ; push dword [0x10033CB8] ; call dword [0x100110CC] ;  (1 found)
0x1001d18d: or al, 0x50 ; push dword [0x1002FF90] ; call dword [0x10011134] ;  (1 found)
0x1001675a: or al, 0x50 ; push dword [ebp+0x08] ; call dword [0x10011108] ;  (1 found)
0x10014ee8: or al, 0x50 ; push esi ; mov eax, dword [0x10033CB8] ; push 0x00000010 ; push eax ; call dword [0x100110CC] ;  (1 found)
0x10018f4f: or al, 0x51 ; push edx ; lea eax, dword [ebp-0x08] ; push eax ; call dword [0x10011154] ;  (1 found)
0x10020c37: or al, 0x57 ; push dword [0x1002FF7C] ; call dword [0x10011174] ;  (1 found)
0x10020c20: or al, 0x57 ; push eax ; call dword [0x10011174] ;  (1 found)
0x10016b69: or al, 0x5B ; mov esp, ebp ; pop ebp ; ret  ;  (1 found)
0x1002031f: or al, 0x5D ; cmp ax, 0x00000001 ; sbb eax, eax ; and eax, ecx ; ret  ;  (1 found)
0x10028aff: or al, 0x5D ; pop edi ; pop esi ; pop ebx ; ret  ;  (1 found)
0x10028bf2: or al, 0x5D ; pop edi ; pop esi ; pop ebx ; ret  ;  (1 found)
0x1001709f: or al, 0x5D ; ret  ;  (1 found)
0x10017014: or al, 0x5D ; ret  ;  (1 found)
0x100170ba: or al, 0x5D ; ret  ;  (1 found)
0x1001e656: or al, 0x5F ; mov esp, ebp ; pop ebp ; ret  ;  (1 found)
0x10017398: or al, 0x5F ; pop esi ; pop ebx ; pop ebp ; ret  ;  (1 found)
0x10012abf: or al, 0x5F ; pop esi ; pop ebx ; ret  ;  (1 found)
0x10026330: or al, 0x5F ; pop esi ; ret  ;  (1 found)
0x1002723b: or al, 0x5F ; pop esi ; ret  ;  (1 found)
0x10020aa5: or al, 0x68 ; and byte [edx], al ; add byte [eax], al ; push dword [0x1002FF90] ; call dword [0x10011170] ;  (1 found)
0x10020b82: or al, 0x68 ; and byte [edx], al ; add byte [eax], al ; push eax ; call dword [0x10011170] ;  (1 found)
0x10020b02: or al, 0x6A ; add bh, bh ; xor eax, 0x1002FF90 ; call dword [0x10011170] ;  (1 found)
0x1001f84d: or al, 0x6A ; add edi, edi ; xor eax, 0x1002FF90 ; call dword [0x10011134] ;  (1 found)
0x100170dc: or al, 0x6A ; call dword [edx+0x6A] ;  (1 found)
0x10017144: or al, 0x6A ; call dword [edx+0x6A] ;  (1 found)
0x10017110: or al, 0x6A ; call dword [edx+0x6A] ;  (1 found)
0x1001601d: or al, 0x6A ; hlt  ; call dword [0x100110F4] ;  (1 found)
0x1001db3b: or al, 0x72 ; push ss ; push edi ; push ebx ; call dword [ebp+0x14] ;  (1 found)
0x1001488c: or al, 0x76 ; mov eax, dword [edi+ecx*4] ; mov dword [ebx+0x0C], eax ; call dword [edi+ecx*4+0x08] ;  (1 found)
0x100216b0: or al, 0x76 ; mov eax, dword [edi+ecx*4] ; mov dword [ebx+0x0C], eax ; call dword [edi+ecx*4+0x08] ;  (1 found)
0x1001205a: or al, 0x77 ; out dx, eax ; pop esi ; ret  ;  (1 found)
0x10012eed: or al, 0x80 ; ret  ;  (1 found)
0x10017885: or al, 0x83 ; clc  ; add dword [ebx], ebx ; shl byte [ebx], 0xFFFFFFC2 ; pop ebx ; ret  ;  (1 found)
0x1002a232: or al, 0x83 ; les ecx,  [eax] ; pop ebp ; ret  ;  (1 found)
0x10019f43: or al, 0x83 ; ret  ;  (1 found)
0x10020607: or al, 0x83 ; rol dword [edx], 0xFFFFFF83 ; retn 0x6602 ;  (1 found)
0x10015349: or al, 0x89 ; add ecx, dword [ebp-0x00013B7B] ; call dword [eax-0x18] ;  (1 found)
0x1001524f: or al, 0x89 ; add ecx, dword [ebp-0x00013F7B] ; call dword [eax-0x18] ;  (1 found)
0x10026ac5: or al, 0x89 ; cmp bl, byte [edi+0x5E] ; pop ebx ; mov esp, ebp ; pop ebp ; ret  ;  (1 found)
0x100170ec: or al, 0x8B ; in eax, 0x5D ; ret  ;  (1 found)
0x10017120: or al, 0x8B ; in eax, 0x5D ; ret  ;  (1 found)
0x10017154: or al, 0x8B ; in eax, 0x5D ; ret  ;  (1 found)
0x1001da4b: or al, 0x8B ; inc ebp ; adc byte [ebx], al ; ret  ;  (1 found)
0x100280fa: or al, 0x8B ; or byte [ebx-0x3E7CFBA8], cl ; adc al, 0x83 ; ret  ;  (1 found)
0x1002627b: or al, 0x8B ; ret  ;  (1 found)
0x10016f98: or al, 0x8B ; retn 0x3B42 ;  (1 found)
0x10025dbf: or al, 0x8B ; retn 0x5B5E ;  (1 found)
0x10028640: or al, 0x8D ; test dword [edi+edi*8-0x01], ebp ; call dword [eax-0x01] ;  (1 found)
0x100284a2: or al, 0x8D ; test dword [edi+edi*8-0x01], ebp ; inc dword [eax+0x50FEBC65] ; call dword [ebp+0x10] ;  (1 found)
0x1002ac5b: or al, 0xD9 ; cld  ; fstp qword [esp+0x00] ; fld qword [esp+0x00] ; add esp, 0x08 ; ret  ;  (1 found)
0x10014a7a: or al, 0xE8 ; add al, 0x00 ; add byte [eax], al ; add esp, 0x0C ; ret  ;  (1 found)
0x10014cc9: or al, 0xE8 ; add al, 0x00 ; add byte [eax], al ; add esp, 0x0C ; ret  ;  (1 found)
0x10011f78: or al, 0xE8 ; and al, byte [eax] ; add byte [eax], al ; add esp, 0x0C ; ret  ;  (1 found)
0x10013ac8: or al, 0xE8 ; cmpsd  ; dec esp ; add byte [eax], al ; add esp, 0x0C ; ret  ;  (1 found)
0x100190dd: or al, 0xE8 ; inc edx ; test dword [eax], eax ; add byte [ebx-0x3974FB3C], al ; pop esi ; ret  ;  (1 found)
0x10012def: or al, 0xE8 ; leave  ; out 0x00, eax ; add byte [ebx+0x74FF04C4], al ; and al, 0x14 ; call dword [0x100110A8] ;  (1 found)
0x10012e67: or al, 0xE8 ; mov eax, 0x830000E7 ; les eax,  [ebx+esi] ; shr bl, 0x0000001E ; call dword [0x10011058] ;  (1 found)
0x1001adbf: or al, 0xE8 ; pushad  ; push 0xC4830000 ; add al, 0x8B ; ret  ;  (1 found)
0x10011f67: or al, 0xE8 ; xor eax, dword [eax] ; add byte [eax], al ; add esp, 0x0C ; ret  ;  (1 found)
0x10028977: or al, 0xE9 ; ret  ;  (1 found)
0x1002307e: or al, 0xF7 ; mov dword [esi+0x04], eax ; pop esi ; ret  ;  (1 found)
0x1002307f: or al, 0xF7 ; mov dword [esi+0x04], eax ; pop esi ; ret  ;  (1 found)
0x10012021: or al, 0xFF ; adc eax, 0x10011054 ; pop esi ; pop ebx ; ret  ;  (1 found)
0x10022458: or al, 0xFF ; adc eax, 0x100111AC ; mov edi, eax ; call dword [0x10011058] ;  (1 found)
0x10025bed: or al, bh ; add eax, 0x1002FF98 ; add byte [eax], al ; add byte [eax], al ; ret  ;  (1 found)
0x10013ada: or al, ch ; add al, 0x00 ; add byte [eax], al ; add esp, 0x08 ; ret  ;  (1 found)
0x1001325d: or al, ch ; add al, 0x00 ; add byte [eax], al ; add esp, 0x08 ; ret  ;  (1 found)
0x1001731f: or al, ch ; add al, 0x00 ; add byte [eax], al ; add esp, 0x08 ; ret  ;  (1 found)
0x100172e4: or al, ch ; add al, 0x00 ; add byte [eax], al ; add esp, 0x08 ; ret  ;  (1 found)
0x1001d627: or al, ch ; add al, 0x00 ; add byte [eax], al ; add esp, 0x08 ; ret  ;  (1 found)
0x10027756: or al, ch ; add al, 0x00 ; add byte [eax], al ; mov esp, ebp ; pop ebp ; ret  ;  (1 found)
0x10016c03: or al, ch ; add dword [eax], eax ; add byte [eax], al ; ret  ;  (1 found)
0x10023cc6: or al, ch ; add eax, 0x83FFFFC2 ; les ecx,  [eax] ; ret  ;  (1 found)
0x1001ccbb: or al, ch ; add eax, 0x83FFFFFF ; les ecx,  [eax] ; ret  ;  (1 found)
0x10019079: or al, ch ; cmpsb  ; test dword [eax], eax ; add byte [ebx-0x3974FB3C], al ; pop esi ; ret  ;  (1 found)
0x100162d0: or al, ch ; dec edi ; mov bl, 0x00 ; add byte [ebx-0x3974FB3C], al ; pop esi ; ret  ;  (1 found)
0x100130bf: or al, ch ; imul dword [edi] ; add byte [eax], al ; add esp, 0x04 ; push eax ; call dword [0x100110B0] ;  (1 found)
0x1002934f: or al, ch ; inc esp ; sldt word [eax] ; mov esp, ebp ; pop ebp ; ret  ;  (1 found)
0x10016b76: or al, ch ; mov es, word [eax] ; add byte [eax], al ; ret  ;  (1 found)
0x100161c6: or al, ch ; pop ecx ; mov ah, 0x00 ; add byte [ebx-0x3974FB3C], al ; pop esi ; ret  ;  (1 found)
0x100163c8: or al, ch ; push edi ; mov dl, 0x00 ; add byte [ebx-0x3974FB3C], al ; pop esi ; ret  ;  (1 found)
0x10028938: or al, ch ; push esp ; add dword [eax], eax ; add byte [ebx+0x5D5E08C4], al ; ret  ;  (1 found)
0x100125e9: or al, ch ; retn 0x0044 ;  (1 found)
0x100156f9: or al, ch ; sbb eax, 0x8300006A ; les ecx,  [eax] ; ret  ;  (1 found)
0x1001cc8b: or al, ch ; xor eax, 0x83FFFFFF ; les ecx,  [eax] ; ret  ;  (1 found)
0x1002aa63: or ax, cx ; mov word [ebp-0x02], ax ; fld qword [ebp-0x08] ; mov esp, ebp ; pop ebp ; ret  ;  (1 found)
0x10012b9e: or bh, bh ; adc eax, 0x10011084 ; ret  ;  (1 found)
0x1001ff8e: or bh, bh ; call dword [esi+0x57] ;  (1 found)
0x100159a9: or bh, dh ; stc  ; mov word [esi+0x06], ax ; lea eax, dword [ebp-0x10] ; push eax ; call dword [0x100110E8] ;  (1 found)
0x1001610b: or bl, 0xFFFFFF80 ; push dword [ebp+0x08] ; call dword [0x100110E4] ;  (1 found)
0x1001cd08: or bl, al ; cmp word [esp+0x04], 0x0080 ; mov eax, 0x00000001 ; adc eax, 0xFFFFFFFF ; ret  ;  (1 found)
0x100288ae: or bl, byte [edi+0x5E] ; mov esp, ebp ; pop ebp ; ret  ;  (1 found)
0x1002738a: or bl, byte [esi+0x5B] ; mov esp, ebp ; pop ebp ; ret  ;  (1 found)
0x1001f3a0: or bl, ch ; add dh, byte [ebx] ; rcr byte [ebx+0x5F], 0x0000005E ; leave  ; ret  ;  (1 found)
0x1001f16a: or bl, ch ; and cl, byte [ecx+0x02F3B41D] ; adc dh, al ; inc ebp ; call dword [ebx-0x15] ;  (1 found)
0x10012563: or bl, ch ; push es ; push esi ; call edi ;  (1 found)
0x100224c5: or byte [0xE075FF12+esi*2], al ; call dword [0x10011094] ;  (1 found)
0x10018330: or byte [eax+0x3E804616], cl ; add byte [ebp-0x08], dh ; pop esi ; ret  ;  (1 found)
0x1002307c: or byte [eax-0x7608F39A], al ; inc esi ; add al, 0x5E ; ret  ;  (1 found)
0x1002a9f0: or byte [eax-0x7F], al ; cli  ; mov eax, 0x72100338 ; xor eax, eax ; ret  ;  (1 found)
0x10016a88: or byte [eax], al ; add byte [eax], al ; add byte [ebx-0x1A7403BB], cl ; pop ebp ; ret  ;  (1 found)
0x1001700b: or byte [eax], al ; add byte [eax], al ; add esp, 0x10 ; mov eax, dword [ebp+0x0C] ; pop ebp ; ret  ;  (1 found)
0x10012208: or byte [eax], al ; add byte [eax], al ; mov dword [eax], 0x00000016 ; pop esi ; ret  ;  (1 found)
0x10020d99: or byte [eax], al ; add byte [ebx-0x3974FB3C], al ; pop esi ; ret  ;  (1 found)
0x10020d66: or byte [eax], al ; add byte [ebx-0x3C74FB3C], al ; pop edi ; pop esi ; pop ebx ; ret  ;  (1 found)
0x10013525: or byte [eax], al ; add byte [edi], cl ; test bh, al ; add al, byte [eax] ; add byte [ebx], bh ; ret  ;  (1 found)
0x10021a31: or byte [eax], al ; add byte [edi], cl ; test bh, al ; add al, byte [eax] ; add byte [ebx], bh ; ret  ;  (1 found)
0x1002a323: or byte [eax], al ; add ch, bl ; inc ebp ; sbb byte [ebx-0x74A1F73C], al ; in eax, 0x5D ; ret  ;  (1 found)
0x100280b5: or byte [eax], al ; ret  ;  (1 found)
0x10012ade: or byte [ebp+0x05], dh ; mov eax, 0x00000001 ; ret  ;  (1 found)
0x10012554: or byte [ebp+0x0F], dh ; mov ecx, dword [ebp-0x04] ; push dword [ecx+0x4C] ; push 0x00000008 ; call edi ;  (1 found)
0x1001e28a: or byte [ebp+0x330774C0], al ; shr cl, 0xFFFFFFB3 ; add byte [eax], al ; add byte [ebp-0x0000877B], cl ; call dword [eax+0x68] ;  (1 found)
0x100275fd: or byte [ebp+0x5FC575DB], al ; pop esi ; pop ebx ; mov esp, ebp ; pop ebp ; ret  ;  (1 found)
0x10025e77: or byte [ebp+0x5F], bl ; pop esi ; pop ebx ; ret  ;  (1 found)
0x10018b51: or byte [ebp+0x6851E045], 0x00000000 ; add al, 0x00 ; add byte [eax-0x18], dl ; retn 0x0003 ;  (1 found)
0x10029c2c: or byte [ebp-0x00008543], cl ; jmp dword [ebp+0x0C7B80A5] ;  (1 found)
0x1001536f: or byte [ebp-0x00012B7B], cl ; dec dword [ebp-0x00011343] ; call dword [eax-0x18] ;  (1 found)
0x10015275: or byte [ebp-0x00012F7B], cl ; dec dword [ebp-0x00011743] ; call dword [eax-0x18] ;  (1 found)
0x10028b73: or byte [ebp-0x745A995B], ah ; inc ebp ; or byte [edi+0x5E], bl ; pop ebp ; ret  ;  (1 found)
0x10013a58: or byte [ebx+0x088904C1], al ; mov ax, word [ecx-0x04] ; ret  ;  (1 found)
0x10021f9e: or byte [ebx+0x088904C1], al ; mov ax, word [ecx-0x04] ; ret  ;  (1 found)
0x10013a49: or byte [ebx+0x088904C1], al ; mov eax, dword [ecx-0x04] ; ret  ;  (1 found)
0x10021f8f: or byte [ebx+0x088904C1], al ; mov eax, dword [ecx-0x04] ; ret  ;  (1 found)
0x10023051: or byte [ebx+0x088904C1], al ; mov eax, dword [ecx-0x04] ; ret  ;  (1 found)
0x10025fc2: or byte [ebx+0x0A89FC4D], cl ; mov esp, ebp ; pop ebp ; ret  ;  (1 found)
0x1001dd88: or byte [ebx+0x0FF685F0], cl ; test dl, ah ; add byte [eax], al ; add byte [ebx], ch ; ret  ;  (1 found)
0x10011f08: or byte [ebx+0x3904244C], cl ; or dh, byte [ebx+edx-0x7D] ; retn 0xA10C ;  (1 found)
0x10012fd8: or byte [ebx+0x44E857F0], cl ; out 0x00, al ; add byte [ebx-0x3974FB3C], al ; pop edi ; pop esi ; ret  ;  (1 found)
0x10015daf: or byte [ebx+0x5BE857F0], cl ; sar edi, cl ; inc dword [ebx-0x3974FB3C] ; pop edi ; pop esi ; ret  ;  (1 found)
0x100128bb: or byte [ebx+0x74F685F0], cl ; push esi ; mov eax, dword [0x1002E148] ; push eax ; call dword [0x10011064] ;  (1 found)
0x10016a37: or byte [ebx+0x75010878], al ; push es ; mov word [ebp-0x16], 0x0004 ; lea eax, dword [ebp-0x20] ; push eax ; call dword [0x1001111C] ;  (1 found)
0x10020826: or byte [ebx-0x18], dl ; cdq  ; ret  ;  (1 found)
0x10019897: or byte [ebx-0x1A74A13A], cl ; pop ebp ; ret  ;  (1 found)
0x1001990f: or byte [ebx-0x1A74A13A], cl ; pop ebp ; ret  ;  (1 found)
0x1001b326: or byte [ebx-0x1A74A13A], cl ; pop ebp ; ret  ;  (1 found)
0x1001b39d: or byte [ebx-0x1A74A13A], cl ; pop ebp ; ret  ;  (1 found)
0x1001e616: or byte [ebx-0x1A74A13A], cl ; pop ebp ; ret  ;  (1 found)
0x1001f969: or byte [ebx-0x1A74A13A], cl ; pop ebp ; ret  ;  (1 found)
0x100201df: or byte [ebx-0x1A74A13A], cl ; pop ebp ; ret  ;  (1 found)
0x10020255: or byte [ebx-0x1A74A13A], cl ; pop ebp ; ret  ;  (1 found)
0x10029cde: or byte [ebx-0x37], bl ; ret  ;  (1 found)
0x100280fc: or byte [ebx-0x3E7CFBA8], cl ; adc al, 0x83 ; ret  ;  (1 found)
0x10012a5d: or byte [ebx-0x76EFDBAC], cl ; add bh, byte [eax+0x00000003] ; ret  ;  (1 found)
0x10021629: or byte [ebx-0x7ACB0014], cl ; inc eax ; cli  ; add dl, byte [eax] ; call dword [0x100111A8] ;  (1 found)
0x10028aea: or byte [ebx], ah ; retn 0xC133 ;  (1 found)
0x10027271: or byte [ebx], al ; ror byte [ebx], 0xFFFFFFC6 ; pop esi ; pop ebx ; mov dword [edx+0x08], eax ; ret  ;  (1 found)
0x10014e6d: or byte [ebx], bh ; ret  ;  (1 found)
0x10014e7c: or byte [ebx], bh ; ret  ;  (1 found)
0x10019ec9: or byte [ebx], bh ; ret  ;  (1 found)
0x10019eba: or byte [ebx], bh ; ret  ;  (1 found)
0x100125b3: or byte [ebx], bh ; retn 0xE877 ;  (1 found)
0x10011f1f: or byte [ebx], bh ; retn 0xE977 ;  (1 found)
0x10018edb: or byte [ebx], bh ; retn 0xF272 ;  (1 found)
0x10014e8e: or byte [ebx], ch ; ret  ;  (1 found)
0x10014ea0: or byte [ebx], ch ; ret  ;  (1 found)
0x10019edb: or byte [ebx], ch ; ret  ;  (1 found)
0x10019ef1: or byte [ebx], ch ; ret  ;  (1 found)
0x100259e3: or byte [ebx], ch ; ret  ;  (1 found)
0x100267d4: or byte [ebx], ch ; retn 0xC123 ;  (1 found)
0x10024ab3: or byte [ebx], cl ; fmul dword [ebx+0x5E5F5DC3] ; pop ebx ; add esp, 0x04 ; ret  ;  (1 found)
0x1001ade9: or byte [ebx], cl ; rcr dword [edi+0x5B], 0xFFFFFF8B ; in eax, 0x5D ; ret  ;  (1 found)
0x1001af95: or byte [ebx], cl ; rcr dword [edi+0x5B], 0xFFFFFF8B ; in eax, 0x5D ; ret  ;  (1 found)
0x10017685: or byte [ebx], cl ; shr ebx, 0x02 ; xor eax, eax ; ret  ;  (1 found)
0x10016bfd: or byte [ebx], dh ; ror byte [ebx-0x17F7DBB4], cl ; add dword [eax], eax ; add byte [eax], al ; ret  ;  (1 found)
0x10021303: or byte [ecx+0x10033B60], ah ; add eax, 0x2C ; pop edi ; pop esi ; ret  ;  (1 found)
0x10027a1a: or byte [ecx+0x45DDFC45], 0xFFFFFFF8 ; mov esp, ebp ; pop ebp ; ret  ;  (1 found)
0x10012c34: or byte [ecx+0x5056E865], cl ; call dword [0x10011064] ;  (1 found)
0x100227b5: or byte [ecx+0x50891C48], cl ; adc byte [edi+0x5E], bl ; pop ebx ; mov esp, ebp ; pop ebp ; ret  ;  (1 found)
0x10011ee2: or byte [ecx+0x5106EB2E], cl ; call edx ;  (1 found)
0x1001b940: or byte [ecx+0x51], dl ; call dword [0x10011170] ;  (1 found)
0x1001b96d: or byte [ecx+0x51], dl ; call dword [0x10011170] ;  (1 found)
0x1001f78b: or byte [ecx+0x5FC03301], cl ; pop esi ; pop ebx ; mov esp, ebp ; pop ebp ; ret  ;  (1 found)
0x100209d6: or byte [ecx+0x5FC03301], cl ; pop esi ; pop ebx ; mov esp, ebp ; pop ebp ; ret  ;  (1 found)
0x1002a630: or byte [ecx+0x6A], dl ; add dword [edx+0x00], ebp ; push edi ; call dword [0x100111C4] ;  (1 found)
0x10012aa5: or byte [ecx+0x7C830C48], cl ; mov bl, 0x04 ; add byte [ebp+0x04], dh ; call dword [ebx+esi*4+0x08] ;  (1 found)
0x1001760b: or byte [ecx+eax], bh ; sbb eax, eax ; and al, 0xFD ; add eax, 0x02 ; ret  ;  (1 found)
0x100174d9: or byte [ecx+ecx*8+0x03EBF475], al ; mov byte [esi], 0x00000000 ; pop esi ; pop ebp ; ret  ;  (1 found)
0x10015a0b: or byte [ecx-0x1A74A1FA], cl ; pop ebp ; ret  ;  (1 found)
0x10016712: or byte [ecx-0x73], dl ; inc ebp ; cld  ; push eax ; call dword [0x1001103C] ;  (1 found)
0x1001802c: or byte [ecx-0x75], al ; ror byte [edi], 1  ; mov dh, 0x01 ; add eax, edx ; ret  ;  (1 found)
0x10018ed4: or byte [ecx], bh ; or byte [edi+eax-0x7D], dh ; ror byte [eax], 0x0000003B ; retn 0xF272 ;  (1 found)
0x10017830: or byte [edi+0x5E], bl ; leave  ; ret  ;  (1 found)
0x1001e694: or byte [edi+0x5E], bl ; leave  ; ret  ;  (1 found)
0x1001c325: or byte [edi+0x5E], bl ; mov esp, ebp ; pop ebp ; ret  ;  (1 found)
0x100298e2: or byte [edi+0x5E], bl ; mov esp, ebp ; pop ebp ; ret  ;  (1 found)
0x10028b7a: or byte [edi+0x5E], bl ; pop ebp ; ret  ;  (1 found)
0x10015d7d: or byte [edi+0x5E], bl ; pop ebx ; mov esp, ebp ; pop ebp ; ret  ;  (1 found)
0x10026101: or byte [edi+0x5E], bl ; pop ebx ; pop ebp ; ret  ;  (1 found)
0x100231dd: or byte [edi+0x5E], bl ; ret  ;  (1 found)
0x10018ed6: or byte [edi+eax-0x7D], dh ; ror byte [eax], 0x0000003B ; retn 0xF272 ;  (1 found)
0x1001d61e: or byte [edi-0x37], bl ; ret  ;  (1 found)
0x100203a1: or byte [edx+0x00], ch ; push dword [0x1002FF7C] ; call dword [0x1001116C] ;  (1 found)
0x1001b441: or byte [edx+0x01], ch ; push 0x00000000 ; call dword [0x1001116C] ;  (1 found)
0x1001b496: or byte [edx+0x01], ch ; push dword [0x1002FF7C] ; call dword [0x1001116C] ;  (1 found)
0x1001a666: or byte [edx+0x01], ch ; push dword [0x1002FF90] ; call dword [0x10011134] ;  (1 found)
0x1001e7a2: or byte [edx+0x01], ch ; push dword [0x1002FF90] ; call dword [0x10011134] ;  (1 found)
0x1001fda3: or byte [edx+0x01], ch ; push ecx ; push 0x00000100 ; push dword [0x1002FF80] ; call dword [0x10011174] ;  (1 found)
0x1001fe5d: or byte [edx+0x01], ch ; push ecx ; push 0x00000200 ; push dword [0x1002FF80] ; call dword [0x10011174] ;  (1 found)
0x1001c220: or byte [edx+0x6A], dl ; add dword [eax+0x68], edx ; and byte [edx], al ; add byte [eax], al ; push dword [0x1002FF90] ; call dword [0x10011170] ;  (1 found)
0x1001ffee: or byte [edx+0x6A], dl ; add dword [eax+0x68], edx ; and byte [edx], al ; add byte [eax], al ; push dword [0x1002FF90] ; call dword [0x10011170] ;  (1 found)
0x10026b1f: or byte [edx-0x18], dl ; test eax, 0x8BFFFFFF ; in eax, 0x5D ; ret  ;  (1 found)
0x10013285: or byte [edx], bh ; ret  ;  (1 found)
0x10020da8: or byte [esi+0x57], dl ; push 0x00000104 ; mov esi, 0x10033950 ; push esi ; push 0x00000000 ; call dword [0x1001104C] ;  (1 found)
0x10021000: or byte [esi+0x57], dl ; push 0x00000104 ; mov esi, 0x10033A58 ; push esi ; push 0x00000000 ; call dword [0x1001104C] ;  (1 found)
0x10028940: or byte [esi+0x5D], bl ; ret  ;  (1 found)
0x1001d3b2: or byte [esi+0x5F], bl ; leave  ; ret  ;  (1 found)
0x1001d396: or byte [esi+0x5F], bl ; leave  ; ret  ;  (1 found)
0x1001d3a4: or byte [esi+0x5F], bl ; leave  ; ret  ;  (1 found)
0x1001d3e4: or byte [esi+0x5F], bl ; leave  ; ret  ;  (1 found)
0x1001d451: or byte [esi+0x5F], bl ; leave  ; ret  ;  (1 found)
0x1001d443: or byte [esi+0x5F], bl ; leave  ; ret  ;  (1 found)
0x1001d431: or byte [esi+0x5F], bl ; leave  ; ret  ;  (1 found)
0x1001d489: or byte [esi+0x5F], bl ; leave  ; ret  ;  (1 found)
0x1001d4f4: or byte [esi+0x5F], bl ; leave  ; ret  ;  (1 found)
0x1001d502: or byte [esi+0x5F], bl ; leave  ; ret  ;  (1 found)
0x1001d4e6: or byte [esi+0x5F], bl ; leave  ; ret  ;  (1 found)
0x1001d534: or byte [esi+0x5F], bl ; leave  ; ret  ;  (1 found)
0x1001d5a1: or byte [esi+0x5F], bl ; leave  ; ret  ;  (1 found)
0x1001d593: or byte [esi+0x5F], bl ; leave  ; ret  ;  (1 found)
0x1001d581: or byte [esi+0x5F], bl ; leave  ; ret  ;  (1 found)
0x1001d5d9: or byte [esi+0x5F], bl ; leave  ; ret  ;  (1 found)
0x10013a5d: or byte [esi-0x75], ah ; inc ecx ; cld  ; ret  ;  (1 found)
0x10021fa3: or byte [esi-0x75], ah ; inc ecx ; cld  ; ret  ;  (1 found)
0x10027b2a: or byte [esi-0x75], bl ; in eax, 0x5D ; ret  ;  (1 found)
0x100296c7: or byte [esi-0x75], bl ; in eax, 0x5D ; ret  ;  (1 found)
0x100299cd: or byte [esi-0x75], bl ; in eax, 0x5D ; ret  ;  (1 found)
0x1002a32b: or byte [esi-0x75], bl ; in eax, 0x5D ; ret  ;  (1 found)
0x1002a3dc: or byte [esi-0x75], bl ; in eax, 0x5D ; ret  ;  (1 found)
0x1001c6c0: or ch, byte [ebx] ; pop esi ; add al, 0x8B ; ret  ;  (1 found)
0x10016a82: or cl, byte [ebx+0x41C7084D] ; or byte [eax], al ; add byte [eax], al ; add byte [ebx-0x1A7403BB], cl ; pop ebp ; ret  ;  (1 found)
0x100222ef: or cl, byte [ebx-0x4D140397] ; pop ebp ; pop edi ; pop esi ; pop ebx ; ret  ;  (1 found)
0x10028751: or cl, byte [edi] ; xchg dword [edi+0x01], edx ; add byte [eax], al ; movzx eax, byte [eax+0x100288E9] ; jmp dword [0x100288B5+eax*4] ;  (1 found)
0x1002a1c4: or cl, cl ; ret  ;  (1 found)
0x10011f0e: or dh, byte [ebx+edx-0x7D] ; retn 0xA10C ;  (1 found)
0x1002a9eb: or dh, byte [edi+ecx-0x7D] ; retn 0x4008 ;  (1 found)
0x1002637b: or dh, dh ; ret  ;  (1 found)
0x1001585e: or dl, byte [ecx+0x66] ; mov dword [ebx+0x08], eax ; mov word [ebx+0x02], ax ; push dword [0x1002F4C0+edi*4] ; call dword [0x100110E0] ;  (1 found)
0x1001743b: or dword [eax+0x02F3C0A6], eax ; adc ch, bh ; mov eax, edi ; pop edi ; pop esi ; ret  ;  (1 found)
0x100283c9: or dword [eax-0x00008F73], eax ; call dword [eax] ;  (1 found)
0x100177bd: or dword [eax-0x18], edx ; add byte [eax], al ; add esp, 0x04 ; ret  ;  (1 found)
0x1001779f: or dword [eax-0x18], edx ; test al, 0x34 ; add byte [eax], al ; add esp, 0x04 ; ret  ;  (1 found)
0x10018d9e: or dword [eax-0x3B7D0000], 0x04 ; push dword [ebp-0x24] ; call dword [0x10011094] ;  (1 found)
0x10020c9c: or dword [eax], eax ; add byte [ebx-0x3974FB3C], al ; pop esi ; ret  ;  (1 found)
0x10025c1c: or dword [eax], eax ; mov eax, esp ; mov esp, ecx ; mov ecx, dword [eax] ; mov eax, dword [eax+0x04] ; jmp eax ;  (1 found)
0x10021589: or dword [ebp+ecx+0x50], esi ; call esi ;  (1 found)
0x100158a1: or dword [ebx+0x04], 0x458D01B6 ; lea ecx, dword [ebp-0x30] ; push eax ; push ecx ; call dword [0x100110DC] ;  (1 found)
0x100176d7: or dword [ebx], ecx ; retn 0x1DEB ;  (1 found)
0x10025c1b: or dword [ecx], 0x00000000 ; mov eax, esp ; mov esp, ecx ; mov ecx, dword [eax] ; mov eax, dword [eax+0x04] ; jmp eax ;  (1 found)
0x10018b7f: or dword [esi+0x00000001], edi ; xor edi, edi ; mov ebx, esi ; mov dword [ebp-0x28], 0x00000001 ; mov dword [ebp-0x2C], 0x00000001 ; call dword [0x100110C8] ;  (1 found)
0x1001491c: or dword [esi-0x18], edx ; mov byte [0x8300007B], al ; les eax,  [ebx+ecx*4] ; ret  ;  (1 found)
0x10019a3d: or dword [esi-0x18], edx ; sub dword [edx], 0xC4830000 ; add al, 0x8B ; ret  ;  (1 found)
0x10014989: or dword [esi-0x18], edx ; xor eax, 0x8300007B ; les eax,  [ebx+ecx*4] ; ret  ;  (1 found)
0x100169d7: or eax, 0x00000000 ; pop esi ; pop ebx ; mov esp, ebp ; pop ebp ; ret  ;  (1 found)
0x10016da1: or eax, 0x000001B8 ; add byte [ecx+0x009872FE], al ; add byte [esi+0x02], dh ; xor eax, eax ; pop esi ; ret  ;  (1 found)
0x10016dcc: or eax, 0x000001B8 ; add byte [ecx+0x00EA9EFE], al ; add byte [esi+0x02], dh ; xor eax, eax ; pop esi ; ret  ;  (1 found)
0x10027fde: or eax, 0x00040000 ; pop esi ; ret  ;  (1 found)
0x100280b2: or eax, 0x00080000 ; ret  ;  (1 found)
0x1001b294: or eax, 0x1002E088 ; ret  ;  (1 found)
0x10011dfc: or eax, 0x1002F124 ; ret  ;  (1 found)
0x1001212c: or eax, 0x10033EC0 ; ret  ;  (1 found)
0x10012126: or eax, 0x10033EC8 ; mov dword [0x10033EC0], ecx ; ret  ;  (1 found)
0x1001211a: or eax, 0x10033EC8 ; mov dword [ecx], 0x00000000 ; mov ecx, dword [0x10033EC8] ; mov dword [0x10033EC0], ecx ; ret  ;  (1 found)
0x10027e8b: or eax, 0x1B01F983 ; shl byte [0x000000F8], 0xFFFFFF83 ; ror byte [eax], 0x0000005D ; ret  ;  (1 found)
0x100257fc: or eax, 0x6BC2B70F ; rol byte [esi], 0x00000066 ; mov eax, dword [eax+0x100329C0] ; ret  ;  (1 found)
0x1001832b: or eax, 0x74003E80 ; or byte [eax+0x3E804616], cl ; add byte [ebp-0x08], dh ; pop esi ; ret  ;  (1 found)
0x10021098: or eax, 0xC483FFFF ; add al, 0x5F ; pop esi ; mov esp, ebp ; pop ebp ; ret  ;  (1 found)
0x1001668e: or eax, 0xE8000000 ; xchg byte [ebx-0x0F740001], bh ; call dword [0x10011058] ;  (1 found)
0x10021584: or eax, 0xFF831274 ; or dword [ebp+ecx+0x50], esi ; call esi ;  (1 found)
0x10025fba: or eax, dword [eax] ; add byte [ebx-0x3B7CF3AB], cl ; or byte [ebx+0x0A89FC4D], cl ; mov esp, ebp ; pop ebp ; ret  ;  (1 found)
0x10011cfa: or eax, dword [eax] ; add cl, ch ; test al, 0x00 ; add byte [eax], al ; call dword [0x10011044] ;  (1 found)
0x1002aa64: or eax, ecx ; mov word [ebp-0x02], ax ; fld qword [ebp-0x08] ; mov esp, ebp ; pop ebp ; ret  ;  (1 found)
0x1001adea: or eax, ecx ; pop edi ; pop ebx ; mov esp, ebp ; pop ebp ; ret  ;  (1 found)
0x1001af96: or eax, ecx ; pop edi ; pop ebx ; mov esp, ebp ; pop ebp ; ret  ;  (1 found)
0x100272a8: or eax, edi ; pop edi ; mov dword [esi], eax ; pop esi ; ret  ;  (1 found)
0x10027274: or eax, esi ; pop esi ; pop ebx ; mov dword [edx+0x08], eax ; ret  ;  (1 found)
0x1001afe0: or ebp, eax ; aas  ; add byte [eax], al ; add esp, 0x04 ; ret  ;  (1 found)
0x10012206: or ebp, eax ; or byte [eax], al ; add byte [eax], al ; mov dword [eax], 0x00000016 ; pop esi ; ret  ;  (1 found)
0x1001afc6: or ebp, eax ; pop ecx ; add byte [eax], al ; add esp, 0x04 ; ret  ;  (1 found)
0x10025b6b: or ecx, dword [ebx+0x033BB00D] ; adc byte [ecx+0x05EB0441], cl ; mov dword [0x10033BB4], eax ; mov dword [0x10033BB0], eax ; xor eax, eax ; ret  ;  (1 found)
0x1002872c: or ecx, dword [ebx+0x5E5FFC45] ; pop ebx ; mov esp, ebp ; pop ebp ; ret  ;  (1 found)
0x10026bb2: or ecx, dword [edi] ; xchg dword [edx+0x04], esi ; add byte [eax], al ; jmp dword [0x1002718E+eax*4] ;  (1 found)
0x10028c1a: or ecx, edx ; mov dword [eax], ecx ; ret  ;  (1 found)
0x10016aa4: or esi, dword [ebx] ; ror byte [edx+0x02F3C081], 0x00000010 ; and eax, 0x40 ; ret  ;  (1 found)
0x1001a394: or esi, eax ; mov ax, si ; pop esi ; pop ebx ; ret  ;  (1 found)
0x1001a393: or si, ax ; mov ax, si ; pop esi ; pop ebx ; ret  ;  (1 found)
0x100158a0: or word [ebx+0x04], 0x01B6 ; lea eax, dword [ebp-0x10] ; lea ecx, dword [ebp-0x30] ; push eax ; push ecx ; call dword [0x100110DC] ;  (1 found)
0x10012fde: out 0x00, al ; add byte [ebx-0x3974FB3C], al ; pop edi ; pop esi ; ret  ;  (1 found)
0x10028955: out 0x00, eax ; add byte [eax], al ; movzx ecx, byte [eax+0x10028A72] ; jmp dword [0x10028A46+ecx*4] ;  (1 found)
0x10012df2: out 0x00, eax ; add byte [ebx+0x74FF04C4], al ; and al, 0x14 ; call dword [0x100110A8] ;  (1 found)
0x10017182: out 0x33, eax ; rcr byte [edi+0x5E], 0x0000005B ; ret  ;  (1 found)
0x10019790: out 0x61, al ; popfd  ; mov esp, ebp ; pop ebp ; ret  ;  (1 found)
0x100143ae: out 0xDF, al ; lea eax, dword [esi-0x07] ; pop esi ; ret  ;  (1 found)
0x10023c8e: out 0xDF, al ; lea eax, dword [esi-0x07] ; pop esi ; ret  ;  (1 found)
0x1001b670: out dx, al ; add bh, byte [ebx] ; div dword [edi-0x16] ; pop edi ; pop esi ; ret  ;  (1 found)
0x1001d472: out dx, al ; add eax, dword [ebx-0x163EFC11] ; add dh, bl ; movsd  ; jmp dword [0x1001D410+eax*4] ;  (1 found)
0x1001d5c2: out dx, al ; add eax, dword [ebx-0x163EFC11] ; add dh, bl ; movsd  ; jmp dword [0x1001D560+eax*4] ;  (1 found)
0x1001bc33: out dx, al ; push esi ; push dword [ebp+0x08] ; call dword [ebp+0x18] ;  (1 found)
0x1002a10d: out dx, al ; ret  ;  (1 found)
0x10016f93: out dx, eax ; add dl, byte [eax] ; add al, 0x74 ; or al, 0x8B ; retn 0x3B42 ;  (1 found)
0x1001a730: out dx, eax ; mov eax, edx ; leave  ; ret  ;  (1 found)
0x1001a910: out dx, eax ; mov eax, edx ; leave  ; ret  ;  (1 found)
0x1001db9e: out dx, eax ; pop esi ; pop ebx ; ret  ;  (1 found)
0x1001205c: out dx, eax ; pop esi ; ret  ;  (1 found)
0x10015089: outsb  ; add byte [eax], al ; add esp, 0x04 ; ret  ;  (1 found)
0x1001526c: outsb  ; add dword [eax], eax ; add byte [ebx+0x438904C4], al ; or byte [ebp-0x00012F7B], cl ; dec dword [ebp-0x00011743] ; call dword [eax-0x18] ;  (1 found)
0x10012e05: outsb  ; lea eax, dword [esp+0x0C] ; push eax ; push 0x00000000 ; call dword [0x100110A4] ;  (1 found)
0x100160ab: outsb  ; sar edi, 0xFFFFFFFF ; mov dword [eax], 0x00000000 ; mov eax, 0xFFFFFFFF ; pop esi ; ret  ;  (1 found)
0x1001b013: outsd  ; lea eax, dword [ebp-0x000000AC] ; push eax ; call dword [0x10011178] ;  (1 found)
0x100143ef: outsd  ; push 0xFFFFFFFF ; push esi ; call dword [0x100110C0] ;  (1 found)
0x1002a057: pmovmskb ecx, qword [edi] ; mov esi, 0x04E181C0 ; add al, 0x00 ; add byte [ebx-0x7C27FC26], cl ; ret  ;  (1 found)
0x100267be: pop ds ; add byte [eax], al ; add byte [ecx+0x031FE283], bl ; retn 0xF8C1 ;  (1 found)
0x1001a19e: pop ds ; add dword [eax], eax ; add byte [ebp-0x72720FBB], cl ; sar dh, 0xFFFFFFFF ; call dword [eax+0x51] ;  (1 found)
0x1001294b: pop ds ; call dword [0x10011060] ;  (1 found)
0x10012ab7: pop dword [0x00000000] ; add esp, 0x0C ; pop edi ; pop esi ; pop ebx ; ret  ;  (1 found)
0x10012ab6: pop dword [fs:0x00000000] ; add esp, 0x0C ; pop edi ; pop esi ; pop ebx ; ret  ;  (1 found)
0x100263b5: pop eax ; adc byte [ebx-0x75], bl ; in eax, 0x5D ; ret  ;  (1 found)
0x10016729: pop eax ; adc byte [ecx], al ; adc byte [edi+0x5E], bl ; mov esp, ebp ; pop ebp ; ret  ;  (1 found)
0x10016836: pop eax ; adc byte [ecx], al ; adc byte [esi-0x75], bl ; in eax, 0x5D ; ret  ;  (1 found)
0x10025eb1: pop eax ; inc dword [edx] ; adc byte [ebx+0x1002FF6C], ah ; ret  ;  (1 found)
0x1001735c: pop ebp ; adc byte [ecx], bh ; xor esi, dword [esi+0x1B] ; push dword [ebp+0x0C] ; push dword [ebp+0x08] ; call dword [ebp+0x18] ;  (1 found)
0x10025746: pop ebp ; add byte [eax], al ; add byte [ebx], dh ; dec dword [ebp+0x2B993E04] ; retn 0xF8D1 ;  (1 found)
0x10012f05: pop ebp ; cld  ; push ebx ; call dword [0x100110A8] ;  (1 found)
0x10020320: pop ebp ; cmp ax, 0x00000001 ; sbb eax, eax ; and eax, ecx ; ret  ;  (1 found)
0x1002ac4e: pop ebp ; hlt  ; wait  ; mov esp, ebp ; pop ebp ; ret  ;  (1 found)
0x10029c44: pop ebp ; mov cl, byte [ebp-0x00008D7B] ; dec dword [ebp-0x0000A363] ; call dword [ebx+0x50] ;  (1 found)
0x10011c55: pop ebp ; mov dword [ecx], edx ; mov edx, dword [0x1002E0C4] ; mov dword [eax], edx ; ret  ;  (1 found)
0x1001db3a: pop ebp ; or al, 0x72 ; push ss ; push edi ; push ebx ; call dword [ebp+0x14] ;  (1 found)
0x10015348: pop ebp ; or al, 0x89 ; add ecx, dword [ebp-0x00013B7B] ; call dword [eax-0x18] ;  (1 found)
0x1001524e: pop ebp ; or al, 0x89 ; add ecx, dword [ebp-0x00013F7B] ; call dword [eax-0x18] ;  (1 found)
0x10028c19: pop ebp ; or ecx, edx ; mov dword [eax], ecx ; ret  ;  (1 found)
0x10012377: pop ebp ; pop edi ; pop esi ; pop ebx ; add esp, 0x04 ; ret  ;  (1 found)
0x10014568: pop ebp ; pop edi ; pop esi ; pop ebx ; add esp, 0x04 ; ret  ;  (1 found)
0x10015067: pop ebp ; pop edi ; pop esi ; pop ebx ; add esp, 0x04 ; ret  ;  (1 found)
0x100168ab: pop ebp ; pop edi ; pop esi ; pop ebx ; add esp, 0x04 ; ret  ;  (1 found)
0x1001875a: pop ebp ; pop edi ; pop esi ; pop ebx ; add esp, 0x04 ; ret  ;  (1 found)
0x10019265: pop ebp ; pop edi ; pop esi ; pop ebx ; add esp, 0x04 ; ret  ;  (1 found)
0x1001c78a: pop ebp ; pop edi ; pop esi ; pop ebx ; add esp, 0x04 ; ret  ;  (1 found)
0x10024ab8: pop ebp ; pop edi ; pop esi ; pop ebx ; add esp, 0x04 ; ret  ;  (1 found)
0x10011f00: pop ebp ; pop edi ; pop esi ; pop ebx ; ret  ;  (1 found)
0x100156d8: pop ebp ; pop edi ; pop esi ; pop ebx ; ret  ;  (1 found)
0x100151b6: pop ebp ; pop edi ; pop esi ; pop ebx ; ret  ;  (1 found)
0x1001796f: pop ebp ; pop edi ; pop esi ; pop ebx ; ret  ;  (1 found)
0x10017a9b: pop ebp ; pop edi ; pop esi ; pop ebx ; ret  ;  (1 found)
0x10017e62: pop ebp ; pop edi ; pop esi ; pop ebx ; ret  ;  (1 found)
0x100183a0: pop ebp ; pop edi ; pop esi ; pop ebx ; ret  ;  (1 found)
0x1001932d: pop ebp ; pop edi ; pop esi ; pop ebx ; ret  ;  (1 found)
0x1001a5c3: pop ebp ; pop edi ; pop esi ; pop ebx ; ret  ;  (1 found)
0x1001c0bf: pop ebp ; pop edi ; pop esi ; pop ebx ; ret  ;  (1 found)
0x1001b58d: pop ebp ; pop edi ; pop esi ; pop ebx ; ret  ;  (1 found)
0x1001b764: pop ebp ; pop edi ; pop esi ; pop ebx ; ret  ;  (1 found)
0x1001ba80: pop ebp ; pop edi ; pop esi ; pop ebx ; ret  ;  (1 found)
0x1001bba5: pop ebp ; pop edi ; pop esi ; pop ebx ; ret  ;  (1 found)
0x1001cbc1: pop ebp ; pop edi ; pop esi ; pop ebx ; ret  ;  (1 found)
0x1001c7e5: pop ebp ; pop edi ; pop esi ; pop ebx ; ret  ;  (1 found)
0x1001ca36: pop ebp ; pop edi ; pop esi ; pop ebx ; ret  ;  (1 found)
0x1001e1b9: pop ebp ; pop edi ; pop esi ; pop ebx ; ret  ;  (1 found)
0x1001e482: pop ebp ; pop edi ; pop esi ; pop ebx ; ret  ;  (1 found)
0x1001e39c: pop ebp ; pop edi ; pop esi ; pop ebx ; ret  ;  (1 found)
0x1001e4ea: pop ebp ; pop edi ; pop esi ; pop ebx ; ret  ;  (1 found)
0x1001fcb0: pop ebp ; pop edi ; pop esi ; pop ebx ; ret  ;  (1 found)
0x10020140: pop ebp ; pop edi ; pop esi ; pop ebx ; ret  ;  (1 found)
0x100200e9: pop ebp ; pop edi ; pop esi ; pop ebx ; ret  ;  (1 found)
0x10025159: pop ebp ; pop edi ; pop esi ; pop ebx ; ret  ;  (1 found)
0x10025873: pop ebp ; pop edi ; pop esi ; pop ebx ; ret  ;  (1 found)
0x10025e78: pop ebp ; pop edi ; pop esi ; pop ebx ; ret  ;  (1 found)
0x10022022: pop ebp ; pop edi ; pop esi ; pop ebx ; ret  ;  (1 found)
0x100222f5: pop ebp ; pop edi ; pop esi ; pop ebx ; ret  ;  (1 found)
0x1002256f: pop ebp ; pop edi ; pop esi ; pop ebx ; ret  ;  (1 found)
0x10028b00: pop ebp ; pop edi ; pop esi ; pop ebx ; ret  ;  (1 found)
0x10028bf3: pop ebp ; pop edi ; pop esi ; pop ebx ; ret  ;  (1 found)
0x10012596: pop ebp ; ret  ;  (1 found)
0x10012893: pop ebp ; ret  ;  (1 found)
0x1001284a: pop ebp ; ret  ;  (1 found)
0x10012de6: pop ebp ; ret  ;  (1 found)
0x10012a46: pop ebp ; ret  ;  (1 found)
0x10012f59: pop ebp ; ret  ;  (1 found)
0x10013111: pop ebp ; ret  ;  (1 found)
0x10016a92: pop ebp ; ret  ;  (1 found)
0x10013936: pop ebp ; ret  ;  (1 found)
0x10013a42: pop ebp ; ret  ;  (1 found)
0x100146bf: pop ebp ; ret  ;  (1 found)
0x10014721: pop ebp ; ret  ;  (1 found)
0x10014787: pop ebp ; ret  ;  (1 found)
0x100146f2: pop ebp ; ret  ;  (1 found)
0x1001432d: pop ebp ; ret  ;  (1 found)
0x10014473: pop ebp ; ret  ;  (1 found)
0x100148cc: pop ebp ; ret  ;  (1 found)
0x1001492d: pop ebp ; ret  ;  (1 found)
0x1001499a: pop ebp ; ret  ;  (1 found)
0x10014a02: pop ebp ; ret  ;  (1 found)
0x10014c62: pop ebp ; ret  ;  (1 found)
0x10014a6f: pop ebp ; ret  ;  (1 found)
0x10014cbe: pop ebp ; ret  ;  (1 found)
0x10014ed2: pop ebp ; ret  ;  (1 found)
0x100152bf: pop ebp ; ret  ;  (1 found)
0x100153b8: pop ebp ; ret  ;  (1 found)
0x10015433: pop ebp ; ret  ;  (1 found)
0x10015545: pop ebp ; ret  ;  (1 found)
0x1001598e: pop ebp ; ret  ;  (1 found)
0x10015d83: pop ebp ; ret  ;  (1 found)
0x10015a11: pop ebp ; ret  ;  (1 found)
0x10015ecc: pop ebp ; ret  ;  (1 found)
0x1001604b: pop ebp ; ret  ;  (1 found)
0x10015f70: pop ebp ; ret  ;  (1 found)
0x10016191: pop ebp ; ret  ;  (1 found)
0x10016297: pop ebp ; ret  ;  (1 found)
0x100163ac: pop ebp ; ret  ;  (1 found)
0x10016679: pop ebp ; ret  ;  (1 found)
0x10016731: pop ebp ; ret  ;  (1 found)
0x10016769: pop ebp ; ret  ;  (1 found)
0x100167d6: pop ebp ; ret  ;  (1 found)
0x1001683d: pop ebp ; ret  ;  (1 found)
0x100169e0: pop ebp ; ret  ;  (1 found)
0x10017015: pop ebp ; ret  ;  (1 found)
0x10017072: pop ebp ; ret  ;  (1 found)
0x100170ef: pop ebp ; ret  ;  (1 found)
0x100170a0: pop ebp ; ret  ;  (1 found)
0x100170bb: pop ebp ; ret  ;  (1 found)
0x10017123: pop ebp ; ret  ;  (1 found)
0x10017157: pop ebp ; ret  ;  (1 found)
0x100190c1: pop ebp ; ret  ;  (1 found)
0x10016b6d: pop ebp ; ret  ;  (1 found)
0x10017e00: pop ebp ; ret  ;  (1 found)
0x1001811a: pop ebp ; ret  ;  (1 found)
0x100181f8: pop ebp ; ret  ;  (1 found)
0x10018b05: pop ebp ; ret  ;  (1 found)
0x10018ddb: pop ebp ; ret  ;  (1 found)
0x10018f21: pop ebp ; ret  ;  (1 found)
0x10019052: pop ebp ; ret  ;  (1 found)
0x100172db: pop ebp ; ret  ;  (1 found)
0x1001739c: pop ebp ; ret  ;  (1 found)
0x100174e4: pop ebp ; ret  ;  (1 found)
0x1001adf0: pop ebp ; ret  ;  (1 found)
0x10019722: pop ebp ; ret  ;  (1 found)
0x1001955c: pop ebp ; ret  ;  (1 found)
0x10019795: pop ebp ; ret  ;  (1 found)
0x1001989d: pop ebp ; ret  ;  (1 found)
0x10019915: pop ebp ; ret  ;  (1 found)
0x10019979: pop ebp ; ret  ;  (1 found)
0x100199e9: pop ebp ; ret  ;  (1 found)
0x10019abe: pop ebp ; ret  ;  (1 found)
0x10019a4e: pop ebp ; ret  ;  (1 found)
0x10019cbb: pop ebp ; ret  ;  (1 found)
0x10019f12: pop ebp ; ret  ;  (1 found)
0x10019d18: pop ebp ; ret  ;  (1 found)
0x1001a058: pop ebp ; ret  ;  (1 found)
0x1001a2c6: pop ebp ; ret  ;  (1 found)
0x1001a47c: pop ebp ; ret  ;  (1 found)
0x1001a709: pop ebp ; ret  ;  (1 found)
0x1001a93c: pop ebp ; ret  ;  (1 found)
0x1001abec: pop ebp ; ret  ;  (1 found)
0x1001bf0d: pop ebp ; ret  ;  (1 found)
0x1001c06a: pop ebp ; ret  ;  (1 found)
0x1001c11a: pop ebp ; ret  ;  (1 found)
0x1001c1a9: pop ebp ; ret  ;  (1 found)
0x1001c32a: pop ebp ; ret  ;  (1 found)
0x1001c36c: pop ebp ; ret  ;  (1 found)
0x1001c458: pop ebp ; ret  ;  (1 found)
0x1001c57b: pop ebp ; ret  ;  (1 found)
0x1001c5ba: pop ebp ; ret  ;  (1 found)
0x1001af9c: pop ebp ; ret  ;  (1 found)
0x1001b1d2: pop ebp ; ret  ;  (1 found)
0x1001b32c: pop ebp ; ret  ;  (1 found)
0x1001b45a: pop ebp ; ret  ;  (1 found)
0x1001b3a3: pop ebp ; ret  ;  (1 found)
0x1001b4be: pop ebp ; ret  ;  (1 found)
0x1001b614: pop ebp ; ret  ;  (1 found)
0x1001b927: pop ebp ; ret  ;  (1 found)
0x1001b954: pop ebp ; ret  ;  (1 found)
0x1001b981: pop ebp ; ret  ;  (1 found)
0x1001bc29: pop ebp ; ret  ;  (1 found)
0x1001bd34: pop ebp ; ret  ;  (1 found)
0x1001bd6b: pop ebp ; ret  ;  (1 found)
0x1001cc20: pop ebp ; ret  ;  (1 found)
0x1001cee4: pop ebp ; ret  ;  (1 found)
0x1001cd59: pop ebp ; ret  ;  (1 found)
0x1001d1b5: pop ebp ; ret  ;  (1 found)
0x1001d2fb: pop ebp ; ret  ;  (1 found)
0x1001d84e: pop ebp ; ret  ;  (1 found)
0x1001db19: pop ebp ; ret  ;  (1 found)
0x1001db73: pop ebp ; ret  ;  (1 found)
0x1001dc0e: pop ebp ; ret  ;  (1 found)
0x1001c82a: pop ebp ; ret  ;  (1 found)
0x100279df: pop ebp ; ret  ;  (1 found)
0x1001c940: pop ebp ; ret  ;  (1 found)
0x1001c9ab: pop ebp ; ret  ;  (1 found)
0x10021623: pop ebp ; ret  ;  (1 found)
0x10021639: pop ebp ; ret  ;  (1 found)
0x100216f0: pop ebp ; ret  ;  (1 found)
0x1001df58: pop ebp ; ret  ;  (1 found)
0x1001e0d4: pop ebp ; ret  ;  (1 found)
0x1001e34e: pop ebp ; ret  ;  (1 found)
0x1001e65a: pop ebp ; ret  ;  (1 found)
0x1001e5c3: pop ebp ; ret  ;  (1 found)
0x1001e61c: pop ebp ; ret  ;  (1 found)
0x1001e845: pop ebp ; ret  ;  (1 found)
0x1001e9c5: pop ebp ; ret  ;  (1 found)
0x1001ed81: pop ebp ; ret  ;  (1 found)
0x1001eed5: pop ebp ; ret  ;  (1 found)
0x1001ef35: pop ebp ; ret  ;  (1 found)
0x1001f1fe: pop ebp ; ret  ;  (1 found)
0x1001f496: pop ebp ; ret  ;  (1 found)
0x1001f795: pop ebp ; ret  ;  (1 found)
0x1001f570: pop ebp ; ret  ;  (1 found)
0x1001f8f8: pop ebp ; ret  ;  (1 found)
0x1001f96f: pop ebp ; ret  ;  (1 found)
0x1001f9a8: pop ebp ; ret  ;  (1 found)
0x1001fa3e: pop ebp ; ret  ;  (1 found)
0x1001fa81: pop ebp ; ret  ;  (1 found)
0x1001fdda: pop ebp ; ret  ;  (1 found)
0x1001fe94: pop ebp ; ret  ;  (1 found)
0x10020095: pop ebp ; ret  ;  (1 found)
0x1002025b: pop ebp ; ret  ;  (1 found)
0x100201e5: pop ebp ; ret  ;  (1 found)
0x100203d3: pop ebp ; ret  ;  (1 found)
0x10020462: pop ebp ; ret  ;  (1 found)
0x100204bc: pop ebp ; ret  ;  (1 found)
0x100204f6: pop ebp ; ret  ;  (1 found)
0x10020757: pop ebp ; ret  ;  (1 found)
0x100209e0: pop ebp ; ret  ;  (1 found)
0x10020bb0: pop ebp ; ret  ;  (1 found)
0x10020c79: pop ebp ; ret  ;  (1 found)
0x10020d25: pop ebp ; ret  ;  (1 found)
0x10020e37: pop ebp ; ret  ;  (1 found)
0x10020ff9: pop ebp ; ret  ;  (1 found)
0x100210a2: pop ebp ; ret  ;  (1 found)
0x1002127a: pop ebp ; ret  ;  (1 found)
0x100214ba: pop ebp ; ret  ;  (1 found)
0x10024575: pop ebp ; ret  ;  (1 found)
0x10024da2: pop ebp ; ret  ;  (1 found)
0x1002545e: pop ebp ; ret  ;  (1 found)
0x10025720: pop ebp ; ret  ;  (1 found)
0x10025b42: pop ebp ; ret  ;  (1 found)
0x10025d4f: pop ebp ; ret  ;  (1 found)
0x10025dc6: pop ebp ; ret  ;  (1 found)
0x10026038: pop ebp ; ret  ;  (1 found)
0x10025fca: pop ebp ; ret  ;  (1 found)
0x10026105: pop ebp ; ret  ;  (1 found)
0x1002621b: pop ebp ; ret  ;  (1 found)
0x10026163: pop ebp ; ret  ;  (1 found)
0x100262b6: pop ebp ; ret  ;  (1 found)
0x10026307: pop ebp ; ret  ;  (1 found)
0x100266a4: pop ebp ; ret  ;  (1 found)
0x100263ba: pop ebp ; ret  ;  (1 found)
0x10026835: pop ebp ; ret  ;  (1 found)
0x10026929: pop ebp ; ret  ;  (1 found)
0x10026acd: pop ebp ; ret  ;  (1 found)
0x10026b57: pop ebp ; ret  ;  (1 found)
0x10026b28: pop ebp ; ret  ;  (1 found)
0x1002718c: pop ebp ; ret  ;  (1 found)
0x1002738f: pop ebp ; ret  ;  (1 found)
0x10027592: pop ebp ; ret  ;  (1 found)
0x10027744: pop ebp ; ret  ;  (1 found)
0x10027607: pop ebp ; ret  ;  (1 found)
0x1002775e: pop ebp ; ret  ;  (1 found)
0x10021e54: pop ebp ; ret  ;  (1 found)
0x10021f88: pop ebp ; ret  ;  (1 found)
0x10021f2f: pop ebp ; ret  ;  (1 found)
0x10021f58: pop ebp ; ret  ;  (1 found)
0x10022291: pop ebp ; ret  ;  (1 found)
0x100224f2: pop ebp ; ret  ;  (1 found)
0x100227c1: pop ebp ; ret  ;  (1 found)
0x10022630: pop ebp ; ret  ;  (1 found)
0x10022844: pop ebp ; ret  ;  (1 found)
0x10023019: pop ebp ; ret  ;  (1 found)
0x10022f2b: pop ebp ; ret  ;  (1 found)
0x1002304a: pop ebp ; ret  ;  (1 found)
0x10022fec: pop ebp ; ret  ;  (1 found)
0x100232ff: pop ebp ; ret  ;  (1 found)
0x10023c0d: pop ebp ; ret  ;  (1 found)
0x10027a23: pop ebp ; ret  ;  (1 found)
0x10027a04: pop ebp ; ret  ;  (1 found)
0x10027db1: pop ebp ; ret  ;  (1 found)
0x10027b2e: pop ebp ; ret  ;  (1 found)
0x10027e99: pop ebp ; ret  ;  (1 found)
0x10027f00: pop ebp ; ret  ;  (1 found)
0x10028735: pop ebp ; ret  ;  (1 found)
0x10028942: pop ebp ; ret  ;  (1 found)
0x100288b3: pop ebp ; ret  ;  (1 found)
0x10028a44: pop ebp ; ret  ;  (1 found)
0x10028b7d: pop ebp ; ret  ;  (1 found)
0x10028d8c: pop ebp ; ret  ;  (1 found)
0x10028d17: pop ebp ; ret  ;  (1 found)
0x10028f8b: pop ebp ; ret  ;  (1 found)
0x10028e79: pop ebp ; ret  ;  (1 found)
0x10029236: pop ebp ; ret  ;  (1 found)
0x10029357: pop ebp ; ret  ;  (1 found)
0x100290a7: pop ebp ; ret  ;  (1 found)
0x10029327: pop ebp ; ret  ;  (1 found)
0x100295d8: pop ebp ; ret  ;  (1 found)
0x100294ee: pop ebp ; ret  ;  (1 found)
0x10029444: pop ebp ; ret  ;  (1 found)
0x100299d1: pop ebp ; ret  ;  (1 found)
0x100298e7: pop ebp ; ret  ;  (1 found)
0x100296cb: pop ebp ; ret  ;  (1 found)
0x1002a236: pop ebp ; ret  ;  (1 found)
0x1002a32f: pop ebp ; ret  ;  (1 found)
0x1002a297: pop ebp ; ret  ;  (1 found)
0x1002a6f2: pop ebp ; ret  ;  (1 found)
0x1002a91b: pop ebp ; ret  ;  (1 found)
0x1002a3e0: pop ebp ; ret  ;  (1 found)
0x1002a9af: pop ebp ; ret  ;  (1 found)
0x1002aae9: pop ebp ; ret  ;  (1 found)
0x1002aa6f: pop ebp ; ret  ;  (1 found)
0x1002aba8: pop ebp ; ret  ;  (1 found)
0x1002ac53: pop ebp ; ret  ;  (1 found)
0x1002abf9: pop ebp ; ret  ;  (1 found)
0x1002af4e: pop ebp ; ret  ;  (1 found)
0x1002ad74: pop ebp ; ret  ;  (1 found)
0x1002afa0: pop ebp ; ret  ;  (1 found)
0x10012cb1: pop ebp ; retn 0x0004 ;  (1 found)
0x10021709: pop ebp ; retn 0x0004 ;  (1 found)
0x100246b2: pop ebp ; retn 0x0004 ;  (1 found)
0x10011db4: pop ebp ; retn 0x000C ;  (1 found)
0x1001237a: pop ebx ; add esp, 0x04 ; ret  ;  (1 found)
0x10012e94: pop ebx ; add esp, 0x04 ; ret  ;  (1 found)
0x1001456b: pop ebx ; add esp, 0x04 ; ret  ;  (1 found)
0x1001506a: pop ebx ; add esp, 0x04 ; ret  ;  (1 found)
0x100168ae: pop ebx ; add esp, 0x04 ; ret  ;  (1 found)
0x1001c78d: pop ebx ; add esp, 0x04 ; ret  ;  (1 found)
0x1001875d: pop ebx ; add esp, 0x04 ; ret  ;  (1 found)
0x10018eb8: pop ebx ; add esp, 0x04 ; ret  ;  (1 found)
0x10019268: pop ebx ; add esp, 0x04 ; ret  ;  (1 found)
0x1001fd1d: pop ebx ; add esp, 0x04 ; ret  ;  (1 found)
0x100213cc: pop ebx ; add esp, 0x04 ; ret  ;  (1 found)
0x10024abb: pop ebx ; add esp, 0x04 ; ret  ;  (1 found)
0x1001a8ef: pop ebx ; add esp, 0x10 ; ret  ;  (1 found)
0x1001826c: pop ebx ; and eax, ecx ; ret  ;  (1 found)
0x10018417: pop ebx ; and eax, ecx ; ret  ;  (1 found)
0x10029aa4: pop ebx ; leave  ; ret  ;  (1 found)
0x10029b38: pop ebx ; leave  ; ret  ;  (1 found)
0x10029ae8: pop ebx ; leave  ; ret  ;  (1 found)
0x10029ca3: pop ebx ; leave  ; ret  ;  (1 found)
0x10029cdf: pop ebx ; leave  ; ret  ;  (1 found)
0x10027277: pop ebx ; mov dword [edx+0x08], eax ; ret  ;  (1 found)
0x1002a916: pop ebx ; mov esp, ebp ; neg eax ; pop ebp ; ret  ;  (1 found)
0x10012593: pop ebx ; mov esp, ebp ; pop ebp ; ret  ;  (1 found)
0x10012a43: pop ebx ; mov esp, ebp ; pop ebp ; ret  ;  (1 found)
0x10012de3: pop ebx ; mov esp, ebp ; pop ebp ; ret  ;  (1 found)
0x10012f56: pop ebx ; mov esp, ebp ; pop ebp ; ret  ;  (1 found)
0x1001310e: pop ebx ; mov esp, ebp ; pop ebp ; ret  ;  (1 found)
0x10013933: pop ebx ; mov esp, ebp ; pop ebp ; ret  ;  (1 found)
0x100146bc: pop ebx ; mov esp, ebp ; pop ebp ; ret  ;  (1 found)
0x1001432a: pop ebx ; mov esp, ebp ; pop ebp ; ret  ;  (1 found)
0x100148c9: pop ebx ; mov esp, ebp ; pop ebp ; ret  ;  (1 found)
0x100149ff: pop ebx ; mov esp, ebp ; pop ebp ; ret  ;  (1 found)
0x10014997: pop ebx ; mov esp, ebp ; pop ebp ; ret  ;  (1 found)
0x1001492a: pop ebx ; mov esp, ebp ; pop ebp ; ret  ;  (1 found)
0x10014a6c: pop ebx ; mov esp, ebp ; pop ebp ; ret  ;  (1 found)
0x10014c5f: pop ebx ; mov esp, ebp ; pop ebp ; ret  ;  (1 found)
0x10014ecf: pop ebx ; mov esp, ebp ; pop ebp ; ret  ;  (1 found)
0x100152bc: pop ebx ; mov esp, ebp ; pop ebp ; ret  ;  (1 found)
0x100153b5: pop ebx ; mov esp, ebp ; pop ebp ; ret  ;  (1 found)
0x10015542: pop ebx ; mov esp, ebp ; pop ebp ; ret  ;  (1 found)
0x1001598b: pop ebx ; mov esp, ebp ; pop ebp ; ret  ;  (1 found)
0x10015d80: pop ebx ; mov esp, ebp ; pop ebp ; ret  ;  (1 found)
0x10015f6d: pop ebx ; mov esp, ebp ; pop ebp ; ret  ;  (1 found)
0x10016676: pop ebx ; mov esp, ebp ; pop ebp ; ret  ;  (1 found)
0x100169dd: pop ebx ; mov esp, ebp ; pop ebp ; ret  ;  (1 found)
0x10016b6a: pop ebx ; mov esp, ebp ; pop ebp ; ret  ;  (1 found)
0x10018b02: pop ebx ; mov esp, ebp ; pop ebp ; ret  ;  (1 found)
0x10018dd8: pop ebx ; mov esp, ebp ; pop ebp ; ret  ;  (1 found)
0x100172d8: pop ebx ; mov esp, ebp ; pop ebp ; ret  ;  (1 found)
0x1001aded: pop ebx ; mov esp, ebp ; pop ebp ; ret  ;  (1 found)
0x10019559: pop ebx ; mov esp, ebp ; pop ebp ; ret  ;  (1 found)
0x1001971f: pop ebx ; mov esp, ebp ; pop ebp ; ret  ;  (1 found)
0x100199e6: pop ebx ; mov esp, ebp ; pop ebp ; ret  ;  (1 found)
0x10019a4b: pop ebx ; mov esp, ebp ; pop ebp ; ret  ;  (1 found)
0x10019976: pop ebx ; mov esp, ebp ; pop ebp ; ret  ;  (1 found)
0x10019abb: pop ebx ; mov esp, ebp ; pop ebp ; ret  ;  (1 found)
0x10019cb8: pop ebx ; mov esp, ebp ; pop ebp ; ret  ;  (1 found)
0x1001a055: pop ebx ; mov esp, ebp ; pop ebp ; ret  ;  (1 found)
0x10019f0f: pop ebx ; mov esp, ebp ; pop ebp ; ret  ;  (1 found)
0x1001a2c3: pop ebx ; mov esp, ebp ; pop ebp ; ret  ;  (1 found)
0x1001a479: pop ebx ; mov esp, ebp ; pop ebp ; ret  ;  (1 found)
0x1001a706: pop ebx ; mov esp, ebp ; pop ebp ; ret  ;  (1 found)
0x1001abe9: pop ebx ; mov esp, ebp ; pop ebp ; ret  ;  (1 found)
0x1001bf0a: pop ebx ; mov esp, ebp ; pop ebp ; ret  ;  (1 found)
0x1001c067: pop ebx ; mov esp, ebp ; pop ebp ; ret  ;  (1 found)
0x1001c1a6: pop ebx ; mov esp, ebp ; pop ebp ; ret  ;  (1 found)
0x1001c455: pop ebx ; mov esp, ebp ; pop ebp ; ret  ;  (1 found)
0x1001af99: pop ebx ; mov esp, ebp ; pop ebp ; ret  ;  (1 found)
0x1001b924: pop ebx ; mov esp, ebp ; pop ebp ; ret  ;  (1 found)
0x1001bc26: pop ebx ; mov esp, ebp ; pop ebp ; ret  ;  (1 found)
0x1001cee1: pop ebx ; mov esp, ebp ; pop ebp ; ret  ;  (1 found)
0x1001d84b: pop ebx ; mov esp, ebp ; pop ebp ; ret  ;  (1 found)
0x1001db16: pop ebx ; mov esp, ebp ; pop ebp ; ret  ;  (1 found)
0x1001db70: pop ebx ; mov esp, ebp ; pop ebp ; ret  ;  (1 found)
0x1001c93d: pop ebx ; mov esp, ebp ; pop ebp ; ret  ;  (1 found)
0x100216ed: pop ebx ; mov esp, ebp ; pop ebp ; ret  ;  (1 found)
0x1001df55: pop ebx ; mov esp, ebp ; pop ebp ; ret  ;  (1 found)
0x1001e0d1: pop ebx ; mov esp, ebp ; pop ebp ; ret  ;  (1 found)
0x1001e34b: pop ebx ; mov esp, ebp ; pop ebp ; ret  ;  (1 found)
0x1001e842: pop ebx ; mov esp, ebp ; pop ebp ; ret  ;  (1 found)
0x1001e9c2: pop ebx ; mov esp, ebp ; pop ebp ; ret  ;  (1 found)
0x1001ef32: pop ebx ; mov esp, ebp ; pop ebp ; ret  ;  (1 found)
0x1001f1fb: pop ebx ; mov esp, ebp ; pop ebp ; ret  ;  (1 found)
0x1001f493: pop ebx ; mov esp, ebp ; pop ebp ; ret  ;  (1 found)
0x1001f792: pop ebx ; mov esp, ebp ; pop ebp ; ret  ;  (1 found)
0x1001f56d: pop ebx ; mov esp, ebp ; pop ebp ; ret  ;  (1 found)
0x1001f8f5: pop ebx ; mov esp, ebp ; pop ebp ; ret  ;  (1 found)
0x10020754: pop ebx ; mov esp, ebp ; pop ebp ; ret  ;  (1 found)
0x100209dd: pop ebx ; mov esp, ebp ; pop ebp ; ret  ;  (1 found)
0x10020bad: pop ebx ; mov esp, ebp ; pop ebp ; ret  ;  (1 found)
0x10020ff6: pop ebx ; mov esp, ebp ; pop ebp ; ret  ;  (1 found)
0x10021277: pop ebx ; mov esp, ebp ; pop ebp ; ret  ;  (1 found)
0x100214b7: pop ebx ; mov esp, ebp ; pop ebp ; ret  ;  (1 found)
0x10024572: pop ebx ; mov esp, ebp ; pop ebp ; ret  ;  (1 found)
0x10024d9f: pop ebx ; mov esp, ebp ; pop ebp ; ret  ;  (1 found)
0x1002545b: pop ebx ; mov esp, ebp ; pop ebp ; ret  ;  (1 found)
0x1002571d: pop ebx ; mov esp, ebp ; pop ebp ; ret  ;  (1 found)
0x10025b3f: pop ebx ; mov esp, ebp ; pop ebp ; ret  ;  (1 found)
0x10025d4c: pop ebx ; mov esp, ebp ; pop ebp ; ret  ;  (1 found)
0x10025dc3: pop ebx ; mov esp, ebp ; pop ebp ; ret  ;  (1 found)
0x100262b3: pop ebx ; mov esp, ebp ; pop ebp ; ret  ;  (1 found)
0x100266a1: pop ebx ; mov esp, ebp ; pop ebp ; ret  ;  (1 found)
0x100263b7: pop ebx ; mov esp, ebp ; pop ebp ; ret  ;  (1 found)
0x10026832: pop ebx ; mov esp, ebp ; pop ebp ; ret  ;  (1 found)
0x10026926: pop ebx ; mov esp, ebp ; pop ebp ; ret  ;  (1 found)
0x10026aca: pop ebx ; mov esp, ebp ; pop ebp ; ret  ;  (1 found)
0x10027189: pop ebx ; mov esp, ebp ; pop ebp ; ret  ;  (1 found)
0x1002758f: pop ebx ; mov esp, ebp ; pop ebp ; ret  ;  (1 found)
0x1002738c: pop ebx ; mov esp, ebp ; pop ebp ; ret  ;  (1 found)
0x10027604: pop ebx ; mov esp, ebp ; pop ebp ; ret  ;  (1 found)
0x10021e51: pop ebx ; mov esp, ebp ; pop ebp ; ret  ;  (1 found)
0x1002228e: pop ebx ; mov esp, ebp ; pop ebp ; ret  ;  (1 found)
0x100224ef: pop ebx ; mov esp, ebp ; pop ebp ; ret  ;  (1 found)
0x100227be: pop ebx ; mov esp, ebp ; pop ebp ; ret  ;  (1 found)
0x10022f28: pop ebx ; mov esp, ebp ; pop ebp ; ret  ;  (1 found)
0x100232fc: pop ebx ; mov esp, ebp ; pop ebp ; ret  ;  (1 found)
0x10023c0a: pop ebx ; mov esp, ebp ; pop ebp ; ret  ;  (1 found)
0x10028732: pop ebx ; mov esp, ebp ; pop ebp ; ret  ;  (1 found)
0x1002a6ef: pop ebx ; mov esp, ebp ; pop ebp ; ret  ;  (1 found)
0x1002ad71: pop ebx ; mov esp, ebp ; pop ebp ; ret  ;  (1 found)
0x10012cae: pop ebx ; mov esp, ebp ; pop ebp ; retn 0x0004 ;  (1 found)
0x100246af: pop ebx ; mov esp, ebp ; pop ebp ; retn 0x0004 ;  (1 found)
0x10011db1: pop ebx ; mov esp, ebp ; pop ebp ; retn 0x000C ;  (1 found)
0x10016190: pop ebx ; pop ebp ; ret  ;  (1 found)
0x10017071: pop ebx ; pop ebp ; ret  ;  (1 found)
0x10017dff: pop ebx ; pop ebp ; ret  ;  (1 found)
0x10018119: pop ebx ; pop ebp ; ret  ;  (1 found)
0x100181f7: pop ebx ; pop ebp ; ret  ;  (1 found)
0x1001739b: pop ebx ; pop ebp ; ret  ;  (1 found)
0x1001a93b: pop ebx ; pop ebp ; ret  ;  (1 found)
0x1001c119: pop ebx ; pop ebp ; ret  ;  (1 found)
0x1001b613: pop ebx ; pop ebp ; ret  ;  (1 found)
0x1001d1b4: pop ebx ; pop ebp ; ret  ;  (1 found)
0x1001e5c2: pop ebx ; pop ebp ; ret  ;  (1 found)
0x1001ed80: pop ebx ; pop ebp ; ret  ;  (1 found)
0x1001eed4: pop ebx ; pop ebp ; ret  ;  (1 found)
0x10020461: pop ebx ; pop ebp ; ret  ;  (1 found)
0x10020c78: pop ebx ; pop ebp ; ret  ;  (1 found)
0x10026104: pop ebx ; pop ebp ; ret  ;  (1 found)
0x1002621a: pop ebx ; pop ebp ; ret  ;  (1 found)
0x10022843: pop ebx ; pop ebp ; ret  ;  (1 found)
0x1001a7e1: pop ebx ; pop edi ; leave  ; ret  ;  (1 found)
0x1001f3a5: pop ebx ; pop edi ; pop esi ; leave  ; ret  ;  (1 found)
0x10018660: pop ebx ; pop esi ; pop edi ; leave  ; ret  ;  (1 found)
0x1001a7ac: pop ebx ; pop esi ; pop edi ; leave  ; ret  ;  (1 found)
0x1001f27f: pop ebx ; pop esi ; pop edi ; leave  ; ret  ;  (1 found)
0x10011f03: pop ebx ; ret  ;  (1 found)
0x10012029: pop ebx ; ret  ;  (1 found)
0x1001219b: pop ebx ; ret  ;  (1 found)
0x10012ac2: pop ebx ; ret  ;  (1 found)
0x10014814: pop ebx ; ret  ;  (1 found)
0x100156db: pop ebx ; ret  ;  (1 found)
0x10015629: pop ebx ; ret  ;  (1 found)
0x100151b9: pop ebx ; ret  ;  (1 found)
0x10015136: pop ebx ; ret  ;  (1 found)
0x10015fdf: pop ebx ; ret  ;  (1 found)
0x10016ecf: pop ebx ; ret  ;  (1 found)
0x10017187: pop ebx ; ret  ;  (1 found)
0x1001788d: pop ebx ; ret  ;  (1 found)
0x10017900: pop ebx ; ret  ;  (1 found)
0x10017972: pop ebx ; ret  ;  (1 found)
0x10017bd1: pop ebx ; ret  ;  (1 found)
0x10017a9e: pop ebx ; ret  ;  (1 found)
0x10017c6a: pop ebx ; ret  ;  (1 found)
0x10017cf4: pop ebx ; ret  ;  (1 found)
0x10017fbc: pop ebx ; ret  ;  (1 found)
0x10017e65: pop ebx ; ret  ;  (1 found)
0x10017ef6: pop ebx ; ret  ;  (1 found)
0x1001800a: pop ebx ; ret  ;  (1 found)
0x100182fc: pop ebx ; ret  ;  (1 found)
0x10018484: pop ebx ; ret  ;  (1 found)
0x100183a3: pop ebx ; ret  ;  (1 found)
0x100185a4: pop ebx ; ret  ;  (1 found)
0x100175b5: pop ebx ; ret  ;  (1 found)
0x10019330: pop ebx ; ret  ;  (1 found)
0x100195f9: pop ebx ; ret  ;  (1 found)
0x1001a39a: pop ebx ; ret  ;  (1 found)
0x1001a5c6: pop ebx ; ret  ;  (1 found)
0x1001ac44: pop ebx ; ret  ;  (1 found)
0x1001be6f: pop ebx ; ret  ;  (1 found)
0x1001c0c2: pop ebx ; ret  ;  (1 found)
0x1001c633: pop ebx ; ret  ;  (1 found)
0x1001b280: pop ebx ; ret  ;  (1 found)
0x1001b590: pop ebx ; ret  ;  (1 found)
0x1001b767: pop ebx ; ret  ;  (1 found)
0x1001ba83: pop ebx ; ret  ;  (1 found)
0x1001bba8: pop ebx ; ret  ;  (1 found)
0x1001bdb7: pop ebx ; ret  ;  (1 found)
0x1001d941: pop ebx ; ret  ;  (1 found)
0x1001d9d2: pop ebx ; ret  ;  (1 found)
0x1001dba0: pop ebx ; ret  ;  (1 found)
0x1001c7e8: pop ebx ; ret  ;  (1 found)
0x1001ca39: pop ebx ; ret  ;  (1 found)
0x1001cbc4: pop ebx ; ret  ;  (1 found)
0x100215bc: pop ebx ; ret  ;  (1 found)
0x1001dc9d: pop ebx ; ret  ;  (1 found)
0x1001e1bc: pop ebx ; ret  ;  (1 found)
0x1001e4ed: pop ebx ; ret  ;  (1 found)
0x1001e39f: pop ebx ; ret  ;  (1 found)
0x1001e485: pop ebx ; ret  ;  (1 found)
0x1001ee61: pop ebx ; ret  ;  (1 found)
0x1001fbe3: pop ebx ; ret  ;  (1 found)
0x1001fcb3: pop ebx ; ret  ;  (1 found)
0x1001fb21: pop ebx ; ret  ;  (1 found)
0x1001ff46: pop ebx ; ret  ;  (1 found)
0x10020143: pop ebx ; ret  ;  (1 found)
0x100200ec: pop ebx ; ret  ;  (1 found)
0x1002018d: pop ebx ; ret  ;  (1 found)
0x100202a5: pop ebx ; ret  ;  (1 found)
0x10020412: pop ebx ; ret  ;  (1 found)
0x10020539: pop ebx ; ret  ;  (1 found)
0x100205e2: pop ebx ; ret  ;  (1 found)
0x100207f7: pop ebx ; ret  ;  (1 found)
0x10020d70: pop ebx ; ret  ;  (1 found)
0x10024f34: pop ebx ; ret  ;  (1 found)
0x1002515c: pop ebx ; ret  ;  (1 found)
0x100257d6: pop ebx ; ret  ;  (1 found)
0x10025785: pop ebx ; ret  ;  (1 found)
0x10025876: pop ebx ; ret  ;  (1 found)
0x10025e7b: pop ebx ; ret  ;  (1 found)
0x1002679e: pop ebx ; ret  ;  (1 found)
0x10022025: pop ebx ; ret  ;  (1 found)
0x100222f8: pop ebx ; ret  ;  (1 found)
0x10022572: pop ebx ; ret  ;  (1 found)
0x100225be: pop ebx ; ret  ;  (1 found)
0x10023132: pop ebx ; ret  ;  (1 found)
0x10028b03: pop ebx ; ret  ;  (1 found)
0x10028bf6: pop ebx ; ret  ;  (1 found)
0x10015db4: pop ebx ; sar edi, cl ; inc dword [ebx-0x3974FB3C] ; pop edi ; pop esi ; ret  ;  (1 found)
0x1001bcb6: pop ecx ; add byte [eax], al ; add esp, 0x04 ; pop edi ; pop esi ; ret  ;  (1 found)
0x1001afc8: pop ecx ; add byte [eax], al ; add esp, 0x04 ; ret  ;  (1 found)
0x100260fd: pop ecx ; add dword [ebx+0x5E5F0845], ecx ; pop ebx ; pop ebp ; ret  ;  (1 found)
0x100161c8: pop ecx ; mov ah, 0x00 ; add byte [ebx-0x3974FB3C], al ; pop esi ; ret  ;  (1 found)
0x10025ea8: pop edi ; add dl, byte [eax] ; mov eax, 0x100262B8 ; mov dword [0x1002FF58], eax ; mov dword [0x1002FF6C], eax ; ret  ;  (1 found)
0x1002153f: pop edi ; add esp, 0x04 ; ret  ;  (1 found)
0x10013cc0: pop edi ; inc ebx ; add dword [eax], edx ; jmp dword [0x1001432F+ecx*4] ;  (1 found)
0x100179d7: pop edi ; leave  ; ret  ;  (1 found)
0x10018662: pop edi ; leave  ; ret  ;  (1 found)
0x10018618: pop edi ; leave  ; ret  ;  (1 found)
0x1001a4a7: pop edi ; leave  ; ret  ;  (1 found)
0x1001a7e2: pop edi ; leave  ; ret  ;  (1 found)
0x1001a7ae: pop edi ; leave  ; ret  ;  (1 found)
0x1001a815: pop edi ; leave  ; ret  ;  (1 found)
0x1001a835: pop edi ; leave  ; ret  ;  (1 found)
0x1001d33c: pop edi ; leave  ; ret  ;  (1 found)
0x1001d31d: pop edi ; leave  ; ret  ;  (1 found)
0x1001d398: pop edi ; leave  ; ret  ;  (1 found)
0x1001d3a6: pop edi ; leave  ; ret  ;  (1 found)
0x1001d3b4: pop edi ; leave  ; ret  ;  (1 found)
0x1001d3e6: pop edi ; leave  ; ret  ;  (1 found)
0x1001d433: pop edi ; leave  ; ret  ;  (1 found)
0x1001d445: pop edi ; leave  ; ret  ;  (1 found)
0x1001d48b: pop edi ; leave  ; ret  ;  (1 found)
0x1001d453: pop edi ; leave  ; ret  ;  (1 found)
0x1001d4e8: pop edi ; leave  ; ret  ;  (1 found)
0x1001d4f6: pop edi ; leave  ; ret  ;  (1 found)
0x1001d536: pop edi ; leave  ; ret  ;  (1 found)
0x1001d504: pop edi ; leave  ; ret  ;  (1 found)
0x1001d595: pop edi ; leave  ; ret  ;  (1 found)
0x1001d583: pop edi ; leave  ; ret  ;  (1 found)
0x1001d5a3: pop edi ; leave  ; ret  ;  (1 found)
0x1001d5db: pop edi ; leave  ; ret  ;  (1 found)
0x1001d61f: pop edi ; leave  ; ret  ;  (1 found)
0x1001e6be: pop edi ; leave  ; ret  ;  (1 found)
0x1001e6e4: pop edi ; leave  ; ret  ;  (1 found)
0x1001e87f: pop edi ; leave  ; ret  ;  (1 found)
0x1001f213: pop edi ; leave  ; ret  ;  (1 found)
0x1001f2a5: pop edi ; leave  ; ret  ;  (1 found)
0x1001f246: pop edi ; leave  ; ret  ;  (1 found)
0x1001f2e3: pop edi ; leave  ; ret  ;  (1 found)
0x1001f281: pop edi ; leave  ; ret  ;  (1 found)
0x1001f347: pop edi ; leave  ; ret  ;  (1 found)
0x1001f30c: pop edi ; leave  ; ret  ;  (1 found)
0x10020e2e: pop edi ; mov dword [0x1002E0BC], eax ; pop esi ; mov esp, ebp ; pop ebp ; ret  ;  (1 found)
0x100225b3: pop edi ; mov dword [esi], eax ; mov dword [esi+0x04], 0x00000000 ; pop esi ; pop ebx ; ret  ;  (1 found)
0x100272aa: pop edi ; mov dword [esi], eax ; pop esi ; ret  ;  (1 found)
0x1001e657: pop edi ; mov esp, ebp ; pop ebp ; ret  ;  (1 found)
0x1002bc54: pop edi ; nop  ; add byte [eax], al ; ret  ;  (1 found)
0x1001adec: pop edi ; pop ebx ; mov esp, ebp ; pop ebp ; ret  ;  (1 found)
0x1001af98: pop edi ; pop ebx ; mov esp, ebp ; pop ebp ; ret  ;  (1 found)
0x10013ab6: pop edi ; pop esi ; add esp, 0x04 ; ret  ;  (1 found)
0x1001bb0c: pop edi ; pop esi ; add esp, 0x18 ; ret  ;  (1 found)
0x10017831: pop edi ; pop esi ; leave  ; ret  ;  (1 found)
0x1001e695: pop edi ; pop esi ; leave  ; ret  ;  (1 found)
0x1001f3a6: pop edi ; pop esi ; leave  ; ret  ;  (1 found)
0x1001446f: pop edi ; pop esi ; mov esp, ebp ; pop ebp ; ret  ;  (1 found)
0x100163a8: pop edi ; pop esi ; mov esp, ebp ; pop ebp ; ret  ;  (1 found)
0x1001672d: pop edi ; pop esi ; mov esp, ebp ; pop ebp ; ret  ;  (1 found)
0x1001904e: pop edi ; pop esi ; mov esp, ebp ; pop ebp ; ret  ;  (1 found)
0x1001c326: pop edi ; pop esi ; mov esp, ebp ; pop ebp ; ret  ;  (1 found)
0x1001b1ce: pop edi ; pop esi ; mov esp, ebp ; pop ebp ; ret  ;  (1 found)
0x10020091: pop edi ; pop esi ; mov esp, ebp ; pop ebp ; ret  ;  (1 found)
0x1002109e: pop edi ; pop esi ; mov esp, ebp ; pop ebp ; ret  ;  (1 found)
0x10026034: pop edi ; pop esi ; mov esp, ebp ; pop ebp ; ret  ;  (1 found)
0x100288af: pop edi ; pop esi ; mov esp, ebp ; pop ebp ; ret  ;  (1 found)
0x10028a40: pop edi ; pop esi ; mov esp, ebp ; pop ebp ; ret  ;  (1 found)
0x10029323: pop edi ; pop esi ; mov esp, ebp ; pop ebp ; ret  ;  (1 found)
0x100298e3: pop edi ; pop esi ; mov esp, ebp ; pop ebp ; ret  ;  (1 found)
0x10014785: pop edi ; pop esi ; pop ebp ; ret  ;  (1 found)
0x1001c36a: pop edi ; pop esi ; pop ebp ; ret  ;  (1 found)
0x1001c5b8: pop edi ; pop esi ; pop ebp ; ret  ;  (1 found)
0x1001c579: pop edi ; pop esi ; pop ebp ; ret  ;  (1 found)
0x1001d2f9: pop edi ; pop esi ; pop ebp ; ret  ;  (1 found)
0x1001c828: pop edi ; pop esi ; pop ebp ; ret  ;  (1 found)
0x1001c9a9: pop edi ; pop esi ; pop ebp ; ret  ;  (1 found)
0x10021621: pop edi ; pop esi ; pop ebp ; ret  ;  (1 found)
0x100204ba: pop edi ; pop esi ; pop ebp ; ret  ;  (1 found)
0x10023017: pop edi ; pop esi ; pop ebp ; ret  ;  (1 found)
0x10028b7b: pop edi ; pop esi ; pop ebp ; ret  ;  (1 found)
0x10012378: pop edi ; pop esi ; pop ebx ; add esp, 0x04 ; ret  ;  (1 found)
0x10012e92: pop edi ; pop esi ; pop ebx ; add esp, 0x04 ; ret  ;  (1 found)
0x10014569: pop edi ; pop esi ; pop ebx ; add esp, 0x04 ; ret  ;  (1 found)
0x10015068: pop edi ; pop esi ; pop ebx ; add esp, 0x04 ; ret  ;  (1 found)
0x1001c78b: pop edi ; pop esi ; pop ebx ; add esp, 0x04 ; ret  ;  (1 found)
0x100168ac: pop edi ; pop esi ; pop ebx ; add esp, 0x04 ; ret  ;  (1 found)
0x1001875b: pop edi ; pop esi ; pop ebx ; add esp, 0x04 ; ret  ;  (1 found)
0x10018eb6: pop edi ; pop esi ; pop ebx ; add esp, 0x04 ; ret  ;  (1 found)
0x10019266: pop edi ; pop esi ; pop ebx ; add esp, 0x04 ; ret  ;  (1 found)
0x1001fd1b: pop edi ; pop esi ; pop ebx ; add esp, 0x04 ; ret  ;  (1 found)
0x100213ca: pop edi ; pop esi ; pop ebx ; add esp, 0x04 ; ret  ;  (1 found)
0x10024ab9: pop edi ; pop esi ; pop ebx ; add esp, 0x04 ; ret  ;  (1 found)
0x1001a8ed: pop edi ; pop esi ; pop ebx ; add esp, 0x10 ; ret  ;  (1 found)
0x10012591: pop edi ; pop esi ; pop ebx ; mov esp, ebp ; pop ebp ; ret  ;  (1 found)
0x10012a41: pop edi ; pop esi ; pop ebx ; mov esp, ebp ; pop ebp ; ret  ;  (1 found)
0x10012de1: pop edi ; pop esi ; pop ebx ; mov esp, ebp ; pop ebp ; ret  ;  (1 found)
0x1001310c: pop edi ; pop esi ; pop ebx ; mov esp, ebp ; pop ebp ; ret  ;  (1 found)
0x10013931: pop edi ; pop esi ; pop ebx ; mov esp, ebp ; pop ebp ; ret  ;  (1 found)
0x100146ba: pop edi ; pop esi ; pop ebx ; mov esp, ebp ; pop ebp ; ret  ;  (1 found)
0x10014328: pop edi ; pop esi ; pop ebx ; mov esp, ebp ; pop ebp ; ret  ;  (1 found)
0x100148c7: pop edi ; pop esi ; pop ebx ; mov esp, ebp ; pop ebp ; ret  ;  (1 found)
0x100149fd: pop edi ; pop esi ; pop ebx ; mov esp, ebp ; pop ebp ; ret  ;  (1 found)
0x10014995: pop edi ; pop esi ; pop ebx ; mov esp, ebp ; pop ebp ; ret  ;  (1 found)
0x10014928: pop edi ; pop esi ; pop ebx ; mov esp, ebp ; pop ebp ; ret  ;  (1 found)
0x10014c5d: pop edi ; pop esi ; pop ebx ; mov esp, ebp ; pop ebp ; ret  ;  (1 found)
0x10014a6a: pop edi ; pop esi ; pop ebx ; mov esp, ebp ; pop ebp ; ret  ;  (1 found)
0x10014ecd: pop edi ; pop esi ; pop ebx ; mov esp, ebp ; pop ebp ; ret  ;  (1 found)
0x100152ba: pop edi ; pop esi ; pop ebx ; mov esp, ebp ; pop ebp ; ret  ;  (1 found)
0x100153b3: pop edi ; pop esi ; pop ebx ; mov esp, ebp ; pop ebp ; ret  ;  (1 found)
0x10015540: pop edi ; pop esi ; pop ebx ; mov esp, ebp ; pop ebp ; ret  ;  (1 found)
0x10015989: pop edi ; pop esi ; pop ebx ; mov esp, ebp ; pop ebp ; ret  ;  (1 found)
0x10015d7e: pop edi ; pop esi ; pop ebx ; mov esp, ebp ; pop ebp ; ret  ;  (1 found)
0x10016674: pop edi ; pop esi ; pop ebx ; mov esp, ebp ; pop ebp ; ret  ;  (1 found)
0x10018b00: pop edi ; pop esi ; pop ebx ; mov esp, ebp ; pop ebp ; ret  ;  (1 found)
0x10018dd6: pop edi ; pop esi ; pop ebx ; mov esp, ebp ; pop ebp ; ret  ;  (1 found)
0x100172d6: pop edi ; pop esi ; pop ebx ; mov esp, ebp ; pop ebp ; ret  ;  (1 found)
0x10019557: pop edi ; pop esi ; pop ebx ; mov esp, ebp ; pop ebp ; ret  ;  (1 found)
0x1001971d: pop edi ; pop esi ; pop ebx ; mov esp, ebp ; pop ebp ; ret  ;  (1 found)
0x100199e4: pop edi ; pop esi ; pop ebx ; mov esp, ebp ; pop ebp ; ret  ;  (1 found)
0x10019974: pop edi ; pop esi ; pop ebx ; mov esp, ebp ; pop ebp ; ret  ;  (1 found)
0x10019cb6: pop edi ; pop esi ; pop ebx ; mov esp, ebp ; pop ebp ; ret  ;  (1 found)
0x10019ab9: pop edi ; pop esi ; pop ebx ; mov esp, ebp ; pop ebp ; ret  ;  (1 found)
0x10019a49: pop edi ; pop esi ; pop ebx ; mov esp, ebp ; pop ebp ; ret  ;  (1 found)
0x10019f0d: pop edi ; pop esi ; pop ebx ; mov esp, ebp ; pop ebp ; ret  ;  (1 found)
0x1001a053: pop edi ; pop esi ; pop ebx ; mov esp, ebp ; pop ebp ; ret  ;  (1 found)
0x1001a2c1: pop edi ; pop esi ; pop ebx ; mov esp, ebp ; pop ebp ; ret  ;  (1 found)
0x1001a704: pop edi ; pop esi ; pop ebx ; mov esp, ebp ; pop ebp ; ret  ;  (1 found)
0x1001abe7: pop edi ; pop esi ; pop ebx ; mov esp, ebp ; pop ebp ; ret  ;  (1 found)
0x1001bf08: pop edi ; pop esi ; pop ebx ; mov esp, ebp ; pop ebp ; ret  ;  (1 found)
0x1001c065: pop edi ; pop esi ; pop ebx ; mov esp, ebp ; pop ebp ; ret  ;  (1 found)
0x1001c453: pop edi ; pop esi ; pop ebx ; mov esp, ebp ; pop ebp ; ret  ;  (1 found)
0x1001b921: pop edi ; pop esi ; pop ebx ; mov esp, ebp ; pop ebp ; ret  ;  (1 found)
0x1001b922: pop edi ; pop esi ; pop ebx ; mov esp, ebp ; pop ebp ; ret  ;  (1 found)
0x1001bc24: pop edi ; pop esi ; pop ebx ; mov esp, ebp ; pop ebp ; ret  ;  (1 found)
0x1001cedf: pop edi ; pop esi ; pop ebx ; mov esp, ebp ; pop ebp ; ret  ;  (1 found)
0x1001d849: pop edi ; pop esi ; pop ebx ; mov esp, ebp ; pop ebp ; ret  ;  (1 found)
0x1001db6e: pop edi ; pop esi ; pop ebx ; mov esp, ebp ; pop ebp ; ret  ;  (1 found)
0x1001db14: pop edi ; pop esi ; pop ebx ; mov esp, ebp ; pop ebp ; ret  ;  (1 found)
0x1001c93b: pop edi ; pop esi ; pop ebx ; mov esp, ebp ; pop ebp ; ret  ;  (1 found)
0x100216eb: pop edi ; pop esi ; pop ebx ; mov esp, ebp ; pop ebp ; ret  ;  (1 found)
0x1001df53: pop edi ; pop esi ; pop ebx ; mov esp, ebp ; pop ebp ; ret  ;  (1 found)
0x1001e0cf: pop edi ; pop esi ; pop ebx ; mov esp, ebp ; pop ebp ; ret  ;  (1 found)
0x1001e349: pop edi ; pop esi ; pop ebx ; mov esp, ebp ; pop ebp ; ret  ;  (1 found)
0x1001e840: pop edi ; pop esi ; pop ebx ; mov esp, ebp ; pop ebp ; ret  ;  (1 found)
0x1001e9c0: pop edi ; pop esi ; pop ebx ; mov esp, ebp ; pop ebp ; ret  ;  (1 found)
0x1001ef2f: pop edi ; pop esi ; pop ebx ; mov esp, ebp ; pop ebp ; ret  ;  (1 found)
0x1001f1f9: pop edi ; pop esi ; pop ebx ; mov esp, ebp ; pop ebp ; ret  ;  (1 found)
0x1001ef30: pop edi ; pop esi ; pop ebx ; mov esp, ebp ; pop ebp ; ret  ;  (1 found)
0x1001f491: pop edi ; pop esi ; pop ebx ; mov esp, ebp ; pop ebp ; ret  ;  (1 found)
0x1001f56b: pop edi ; pop esi ; pop ebx ; mov esp, ebp ; pop ebp ; ret  ;  (1 found)
0x1001f790: pop edi ; pop esi ; pop ebx ; mov esp, ebp ; pop ebp ; ret  ;  (1 found)
0x1001f8f3: pop edi ; pop esi ; pop ebx ; mov esp, ebp ; pop ebp ; ret  ;  (1 found)
0x10020752: pop edi ; pop esi ; pop ebx ; mov esp, ebp ; pop ebp ; ret  ;  (1 found)
0x100209db: pop edi ; pop esi ; pop ebx ; mov esp, ebp ; pop ebp ; ret  ;  (1 found)
0x10020bab: pop edi ; pop esi ; pop ebx ; mov esp, ebp ; pop ebp ; ret  ;  (1 found)
0x10020ff4: pop edi ; pop esi ; pop ebx ; mov esp, ebp ; pop ebp ; ret  ;  (1 found)
0x10021275: pop edi ; pop esi ; pop ebx ; mov esp, ebp ; pop ebp ; ret  ;  (1 found)
0x100214b5: pop edi ; pop esi ; pop ebx ; mov esp, ebp ; pop ebp ; ret  ;  (1 found)
0x10024570: pop edi ; pop esi ; pop ebx ; mov esp, ebp ; pop ebp ; ret  ;  (1 found)
0x10024d9d: pop edi ; pop esi ; pop ebx ; mov esp, ebp ; pop ebp ; ret  ;  (1 found)
0x10025459: pop edi ; pop esi ; pop ebx ; mov esp, ebp ; pop ebp ; ret  ;  (1 found)
0x1002571b: pop edi ; pop esi ; pop ebx ; mov esp, ebp ; pop ebp ; ret  ;  (1 found)
0x10025b3d: pop edi ; pop esi ; pop ebx ; mov esp, ebp ; pop ebp ; ret  ;  (1 found)
0x10025d4a: pop edi ; pop esi ; pop ebx ; mov esp, ebp ; pop ebp ; ret  ;  (1 found)
0x100262b1: pop edi ; pop esi ; pop ebx ; mov esp, ebp ; pop ebp ; ret  ;  (1 found)
0x1002669f: pop edi ; pop esi ; pop ebx ; mov esp, ebp ; pop ebp ; ret  ;  (1 found)
0x10026830: pop edi ; pop esi ; pop ebx ; mov esp, ebp ; pop ebp ; ret  ;  (1 found)
0x10026ac8: pop edi ; pop esi ; pop ebx ; mov esp, ebp ; pop ebp ; ret  ;  (1 found)
0x10026924: pop edi ; pop esi ; pop ebx ; mov esp, ebp ; pop ebp ; ret  ;  (1 found)
0x10027187: pop edi ; pop esi ; pop ebx ; mov esp, ebp ; pop ebp ; ret  ;  (1 found)
0x1002758d: pop edi ; pop esi ; pop ebx ; mov esp, ebp ; pop ebp ; ret  ;  (1 found)
0x10027602: pop edi ; pop esi ; pop ebx ; mov esp, ebp ; pop ebp ; ret  ;  (1 found)
0x10021e4f: pop edi ; pop esi ; pop ebx ; mov esp, ebp ; pop ebp ; ret  ;  (1 found)
0x1002228c: pop edi ; pop esi ; pop ebx ; mov esp, ebp ; pop ebp ; ret  ;  (1 found)
0x100224ed: pop edi ; pop esi ; pop ebx ; mov esp, ebp ; pop ebp ; ret  ;  (1 found)
0x100227bc: pop edi ; pop esi ; pop ebx ; mov esp, ebp ; pop ebp ; ret  ;  (1 found)
0x10022f26: pop edi ; pop esi ; pop ebx ; mov esp, ebp ; pop ebp ; ret  ;  (1 found)
0x100232fa: pop edi ; pop esi ; pop ebx ; mov esp, ebp ; pop ebp ; ret  ;  (1 found)
0x10023c08: pop edi ; pop esi ; pop ebx ; mov esp, ebp ; pop ebp ; ret  ;  (1 found)
0x10028730: pop edi ; pop esi ; pop ebx ; mov esp, ebp ; pop ebp ; ret  ;  (1 found)
0x1002ad6f: pop edi ; pop esi ; pop ebx ; mov esp, ebp ; pop ebp ; ret  ;  (1 found)
0x10012cac: pop edi ; pop esi ; pop ebx ; mov esp, ebp ; pop ebp ; retn 0x0004 ;  (1 found)
0x100246ad: pop edi ; pop esi ; pop ebx ; mov esp, ebp ; pop ebp ; retn 0x0004 ;  (1 found)
0x10011daf: pop edi ; pop esi ; pop ebx ; mov esp, ebp ; pop ebp ; retn 0x000C ;  (1 found)
0x1001706e: pop edi ; pop esi ; pop ebx ; pop ebp ; ret  ;  (1 found)
0x1001706f: pop edi ; pop esi ; pop ebx ; pop ebp ; ret  ;  (1 found)
0x10017dfd: pop edi ; pop esi ; pop ebx ; pop ebp ; ret  ;  (1 found)
0x10018117: pop edi ; pop esi ; pop ebx ; pop ebp ; ret  ;  (1 found)
0x100181f5: pop edi ; pop esi ; pop ebx ; pop ebp ; ret  ;  (1 found)
0x10017399: pop edi ; pop esi ; pop ebx ; pop ebp ; ret  ;  (1 found)
0x1001c117: pop edi ; pop esi ; pop ebx ; pop ebp ; ret  ;  (1 found)
0x1001b611: pop edi ; pop esi ; pop ebx ; pop ebp ; ret  ;  (1 found)
0x1001d1b2: pop edi ; pop esi ; pop ebx ; pop ebp ; ret  ;  (1 found)
0x1001e5c0: pop edi ; pop esi ; pop ebx ; pop ebp ; ret  ;  (1 found)
0x1001ed7e: pop edi ; pop esi ; pop ebx ; pop ebp ; ret  ;  (1 found)
0x1001eed2: pop edi ; pop esi ; pop ebx ; pop ebp ; ret  ;  (1 found)
0x1002045f: pop edi ; pop esi ; pop ebx ; pop ebp ; ret  ;  (1 found)
0x10020c76: pop edi ; pop esi ; pop ebx ; pop ebp ; ret  ;  (1 found)
0x10026218: pop edi ; pop esi ; pop ebx ; pop ebp ; ret  ;  (1 found)
0x10026102: pop edi ; pop esi ; pop ebx ; pop ebp ; ret  ;  (1 found)
0x10011f01: pop edi ; pop esi ; pop ebx ; ret  ;  (1 found)
0x10012199: pop edi ; pop esi ; pop ebx ; ret  ;  (1 found)
0x10012ac0: pop edi ; pop esi ; pop ebx ; ret  ;  (1 found)
0x10014812: pop edi ; pop esi ; pop ebx ; ret  ;  (1 found)
0x10015627: pop edi ; pop esi ; pop ebx ; ret  ;  (1 found)
0x100156d9: pop edi ; pop esi ; pop ebx ; ret  ;  (1 found)
0x100151b7: pop edi ; pop esi ; pop ebx ; ret  ;  (1 found)
0x10015134: pop edi ; pop esi ; pop ebx ; ret  ;  (1 found)
0x10015fdd: pop edi ; pop esi ; pop ebx ; ret  ;  (1 found)
0x10017185: pop edi ; pop esi ; pop ebx ; ret  ;  (1 found)
0x10017970: pop edi ; pop esi ; pop ebx ; ret  ;  (1 found)
0x10017bcf: pop edi ; pop esi ; pop ebx ; ret  ;  (1 found)
0x10017a9c: pop edi ; pop esi ; pop ebx ; ret  ;  (1 found)
0x10017c68: pop edi ; pop esi ; pop ebx ; ret  ;  (1 found)
0x10017cf2: pop edi ; pop esi ; pop ebx ; ret  ;  (1 found)
0x10017fba: pop edi ; pop esi ; pop ebx ; ret  ;  (1 found)
0x10017ef4: pop edi ; pop esi ; pop ebx ; ret  ;  (1 found)
0x10017e63: pop edi ; pop esi ; pop ebx ; ret  ;  (1 found)
0x10018008: pop edi ; pop esi ; pop ebx ; ret  ;  (1 found)
0x100183a1: pop edi ; pop esi ; pop ebx ; ret  ;  (1 found)
0x100185a2: pop edi ; pop esi ; pop ebx ; ret  ;  (1 found)
0x10018482: pop edi ; pop esi ; pop ebx ; ret  ;  (1 found)
0x100175b3: pop edi ; pop esi ; pop ebx ; ret  ;  (1 found)
0x1001932e: pop edi ; pop esi ; pop ebx ; ret  ;  (1 found)
0x100195f7: pop edi ; pop esi ; pop ebx ; ret  ;  (1 found)
0x1001a5c4: pop edi ; pop esi ; pop ebx ; ret  ;  (1 found)
0x1001ac42: pop edi ; pop esi ; pop ebx ; ret  ;  (1 found)
0x1001be6d: pop edi ; pop esi ; pop ebx ; ret  ;  (1 found)
0x1001c0c0: pop edi ; pop esi ; pop ebx ; ret  ;  (1 found)
0x1001c631: pop edi ; pop esi ; pop ebx ; ret  ;  (1 found)
0x1001b27e: pop edi ; pop esi ; pop ebx ; ret  ;  (1 found)
0x1001b58e: pop edi ; pop esi ; pop ebx ; ret  ;  (1 found)
0x1001b765: pop edi ; pop esi ; pop ebx ; ret  ;  (1 found)
0x1001ba81: pop edi ; pop esi ; pop ebx ; ret  ;  (1 found)
0x1001bba6: pop edi ; pop esi ; pop ebx ; ret  ;  (1 found)
0x1001bdb5: pop edi ; pop esi ; pop ebx ; ret  ;  (1 found)
0x1001cbc2: pop edi ; pop esi ; pop ebx ; ret  ;  (1 found)
0x1001d93f: pop edi ; pop esi ; pop ebx ; ret  ;  (1 found)
0x1001d9d0: pop edi ; pop esi ; pop ebx ; ret  ;  (1 found)
0x1001c7e6: pop edi ; pop esi ; pop ebx ; ret  ;  (1 found)
0x1001ca37: pop edi ; pop esi ; pop ebx ; ret  ;  (1 found)
0x100215ba: pop edi ; pop esi ; pop ebx ; ret  ;  (1 found)
0x1001dc9b: pop edi ; pop esi ; pop ebx ; ret  ;  (1 found)
0x1001e1ba: pop edi ; pop esi ; pop ebx ; ret  ;  (1 found)
0x1001e39d: pop edi ; pop esi ; pop ebx ; ret  ;  (1 found)
0x1001e4eb: pop edi ; pop esi ; pop ebx ; ret  ;  (1 found)
0x1001e483: pop edi ; pop esi ; pop ebx ; ret  ;  (1 found)
0x1001fbe1: pop edi ; pop esi ; pop ebx ; ret  ;  (1 found)
0x1001fb1f: pop edi ; pop esi ; pop ebx ; ret  ;  (1 found)
0x1001fcb1: pop edi ; pop esi ; pop ebx ; ret  ;  (1 found)
0x1001ff44: pop edi ; pop esi ; pop ebx ; ret  ;  (1 found)
0x10020141: pop edi ; pop esi ; pop ebx ; ret  ;  (1 found)
0x1002018b: pop edi ; pop esi ; pop ebx ; ret  ;  (1 found)
0x100200ea: pop edi ; pop esi ; pop ebx ; ret  ;  (1 found)
0x100202a3: pop edi ; pop esi ; pop ebx ; ret  ;  (1 found)
0x10020537: pop edi ; pop esi ; pop ebx ; ret  ;  (1 found)
0x10020d6e: pop edi ; pop esi ; pop ebx ; ret  ;  (1 found)
0x1002515a: pop edi ; pop esi ; pop ebx ; ret  ;  (1 found)
0x10024f32: pop edi ; pop esi ; pop ebx ; ret  ;  (1 found)
0x100257d4: pop edi ; pop esi ; pop ebx ; ret  ;  (1 found)
0x10025783: pop edi ; pop esi ; pop ebx ; ret  ;  (1 found)
0x10025874: pop edi ; pop esi ; pop ebx ; ret  ;  (1 found)
0x10025e79: pop edi ; pop esi ; pop ebx ; ret  ;  (1 found)
0x1002679c: pop edi ; pop esi ; pop ebx ; ret  ;  (1 found)
0x10022023: pop edi ; pop esi ; pop ebx ; ret  ;  (1 found)
0x100222f6: pop edi ; pop esi ; pop ebx ; ret  ;  (1 found)
0x10022570: pop edi ; pop esi ; pop ebx ; ret  ;  (1 found)
0x10023130: pop edi ; pop esi ; pop ebx ; ret  ;  (1 found)
0x10028b01: pop edi ; pop esi ; pop ebx ; ret  ;  (1 found)
0x10028bf4: pop edi ; pop esi ; pop ebx ; ret  ;  (1 found)
0x100128f2: pop edi ; pop esi ; ret  ;  (1 found)
0x10012c07: pop edi ; pop esi ; ret  ;  (1 found)
0x10012fe6: pop edi ; pop esi ; ret  ;  (1 found)
0x10013160: pop edi ; pop esi ; ret  ;  (1 found)
0x100131d3: pop edi ; pop esi ; ret  ;  (1 found)
0x10013252: pop edi ; pop esi ; ret  ;  (1 found)
0x100143d8: pop edi ; pop esi ; ret  ;  (1 found)
0x10015762: pop edi ; pop esi ; ret  ;  (1 found)
0x10014f52: pop edi ; pop esi ; ret  ;  (1 found)
0x10014f0e: pop edi ; pop esi ; ret  ;  (1 found)
0x1001558a: pop edi ; pop esi ; ret  ;  (1 found)
0x10015dbd: pop edi ; pop esi ; ret  ;  (1 found)
0x100164cf: pop edi ; pop esi ; ret  ;  (1 found)
0x10017b2f: pop edi ; pop esi ; ret  ;  (1 found)
0x100185f4: pop edi ; pop esi ; ret  ;  (1 found)
0x10018505: pop edi ; pop esi ; ret  ;  (1 found)
0x10017445: pop edi ; pop esi ; ret  ;  (1 found)
0x100173f3: pop edi ; pop esi ; ret  ;  (1 found)
0x100192b3: pop edi ; pop esi ; ret  ;  (1 found)
0x10019387: pop edi ; pop esi ; ret  ;  (1 found)
0x100197dd: pop edi ; pop esi ; ret  ;  (1 found)
0x1001a873: pop edi ; pop esi ; ret  ;  (1 found)
0x1001bf53: pop edi ; pop esi ; ret  ;  (1 found)
0x1001c1e5: pop edi ; pop esi ; ret  ;  (1 found)
0x1001c4c2: pop edi ; pop esi ; ret  ;  (1 found)
0x1001c53a: pop edi ; pop esi ; ret  ;  (1 found)
0x1001c67e: pop edi ; pop esi ; ret  ;  (1 found)
0x1001b676: pop edi ; pop esi ; ret  ;  (1 found)
0x1001b641: pop edi ; pop esi ; ret  ;  (1 found)
0x1001b7be: pop edi ; pop esi ; ret  ;  (1 found)
0x1001bc85: pop edi ; pop esi ; ret  ;  (1 found)
0x1001bcbc: pop edi ; pop esi ; ret  ;  (1 found)
0x1001be0d: pop edi ; pop esi ; ret  ;  (1 found)
0x1001d00a: pop edi ; pop esi ; ret  ;  (1 found)
0x1001caa2: pop edi ; pop esi ; ret  ;  (1 found)
0x1001e8e8: pop edi ; pop esi ; ret  ;  (1 found)
0x1001fece: pop edi ; pop esi ; ret  ;  (1 found)
0x1001ff82: pop edi ; pop esi ; ret  ;  (1 found)
0x100202d5: pop edi ; pop esi ; ret  ;  (1 found)
0x10020571: pop edi ; pop esi ; ret  ;  (1 found)
0x1002130c: pop edi ; pop esi ; ret  ;  (1 found)
0x1002463f: pop edi ; pop esi ; ret  ;  (1 found)
0x10025bbe: pop edi ; pop esi ; ret  ;  (1 found)
0x10026331: pop edi ; pop esi ; ret  ;  (1 found)
0x10026738: pop edi ; pop esi ; ret  ;  (1 found)
0x1002723c: pop edi ; pop esi ; ret  ;  (1 found)
0x100231b2: pop edi ; pop esi ; ret  ;  (1 found)
0x100231de: pop edi ; pop esi ; ret  ;  (1 found)
0x10023cf5: pop edi ; pop esi ; ret  ;  (1 found)
0x10012427: pop edi ; pop esi ; retn 0x0004 ;  (1 found)
0x1001a750: pop edi ; ret  ;  (1 found)
0x1001d8f6: pop edi ; ret  ;  (1 found)
0x1002685e: pop edi ; ret  ;  (1 found)
0x1002040e: pop edi ; sar eax, 1  ; pop esi ; pop ebx ; ret  ;  (1 found)
0x100205de: pop edi ; sar eax, 1  ; pop esi ; pop ebx ; ret  ;  (1 found)
0x100279d5: pop edi ; sub byte [eax], al ; add byte [ebx-0x74A1E73C], al ; in eax, 0x5D ; ret  ;  (1 found)
0x10029ae4: pop edx ; add byte [eax], al ; add byte [ebx-0x37], bl ; ret  ;  (1 found)
0x100179d6: pop edx ; pop edi ; leave  ; ret  ;  (1 found)
0x1001a4a6: pop edx ; pop edi ; leave  ; ret  ;  (1 found)
0x100179d5: pop edx ; pop edx ; pop edi ; leave  ; ret  ;  (1 found)
0x1001a4a5: pop edx ; pop edx ; pop edi ; leave  ; ret  ;  (1 found)
0x1001dcee: pop es ; add byte [eax], al ; add esp, 0x10 ; ret  ;  (1 found)
0x10029a3d: pop es ; add byte [eax], al ; fstp st0 ; fld tword [0x1003379A] ; ret  ;  (1 found)
0x1001a051: pop es ; add byte [edi+0x5E], bl ; pop ebx ; mov esp, ebp ; pop ebp ; ret  ;  (1 found)
0x1002a160: pop es ; mov byte [ebp-0x00000090], 0x00000001 ; faddp st1, st0 ; ret  ;  (1 found)
0x1002a19f: pop es ; mov byte [ebp-0x00000090], 0x00000001 ; faddp st1, st0 ; ret  ;  (1 found)
0x1002a1bc: pop es ; mov byte [ebp-0x00000090], 0x00000001 ; or cl, cl ; ret  ;  (1 found)
0x100169ac: pop es ; mov dword [ebp-0x1C], 0xFFFFFFFC ; mov dword [ebp-0x04], 0xFFFFFFFF ; push 0x100169CE ; call dword [0x1001111C] ;  (1 found)
0x1002bc4c: pop es ; mov eax, dword [eax] ; add byte [eax+edx*4+0x00], dl ; add byte [edi-0x70], bl ; add byte [eax], al ; ret  ;  (1 found)
0x1001d3a1: pop es ; mov eax, dword [ebp+0x08] ; pop esi ; pop edi ; leave  ; ret  ;  (1 found)
0x1001d3af: pop es ; mov eax, dword [ebp+0x08] ; pop esi ; pop edi ; leave  ; ret  ;  (1 found)
0x1001d4f1: pop es ; mov eax, dword [ebp+0x08] ; pop esi ; pop edi ; leave  ; ret  ;  (1 found)
0x1001d4ff: pop es ; mov eax, dword [ebp+0x08] ; pop esi ; pop edi ; leave  ; ret  ;  (1 found)
0x1001a8ec: pop es ; pop edi ; pop esi ; pop ebx ; add esp, 0x10 ; ret  ;  (1 found)
0x1001a477: pop es ; pop esi ; pop ebx ; mov esp, ebp ; pop ebp ; ret  ;  (1 found)
0x10012d46: pop es ; push dword [0x1002FF44] ; call dword [0x10011098] ;  (1 found)
0x10012ce1: pop es ; push eax ; call dword [0x10011094] ;  (1 found)
0x10021753: pop es ; push eax ; call dword [0x10011094] ;  (1 found)
0x10021764: pop es ; push eax ; call dword [0x10011094] ;  (1 found)
0x1002a131: pop es ; ret  ;  (1 found)
0x100207f1: pop esi ; adc eax, 0xFFFFFFFF ; and eax, ebx ; pop ebx ; ret  ;  (1 found)
0x1001c6c2: pop esi ; add al, 0x8B ; ret  ;  (1 found)
0x100269d5: pop esi ; add al, 0x8B ; ret  ;  (1 found)
0x10012ed0: pop esi ; add esp, 0x00000104 ; ret  ;  (1 found)
0x10013ab7: pop esi ; add esp, 0x04 ; ret  ;  (1 found)
0x1001bb0d: pop esi ; add esp, 0x18 ; ret  ;  (1 found)
0x10022840: pop esi ; and eax, edx ; pop ebx ; pop ebp ; ret  ;  (1 found)
0x10018265: pop esi ; cmp byte [ecx], 0x00000001 ; adc eax, 0xFFFFFFFF ; pop ebx ; and eax, ecx ; ret  ;  (1 found)
0x10018410: pop esi ; cmp byte [ecx], 0x00000001 ; adc eax, 0xFFFFFFFF ; pop ebx ; and eax, ecx ; ret  ;  (1 found)
0x10017832: pop esi ; leave  ; ret  ;  (1 found)
0x1001a3ef: pop esi ; leave  ; ret  ;  (1 found)
0x1001e696: pop esi ; leave  ; ret  ;  (1 found)
0x1001f3a7: pop esi ; leave  ; ret  ;  (1 found)
0x1001baa8: pop esi ; mov byte [ecx], dl ; ret  ;  (1 found)
0x10021743: pop esi ; mov dword [0x1002FF48], eax ; ret  ;  (1 found)
0x10014470: pop esi ; mov esp, ebp ; pop ebp ; ret  ;  (1 found)
0x10014cbb: pop esi ; mov esp, ebp ; pop ebp ; ret  ;  (1 found)
0x10015a0e: pop esi ; mov esp, ebp ; pop ebp ; ret  ;  (1 found)
0x10015ec9: pop esi ; mov esp, ebp ; pop ebp ; ret  ;  (1 found)
0x10016294: pop esi ; mov esp, ebp ; pop ebp ; ret  ;  (1 found)
0x100163a9: pop esi ; mov esp, ebp ; pop ebp ; ret  ;  (1 found)
0x1001672e: pop esi ; mov esp, ebp ; pop ebp ; ret  ;  (1 found)
0x1001683a: pop esi ; mov esp, ebp ; pop ebp ; ret  ;  (1 found)
0x1001904f: pop esi ; mov esp, ebp ; pop ebp ; ret  ;  (1 found)
0x1001989a: pop esi ; mov esp, ebp ; pop ebp ; ret  ;  (1 found)
0x10019912: pop esi ; mov esp, ebp ; pop ebp ; ret  ;  (1 found)
0x10019d15: pop esi ; mov esp, ebp ; pop ebp ; ret  ;  (1 found)
0x1001c327: pop esi ; mov esp, ebp ; pop ebp ; ret  ;  (1 found)
0x1001b1cf: pop esi ; mov esp, ebp ; pop ebp ; ret  ;  (1 found)
0x1001b329: pop esi ; mov esp, ebp ; pop ebp ; ret  ;  (1 found)
0x1001b3a0: pop esi ; mov esp, ebp ; pop ebp ; ret  ;  (1 found)
0x1001bd68: pop esi ; mov esp, ebp ; pop ebp ; ret  ;  (1 found)
0x1001cd56: pop esi ; mov esp, ebp ; pop ebp ; ret  ;  (1 found)
0x100279dc: pop esi ; mov esp, ebp ; pop ebp ; ret  ;  (1 found)
0x1001e619: pop esi ; mov esp, ebp ; pop ebp ; ret  ;  (1 found)
0x1001f96c: pop esi ; mov esp, ebp ; pop ebp ; ret  ;  (1 found)
0x1001fa3b: pop esi ; mov esp, ebp ; pop ebp ; ret  ;  (1 found)
0x10020092: pop esi ; mov esp, ebp ; pop ebp ; ret  ;  (1 found)
0x100201e2: pop esi ; mov esp, ebp ; pop ebp ; ret  ;  (1 found)
0x10020258: pop esi ; mov esp, ebp ; pop ebp ; ret  ;  (1 found)
0x10020d22: pop esi ; mov esp, ebp ; pop ebp ; ret  ;  (1 found)
0x10020e34: pop esi ; mov esp, ebp ; pop ebp ; ret  ;  (1 found)
0x1002109f: pop esi ; mov esp, ebp ; pop ebp ; ret  ;  (1 found)
0x10026035: pop esi ; mov esp, ebp ; pop ebp ; ret  ;  (1 found)
0x10026160: pop esi ; mov esp, ebp ; pop ebp ; ret  ;  (1 found)
0x10027dae: pop esi ; mov esp, ebp ; pop ebp ; ret  ;  (1 found)
0x10027b2b: pop esi ; mov esp, ebp ; pop ebp ; ret  ;  (1 found)
0x10027efd: pop esi ; mov esp, ebp ; pop ebp ; ret  ;  (1 found)
0x100288b0: pop esi ; mov esp, ebp ; pop ebp ; ret  ;  (1 found)
0x10028a41: pop esi ; mov esp, ebp ; pop ebp ; ret  ;  (1 found)
0x10028e76: pop esi ; mov esp, ebp ; pop ebp ; ret  ;  (1 found)
0x10029233: pop esi ; mov esp, ebp ; pop ebp ; ret  ;  (1 found)
0x10029324: pop esi ; mov esp, ebp ; pop ebp ; ret  ;  (1 found)
0x100295d5: pop esi ; mov esp, ebp ; pop ebp ; ret  ;  (1 found)
0x10029441: pop esi ; mov esp, ebp ; pop ebp ; ret  ;  (1 found)
0x100296c8: pop esi ; mov esp, ebp ; pop ebp ; ret  ;  (1 found)
0x100299ce: pop esi ; mov esp, ebp ; pop ebp ; ret  ;  (1 found)
0x100298e4: pop esi ; mov esp, ebp ; pop ebp ; ret  ;  (1 found)
0x1002a32c: pop esi ; mov esp, ebp ; pop ebp ; ret  ;  (1 found)
0x1002a3dd: pop esi ; mov esp, ebp ; pop ebp ; ret  ;  (1 found)
0x1002aba5: pop esi ; mov esp, ebp ; pop ebp ; ret  ;  (1 found)
0x1002af4b: pop esi ; mov esp, ebp ; pop ebp ; ret  ;  (1 found)
0x10013a41: pop esi ; pop ebp ; ret  ;  (1 found)
0x10014786: pop esi ; pop ebp ; ret  ;  (1 found)
0x1001604a: pop esi ; pop ebp ; ret  ;  (1 found)
0x100174e3: pop esi ; pop ebp ; ret  ;  (1 found)
0x1001c36b: pop esi ; pop ebp ; ret  ;  (1 found)
0x1001c57a: pop esi ; pop ebp ; ret  ;  (1 found)
0x1001c5b9: pop esi ; pop ebp ; ret  ;  (1 found)
0x1001b4bd: pop esi ; pop ebp ; ret  ;  (1 found)
0x1001d2fa: pop esi ; pop ebp ; ret  ;  (1 found)
0x1001c829: pop esi ; pop ebp ; ret  ;  (1 found)
0x1001c9aa: pop esi ; pop ebp ; ret  ;  (1 found)
0x10021622: pop esi ; pop ebp ; ret  ;  (1 found)
0x100203d2: pop esi ; pop ebp ; ret  ;  (1 found)
0x100204bb: pop esi ; pop ebp ; ret  ;  (1 found)
0x100204f5: pop esi ; pop ebp ; ret  ;  (1 found)
0x10021f57: pop esi ; pop ebp ; ret  ;  (1 found)
0x10021f87: pop esi ; pop ebp ; ret  ;  (1 found)
0x1002262f: pop esi ; pop ebp ; ret  ;  (1 found)
0x10023018: pop esi ; pop ebp ; ret  ;  (1 found)
0x10023049: pop esi ; pop ebp ; ret  ;  (1 found)
0x10028941: pop esi ; pop ebp ; ret  ;  (1 found)
0x10028b7c: pop esi ; pop ebp ; ret  ;  (1 found)
0x100294ed: pop esi ; pop ebp ; ret  ;  (1 found)
0x10012379: pop esi ; pop ebx ; add esp, 0x04 ; ret  ;  (1 found)
0x10012e93: pop esi ; pop ebx ; add esp, 0x04 ; ret  ;  (1 found)
0x1001456a: pop esi ; pop ebx ; add esp, 0x04 ; ret  ;  (1 found)
0x10015069: pop esi ; pop ebx ; add esp, 0x04 ; ret  ;  (1 found)
0x100168ad: pop esi ; pop ebx ; add esp, 0x04 ; ret  ;  (1 found)
0x1001875c: pop esi ; pop ebx ; add esp, 0x04 ; ret  ;  (1 found)
0x10018eb7: pop esi ; pop ebx ; add esp, 0x04 ; ret  ;  (1 found)
0x1001c78c: pop esi ; pop ebx ; add esp, 0x04 ; ret  ;  (1 found)
0x10019267: pop esi ; pop ebx ; add esp, 0x04 ; ret  ;  (1 found)
0x1001fd1c: pop esi ; pop ebx ; add esp, 0x04 ; ret  ;  (1 found)
0x100213cb: pop esi ; pop ebx ; add esp, 0x04 ; ret  ;  (1 found)
0x10024aba: pop esi ; pop ebx ; add esp, 0x04 ; ret  ;  (1 found)
0x1001a8ee: pop esi ; pop ebx ; add esp, 0x10 ; ret  ;  (1 found)
0x10027276: pop esi ; pop ebx ; mov dword [edx+0x08], eax ; ret  ;  (1 found)
0x1002a915: pop esi ; pop ebx ; mov esp, ebp ; neg eax ; pop ebp ; ret  ;  (1 found)
0x10012592: pop esi ; pop ebx ; mov esp, ebp ; pop ebp ; ret  ;  (1 found)
0x10012a42: pop esi ; pop ebx ; mov esp, ebp ; pop ebp ; ret  ;  (1 found)
0x10012de2: pop esi ; pop ebx ; mov esp, ebp ; pop ebp ; ret  ;  (1 found)
0x1001310d: pop esi ; pop ebx ; mov esp, ebp ; pop ebp ; ret  ;  (1 found)
0x10013932: pop esi ; pop ebx ; mov esp, ebp ; pop ebp ; ret  ;  (1 found)
0x100146bb: pop esi ; pop ebx ; mov esp, ebp ; pop ebp ; ret  ;  (1 found)
0x10014329: pop esi ; pop ebx ; mov esp, ebp ; pop ebp ; ret  ;  (1 found)
0x100148c8: pop esi ; pop ebx ; mov esp, ebp ; pop ebp ; ret  ;  (1 found)
0x100149fe: pop esi ; pop ebx ; mov esp, ebp ; pop ebp ; ret  ;  (1 found)
0x10014996: pop esi ; pop ebx ; mov esp, ebp ; pop ebp ; ret  ;  (1 found)
0x10014929: pop esi ; pop ebx ; mov esp, ebp ; pop ebp ; ret  ;  (1 found)
0x10014a6b: pop esi ; pop ebx ; mov esp, ebp ; pop ebp ; ret  ;  (1 found)
0x10014c5e: pop esi ; pop ebx ; mov esp, ebp ; pop ebp ; ret  ;  (1 found)
0x10014ece: pop esi ; pop ebx ; mov esp, ebp ; pop ebp ; ret  ;  (1 found)
0x100152bb: pop esi ; pop ebx ; mov esp, ebp ; pop ebp ; ret  ;  (1 found)
0x100153b4: pop esi ; pop ebx ; mov esp, ebp ; pop ebp ; ret  ;  (1 found)
0x10015541: pop esi ; pop ebx ; mov esp, ebp ; pop ebp ; ret  ;  (1 found)
0x1001598a: pop esi ; pop ebx ; mov esp, ebp ; pop ebp ; ret  ;  (1 found)
0x10015d7f: pop esi ; pop ebx ; mov esp, ebp ; pop ebp ; ret  ;  (1 found)
0x10015f6c: pop esi ; pop ebx ; mov esp, ebp ; pop ebp ; ret  ;  (1 found)
0x10016675: pop esi ; pop ebx ; mov esp, ebp ; pop ebp ; ret  ;  (1 found)
0x100169dc: pop esi ; pop ebx ; mov esp, ebp ; pop ebp ; ret  ;  (1 found)
0x10018b01: pop esi ; pop ebx ; mov esp, ebp ; pop ebp ; ret  ;  (1 found)
0x10018dd7: pop esi ; pop ebx ; mov esp, ebp ; pop ebp ; ret  ;  (1 found)
0x100172d7: pop esi ; pop ebx ; mov esp, ebp ; pop ebp ; ret  ;  (1 found)
0x1001971e: pop esi ; pop ebx ; mov esp, ebp ; pop ebp ; ret  ;  (1 found)
0x10019558: pop esi ; pop ebx ; mov esp, ebp ; pop ebp ; ret  ;  (1 found)
0x100199e5: pop esi ; pop ebx ; mov esp, ebp ; pop ebp ; ret  ;  (1 found)
0x10019975: pop esi ; pop ebx ; mov esp, ebp ; pop ebp ; ret  ;  (1 found)
0x10019cb7: pop esi ; pop ebx ; mov esp, ebp ; pop ebp ; ret  ;  (1 found)
0x10019a4a: pop esi ; pop ebx ; mov esp, ebp ; pop ebp ; ret  ;  (1 found)
0x10019aba: pop esi ; pop ebx ; mov esp, ebp ; pop ebp ; ret  ;  (1 found)
0x10019f0e: pop esi ; pop ebx ; mov esp, ebp ; pop ebp ; ret  ;  (1 found)
0x1001a054: pop esi ; pop ebx ; mov esp, ebp ; pop ebp ; ret  ;  (1 found)
0x1001a2c2: pop esi ; pop ebx ; mov esp, ebp ; pop ebp ; ret  ;  (1 found)
0x1001a478: pop esi ; pop ebx ; mov esp, ebp ; pop ebp ; ret  ;  (1 found)
0x1001a705: pop esi ; pop ebx ; mov esp, ebp ; pop ebp ; ret  ;  (1 found)
0x1001abe8: pop esi ; pop ebx ; mov esp, ebp ; pop ebp ; ret  ;  (1 found)
0x1001bf09: pop esi ; pop ebx ; mov esp, ebp ; pop ebp ; ret  ;  (1 found)
0x1001c066: pop esi ; pop ebx ; mov esp, ebp ; pop ebp ; ret  ;  (1 found)
0x1001c1a5: pop esi ; pop ebx ; mov esp, ebp ; pop ebp ; ret  ;  (1 found)
0x1001c454: pop esi ; pop ebx ; mov esp, ebp ; pop ebp ; ret  ;  (1 found)
0x1001b923: pop esi ; pop ebx ; mov esp, ebp ; pop ebp ; ret  ;  (1 found)
0x1001bc25: pop esi ; pop ebx ; mov esp, ebp ; pop ebp ; ret  ;  (1 found)
0x1001cee0: pop esi ; pop ebx ; mov esp, ebp ; pop ebp ; ret  ;  (1 found)
0x1001d84a: pop esi ; pop ebx ; mov esp, ebp ; pop ebp ; ret  ;  (1 found)
0x1001db6f: pop esi ; pop ebx ; mov esp, ebp ; pop ebp ; ret  ;  (1 found)
0x1001db15: pop esi ; pop ebx ; mov esp, ebp ; pop ebp ; ret  ;  (1 found)
0x1001c93c: pop esi ; pop ebx ; mov esp, ebp ; pop ebp ; ret  ;  (1 found)
0x100216ec: pop esi ; pop ebx ; mov esp, ebp ; pop ebp ; ret  ;  (1 found)
0x1001df54: pop esi ; pop ebx ; mov esp, ebp ; pop ebp ; ret  ;  (1 found)
0x1001e0d0: pop esi ; pop ebx ; mov esp, ebp ; pop ebp ; ret  ;  (1 found)
0x1001e34a: pop esi ; pop ebx ; mov esp, ebp ; pop ebp ; ret  ;  (1 found)
0x1001e841: pop esi ; pop ebx ; mov esp, ebp ; pop ebp ; ret  ;  (1 found)
0x1001e9c1: pop esi ; pop ebx ; mov esp, ebp ; pop ebp ; ret  ;  (1 found)
0x1001ef31: pop esi ; pop ebx ; mov esp, ebp ; pop ebp ; ret  ;  (1 found)
0x1001f1fa: pop esi ; pop ebx ; mov esp, ebp ; pop ebp ; ret  ;  (1 found)
0x1001f492: pop esi ; pop ebx ; mov esp, ebp ; pop ebp ; ret  ;  (1 found)
0x1001f56c: pop esi ; pop ebx ; mov esp, ebp ; pop ebp ; ret  ;  (1 found)
0x1001f791: pop esi ; pop ebx ; mov esp, ebp ; pop ebp ; ret  ;  (1 found)
0x1001f8f4: pop esi ; pop ebx ; mov esp, ebp ; pop ebp ; ret  ;  (1 found)
0x10020753: pop esi ; pop ebx ; mov esp, ebp ; pop ebp ; ret  ;  (1 found)
0x100209dc: pop esi ; pop ebx ; mov esp, ebp ; pop ebp ; ret  ;  (1 found)
0x10020bac: pop esi ; pop ebx ; mov esp, ebp ; pop ebp ; ret  ;  (1 found)
0x10021276: pop esi ; pop ebx ; mov esp, ebp ; pop ebp ; ret  ;  (1 found)
0x10020ff5: pop esi ; pop ebx ; mov esp, ebp ; pop ebp ; ret  ;  (1 found)
0x100214b6: pop esi ; pop ebx ; mov esp, ebp ; pop ebp ; ret  ;  (1 found)
0x10024571: pop esi ; pop ebx ; mov esp, ebp ; pop ebp ; ret  ;  (1 found)
0x10024d9e: pop esi ; pop ebx ; mov esp, ebp ; pop ebp ; ret  ;  (1 found)
0x1002545a: pop esi ; pop ebx ; mov esp, ebp ; pop ebp ; ret  ;  (1 found)
0x1002571c: pop esi ; pop ebx ; mov esp, ebp ; pop ebp ; ret  ;  (1 found)
0x10025b3e: pop esi ; pop ebx ; mov esp, ebp ; pop ebp ; ret  ;  (1 found)
0x10025d4b: pop esi ; pop ebx ; mov esp, ebp ; pop ebp ; ret  ;  (1 found)
0x10025dc2: pop esi ; pop ebx ; mov esp, ebp ; pop ebp ; ret  ;  (1 found)
0x100262b2: pop esi ; pop ebx ; mov esp, ebp ; pop ebp ; ret  ;  (1 found)
0x100266a0: pop esi ; pop ebx ; mov esp, ebp ; pop ebp ; ret  ;  (1 found)
0x10026831: pop esi ; pop ebx ; mov esp, ebp ; pop ebp ; ret  ;  (1 found)
0x10026925: pop esi ; pop ebx ; mov esp, ebp ; pop ebp ; ret  ;  (1 found)
0x10026ac9: pop esi ; pop ebx ; mov esp, ebp ; pop ebp ; ret  ;  (1 found)
0x10027188: pop esi ; pop ebx ; mov esp, ebp ; pop ebp ; ret  ;  (1 found)
0x1002758e: pop esi ; pop ebx ; mov esp, ebp ; pop ebp ; ret  ;  (1 found)
0x1002738b: pop esi ; pop ebx ; mov esp, ebp ; pop ebp ; ret  ;  (1 found)
0x10027603: pop esi ; pop ebx ; mov esp, ebp ; pop ebp ; ret  ;  (1 found)
0x10021e50: pop esi ; pop ebx ; mov esp, ebp ; pop ebp ; ret  ;  (1 found)
0x1002228d: pop esi ; pop ebx ; mov esp, ebp ; pop ebp ; ret  ;  (1 found)
0x100224ee: pop esi ; pop ebx ; mov esp, ebp ; pop ebp ; ret  ;  (1 found)
0x100227bd: pop esi ; pop ebx ; mov esp, ebp ; pop ebp ; ret  ;  (1 found)
0x10022f27: pop esi ; pop ebx ; mov esp, ebp ; pop ebp ; ret  ;  (1 found)
0x100232fb: pop esi ; pop ebx ; mov esp, ebp ; pop ebp ; ret  ;  (1 found)
0x10023c09: pop esi ; pop ebx ; mov esp, ebp ; pop ebp ; ret  ;  (1 found)
0x10028731: pop esi ; pop ebx ; mov esp, ebp ; pop ebp ; ret  ;  (1 found)
0x1002a6ee: pop esi ; pop ebx ; mov esp, ebp ; pop ebp ; ret  ;  (1 found)
0x1002ad70: pop esi ; pop ebx ; mov esp, ebp ; pop ebp ; ret  ;  (1 found)
0x10012cad: pop esi ; pop ebx ; mov esp, ebp ; pop ebp ; retn 0x0004 ;  (1 found)
0x100246ae: pop esi ; pop ebx ; mov esp, ebp ; pop ebp ; retn 0x0004 ;  (1 found)
0x10011db0: pop esi ; pop ebx ; mov esp, ebp ; pop ebp ; retn 0x000C ;  (1 found)
0x1001618f: pop esi ; pop ebx ; pop ebp ; ret  ;  (1 found)
0x10017070: pop esi ; pop ebx ; pop ebp ; ret  ;  (1 found)
0x10017dfe: pop esi ; pop ebx ; pop ebp ; ret  ;  (1 found)
0x10018118: pop esi ; pop ebx ; pop ebp ; ret  ;  (1 found)
0x100181f6: pop esi ; pop ebx ; pop ebp ; ret  ;  (1 found)
0x1001739a: pop esi ; pop ebx ; pop ebp ; ret  ;  (1 found)
0x1001a93a: pop esi ; pop ebx ; pop ebp ; ret  ;  (1 found)
0x1001c118: pop esi ; pop ebx ; pop ebp ; ret  ;  (1 found)
0x1001b612: pop esi ; pop ebx ; pop ebp ; ret  ;  (1 found)
0x1001d1b3: pop esi ; pop ebx ; pop ebp ; ret  ;  (1 found)
0x1001e5c1: pop esi ; pop ebx ; pop ebp ; ret  ;  (1 found)
0x1001eed3: pop esi ; pop ebx ; pop ebp ; ret  ;  (1 found)
0x1001ed7f: pop esi ; pop ebx ; pop ebp ; ret  ;  (1 found)
0x10020460: pop esi ; pop ebx ; pop ebp ; ret  ;  (1 found)
0x10020c77: pop esi ; pop ebx ; pop ebp ; ret  ;  (1 found)
0x10026219: pop esi ; pop ebx ; pop ebp ; ret  ;  (1 found)
0x10026103: pop esi ; pop ebx ; pop ebp ; ret  ;  (1 found)
0x10011f02: pop esi ; pop ebx ; ret  ;  (1 found)
0x10012028: pop esi ; pop ebx ; ret  ;  (1 found)
0x1001219a: pop esi ; pop ebx ; ret  ;  (1 found)
0x10012ac1: pop esi ; pop ebx ; ret  ;  (1 found)
0x10014813: pop esi ; pop ebx ; ret  ;  (1 found)
0x10015628: pop esi ; pop ebx ; ret  ;  (1 found)
0x100156da: pop esi ; pop ebx ; ret  ;  (1 found)
0x10015135: pop esi ; pop ebx ; ret  ;  (1 found)
0x100151b8: pop esi ; pop ebx ; ret  ;  (1 found)
0x10015fde: pop esi ; pop ebx ; ret  ;  (1 found)
0x10017186: pop esi ; pop ebx ; ret  ;  (1 found)
0x100178ff: pop esi ; pop ebx ; ret  ;  (1 found)
0x10017971: pop esi ; pop ebx ; ret  ;  (1 found)
0x10017a9d: pop esi ; pop ebx ; ret  ;  (1 found)
0x10017bd0: pop esi ; pop ebx ; ret  ;  (1 found)
0x10017cf3: pop esi ; pop ebx ; ret  ;  (1 found)
0x10017c69: pop esi ; pop ebx ; ret  ;  (1 found)
0x10017ef5: pop esi ; pop ebx ; ret  ;  (1 found)
0x10017fbb: pop esi ; pop ebx ; ret  ;  (1 found)
0x10017e64: pop esi ; pop ebx ; ret  ;  (1 found)
0x10018009: pop esi ; pop ebx ; ret  ;  (1 found)
0x100182fa: pop esi ; pop ebx ; ret  ;  (1 found)
0x100182fb: pop esi ; pop ebx ; ret  ;  (1 found)
0x100183a2: pop esi ; pop ebx ; ret  ;  (1 found)
0x10018483: pop esi ; pop ebx ; ret  ;  (1 found)
0x100185a3: pop esi ; pop ebx ; ret  ;  (1 found)
0x100175b4: pop esi ; pop ebx ; ret  ;  (1 found)
0x1001932f: pop esi ; pop ebx ; ret  ;  (1 found)
0x100195f8: pop esi ; pop ebx ; ret  ;  (1 found)
0x1001a399: pop esi ; pop ebx ; ret  ;  (1 found)
0x1001a5c5: pop esi ; pop ebx ; ret  ;  (1 found)
0x1001ac43: pop esi ; pop ebx ; ret  ;  (1 found)
0x1001be6e: pop esi ; pop ebx ; ret  ;  (1 found)
0x1001c0c1: pop esi ; pop ebx ; ret  ;  (1 found)
0x1001c632: pop esi ; pop ebx ; ret  ;  (1 found)
0x1001b27f: pop esi ; pop ebx ; ret  ;  (1 found)
0x1001b58f: pop esi ; pop ebx ; ret  ;  (1 found)
0x1001b766: pop esi ; pop ebx ; ret  ;  (1 found)
0x1001ba82: pop esi ; pop ebx ; ret  ;  (1 found)
0x1001bba7: pop esi ; pop ebx ; ret  ;  (1 found)
0x1001bdb6: pop esi ; pop ebx ; ret  ;  (1 found)
0x1001d9d1: pop esi ; pop ebx ; ret  ;  (1 found)
0x1001d940: pop esi ; pop ebx ; ret  ;  (1 found)
0x1001db9f: pop esi ; pop ebx ; ret  ;  (1 found)
0x1001c7e7: pop esi ; pop ebx ; ret  ;  (1 found)
0x1001ca38: pop esi ; pop ebx ; ret  ;  (1 found)
0x1001cbc3: pop esi ; pop ebx ; ret  ;  (1 found)
0x100215bb: pop esi ; pop ebx ; ret  ;  (1 found)
0x1001dc9c: pop esi ; pop ebx ; ret  ;  (1 found)
0x1001e1bb: pop esi ; pop ebx ; ret  ;  (1 found)
0x1001e39e: pop esi ; pop ebx ; ret  ;  (1 found)
0x1001e4ec: pop esi ; pop ebx ; ret  ;  (1 found)
0x1001e484: pop esi ; pop ebx ; ret  ;  (1 found)
0x1001ee60: pop esi ; pop ebx ; ret  ;  (1 found)
0x1001fbe2: pop esi ; pop ebx ; ret  ;  (1 found)
0x1001fb20: pop esi ; pop ebx ; ret  ;  (1 found)
0x1001fcb2: pop esi ; pop ebx ; ret  ;  (1 found)
0x1001ff45: pop esi ; pop ebx ; ret  ;  (1 found)
0x1002018c: pop esi ; pop ebx ; ret  ;  (1 found)
0x100200eb: pop esi ; pop ebx ; ret  ;  (1 found)
0x10020142: pop esi ; pop ebx ; ret  ;  (1 found)
0x100202a4: pop esi ; pop ebx ; ret  ;  (1 found)
0x10020411: pop esi ; pop ebx ; ret  ;  (1 found)
0x10020538: pop esi ; pop ebx ; ret  ;  (1 found)
0x100205e1: pop esi ; pop ebx ; ret  ;  (1 found)
0x10020d6f: pop esi ; pop ebx ; ret  ;  (1 found)
0x10024f33: pop esi ; pop ebx ; ret  ;  (1 found)
0x1002515b: pop esi ; pop ebx ; ret  ;  (1 found)
0x100257d5: pop esi ; pop ebx ; ret  ;  (1 found)
0x10025784: pop esi ; pop ebx ; ret  ;  (1 found)
0x10025875: pop esi ; pop ebx ; ret  ;  (1 found)
0x10025e7a: pop esi ; pop ebx ; ret  ;  (1 found)
0x1002679d: pop esi ; pop ebx ; ret  ;  (1 found)
0x10022024: pop esi ; pop ebx ; ret  ;  (1 found)
0x100222f7: pop esi ; pop ebx ; ret  ;  (1 found)
0x10022571: pop esi ; pop ebx ; ret  ;  (1 found)
0x100225bd: pop esi ; pop ebx ; ret  ;  (1 found)
0x10023131: pop esi ; pop ebx ; ret  ;  (1 found)
0x10028b02: pop esi ; pop ebx ; ret  ;  (1 found)
0x10028bf5: pop esi ; pop ebx ; ret  ;  (1 found)
0x10018661: pop esi ; pop edi ; leave  ; ret  ;  (1 found)
0x10018617: pop esi ; pop edi ; leave  ; ret  ;  (1 found)
0x1001a7ad: pop esi ; pop edi ; leave  ; ret  ;  (1 found)
0x1001a814: pop esi ; pop edi ; leave  ; ret  ;  (1 found)
0x1001d33b: pop esi ; pop edi ; leave  ; ret  ;  (1 found)
0x1001d397: pop esi ; pop edi ; leave  ; ret  ;  (1 found)
0x1001d3a5: pop esi ; pop edi ; leave  ; ret  ;  (1 found)
0x1001d3e5: pop esi ; pop edi ; leave  ; ret  ;  (1 found)
0x1001d3b3: pop esi ; pop edi ; leave  ; ret  ;  (1 found)
0x1001d444: pop esi ; pop edi ; leave  ; ret  ;  (1 found)
0x1001d432: pop esi ; pop edi ; leave  ; ret  ;  (1 found)
0x1001d48a: pop esi ; pop edi ; leave  ; ret  ;  (1 found)
0x1001d452: pop esi ; pop edi ; leave  ; ret  ;  (1 found)
0x1001d4f5: pop esi ; pop edi ; leave  ; ret  ;  (1 found)
0x1001d4e7: pop esi ; pop edi ; leave  ; ret  ;  (1 found)
0x1001d503: pop esi ; pop edi ; leave  ; ret  ;  (1 found)
0x1001d535: pop esi ; pop edi ; leave  ; ret  ;  (1 found)
0x1001d582: pop esi ; pop edi ; leave  ; ret  ;  (1 found)
0x1001d594: pop esi ; pop edi ; leave  ; ret  ;  (1 found)
0x1001d5a2: pop esi ; pop edi ; leave  ; ret  ;  (1 found)
0x1001d5da: pop esi ; pop edi ; leave  ; ret  ;  (1 found)
0x1001e6e3: pop esi ; pop edi ; leave  ; ret  ;  (1 found)
0x1001e87e: pop esi ; pop edi ; leave  ; ret  ;  (1 found)
0x1001f280: pop esi ; pop edi ; leave  ; ret  ;  (1 found)
0x1001f245: pop esi ; pop edi ; leave  ; ret  ;  (1 found)
0x1001f2a4: pop esi ; pop edi ; leave  ; ret  ;  (1 found)
0x1001f2e2: pop esi ; pop edi ; leave  ; ret  ;  (1 found)
0x1001f346: pop esi ; pop edi ; leave  ; ret  ;  (1 found)
0x1001205d: pop esi ; ret  ;  (1 found)
0x100120e5: pop esi ; ret  ;  (1 found)
0x10012212: pop esi ; ret  ;  (1 found)
0x10012977: pop esi ; ret  ;  (1 found)
0x100128f3: pop esi ; ret  ;  (1 found)
0x10012a18: pop esi ; ret  ;  (1 found)
0x10012b84: pop esi ; ret  ;  (1 found)
0x10012c08: pop esi ; ret  ;  (1 found)
0x10012cfa: pop esi ; ret  ;  (1 found)
0x10012fe7: pop esi ; ret  ;  (1 found)
0x10013161: pop esi ; ret  ;  (1 found)
0x100131d4: pop esi ; ret  ;  (1 found)
0x10013253: pop esi ; ret  ;  (1 found)
0x10013a15: pop esi ; ret  ;  (1 found)
0x100143b3: pop esi ; ret  ;  (1 found)
0x100143d9: pop esi ; ret  ;  (1 found)
0x10015763: pop esi ; ret  ;  (1 found)
0x10014f0f: pop esi ; ret  ;  (1 found)
0x10014f53: pop esi ; ret  ;  (1 found)
0x1001558b: pop esi ; ret  ;  (1 found)
0x100155c7: pop esi ; ret  ;  (1 found)
0x10015dbe: pop esi ; ret  ;  (1 found)
0x100160ba: pop esi ; ret  ;  (1 found)
0x100161d1: pop esi ; ret  ;  (1 found)
0x100161b1: pop esi ; ret  ;  (1 found)
0x100162bb: pop esi ; ret  ;  (1 found)
0x100162db: pop esi ; ret  ;  (1 found)
0x100164d0: pop esi ; ret  ;  (1 found)
0x100163d3: pop esi ; ret  ;  (1 found)
0x100164fd: pop esi ; ret  ;  (1 found)
0x1001652c: pop esi ; ret  ;  (1 found)
0x10016ddc: pop esi ; ret  ;  (1 found)
0x10016db1: pop esi ; ret  ;  (1 found)
0x100177f6: pop esi ; ret  ;  (1 found)
0x10017b30: pop esi ; ret  ;  (1 found)
0x10017f32: pop esi ; ret  ;  (1 found)
0x10018139: pop esi ; ret  ;  (1 found)
0x100182b4: pop esi ; ret  ;  (1 found)
0x10018339: pop esi ; ret  ;  (1 found)
0x100185f5: pop esi ; ret  ;  (1 found)
0x10018506: pop esi ; ret  ;  (1 found)
0x10019084: pop esi ; ret  ;  (1 found)
0x100173f4: pop esi ; ret  ;  (1 found)
0x10017446: pop esi ; ret  ;  (1 found)
0x10017544: pop esi ; ret  ;  (1 found)
0x1001778a: pop esi ; ret  ;  (1 found)
0x10017765: pop esi ; ret  ;  (1 found)
0x100190e8: pop esi ; ret  ;  (1 found)
0x100192b4: pop esi ; ret  ;  (1 found)
0x10019388: pop esi ; ret  ;  (1 found)
0x100197de: pop esi ; ret  ;  (1 found)
0x1001a874: pop esi ; ret  ;  (1 found)
0x1001bf54: pop esi ; ret  ;  (1 found)
0x1001c1e6: pop esi ; ret  ;  (1 found)
0x1001c4c3: pop esi ; ret  ;  (1 found)
0x1001c53b: pop esi ; ret  ;  (1 found)
0x1001c67f: pop esi ; ret  ;  (1 found)
0x1001b3d9: pop esi ; ret  ;  (1 found)
0x1001b677: pop esi ; ret  ;  (1 found)
0x1001b642: pop esi ; ret  ;  (1 found)
0x1001b7bf: pop esi ; ret  ;  (1 found)
0x1001bc86: pop esi ; ret  ;  (1 found)
0x1001bcbd: pop esi ; ret  ;  (1 found)
0x1001be0e: pop esi ; ret  ;  (1 found)
0x1001d00b: pop esi ; ret  ;  (1 found)
0x1001d03a: pop esi ; ret  ;  (1 found)
0x1001d1e4: pop esi ; ret  ;  (1 found)
0x1001c9d2: pop esi ; ret  ;  (1 found)
0x1001caa3: pop esi ; ret  ;  (1 found)
0x10021563: pop esi ; ret  ;  (1 found)
0x1001dcce: pop esi ; ret  ;  (1 found)
0x1001e8e9: pop esi ; ret  ;  (1 found)
0x1001ff83: pop esi ; ret  ;  (1 found)
0x1001fecf: pop esi ; ret  ;  (1 found)
0x100202f8: pop esi ; ret  ;  (1 found)
0x100202d6: pop esi ; ret  ;  (1 found)
0x10020365: pop esi ; ret  ;  (1 found)
0x10020572: pop esi ; ret  ;  (1 found)
0x10020625: pop esi ; ret  ;  (1 found)
0x10020a26: pop esi ; ret  ;  (1 found)
0x10020ca4: pop esi ; ret  ;  (1 found)
0x10020da1: pop esi ; ret  ;  (1 found)
0x1002130d: pop esi ; ret  ;  (1 found)
0x100245ef: pop esi ; ret  ;  (1 found)
0x10024640: pop esi ; ret  ;  (1 found)
0x10024cc6: pop esi ; ret  ;  (1 found)
0x10024761: pop esi ; ret  ;  (1 found)
0x10025024: pop esi ; ret  ;  (1 found)
0x100251bc: pop esi ; ret  ;  (1 found)
0x10025997: pop esi ; ret  ;  (1 found)
0x10025bbf: pop esi ; ret  ;  (1 found)
0x10025f18: pop esi ; ret  ;  (1 found)
0x10025f19: pop esi ; ret  ;  (1 found)
0x10026332: pop esi ; ret  ;  (1 found)
0x10026739: pop esi ; ret  ;  (1 found)
0x10026851: pop esi ; ret  ;  (1 found)
0x10026852: pop esi ; ret  ;  (1 found)
0x100271df: pop esi ; ret  ;  (1 found)
0x1002723d: pop esi ; ret  ;  (1 found)
0x100272ad: pop esi ; ret  ;  (1 found)
0x10023084: pop esi ; ret  ;  (1 found)
0x100231b3: pop esi ; ret  ;  (1 found)
0x100231df: pop esi ; ret  ;  (1 found)
0x10023c93: pop esi ; ret  ;  (1 found)
0x10023cf6: pop esi ; ret  ;  (1 found)
0x10027fe3: pop esi ; ret  ;  (1 found)
0x1002807e: pop esi ; ret  ;  (1 found)
0x10012428: pop esi ; retn 0x0004 ;  (1 found)
0x1002ac5f: pop esp ; and al, 0x00 ; fld qword [esp+0x00] ; add esp, 0x08 ; ret  ;  (1 found)
0x1001dcc5: pop esp ; cmp dword [eax], eax ; add byte [ebx-0x3974FB3C], al ; pop esi ; ret  ;  (1 found)
0x100212b5: pop esp ; cmp eax, dword [ebx] ; adc byte [ecx+0x10033B60], ah ; push eax ; push edi ; call dword [0x100110D0] ;  (1 found)
0x1002ba3d: popad  ; add byte [eax], al ; mov bl, 0x61 ; add byte [eax], al ; shl byte [eax+eax+0x00], cl ; jmp dword [eax+eax+0x00] ;  (1 found)
0x1002ba41: popad  ; add byte [eax], al ; shl byte [eax+eax+0x00], cl ; jmp dword [eax+eax+0x00] ;  (1 found)
0x10019791: popad  ; popfd  ; mov esp, ebp ; pop ebp ; ret  ;  (1 found)
0x10019792: popfd  ; mov esp, ebp ; pop ebp ; ret  ;  (1 found)
0x10020db6: push 0x00000000 ; call dword [0x1001104C] ;  (1 found)
0x1002100e: push 0x00000000 ; call dword [0x1001104C] ;  (1 found)
0x10012be3: push 0x00000000 ; call dword [0x1001108C] ;  (1 found)
0x10012cf2: push 0x00000000 ; call dword [0x10011090] ;  (1 found)
0x10012e0b: push 0x00000000 ; call dword [0x100110A4] ;  (1 found)
0x100168b5: push 0x00000000 ; call dword [0x1001111C] ;  (1 found)
0x100168fe: push 0x00000000 ; call dword [0x1001111C] ;  (1 found)
0x100169e2: push 0x00000000 ; call dword [0x1001111C] ;  (1 found)
0x100170e2: push 0x00000000 ; call dword [0x10011134] ;  (1 found)
0x10017116: push 0x00000000 ; call dword [0x10011134] ;  (1 found)
0x1001714a: push 0x00000000 ; call dword [0x10011134] ;  (1 found)
0x1001b444: push 0x00000000 ; call dword [0x1001116C] ;  (1 found)
0x10012a0a: push 0x00000000 ; mov eax, dword [0x1002E148] ; push eax ; call dword [0x10011064] ;  (1 found)
0x100168b3: push 0x00000000 ; push 0x00000000 ; call dword [0x1001111C] ;  (1 found)
0x100168fc: push 0x00000000 ; push 0x00000000 ; call dword [0x1001111C] ;  (1 found)
0x1001608b: push 0x00000000 ; push 0xFFFFFFF4 ; call dword [0x100110F4] ;  (1 found)
0x10020c31: push 0x00000000 ; push 0xFFFFFFFF ; push dword [ebp+0x0C] ; push edi ; push dword [0x1002FF7C] ; call dword [0x10011174] ;  (1 found)
0x1001621c: push 0x00000000 ; push dword [0x1002FF44] ; call dword [0x10011098] ;  (1 found)
0x100203a2: push 0x00000000 ; push dword [0x1002FF7C] ; call dword [0x1001116C] ;  (1 found)
0x10020b03: push 0x00000000 ; push dword [0x1002FF90] ; call dword [0x10011170] ;  (1 found)
0x1001dc00: push 0x00000000 ; push dword [0x10033CB8] ; call dword [0x100110CC] ;  (1 found)
0x10018766: push 0x00000000 ; push dword [0x10033CB8] ; call dword [0x1001114C] ;  (1 found)
0x1001c4c9: push 0x00000000 ; push dword [0x10033CB8] ; call dword [0x10011188] ;  (1 found)
0x10018665: push 0x00000000 ; push dword [esp+0x08] ; call dword [0x10011148] ;  (1 found)
0x10014619: push 0x00000000 ; push eax ; call dword [0x100110C8] ;  (1 found)
0x100144e1: push 0x00000000 ; push eax ; call dword [0x100110C8] ;  (1 found)
0x1001e7db: push 0x00000000 ; push eax ; call dword [0x1001116C] ;  (1 found)
0x1001c49e: push 0x00000000 ; push eax ; call dword [0x10011184] ;  (1 found)
0x10018d5c: push 0x00000000 ; push eax ; push dword [ebp-0x08] ; push dword [ebp-0x24] ; push dword [ebp-0x08] ; call dword [0x100110C4] ;  (1 found)
0x10018de4: push 0x00000000 ; push eax ; push dword [ebp-0x08] ; push dword [ebp-0x24] ; push dword [ebp-0x08] ; call dword [0x100110C4] ;  (1 found)
0x10018bc3: push 0x00000000 ; push eax ; push dword [ebp-0x08] ; push ecx ; push dword [ebp-0x08] ; call dword [0x100110C4] ;  (1 found)
0x1001f865: push 0x00000000 ; push eax ; push esi ; push 0x00000400 ; push dword [0x1002FF7C] ; call dword [0x10011174] ;  (1 found)
0x1001b529: push 0x00000000 ; push ebx ; push esi ; push 0x00000100 ; push eax ; call dword [0x10011174] ;  (1 found)
0x1001b700: push 0x00000000 ; push ebx ; push esi ; push 0x00000200 ; push eax ; call dword [0x10011174] ;  (1 found)
0x1002a634: push 0x00000000 ; push edi ; call dword [0x100111C4] ;  (1 found)
0x100165fd: push 0x00000001 ; call dword [0x100110A4] ;  (1 found)
0x10016b52: push 0x00000001 ; call dword [0x10011130] ;  (1 found)
0x1001cc03: push 0x00000001 ; call dword [0x10011130] ;  (1 found)
0x100252fb: push 0x00000001 ; call dword [0x10011130] ;  (1 found)
0x10025332: push 0x00000001 ; call dword [0x10011130] ;  (1 found)
0x100170e0: push 0x00000001 ; push 0x00000000 ; call dword [0x10011134] ;  (1 found)
0x10017148: push 0x00000001 ; push 0x00000000 ; call dword [0x10011134] ;  (1 found)
0x10017114: push 0x00000001 ; push 0x00000000 ; call dword [0x10011134] ;  (1 found)
0x1001b442: push 0x00000001 ; push 0x00000000 ; call dword [0x1001116C] ;  (1 found)
0x100144df: push 0x00000001 ; push 0x00000000 ; push eax ; call dword [0x100110C8] ;  (1 found)
0x10014617: push 0x00000001 ; push 0x00000000 ; push eax ; call dword [0x100110C8] ;  (1 found)
0x1002a632: push 0x00000001 ; push 0x00000000 ; push edi ; call dword [0x100111C4] ;  (1 found)
0x1001b497: push 0x00000001 ; push dword [0x1002FF7C] ; call dword [0x1001116C] ;  (1 found)
0x10016b28: push 0x00000001 ; push dword [0x1002FF90] ; call dword [0x10011134] ;  (1 found)
0x1001aef3: push 0x00000001 ; push dword [0x1002FF90] ; call dword [0x10011134] ;  (1 found)
0x1001a667: push 0x00000001 ; push dword [0x1002FF90] ; call dword [0x10011134] ;  (1 found)
0x1001ad47: push 0x00000001 ; push dword [0x1002FF90] ; call dword [0x10011134] ;  (1 found)
0x1001d0f7: push 0x00000001 ; push dword [0x1002FF90] ; call dword [0x10011134] ;  (1 found)
0x1001e7a3: push 0x00000001 ; push dword [0x1002FF90] ; call dword [0x10011134] ;  (1 found)
0x1001f84e: push 0x00000001 ; push dword [0x1002FF90] ; call dword [0x10011134] ;  (1 found)
0x10020afe: push 0x00000001 ; push dword [ebp+0x0C] ; push 0x00000000 ; push dword [0x1002FF90] ; call dword [0x10011170] ;  (1 found)
0x1001a687: push 0x00000001 ; push eax ; call dword [0x10011134] ;  (1 found)
0x1001e7c3: push 0x00000001 ; push eax ; call dword [0x10011134] ;  (1 found)
0x1001a69f: push 0x00000001 ; push eax ; call dword [0x1001116C] ;  (1 found)
0x1001c222: push 0x00000001 ; push eax ; push 0x00000220 ; push dword [0x1002FF90] ; call dword [0x10011170] ;  (1 found)
0x1001fff0: push 0x00000001 ; push eax ; push 0x00000220 ; push dword [0x1002FF90] ; call dword [0x10011170] ;  (1 found)
0x10020cf5: push 0x00000001 ; push eax ; push 0x00000220 ; push dword [0x1002FF90] ; call dword [0x10011170] ;  (1 found)
0x1001cc00: push 0x00000001 ; push ecx ; push 0x00000001 ; call dword [0x10011130] ;  (1 found)
0x1001fda4: push 0x00000001 ; push ecx ; push 0x00000100 ; push dword [0x1002FF80] ; call dword [0x10011174] ;  (1 found)
0x1001fe5e: push 0x00000001 ; push ecx ; push 0x00000200 ; push dword [0x1002FF80] ; call dword [0x10011174] ;  (1 found)
0x10016231: push 0x00000001 ; push ecx ; push dword [0x1002FF44] ; call dword [0x100110F8] ;  (1 found)
0x100194c6: push 0x00000001 ; push ecx ; push dword [edx] ; call dword [0x1001115C] ;  (1 found)
0x1001cfee: push 0x00000001 ; push edx ; push eax ; push dword [0x1002FF90] ; call dword [0x10011134] ;  (1 found)
0x100190a6: push 0x00000001 ; push edx ; push ecx ; call dword [0x100110B8] ;  (1 found)
0x1002244f: push 0x00000001 ; push esi ; push esi ; push dword [ebp-0x10] ; push dword [ebp+0x0C] ; call dword [0x100111AC] ;  (1 found)
0x10014612: push 0x00000002 ; lea eax, dword [ebp-0x04] ; push 0x00000001 ; push 0x00000000 ; push eax ; call dword [0x100110C8] ;  (1 found)
0x100144dd: push 0x00000002 ; push 0x00000001 ; push 0x00000000 ; push eax ; call dword [0x100110C8] ;  (1 found)
0x10016b4f: push 0x00000002 ; push ecx ; push 0x00000001 ; call dword [0x10011130] ;  (1 found)
0x10021731: push 0x00000003 ; push 0x40000000 ; push 0x100119D0 ; call dword [0x10011150] ;  (1 found)
0x10021715: push 0x00000003 ; push 0xC0000000 ; push 0x100119D8 ; call dword [0x10011150] ;  (1 found)
0x1002172e: push 0x00000003 ; push esi ; push 0x00000003 ; push 0x40000000 ; push 0x100119D0 ; call dword [0x10011150] ;  (1 found)
0x10021712: push 0x00000003 ; push esi ; push 0x00000003 ; push 0xC0000000 ; push 0x100119D8 ; call dword [0x10011150] ;  (1 found)
0x10025d16: push 0x00000004 ; lea eax, dword [ebp-0x08] ; push eax ; push dword [ebp+0x10] ; push dword [ebp+0x0C] ; call dword [0x100111B4] ;  (1 found)
0x10029a3c: push 0x00000007 ; add byte [eax], al ; fstp st0 ; fld tword [0x1003379A] ; ret  ;  (1 found)
0x10012d45: push 0x00000007 ; push dword [0x1002FF44] ; call dword [0x10011098] ;  (1 found)
0x1001255d: push 0x00000008 ; call edi ;  (1 found)
0x10011edc: push 0x00000008 ; call edx ;  (1 found)
0x10011edb: push 0x00000008 ; call edx ;  (1 found)
0x10025bd7: push 0x00000008 ; push eax ; call dword [0x10011134] ;  (1 found)
0x1001bc61: push 0x00000008 ; push eax ; call dword [0x10011184] ;  (1 found)
0x100255fc: push 0x0000000B ; push ecx ; call dword [0x100111B4] ;  (1 found)
0x100255a9: push 0x0000000B ; push ecx ; call dword [0x100111B4] ;  (1 found)
0x10025650: push 0x0000000B ; push ecx ; call dword [0x100111B4] ;  (1 found)
0x10014ef0: push 0x00000010 ; push eax ; call dword [0x100110CC] ;  (1 found)
0x100256d1: push 0x00000040 ; push ecx ; push 0x00001002 ; push edx ; call dword [0x100111B4] ;  (1 found)
0x10011dc9: push 0x000000FF ; call dword [0x1002E004] ;  (1 found)
0x1001ad75: push 0x00000100 ; push dword [0x1002FF80] ; call dword [0x10011174] ;  (1 found)
0x1001fda7: push 0x00000100 ; push dword [0x1002FF80] ; call dword [0x10011174] ;  (1 found)
0x1002532a: push 0x00000100 ; push dword [ebp-0x04] ; push 0x00000001 ; call dword [0x10011130] ;  (1 found)
0x100252f3: push 0x00000100 ; push dword [ebp-0x04] ; push 0x00000001 ; call dword [0x10011130] ;  (1 found)
0x1001b52d: push 0x00000100 ; push eax ; call dword [0x10011174] ;  (1 found)
0x1001b55e: push 0x00000100 ; push eax ; call dword [0x10011174] ;  (1 found)
0x100252d4: push 0x00000100 ; push esi ; mov eax, dword [0x1002FF90] ; push ebx ; push eax ; call dword [0x10011134] ;  (1 found)
0x10025c46: push 0x00000100 ; push esi ; push dword [ebp+0x10] ; push dword [ebp+0x0C] ; call dword [0x100111B4] ;  (1 found)
0x10012ea7: push 0x00000104 ; call dword [0x100110A4] ;  (1 found)
0x100166c7: push 0x00000104 ; call dword [0x100110A4] ;  (1 found)
0x10011c75: push 0x00000104 ; lea eax, dword [ebp-0x00000104] ; push eax ; inc dword [0x1002E000] ; push dword [ebp+0x08] ; call dword [0x1001104C] ;  (1 found)
0x10020dab: push 0x00000104 ; mov esi, 0x10033950 ; push esi ; push 0x00000000 ; call dword [0x1001104C] ;  (1 found)
0x10021003: push 0x00000104 ; mov esi, 0x10033A58 ; push esi ; push 0x00000000 ; call dword [0x1001104C] ;  (1 found)
0x1001af21: push 0x00000200 ; push dword [0x1002FF80] ; call dword [0x10011174] ;  (1 found)
0x1001fe61: push 0x00000200 ; push dword [0x1002FF80] ; call dword [0x10011174] ;  (1 found)
0x1001b735: push 0x00000200 ; push eax ; call dword [0x10011174] ;  (1 found)
0x1001b704: push 0x00000200 ; push eax ; call dword [0x10011174] ;  (1 found)
0x1001ada7: push 0x00000210 ; push dword [0x1002FF90] ; call dword [0x10011170] ;  (1 found)
0x1001af53: push 0x00000210 ; push dword [0x1002FF90] ; call dword [0x10011170] ;  (1 found)
0x1001c225: push 0x00000220 ; push dword [0x1002FF90] ; call dword [0x10011170] ;  (1 found)
0x1001fff3: push 0x00000220 ; push dword [0x1002FF90] ; call dword [0x10011170] ;  (1 found)
0x10020aa6: push 0x00000220 ; push dword [0x1002FF90] ; call dword [0x10011170] ;  (1 found)
0x10020cf8: push 0x00000220 ; push dword [0x1002FF90] ; call dword [0x10011170] ;  (1 found)
0x10020b83: push 0x00000220 ; push eax ; call dword [0x10011170] ;  (1 found)
0x10017289: push 0x000003E8 ; dec ebx ; call dword [0x10011080] ;  (1 found)
0x1001f869: push 0x00000400 ; push dword [0x1002FF7C] ; call dword [0x10011174] ;  (1 found)
0x1001f895: push 0x00000400 ; push dword [0x1002FF7C] ; call dword [0x10011174] ;  (1 found)
0x100256a1: push 0x00001001 ; push ecx ; call dword [0x100111B4] ;  (1 found)
0x100256d4: push 0x00001002 ; push edx ; call dword [0x100111B4] ;  (1 found)
0x1002846d: push 0x0001F3E9 ; add byte [edi-0x73], dl ; test dword [edi+edi*8-0x01], edi ; call dword [ebx+0x50] ;  (1 found)
0x10021738: push 0x100119D0 ; call dword [0x10011150] ;  (1 found)
0x1002171c: push 0x100119D8 ; call dword [0x10011150] ;  (1 found)
0x10025bd2: push 0x10011A70 ; push 0x00000008 ; push eax ; call dword [0x10011134] ;  (1 found)
0x10012313: push 0x100123B7 ; call dword [0x1001105C] ;  (1 found)
0x10012bda: push 0x10012C0A ; push dword [esp+0x20] ; push 0x00000000 ; call dword [0x1001108C] ;  (1 found)
0x100169bb: push 0x100169CE ; call dword [0x1001111C] ;  (1 found)
0x10021733: push 0x40000000 ; push 0x100119D0 ; call dword [0x10011150] ;  (1 found)
0x10021717: push 0xC0000000 ; push 0x100119D8 ; call dword [0x10011150] ;  (1 found)
0x1001ad5d: push 0xC4830000 ; add al, 0x8B ; ret  ;  (1 found)
0x1001ad8e: push 0xC4830000 ; add al, 0x8B ; ret  ;  (1 found)
0x1001adc2: push 0xC4830000 ; add al, 0x8B ; ret  ;  (1 found)
0x1001601e: push 0xFFFFFFF4 ; call dword [0x100110F4] ;  (1 found)
0x1001608d: push 0xFFFFFFF4 ; call dword [0x100110F4] ;  (1 found)
0x1001fc71: push 0xFFFFFFFF ; call dword [eax-0x18] ;  (1 found)
0x1001a67d: push 0xFFFFFFFF ; mov eax, dword [0x1002FF90] ; push dword [ebp+0x0C] ; push 0x00000001 ; push eax ; call dword [0x10011134] ;  (1 found)
0x1001e7b9: push 0xFFFFFFFF ; mov eax, dword [0x1002FF90] ; push dword [ebp+0x0C] ; push 0x00000001 ; push eax ; call dword [0x10011134] ;  (1 found)
0x1001d0a6: push 0xFFFFFFFF ; or al, 0x01 ; push edi ; push eax ; push dword [0x1002FF90] ; call dword [0x10011134] ;  (1 found)
0x10025bd0: push 0xFFFFFFFF ; push 0x10011A70 ; push 0x00000008 ; push eax ; call dword [0x10011134] ;  (1 found)
0x1002039d: push 0xFFFFFFFF ; push dword [ebp+0x08] ; push 0x00000000 ; push dword [0x1002FF7C] ; call dword [0x1001116C] ;  (1 found)
0x1001b43d: push 0xFFFFFFFF ; push dword [ebp+0x08] ; push 0x00000001 ; push 0x00000000 ; call dword [0x1001116C] ;  (1 found)
0x1001b492: push 0xFFFFFFFF ; push dword [ebp+0x08] ; push 0x00000001 ; push dword [0x1002FF7C] ; call dword [0x1001116C] ;  (1 found)
0x1001a662: push 0xFFFFFFFF ; push dword [ebp+0x08] ; push 0x00000001 ; push dword [0x1002FF90] ; call dword [0x10011134] ;  (1 found)
0x1001e79e: push 0xFFFFFFFF ; push dword [ebp+0x08] ; push 0x00000001 ; push dword [0x1002FF90] ; call dword [0x10011134] ;  (1 found)
0x1001b969: push 0xFFFFFFFF ; push dword [ebp+0x08] ; push ecx ; push ecx ; call dword [0x10011170] ;  (1 found)
0x1001b93c: push 0xFFFFFFFF ; push dword [ebp+0x08] ; push ecx ; push ecx ; call dword [0x10011170] ;  (1 found)
0x1001f849: push 0xFFFFFFFF ; push dword [ebp+0x0C] ; push 0x00000001 ; push dword [0x1002FF90] ; call dword [0x10011134] ;  (1 found)
0x10020aa1: push 0xFFFFFFFF ; push dword [ebp+0x0C] ; push 0x00000220 ; push dword [0x1002FF90] ; call dword [0x10011170] ;  (1 found)
0x10020b7e: push 0xFFFFFFFF ; push dword [ebp+0x0C] ; push 0x00000220 ; push eax ; call dword [0x10011170] ;  (1 found)
0x1001d189: push 0xFFFFFFFF ; push dword [ebp+0x0C] ; push eax ; push dword [0x1002FF90] ; call dword [0x10011134] ;  (1 found)
0x10020c33: push 0xFFFFFFFF ; push dword [ebp+0x0C] ; push edi ; push dword [0x1002FF7C] ; call dword [0x10011174] ;  (1 found)
0x10020c1c: push 0xFFFFFFFF ; push dword [ebp+0x0C] ; push edi ; push eax ; call dword [0x10011174] ;  (1 found)
0x100224a0: push 0xFFFFFFFF ; push dword [ebp-0x20] ; call dword [0x100110C0] ;  (1 found)
0x10016b25: push 0xFFFFFFFF ; push ecx ; push 0x00000001 ; push dword [0x1002FF90] ; call dword [0x10011134] ;  (1 found)
0x1001aef0: push 0xFFFFFFFF ; push ecx ; push 0x00000001 ; push dword [0x1002FF90] ; call dword [0x10011134] ;  (1 found)
0x1001ad44: push 0xFFFFFFFF ; push ecx ; push 0x00000001 ; push dword [0x1002FF90] ; call dword [0x10011134] ;  (1 found)
0x1001e7d8: push 0xFFFFFFFF ; push edi ; push 0x00000000 ; push eax ; call dword [0x1001116C] ;  (1 found)
0x1001a69c: push 0xFFFFFFFF ; push edi ; push 0x00000001 ; push eax ; call dword [0x1001116C] ;  (1 found)
0x10018542: push 0xFFFFFFFF ; push edi ; push eax ; push dword [0x1002FF90] ; call dword [0x10011134] ;  (1 found)
0x100170dd: push 0xFFFFFFFF ; push edx ; push 0x00000001 ; push 0x00000000 ; call dword [0x10011134] ;  (1 found)
0x10017111: push 0xFFFFFFFF ; push edx ; push 0x00000001 ; push 0x00000000 ; call dword [0x10011134] ;  (1 found)
0x10017145: push 0xFFFFFFFF ; push edx ; push 0x00000001 ; push 0x00000000 ; call dword [0x10011134] ;  (1 found)
0x100143f0: push 0xFFFFFFFF ; push esi ; call dword [0x100110C0] ;  (1 found)
0x10025cde: push 0xFFFFFFFF ; push esi ; push ebx ; push dword [0x1002FF90] ; call dword [0x10011170] ;  (1 found)
0x10025cb4: push 0xFFFFFFFF ; push esi ; push ebx ; push eax ; call dword [0x10011170] ;  (1 found)
0x10013cbc: push cs ; movzx ecx, byte [eax+0x1001435F] ; jmp dword [0x1001432F+ecx*4] ;  (1 found)
0x100234ed: push cs ; movzx ecx, byte [eax+0x10023C3F] ; jmp dword [0x10023C0F+ecx*4] ;  (1 found)
0x10023ea7: push cs ; movzx ecx, byte [eax+0x100245A7] ; jmp dword [0x10024577+ecx*4] ;  (1 found)
0x10017288: push cs ; push 0x000003E8 ; dec ebx ; call dword [0x10011080] ;  (1 found)
0x10012bf3: push cs ; push edi ; call dword [0x10011088] ;  (1 found)
0x1001da7a: push cs ; push esi ; push dword [ebp-0x04] ; call dword [ebp+0x14] ;  (1 found)
0x1001da61: push cs ; push esi ; push dword [ebp-0x08] ; call dword [ebp+0x14] ;  (1 found)
0x100204f2: push cs ; sub eax, ecx ; pop esi ; pop ebp ; ret  ;  (1 found)
0x10021985: push ds ; add dl, byte [eax] ; jmp dword [0x10021E76+ecx*4] ;  (1 found)
0x10012e73: push ds ; call dword [0x10011058] ;  (1 found)
0x1001902f: push ds ; push dword [ebp-0x08] ; call dword [0x10011094] ;  (1 found)
0x1001b89b: push dword [0x1002F4C0+eax*4] ; call dword [0x10011180] ;  (1 found)
0x1001b871: push dword [0x1002F4C0+eax*4] ; call dword [0x10011180] ;  (1 found)
0x10018bf5: push dword [0x1002F4C0+eax*4] ; push dword [ebp-0x08] ; call dword [0x100110C4] ;  (1 found)
0x10015868: push dword [0x1002F4C0+edi*4] ; call dword [0x100110E0] ;  (1 found)
0x100157af: push dword [0x1002F4C0+edi*4] ; call dword [0x100110E4] ;  (1 found)
0x10018c0d: push dword [0x1002F4C0+esi*4] ; call dword [0x10011094] ;  (1 found)
0x10018d6e: push dword [0x1002F4C0+esi*4] ; call dword [0x10011094] ;  (1 found)
0x10018df6: push dword [0x1002F4C0+esi*4] ; call dword [0x10011094] ;  (1 found)
0x1002162c: push dword [0x1002FA40+eax*4] ; call dword [0x100111A8] ;  (1 found)
0x10021553: push dword [0x1002FA74] ; call esi ;  (1 found)
0x10012d47: push dword [0x1002FF44] ; call dword [0x10011098] ;  (1 found)
0x10012dc9: push dword [0x1002FF44] ; call dword [0x10011098] ;  (1 found)
0x1001621e: push dword [0x1002FF44] ; call dword [0x10011098] ;  (1 found)
0x10016286: push dword [0x1002FF44] ; call dword [0x10011098] ;  (1 found)
0x10012d39: push dword [0x1002FF44] ; call dword [0x100110A0] ;  (1 found)
0x10016210: push dword [0x1002FF44] ; call dword [0x100110A0] ;  (1 found)
0x10016234: push dword [0x1002FF44] ; call dword [0x100110F8] ;  (1 found)
0x10016309: push dword [0x1002FF44] ; call dword [0x10011100] ;  (1 found)
0x1001b499: push dword [0x1002FF7C] ; call dword [0x1001116C] ;  (1 found)
0x100203a4: push dword [0x1002FF7C] ; call dword [0x1001116C] ;  (1 found)
0x1001f86e: push dword [0x1002FF7C] ; call dword [0x10011174] ;  (1 found)
0x1001f89a: push dword [0x1002FF7C] ; call dword [0x10011174] ;  (1 found)
0x10020c39: push dword [0x1002FF7C] ; call dword [0x10011174] ;  (1 found)
0x1001ad7a: push dword [0x1002FF80] ; call dword [0x10011174] ;  (1 found)
0x1001af26: push dword [0x1002FF80] ; call dword [0x10011174] ;  (1 found)
0x1001fdac: push dword [0x1002FF80] ; call dword [0x10011174] ;  (1 found)
0x1001fe66: push dword [0x1002FF80] ; call dword [0x10011174] ;  (1 found)
0x10016b2a: push dword [0x1002FF90] ; call dword [0x10011134] ;  (1 found)
0x10018546: push dword [0x1002FF90] ; call dword [0x10011134] ;  (1 found)
0x1001aef5: push dword [0x1002FF90] ; call dword [0x10011134] ;  (1 found)
0x1001a669: push dword [0x1002FF90] ; call dword [0x10011134] ;  (1 found)
0x1001ad49: push dword [0x1002FF90] ; call dword [0x10011134] ;  (1 found)
0x1001c023: push dword [0x1002FF90] ; call dword [0x10011134] ;  (1 found)
0x1001cfc3: push dword [0x1002FF90] ; call dword [0x10011134] ;  (1 found)
0x1001cff2: push dword [0x1002FF90] ; call dword [0x10011134] ;  (1 found)
0x1001d0f9: push dword [0x1002FF90] ; call dword [0x10011134] ;  (1 found)
0x1001d0ac: push dword [0x1002FF90] ; call dword [0x10011134] ;  (1 found)
0x1001d18f: push dword [0x1002FF90] ; call dword [0x10011134] ;  (1 found)
0x1001d28d: push dword [0x1002FF90] ; call dword [0x10011134] ;  (1 found)
0x1001d2ce: push dword [0x1002FF90] ; call dword [0x10011134] ;  (1 found)
0x1001e7a5: push dword [0x1002FF90] ; call dword [0x10011134] ;  (1 found)
0x1001f850: push dword [0x1002FF90] ; call dword [0x10011134] ;  (1 found)
0x1001adac: push dword [0x1002FF90] ; call dword [0x10011170] ;  (1 found)
0x1001c22a: push dword [0x1002FF90] ; call dword [0x10011170] ;  (1 found)
0x1001af58: push dword [0x1002FF90] ; call dword [0x10011170] ;  (1 found)
0x1001fff8: push dword [0x1002FF90] ; call dword [0x10011170] ;  (1 found)
0x10020aab: push dword [0x1002FF90] ; call dword [0x10011170] ;  (1 found)
0x10020b05: push dword [0x1002FF90] ; call dword [0x10011170] ;  (1 found)
0x10020cfd: push dword [0x1002FF90] ; call dword [0x10011170] ;  (1 found)
0x10025ce2: push dword [0x1002FF90] ; call dword [0x10011170] ;  (1 found)
0x1002526e: push dword [0x1002FF90] ; call dword [0x100111B0] ;  (1 found)
0x1001dc02: push dword [0x10033CB8] ; call dword [0x100110CC] ;  (1 found)
0x10018768: push dword [0x10033CB8] ; call dword [0x1001114C] ;  (1 found)
0x1001c4cb: push dword [0x10033CB8] ; call dword [0x10011188] ;  (1 found)
0x100193f2: push dword [eax] ; call dword [0x1001115C] ;  (1 found)
0x10029e00: push dword [ebp+0x06] ; fadd st0, st1 ; fchs  ; fxch st0, st1 ; fdivrp st1, st0 ; ret  ;  (1 found)
0x10029df1: push dword [ebp+0x06] ; fld1  ; fadd st1, st0 ; faddp st1, st0 ; ret  ;  (1 found)
0x10011c87: push dword [ebp+0x08] ; call dword [0x1001104C] ;  (1 found)
0x100151d6: push dword [ebp+0x08] ; call dword [0x100110D0] ;  (1 found)
0x100152d4: push dword [ebp+0x08] ; call dword [0x100110D4] ;  (1 found)
0x1001610e: push dword [ebp+0x08] ; call dword [0x100110E4] ;  (1 found)
0x1001674a: push dword [ebp+0x08] ; call dword [0x10011108] ;  (1 found)
0x1001675c: push dword [ebp+0x08] ; call dword [0x10011108] ;  (1 found)
0x10018976: push dword [ebp+0x08] ; call dword [0x10011150] ;  (1 found)
0x10017365: push dword [ebp+0x08] ; call dword [ebp+0x18] ;  (1 found)
0x1001bbf4: push dword [ebp+0x08] ; call dword [ebp+0x18] ;  (1 found)
0x1001bc35: push dword [ebp+0x08] ; call dword [ebp+0x18] ;  (1 found)
0x1002039f: push dword [ebp+0x08] ; push 0x00000000 ; push dword [0x1002FF7C] ; call dword [0x1001116C] ;  (1 found)
0x1001b43f: push dword [ebp+0x08] ; push 0x00000001 ; push 0x00000000 ; call dword [0x1001116C] ;  (1 found)
0x1001b494: push dword [ebp+0x08] ; push 0x00000001 ; push dword [0x1002FF7C] ; call dword [0x1001116C] ;  (1 found)
0x1001a664: push dword [ebp+0x08] ; push 0x00000001 ; push dword [0x1002FF90] ; call dword [0x10011134] ;  (1 found)
0x1001e7a0: push dword [ebp+0x08] ; push 0x00000001 ; push dword [0x1002FF90] ; call dword [0x10011134] ;  (1 found)
0x1001b96b: push dword [ebp+0x08] ; push ecx ; push ecx ; call dword [0x10011170] ;  (1 found)
0x1001b93e: push dword [ebp+0x08] ; push ecx ; push ecx ; call dword [0x10011170] ;  (1 found)
0x10022456: push dword [ebp+0x0C] ; call dword [0x100111AC] ;  (1 found)
0x10022455: push dword [ebp+0x0C] ; call dword [0x100111AC] ;  (1 found)
0x10025c4f: push dword [ebp+0x0C] ; call dword [0x100111B4] ;  (1 found)
0x10025c9c: push dword [ebp+0x0C] ; call dword [0x100111B4] ;  (1 found)
0x10025c70: push dword [ebp+0x0C] ; call dword [0x100111B4] ;  (1 found)
0x10025d1f: push dword [ebp+0x0C] ; call dword [0x100111B4] ;  (1 found)
0x10020b00: push dword [ebp+0x0C] ; push 0x00000000 ; push dword [0x1002FF90] ; call dword [0x10011170] ;  (1 found)
0x1001f84b: push dword [ebp+0x0C] ; push 0x00000001 ; push dword [0x1002FF90] ; call dword [0x10011134] ;  (1 found)
0x1001a684: push dword [ebp+0x0C] ; push 0x00000001 ; push eax ; call dword [0x10011134] ;  (1 found)
0x1001e7c0: push dword [ebp+0x0C] ; push 0x00000001 ; push eax ; call dword [0x10011134] ;  (1 found)
0x10020aa3: push dword [ebp+0x0C] ; push 0x00000220 ; push dword [0x1002FF90] ; call dword [0x10011170] ;  (1 found)
0x10020b80: push dword [ebp+0x0C] ; push 0x00000220 ; push eax ; call dword [0x10011170] ;  (1 found)
0x1001601b: push dword [ebp+0x0C] ; push 0xFFFFFFF4 ; call dword [0x100110F4] ;  (1 found)
0x1002039a: push dword [ebp+0x0C] ; push 0xFFFFFFFF ; push dword [ebp+0x08] ; push 0x00000000 ; push dword [0x1002FF7C] ; call dword [0x1001116C] ;  (1 found)
0x1001b43a: push dword [ebp+0x0C] ; push 0xFFFFFFFF ; push dword [ebp+0x08] ; push 0x00000001 ; push 0x00000000 ; call dword [0x1001116C] ;  (1 found)
0x1001b48f: push dword [ebp+0x0C] ; push 0xFFFFFFFF ; push dword [ebp+0x08] ; push 0x00000001 ; push dword [0x1002FF7C] ; call dword [0x1001116C] ;  (1 found)
0x100170da: push dword [ebp+0x0C] ; push 0xFFFFFFFF ; push edx ; push 0x00000001 ; push 0x00000000 ; call dword [0x10011134] ;  (1 found)
0x1001710e: push dword [ebp+0x0C] ; push 0xFFFFFFFF ; push edx ; push 0x00000001 ; push 0x00000000 ; call dword [0x10011134] ;  (1 found)
0x10017142: push dword [ebp+0x0C] ; push 0xFFFFFFFF ; push edx ; push 0x00000001 ; push 0x00000000 ; call dword [0x10011134] ;  (1 found)
0x1001b898: push dword [ebp+0x0C] ; push dword [0x1002F4C0+eax*4] ; call dword [0x10011180] ;  (1 found)
0x10017362: push dword [ebp+0x0C] ; push dword [ebp+0x08] ; call dword [ebp+0x18] ;  (1 found)
0x1001dbfc: push dword [ebp+0x0C] ; push eax ; push 0x00000000 ; push dword [0x10033CB8] ; call dword [0x100110CC] ;  (1 found)
0x1001d18b: push dword [ebp+0x0C] ; push eax ; push dword [0x1002FF90] ; call dword [0x10011134] ;  (1 found)
0x10016758: push dword [ebp+0x0C] ; push eax ; push dword [ebp+0x08] ; call dword [0x10011108] ;  (1 found)
0x10018f4d: push dword [ebp+0x0C] ; push ecx ; push edx ; lea eax, dword [ebp-0x08] ; push eax ; call dword [0x10011154] ;  (1 found)
0x10020c35: push dword [ebp+0x0C] ; push edi ; push dword [0x1002FF7C] ; call dword [0x10011174] ;  (1 found)
0x10020c1e: push dword [ebp+0x0C] ; push edi ; push eax ; call dword [0x10011174] ;  (1 found)
0x1001379e: push dword [ebp+0x10] ; lea eax, dword [ebp-0x00000248] ; push eax ; call dword [0x1002FF5C] ;  (1 found)
0x10021caa: push dword [ebp+0x10] ; lea eax, dword [ebp-0x00000248] ; push eax ; call dword [0x1002FF5C] ;  (1 found)
0x10022d49: push dword [ebp+0x10] ; lea eax, dword [ebp-0x0000044C] ; push eax ; call dword [0x1002FF5C] ;  (1 found)
0x10016747: push dword [ebp+0x10] ; push dword [ebp+0x08] ; call dword [0x10011108] ;  (1 found)
0x10025c4c: push dword [ebp+0x10] ; push dword [ebp+0x0C] ; call dword [0x100111B4] ;  (1 found)
0x10025c6d: push dword [ebp+0x10] ; push dword [ebp+0x0C] ; call dword [0x100111B4] ;  (1 found)
0x10025c99: push dword [ebp+0x10] ; push dword [ebp+0x0C] ; call dword [0x100111B4] ;  (1 found)
0x10025d1c: push dword [ebp+0x10] ; push dword [ebp+0x0C] ; call dword [0x100111B4] ;  (1 found)
0x1001b895: push dword [ebp+0x10] ; push dword [ebp+0x0C] ; push dword [0x1002F4C0+eax*4] ; call dword [0x10011180] ;  (1 found)
0x10012af3: push dword [ebp+0x16] ; call dword [0x10011058] ;  (1 found)
0x100151e4: push dword [ebp+0x49] ; call dword [0x10011058] ;  (1 found)
0x10019039: push dword [ebp-0x04] ; call dword [0x10011094] ;  (1 found)
0x1001da7c: push dword [ebp-0x04] ; call dword [ebp+0x14] ;  (1 found)
0x1002532f: push dword [ebp-0x04] ; push 0x00000001 ; call dword [0x10011130] ;  (1 found)
0x100252f8: push dword [ebp-0x04] ; push 0x00000001 ; call dword [0x10011130] ;  (1 found)
0x10016283: push dword [ebp-0x04] ; push dword [0x1002FF44] ; call dword [0x10011098] ;  (1 found)
0x1001f891: push dword [ebp-0x04] ; push esi ; push 0x00000400 ; push dword [0x1002FF7C] ; call dword [0x10011174] ;  (1 found)
0x10019030: push dword [ebp-0x08] ; call dword [0x10011094] ;  (1 found)
0x10018bca: push dword [ebp-0x08] ; call dword [0x100110C4] ;  (1 found)
0x10018bfc: push dword [ebp-0x08] ; call dword [0x100110C4] ;  (1 found)
0x10018d65: push dword [ebp-0x08] ; call dword [0x100110C4] ;  (1 found)
0x10018ded: push dword [ebp-0x08] ; call dword [0x100110C4] ;  (1 found)
0x1001da63: push dword [ebp-0x08] ; call dword [ebp+0x14] ;  (1 found)
0x10018bf2: push dword [ebp-0x08] ; push dword [0x1002F4C0+eax*4] ; push dword [ebp-0x08] ; call dword [0x100110C4] ;  (1 found)
0x10012dc6: push dword [ebp-0x08] ; push dword [0x1002FF44] ; call dword [0x10011098] ;  (1 found)
0x10018d5f: push dword [ebp-0x08] ; push dword [ebp-0x24] ; push dword [ebp-0x08] ; call dword [0x100110C4] ;  (1 found)
0x10018de7: push dword [ebp-0x08] ; push dword [ebp-0x24] ; push dword [ebp-0x08] ; call dword [0x100110C4] ;  (1 found)
0x10018bc6: push dword [ebp-0x08] ; push ecx ; push dword [ebp-0x08] ; call dword [0x100110C4] ;  (1 found)
0x1001896e: push dword [ebp-0x08] ; push ecx ; push edi ; push dword [ebp-0x0C] ; push dword [ebp+0x08] ; call dword [0x10011150] ;  (1 found)
0x1001633d: push dword [ebp-0x08] ; push esi ; push eax ; call dword [0x100110FC] ;  (1 found)
0x10018973: push dword [ebp-0x0C] ; push dword [ebp+0x08] ; call dword [0x10011150] ;  (1 found)
0x10022453: push dword [ebp-0x10] ; push dword [ebp+0x0C] ; call dword [0x100111AC] ;  (1 found)
0x1002411f: push dword [ebp-0x14] ; push dword [ebp-0x24] ; push eax ; call dword [0x1002FF60] ;  (1 found)
0x100224e1: push dword [ebp-0x1C] ; call dword [0x10011094] ;  (1 found)
0x100224b8: push dword [ebp-0x20] ; call dword [0x10011094] ;  (1 found)
0x100224c9: push dword [ebp-0x20] ; call dword [0x10011094] ;  (1 found)
0x100224af: push dword [ebp-0x20] ; call dword [0x100110BC] ;  (1 found)
0x100224a2: push dword [ebp-0x20] ; call dword [0x100110C0] ;  (1 found)
0x10018da5: push dword [ebp-0x24] ; call dword [0x10011094] ;  (1 found)
0x10013ebb: push dword [ebp-0x24] ; movsx eax, byte [ebp-0x03] ; dec eax ; push eax ; call dword [0x1002FF60] ;  (1 found)
0x1002371a: push dword [ebp-0x24] ; movsx eax, byte [ebp-0x03] ; dec eax ; push eax ; call dword [0x1002FF60] ;  (1 found)
0x10018d62: push dword [ebp-0x24] ; push dword [ebp-0x08] ; call dword [0x100110C4] ;  (1 found)
0x10018dea: push dword [ebp-0x24] ; push dword [ebp-0x08] ; call dword [0x100110C4] ;  (1 found)
0x10024122: push dword [ebp-0x24] ; push eax ; call dword [0x1002FF60] ;  (1 found)
0x10025bbb: push dword [ebp-0x29] ; pop edi ; pop esi ; ret  ;  (1 found)
0x100257ce: push dword [ebp-0x34] ; xor ax, ax ; pop edi ; pop esi ; pop ebx ; ret  ;  (1 found)
0x1002577d: push dword [ebp-0x34] ; xor ax, ax ; pop edi ; pop esi ; pop ebx ; ret  ;  (1 found)
0x1001de8a: push dword [ebx] ; call dword [edi+0x57] ;  (1 found)
0x10017a98: push dword [ebx] ; rcr byte [ebp+0x5F], 0x0000005E ; pop ebx ; ret  ;  (1 found)
0x1001255a: push dword [ecx+0x4C] ; push 0x00000008 ; call edi ;  (1 found)
0x10012901: push dword [ecx+edx+0x50] ; call dword [0x1001106C] ;  (1 found)
0x10012cdf: push dword [edi+eax+0x50] ; call dword [0x10011094] ;  (1 found)
0x10021751: push dword [edi+eax+0x50] ; call dword [0x10011094] ;  (1 found)
0x10021762: push dword [edi+eax+0x50] ; call dword [0x10011094] ;  (1 found)
0x10021619: push dword [edi] ; call dword [0x100111A4] ;  (1 found)
0x100194c9: push dword [edx] ; call dword [0x1001115C] ;  (1 found)
0x10012c64: push dword [esi+0x40] ; call dword [esi+0x3C] ;  (1 found)
0x10012bf1: push dword [esi+ecx+0x57] ; call dword [0x10011088] ;  (1 found)
0x10011eda: push dword [esi] ; push 0x00000008 ; call edx ;  (1 found)
0x1001718d: push dword [esp+0x04] ; call dword [0x10011048] ;  (1 found)
0x10012ae7: push dword [esp+0x04] ; call dword [0x1001107C] ;  (1 found)
0x10012f5b: push dword [esp+0x04] ; call dword [0x1001107C] ;  (1 found)
0x100153ba: push dword [esp+0x04] ; call dword [0x100110D8] ;  (1 found)
0x10017198: push dword [esp+0x04] ; call dword [0x10011138] ;  (1 found)
0x1001955e: push dword [esp+0x04] ; call dword [0x10011160] ;  (1 found)
0x10019724: push dword [esp+0x04] ; call dword [0x10011164] ;  (1 found)
0x1001b29a: push dword [esp+0x04] ; call dword [0x1001117C] ;  (1 found)
0x10018762: push dword [esp+0x04] ; push 0x00000000 ; push dword [0x10033CB8] ; call dword [0x1001114C] ;  (1 found)
0x1001c4c5: push dword [esp+0x04] ; push 0x00000000 ; push dword [0x10033CB8] ; call dword [0x10011188] ;  (1 found)
0x10012b9b: push dword [esp+0x08] ; call dword [0x10011084] ;  (1 found)
0x10012f78: push dword [esp+0x08] ; call dword [0x100110AC] ;  (1 found)
0x10018667: push dword [esp+0x08] ; call dword [0x10011148] ;  (1 found)
0x1001dc14: push dword [esp+0x08] ; call dword [0x1001118C] ;  (1 found)
0x10012b97: push dword [esp+0x08] ; push dword [esp+0x08] ; call dword [0x10011084] ;  (1 found)
0x1001dc10: push dword [esp+0x08] ; push dword [esp+0x08] ; call dword [0x1001118C] ;  (1 found)
0x1001201e: push dword [esp+0x0C] ; call dword [0x10011054] ;  (1 found)
0x10012df8: push dword [esp+0x14] ; call dword [0x100110A8] ;  (1 found)
0x1001716b: push dword [esp+0x14] ; call dword [esp+0x28] ;  (1 found)
0x10011ef6: push dword [esp+0x18] ; call dword [0x10011050] ;  (1 found)
0x10013a96: push dword [esp+0x1C] ; push edx ; call dword [0x100110B8] ;  (1 found)
0x10012bdf: push dword [esp+0x20] ; push 0x00000000 ; call dword [0x1001108C] ;  (1 found)
0x100263b2: push eax ; adc al, 0x89 ; pop eax ; adc byte [ebx-0x75], bl ; in eax, 0x5D ; ret  ;  (1 found)
0x10011efc: push eax ; adc byte [ecx], al ; adc byte [ebp+0x5F], bl ; pop esi ; pop ebx ; ret  ;  (1 found)
0x100227ba: push eax ; adc byte [edi+0x5E], bl ; pop ebx ; mov esp, ebp ; pop ebp ; ret  ;  (1 found)
0x1002879c: push eax ; add al, 0x8B ; retn 0xE281 ;  (1 found)
0x10026089: push eax ; add dword [edx-0x74F777F6], ecx ; retn 0x0D8A ;  (1 found)
0x10016717: push eax ; call dword [0x1001103C] ;  (1 found)
0x10011ca9: push eax ; call dword [0x10011048] ;  (1 found)
0x100128c8: push eax ; call dword [0x10011064] ;  (1 found)
0x10012941: push eax ; call dword [0x10011064] ;  (1 found)
0x10012a11: push eax ; call dword [0x10011064] ;  (1 found)
0x10012c39: push eax ; call dword [0x10011064] ;  (1 found)
0x10012904: push eax ; call dword [0x1001106C] ;  (1 found)
0x1001291c: push eax ; call dword [0x10011070] ;  (1 found)
0x10012994: push eax ; call dword [0x10011070] ;  (1 found)
0x10012b8f: push eax ; call dword [0x10011080] ;  (1 found)
0x10012ce2: push eax ; call dword [0x10011094] ;  (1 found)
0x10013196: push eax ; call dword [0x10011094] ;  (1 found)
0x10021765: push eax ; call dword [0x10011094] ;  (1 found)
0x10021754: push eax ; call dword [0x10011094] ;  (1 found)
0x10012d63: push eax ; call dword [0x1001109C] ;  (1 found)
0x100130c8: push eax ; call dword [0x100110B0] ;  (1 found)
0x10013219: push eax ; call dword [0x100110B4] ;  (1 found)
0x10014633: push eax ; call dword [0x100110C4] ;  (1 found)
0x100144fb: push eax ; call dword [0x100110C4] ;  (1 found)
0x1001462c: push eax ; call dword [0x100110C8] ;  (1 found)
0x100144e3: push eax ; call dword [0x100110C8] ;  (1 found)
0x100144f4: push eax ; call dword [0x100110C8] ;  (1 found)
0x1001461b: push eax ; call dword [0x100110C8] ;  (1 found)
0x10014ef2: push eax ; call dword [0x100110CC] ;  (1 found)
0x100212df: push eax ; call dword [0x100110D4] ;  (1 found)
0x100212ac: push eax ; call dword [0x100110D8] ;  (1 found)
0x100212ef: push eax ; call dword [0x100110D8] ;  (1 found)
0x100153fe: push eax ; call dword [0x100110DC] ;  (1 found)
0x100159b2: push eax ; call dword [0x100110E8] ;  (1 found)
0x100159b3: push eax ; call dword [0x100110E8] ;  (1 found)
0x10016780: push eax ; call dword [0x100110E8] ;  (1 found)
0x1001677f: push eax ; call dword [0x100110E8] ;  (1 found)
0x1001a402: push eax ; call dword [0x100110E8] ;  (1 found)
0x1001a881: push eax ; call dword [0x100110E8] ;  (1 found)
0x10015ea9: push eax ; call dword [0x100110EC] ;  (1 found)
0x10016341: push eax ; call dword [0x100110FC] ;  (1 found)
0x100168bd: push eax ; call dword [0x10011118] ;  (1 found)
0x10016906: push eax ; call dword [0x10011118] ;  (1 found)
0x10016941: push eax ; call dword [0x1001111C] ;  (1 found)
0x10016a47: push eax ; call dword [0x1001111C] ;  (1 found)
0x10016a1c: push eax ; call dword [0x1001111C] ;  (1 found)
0x100169c6: push eax ; call dword [0x10011120] ;  (1 found)
0x10016948: push eax ; call dword [0x10011124] ;  (1 found)
0x10016a23: push eax ; call dword [0x10011124] ;  (1 found)
0x10016a4e: push eax ; call dword [0x10011124] ;  (1 found)
0x10016921: push eax ; call dword [0x10011128] ;  (1 found)
0x100169ea: push eax ; call dword [0x1001112C] ;  (1 found)
0x1001a689: push eax ; call dword [0x10011134] ;  (1 found)
0x1001e7c5: push eax ; call dword [0x10011134] ;  (1 found)
0x100252e0: push eax ; call dword [0x10011134] ;  (1 found)
0x10025bd9: push eax ; call dword [0x10011134] ;  (1 found)
0x1001726e: push eax ; call dword [0x1001113C] ;  (1 found)
0x10017250: push eax ; call dword [0x10011140] ;  (1 found)
0x1001740f: push eax ; call dword [0x10011144] ;  (1 found)
0x10018f55: push eax ; call dword [0x10011154] ;  (1 found)
0x1001a6a1: push eax ; call dword [0x1001116C] ;  (1 found)
0x1001e7dd: push eax ; call dword [0x1001116C] ;  (1 found)
0x10020b88: push eax ; call dword [0x10011170] ;  (1 found)
0x10025cb8: push eax ; call dword [0x10011170] ;  (1 found)
0x1001b563: push eax ; call dword [0x10011174] ;  (1 found)
0x1001b532: push eax ; call dword [0x10011174] ;  (1 found)
0x1001b709: push eax ; call dword [0x10011174] ;  (1 found)
0x1001b73a: push eax ; call dword [0x10011174] ;  (1 found)
0x10020c22: push eax ; call dword [0x10011174] ;  (1 found)
0x1001b01a: push eax ; call dword [0x10011178] ;  (1 found)
0x10021538: push eax ; call dword [0x10011180] ;  (1 found)
0x1001c4a0: push eax ; call dword [0x10011184] ;  (1 found)
0x1001bc63: push eax ; call dword [0x10011184] ;  (1 found)
0x1001fa49: push eax ; call dword [0x10011190] ;  (1 found)
0x1001fa48: push eax ; call dword [0x10011190] ;  (1 found)
0x1002146b: push eax ; call dword [0x10011194] ;  (1 found)
0x100213dd: push eax ; call dword [0x10011198] ;  (1 found)
0x10025586: push eax ; call dword [0x100111B8] ;  (1 found)
0x10025547: push eax ; call dword [0x100111B8] ;  (1 found)
0x100255d9: push eax ; call dword [0x100111B8] ;  (1 found)
0x10025631: push eax ; call dword [0x100111B8] ;  (1 found)
0x100137a7: push eax ; call dword [0x1002FF5C] ;  (1 found)
0x10021cb3: push eax ; call dword [0x1002FF5C] ;  (1 found)
0x10022d52: push eax ; call dword [0x1002FF5C] ;  (1 found)
0x10013ec3: push eax ; call dword [0x1002FF60] ;  (1 found)
0x10023722: push eax ; call dword [0x1002FF60] ;  (1 found)
0x10024125: push eax ; call dword [0x1002FF60] ;  (1 found)
0x1001378d: push eax ; call dword [0x1002FF64] ;  (1 found)
0x10021c99: push eax ; call dword [0x1002FF64] ;  (1 found)
0x10022d38: push eax ; call dword [0x1002FF64] ;  (1 found)
0x1002810e: push eax ; call dword [ebp+0x10] ;  (1 found)
0x100284ad: push eax ; call dword [ebp+0x10] ;  (1 found)
0x1002858a: push eax ; call dword [ebp+0x10] ;  (1 found)
0x10028647: push eax ; call dword [ebp+0x10] ;  (1 found)
0x10021560: push eax ; call esi ;  (1 found)
0x100215af: push eax ; call esi ;  (1 found)
0x1002158c: push eax ; call esi ;  (1 found)
0x100215a7: push eax ; call esi ;  (1 found)
0x100215b7: push eax ; call esi ;  (1 found)
0x10011c80: push eax ; inc dword [0x1002E000] ; push dword [ebp+0x08] ; call dword [0x1001104C] ;  (1 found)
0x100190a2: push eax ; lea edx, dword [ebp-0x01] ; push 0x00000001 ; push edx ; push ecx ; call dword [0x100110B8] ;  (1 found)
0x1002147f: push eax ; mov byte [ebx], 0xFFFFFF81 ; call dword [0x100110E4] ;  (1 found)
0x10025326: push eax ; mov dword [ebp-0x0C], eax ; push 0x00000100 ; push dword [ebp-0x04] ; push 0x00000001 ; call dword [0x10011130] ;  (1 found)
0x10016337: push eax ; mov eax, dword [0x1002FF44] ; push dword [ebp-0x08] ; push esi ; push eax ; call dword [0x100110FC] ;  (1 found)
0x100212d9: push eax ; mov eax, dword [0x10033B5C] ; push eax ; call dword [0x100110D4] ;  (1 found)
0x1001b891: push eax ; mov eax, dword [ebp+0x08] ; push dword [ebp+0x10] ; push dword [ebp+0x0C] ; push dword [0x1002F4C0+eax*4] ; call dword [0x10011180] ;  (1 found)
0x1002154a: push eax ; mov esi, dword [0x1001119C] ; call esi ;  (1 found)
0x10016820: push eax ; mov word [ebp-0x02], dx ; call dword [0x10011114] ;  (1 found)
0x10012e0a: push eax ; push 0x00000000 ; call dword [0x100110A4] ;  (1 found)
0x1001dbff: push eax ; push 0x00000000 ; push dword [0x10033CB8] ; call dword [0x100110CC] ;  (1 found)
0x100165fc: push eax ; push 0x00000001 ; call dword [0x100110A4] ;  (1 found)
0x1001cbff: push eax ; push 0x00000001 ; push ecx ; push 0x00000001 ; call dword [0x10011130] ;  (1 found)
0x10016230: push eax ; push 0x00000001 ; push ecx ; push dword [0x1002FF44] ; call dword [0x100110F8] ;  (1 found)
0x10016b4e: push eax ; push 0x00000002 ; push ecx ; push 0x00000001 ; call dword [0x10011130] ;  (1 found)
0x100255a8: push eax ; push 0x0000000B ; push ecx ; call dword [0x100111B4] ;  (1 found)
0x100255fb: push eax ; push 0x0000000B ; push ecx ; call dword [0x100111B4] ;  (1 found)
0x1002564f: push eax ; push 0x0000000B ; push ecx ; call dword [0x100111B4] ;  (1 found)
0x100252f2: push eax ; push 0x00000100 ; push dword [ebp-0x04] ; push 0x00000001 ; call dword [0x10011130] ;  (1 found)
0x10012ea6: push eax ; push 0x00000104 ; call dword [0x100110A4] ;  (1 found)
0x100166c6: push eax ; push 0x00000104 ; call dword [0x100110A4] ;  (1 found)
0x1001c224: push eax ; push 0x00000220 ; push dword [0x1002FF90] ; call dword [0x10011170] ;  (1 found)
0x1001fff2: push eax ; push 0x00000220 ; push dword [0x1002FF90] ; call dword [0x10011170] ;  (1 found)
0x10020cf7: push eax ; push 0x00000220 ; push dword [0x1002FF90] ; call dword [0x10011170] ;  (1 found)
0x100256a0: push eax ; push 0x00001001 ; push ecx ; call dword [0x100111B4] ;  (1 found)
0x10025bcf: push eax ; push 0xFFFFFFFF ; push 0x10011A70 ; push 0x00000008 ; push eax ; call dword [0x10011134] ;  (1 found)
0x10025cdd: push eax ; push 0xFFFFFFFF ; push esi ; push ebx ; push dword [0x1002FF90] ; call dword [0x10011170] ;  (1 found)
0x10012d38: push eax ; push dword [0x1002FF44] ; call dword [0x100110A0] ;  (1 found)
0x1001620f: push eax ; push dword [0x1002FF44] ; call dword [0x100110A0] ;  (1 found)
0x10016308: push eax ; push dword [0x1002FF44] ; call dword [0x10011100] ;  (1 found)
0x10018545: push eax ; push dword [0x1002FF90] ; call dword [0x10011134] ;  (1 found)
0x1001c022: push eax ; push dword [0x1002FF90] ; call dword [0x10011134] ;  (1 found)
0x1001cfc2: push eax ; push dword [0x1002FF90] ; call dword [0x10011134] ;  (1 found)
0x1001cff1: push eax ; push dword [0x1002FF90] ; call dword [0x10011134] ;  (1 found)
0x1001d0ab: push eax ; push dword [0x1002FF90] ; call dword [0x10011134] ;  (1 found)
0x1001d18e: push eax ; push dword [0x1002FF90] ; call dword [0x10011134] ;  (1 found)
0x1001d2cd: push eax ; push dword [0x1002FF90] ; call dword [0x10011134] ;  (1 found)
0x1001d28c: push eax ; push dword [0x1002FF90] ; call dword [0x10011134] ;  (1 found)
0x1002526d: push eax ; push dword [0x1002FF90] ; call dword [0x100111B0] ;  (1 found)
0x100151d5: push eax ; push dword [ebp+0x08] ; call dword [0x100110D0] ;  (1 found)
0x100152d3: push eax ; push dword [ebp+0x08] ; call dword [0x100110D4] ;  (1 found)
0x1001675b: push eax ; push dword [ebp+0x08] ; call dword [0x10011108] ;  (1 found)
0x10025d1b: push eax ; push dword [ebp+0x10] ; push dword [ebp+0x0C] ; call dword [0x100111B4] ;  (1 found)
0x10018d5e: push eax ; push dword [ebp-0x08] ; push dword [ebp-0x24] ; push dword [ebp-0x08] ; call dword [0x100110C4] ;  (1 found)
0x10018de6: push eax ; push dword [ebp-0x08] ; push dword [ebp-0x24] ; push dword [ebp-0x08] ; call dword [0x100110C4] ;  (1 found)
0x10018bc5: push eax ; push dword [ebp-0x08] ; push ecx ; push dword [ebp-0x08] ; call dword [0x100110C4] ;  (1 found)
0x100224ae: push eax ; push dword [ebp-0x20] ; call dword [0x100110BC] ;  (1 found)
0x10012f77: push eax ; push dword [esp+0x08] ; call dword [0x100110AC] ;  (1 found)
0x1001b86b: push eax ; push ebx ; push ecx ; mov eax, dword [ebp+0x08] ; push dword [0x1002F4C0+eax*4] ; call dword [0x10011180] ;  (1 found)
0x10015937: push eax ; push ecx ; call dword [0x100110DC] ;  (1 found)
0x100158ac: push eax ; push ecx ; call dword [0x100110DC] ;  (1 found)
0x100158ef: push eax ; push ecx ; call dword [0x100110DC] ;  (1 found)
0x1001a1fa: push eax ; push ecx ; call dword [0x100110DC] ;  (1 found)
0x1001a1ab: push eax ; push ecx ; call dword [0x100110DC] ;  (1 found)
0x1001a24b: push eax ; push ecx ; call dword [0x100110DC] ;  (1 found)
0x1001376c: push eax ; push ecx ; call dword [0x1002FF58] ;  (1 found)
0x10021c78: push eax ; push ecx ; call dword [0x1002FF58] ;  (1 found)
0x10022d16: push eax ; push ecx ; call dword [0x1002FF58] ;  (1 found)
0x100212be: push eax ; push edi ; call dword [0x100110D0] ;  (1 found)
0x1001d0f5: push eax ; push edi ; push 0x00000001 ; push dword [0x1002FF90] ; call dword [0x10011134] ;  (1 found)
0x1001ad73: push eax ; push edx ; push 0x00000100 ; push dword [0x1002FF80] ; call dword [0x10011174] ;  (1 found)
0x1001af1f: push eax ; push edx ; push 0x00000200 ; push dword [0x1002FF80] ; call dword [0x10011174] ;  (1 found)
0x1001ada5: push eax ; push edx ; push 0x00000210 ; push dword [0x1002FF90] ; call dword [0x10011170] ;  (1 found)
0x1001af51: push eax ; push edx ; push 0x00000210 ; push dword [0x1002FF90] ; call dword [0x10011170] ;  (1 found)
0x10014400: push eax ; push esi ; call dword [0x100110BC] ;  (1 found)
0x1001a0e6: push eax ; push esi ; call dword [0x100110D0] ;  (1 found)
0x10014ee9: push eax ; push esi ; mov eax, dword [0x10033CB8] ; push 0x00000010 ; push eax ; call dword [0x100110CC] ;  (1 found)
0x1001f867: push eax ; push esi ; push 0x00000400 ; push dword [0x1002FF7C] ; call dword [0x10011174] ;  (1 found)
0x10028c43: push ebp ; clc  ; leave  ; ret  ;  (1 found)
0x1001bd66: push ebp ; cld  ; pop esi ; mov esp, ebp ; pop ebp ; ret  ;  (1 found)
0x1001cd54: push ebp ; cld  ; pop esi ; mov esp, ebp ; pop ebp ; ret  ;  (1 found)
0x10021683: push ebp ; lea ebp, dword [ebx+0x10] ; call dword [edi+ecx*4+0x04] ;  (1 found)
0x10022d10: push ebp ; mov eax, 0x52D3BE0F ; push eax ; push ecx ; call dword [0x1002FF58] ;  (1 found)
0x10015e26: push ebp ; mov eax, dword [eax] ; push edx ; mov word [ebp-0x02], 0x0000 ; mov word [ebp-0x04], ax ; call dword [0x100110F0] ;  (1 found)
0x10021625: push ebp ; mov eax, dword [esp+0x08] ; mov ebp, esp ; push dword [0x1002FA40+eax*4] ; call dword [0x100111A8] ;  (1 found)
0x1001485f: push ebp ; mov ebp, dword [ebx+0x10] ; call dword [edi+ecx*4+0x04] ;  (1 found)
0x10016777: push ebp ; mov ebp, esp ; sub esp, 0x10 ; lea eax, dword [ebp-0x10] ; push eax ; call dword [0x100110E8] ;  (1 found)
0x1001fa40: push ebp ; mov ebp, esp ; sub esp, 0x10 ; lea eax, dword [ebp-0x10] ; push eax ; call dword [0x10011190] ;  (1 found)
0x10013765: push ebp ; mov esp, 0xF755BE0F ; push edx ; push eax ; push ecx ; call dword [0x1002FF58] ;  (1 found)
0x10021c71: push ebp ; mov esp, 0xF755BE0F ; push edx ; push eax ; push ecx ; call dword [0x1002FF58] ;  (1 found)
0x10013769: push ebp ; not dword [edx+0x50] ; push ecx ; call dword [0x1002FF58] ;  (1 found)
0x10021c75: push ebp ; not dword [edx+0x50] ; push ecx ; call dword [0x1002FF58] ;  (1 found)
0x1001a880: push ebp ; push eax ; call dword [0x100110E8] ;  (1 found)
0x1002b9ed: push ebx ; add byte [eax], al ; ret  ;  (1 found)
0x10012e2f: push ebx ; call dword [0x100110A4] ;  (1 found)
0x10012f07: push ebx ; call dword [0x100110A8] ;  (1 found)
0x10019248: push ebx ; call dword [0x10011158] ;  (1 found)
0x1001db3f: push ebx ; call dword [ebp+0x14] ;  (1 found)
0x1001cf26: push ebx ; call eax ;  (1 found)
0x100213d7: push ebx ; lea eax, dword [ebp-0x48] ; push esi ; push edi ; push eax ; call dword [0x10011198] ;  (1 found)
0x100193ec: push ebx ; mov dword [ebp-0x14], eax ; push edi ; push ecx ; push dword [eax] ; call dword [0x1001115C] ;  (1 found)
0x1001a279: push ebx ; mov dword [edi+0x1C], eax ; call dword [0x100110D8] ;  (1 found)
0x1001e7d7: push ebx ; push 0xFFFFFFFF ; push edi ; push 0x00000000 ; push eax ; call dword [0x1001116C] ;  (1 found)
0x1001a69b: push ebx ; push 0xFFFFFFFF ; push edi ; push 0x00000001 ; push eax ; call dword [0x1001116C] ;  (1 found)
0x10025cb3: push ebx ; push 0xFFFFFFFF ; push esi ; push ebx ; push eax ; call dword [0x10011170] ;  (1 found)
0x10025ce1: push ebx ; push dword [0x1002FF90] ; call dword [0x10011170] ;  (1 found)
0x1001f890: push ebx ; push dword [ebp-0x04] ; push esi ; push 0x00000400 ; push dword [0x1002FF7C] ; call dword [0x10011174] ;  (1 found)
0x10012d62: push ebx ; push eax ; call dword [0x1001109C] ;  (1 found)
0x100252df: push ebx ; push eax ; call dword [0x10011134] ;  (1 found)
0x10025cb7: push ebx ; push eax ; call dword [0x10011170] ;  (1 found)
0x1001b86c: push ebx ; push ecx ; mov eax, dword [ebp+0x08] ; push dword [0x1002F4C0+eax*4] ; call dword [0x10011180] ;  (1 found)
0x1001667b: push ebx ; push edi ; call dword [0x100110A4] ;  (1 found)
0x1001977b: push ebx ; push esi ; call dword [ebx+0x04] ;  (1 found)
0x1001b55c: push ebx ; push esi ; push 0x00000100 ; push eax ; call dword [0x10011174] ;  (1 found)
0x1001b52b: push ebx ; push esi ; push 0x00000100 ; push eax ; call dword [0x10011174] ;  (1 found)
0x1001b702: push ebx ; push esi ; push 0x00000200 ; push eax ; call dword [0x10011174] ;  (1 found)
0x1001b733: push ebx ; push esi ; push 0x00000200 ; push eax ; call dword [0x10011174] ;  (1 found)
0x10025c97: push ebx ; push esi ; push dword [ebp+0x10] ; push dword [ebp+0x0C] ; call dword [0x100111B4] ;  (1 found)
0x1001a87d: push ebx ; push esi ; push edi ; push ebp ; push eax ; call dword [0x100110E8] ;  (1 found)
0x10029eb3: push ebx ; ret  ;  (1 found)
0x1002b9e5: push ecx ; add byte [eax], al ; mov ebx, 0xBA000051 ; push ebx ; add byte [eax], al ; ret  ;  (1 found)
0x10027182: push ecx ; add cl, byte [ecx+0x5E5F0679] ; pop ebx ; mov esp, ebp ; pop ebp ; ret  ;  (1 found)
0x100190a9: push ecx ; call dword [0x100110B8] ;  (1 found)
0x10015938: push ecx ; call dword [0x100110DC] ;  (1 found)
0x100158ad: push ecx ; call dword [0x100110DC] ;  (1 found)
0x100158f0: push ecx ; call dword [0x100110DC] ;  (1 found)
0x1001a1ac: push ecx ; call dword [0x100110DC] ;  (1 found)
0x1001a24c: push ecx ; call dword [0x100110DC] ;  (1 found)
0x1001a1fb: push ecx ; call dword [0x100110DC] ;  (1 found)
0x1001b96f: push ecx ; call dword [0x10011170] ;  (1 found)
0x1001b942: push ecx ; call dword [0x10011170] ;  (1 found)
0x100255fe: push ecx ; call dword [0x100111B4] ;  (1 found)
0x100255ab: push ecx ; call dword [0x100111B4] ;  (1 found)
0x10025652: push ecx ; call dword [0x100111B4] ;  (1 found)
0x100256a6: push ecx ; call dword [0x100111B4] ;  (1 found)
0x1001376d: push ecx ; call dword [0x1002FF58] ;  (1 found)
0x10021c79: push ecx ; call dword [0x1002FF58] ;  (1 found)
0x10022d17: push ecx ; call dword [0x1002FF58] ;  (1 found)
0x10011ee7: push ecx ; call edx ;  (1 found)
0x10016713: push ecx ; lea eax, dword [ebp-0x04] ; push eax ; call dword [0x1001103C] ;  (1 found)
0x1001bbf0: push ecx ; mov dword [ebp-0x04], ecx ; push dword [ebp+0x08] ; call dword [ebp+0x18] ;  (1 found)
0x10012d5b: push ecx ; mov eax, dword [0x1002FF44] ; push edx ; push ebx ; push eax ; call dword [0x1001109C] ;  (1 found)
0x1001b86d: push ecx ; mov eax, dword [ebp+0x08] ; push dword [0x1002F4C0+eax*4] ; call dword [0x10011180] ;  (1 found)
0x10018bed: push ecx ; mov eax, dword [ebp+ebx*4-0x20] ; push dword [ebp-0x08] ; push dword [0x1002F4C0+eax*4] ; push dword [ebp-0x08] ; call dword [0x100110C4] ;  (1 found)
0x10015e7f: push ecx ; mov word [ebp-0x02], 0x0000 ; mov word [ebp-0x04], ax ; call dword [0x100110F0] ;  (1 found)
0x1001585f: push ecx ; mov word [ebx+0x08], ax ; mov word [ebx+0x02], ax ; push dword [0x1002F4C0+edi*4] ; call dword [0x100110E0] ;  (1 found)
0x1001c01f: push ecx ; or al, 0x01 ; push eax ; push dword [0x1002FF90] ; call dword [0x10011134] ;  (1 found)
0x10012add: push ecx ; or byte [ebp+0x05], dh ; mov eax, 0x00000001 ; ret  ;  (1 found)
0x10016b51: push ecx ; push 0x00000001 ; call dword [0x10011130] ;  (1 found)
0x1001cc02: push ecx ; push 0x00000001 ; call dword [0x10011130] ;  (1 found)
0x1002a631: push ecx ; push 0x00000001 ; push 0x00000000 ; push edi ; call dword [0x100111C4] ;  (1 found)
0x10016b27: push ecx ; push 0x00000001 ; push dword [0x1002FF90] ; call dword [0x10011134] ;  (1 found)
0x1001aef2: push ecx ; push 0x00000001 ; push dword [0x1002FF90] ; call dword [0x10011134] ;  (1 found)
0x1001ad46: push ecx ; push 0x00000001 ; push dword [0x1002FF90] ; call dword [0x10011134] ;  (1 found)
0x10020cf4: push ecx ; push 0x00000001 ; push eax ; push 0x00000220 ; push dword [0x1002FF90] ; call dword [0x10011170] ;  (1 found)
0x1001fda6: push ecx ; push 0x00000100 ; push dword [0x1002FF80] ; call dword [0x10011174] ;  (1 found)
0x1001fe60: push ecx ; push 0x00000200 ; push dword [0x1002FF80] ; call dword [0x10011174] ;  (1 found)
0x100256d3: push ecx ; push 0x00001002 ; push edx ; call dword [0x100111B4] ;  (1 found)
0x10016233: push ecx ; push dword [0x1002FF44] ; call dword [0x100110F8] ;  (1 found)
0x100193f1: push ecx ; push dword [eax] ; call dword [0x1001115C] ;  (1 found)
0x10018bc9: push ecx ; push dword [ebp-0x08] ; call dword [0x100110C4] ;  (1 found)
0x100194c8: push ecx ; push dword [edx] ; call dword [0x1001115C] ;  (1 found)
0x10013a95: push ecx ; push dword [esp+0x1C] ; push edx ; call dword [0x100110B8] ;  (1 found)
0x100153fd: push ecx ; push eax ; call dword [0x100110DC] ;  (1 found)
0x100153fc: push ecx ; push eax ; call dword [0x100110DC] ;  (1 found)
0x1001ada4: push ecx ; push eax ; push edx ; push 0x00000210 ; push dword [0x1002FF90] ; call dword [0x10011170] ;  (1 found)
0x1001af50: push ecx ; push eax ; push edx ; push 0x00000210 ; push dword [0x1002FF90] ; call dword [0x10011170] ;  (1 found)
0x10019247: push ecx ; push ebx ; call dword [0x10011158] ;  (1 found)
0x1001b941: push ecx ; push ecx ; call dword [0x10011170] ;  (1 found)
0x1001b96e: push ecx ; push ecx ; call dword [0x10011170] ;  (1 found)
0x10018971: push ecx ; push edi ; push dword [ebp-0x0C] ; push dword [ebp+0x08] ; call dword [0x10011150] ;  (1 found)
0x10018f50: push ecx ; push edx ; lea eax, dword [ebp-0x08] ; push eax ; call dword [0x10011154] ;  (1 found)
0x10021536: push ecx ; push edx ; push eax ; call dword [0x10011180] ;  (1 found)
0x100189b6: push edi ; add esi, 0x41 ; call dword [0x10011094] ;  (1 found)
0x10012bf4: push edi ; call dword [0x10011088] ;  (1 found)
0x1001667c: push edi ; call dword [0x100110A4] ;  (1 found)
0x100212bf: push edi ; call dword [0x100110D0] ;  (1 found)
0x100189ab: push edi ; call dword [0x100110E4] ;  (1 found)
0x1002a636: push edi ; call dword [0x100111C4] ;  (1 found)
0x10027f08: push edi ; call dword [eax-0x01] ;  (1 found)
0x1001c4b6: push edi ; call eax ;  (1 found)
0x1001bc79: push edi ; call eax ;  (1 found)
0x1001a3fd: push edi ; mov bx, 0x0064 ; push eax ; call dword [0x100110E8] ;  (1 found)
0x100163ca: push edi ; mov dl, 0x00 ; add byte [ebx-0x3974FB3C], al ; pop esi ; ret  ;  (1 found)
0x100168f8: push edi ; mov dword [ebp-0x18], esp ; push 0x00000000 ; push 0x00000000 ; call dword [0x1001111C] ;  (1 found)
0x1001c498: push edi ; mov eax, dword [0x10033CB8] ; push 0x00000000 ; push eax ; call dword [0x10011184] ;  (1 found)
0x1001bc5b: push edi ; mov eax, dword [0x10033CB8] ; push 0x00000008 ; push eax ; call dword [0x10011184] ;  (1 found)
0x10012c31: push edi ; mov esi, dword [ebp+0x08] ; mov dword [ebp-0x18], esp ; push esi ; push eax ; call dword [0x10011064] ;  (1 found)
0x1001e7da: push edi ; push 0x00000000 ; push eax ; call dword [0x1001116C] ;  (1 found)
0x1001d0f6: push edi ; push 0x00000001 ; push dword [0x1002FF90] ; call dword [0x10011134] ;  (1 found)
0x1001a69e: push edi ; push 0x00000001 ; push eax ; call dword [0x1001116C] ;  (1 found)
0x10020daa: push edi ; push 0x00000104 ; mov esi, 0x10033950 ; push esi ; push 0x00000000 ; call dword [0x1001104C] ;  (1 found)
0x10021002: push edi ; push 0x00000104 ; mov esi, 0x10033A58 ; push esi ; push 0x00000000 ; call dword [0x1001104C] ;  (1 found)
0x1001a661: push edi ; push 0xFFFFFFFF ; push dword [ebp+0x08] ; push 0x00000001 ; push dword [0x1002FF90] ; call dword [0x10011134] ;  (1 found)
0x1001e79d: push edi ; push 0xFFFFFFFF ; push dword [ebp+0x08] ; push 0x00000001 ; push dword [0x1002FF90] ; call dword [0x10011134] ;  (1 found)
0x10020c38: push edi ; push dword [0x1002FF7C] ; call dword [0x10011174] ;  (1 found)
0x10025c6c: push edi ; push dword [ebp+0x10] ; push dword [ebp+0x0C] ; call dword [0x100111B4] ;  (1 found)
0x10018972: push edi ; push dword [ebp-0x0C] ; push dword [ebp+0x08] ; call dword [0x10011150] ;  (1 found)
0x10020c21: push edi ; push eax ; call dword [0x10011174] ;  (1 found)
0x100213dc: push edi ; push eax ; call dword [0x10011198] ;  (1 found)
0x10018544: push edi ; push eax ; push dword [0x1002FF90] ; call dword [0x10011134] ;  (1 found)
0x1001d0aa: push edi ; push eax ; push dword [0x1002FF90] ; call dword [0x10011134] ;  (1 found)
0x100151d4: push edi ; push eax ; push dword [ebp+0x08] ; call dword [0x100110D0] ;  (1 found)
0x100152d2: push edi ; push eax ; push dword [ebp+0x08] ; call dword [0x100110D4] ;  (1 found)
0x1001a87f: push edi ; push ebp ; push eax ; call dword [0x100110E8] ;  (1 found)
0x1001db3e: push edi ; push ebx ; call dword [ebp+0x14] ;  (1 found)
0x1001b55b: push edi ; push ebx ; push esi ; push 0x00000100 ; push eax ; call dword [0x10011174] ;  (1 found)
0x1001b732: push edi ; push ebx ; push esi ; push 0x00000200 ; push eax ; call dword [0x10011174] ;  (1 found)
0x100193f0: push edi ; push ecx ; push dword [eax] ; call dword [0x1001115C] ;  (1 found)
0x10025c6b: push edi ; push edi ; push dword [ebp+0x10] ; push dword [ebp+0x0C] ; call dword [0x100111B4] ;  (1 found)
0x100217de: push edi ; push es ; add byte [eax], al ; jmp dword [0x10021E56+eax*4] ;  (1 found)
0x1001670f: push edx ; add ecx, 0x08 ; push ecx ; lea eax, dword [ebp-0x04] ; push eax ; call dword [0x1001103C] ;  (1 found)
0x10013a9a: push edx ; call dword [0x100110B8] ;  (1 found)
0x1001a13b: push edx ; call dword [0x10011168] ;  (1 found)
0x100256d9: push edx ; call dword [0x100111B4] ;  (1 found)
0x1001f9a2: push edx ; inc ebx ; add byte [eax], al ; mov esp, ebp ; pop ebp ; ret  ;  (1 found)
0x10018f51: push edx ; lea eax, dword [ebp-0x08] ; push eax ; call dword [0x10011154] ;  (1 found)
0x1001cfba: push edx ; mov eax, dword [0x1002FF98] ; or al, 0x01 ; push eax ; push dword [0x1002FF90] ; call dword [0x10011134] ;  (1 found)
0x1001d365: push edx ; mov edx, ecx ; and edx, 0x03 ; shr ecx, 0x02 ; rep movsd  ; jmp dword [0x1001D378+edx*4] ;  (1 found)
0x1001d4b5: push edx ; mov edx, ecx ; and edx, 0x03 ; shr ecx, 0x02 ; rep movsd  ; jmp dword [0x1001D4C8+edx*4] ;  (1 found)
0x10015e2a: push edx ; mov word [ebp-0x02], 0x0000 ; mov word [ebp-0x04], ax ; call dword [0x100110F0] ;  (1 found)
0x1001d289: push edx ; or al, 0x01 ; push eax ; push dword [0x1002FF90] ; call dword [0x10011134] ;  (1 found)
0x1001d2ca: push edx ; or al, 0x01 ; push eax ; push dword [0x1002FF90] ; call dword [0x10011134] ;  (1 found)
0x10012ada: push edx ; or al, 0x39 ; push ecx ; or byte [ebp+0x05], dh ; mov eax, 0x00000001 ; ret  ;  (1 found)
0x100170df: push edx ; push 0x00000001 ; push 0x00000000 ; call dword [0x10011134] ;  (1 found)
0x10017113: push edx ; push 0x00000001 ; push 0x00000000 ; call dword [0x10011134] ;  (1 found)
0x10017147: push edx ; push 0x00000001 ; push 0x00000000 ; call dword [0x10011134] ;  (1 found)
0x10020afd: push edx ; push 0x00000001 ; push dword [ebp+0x0C] ; push 0x00000000 ; push dword [0x1002FF90] ; call dword [0x10011170] ;  (1 found)
0x1001c221: push edx ; push 0x00000001 ; push eax ; push 0x00000220 ; push dword [0x1002FF90] ; call dword [0x10011170] ;  (1 found)
0x1001ffef: push edx ; push 0x00000001 ; push eax ; push 0x00000220 ; push dword [0x1002FF90] ; call dword [0x10011170] ;  (1 found)
0x1001ad74: push edx ; push 0x00000100 ; push dword [0x1002FF80] ; call dword [0x10011174] ;  (1 found)
0x1001af20: push edx ; push 0x00000200 ; push dword [0x1002FF80] ; call dword [0x10011174] ;  (1 found)
0x1001ada6: push edx ; push 0x00000210 ; push dword [0x1002FF90] ; call dword [0x10011170] ;  (1 found)
0x1001af52: push edx ; push 0x00000210 ; push dword [0x1002FF90] ; call dword [0x10011170] ;  (1 found)
0x1001b968: push edx ; push 0xFFFFFFFF ; push dword [ebp+0x08] ; push ecx ; push ecx ; call dword [0x10011170] ;  (1 found)
0x1001b93b: push edx ; push 0xFFFFFFFF ; push dword [ebp+0x08] ; push ecx ; push ecx ; call dword [0x10011170] ;  (1 found)
0x10021537: push edx ; push eax ; call dword [0x10011180] ;  (1 found)
0x1001cff0: push edx ; push eax ; push dword [0x1002FF90] ; call dword [0x10011134] ;  (1 found)
0x1001376b: push edx ; push eax ; push ecx ; call dword [0x1002FF58] ;  (1 found)
0x10021c77: push edx ; push eax ; push ecx ; call dword [0x1002FF58] ;  (1 found)
0x10022d15: push edx ; push eax ; push ecx ; call dword [0x1002FF58] ;  (1 found)
0x10012d61: push edx ; push ebx ; push eax ; call dword [0x1001109C] ;  (1 found)
0x100190a8: push edx ; push ecx ; call dword [0x100110B8] ;  (1 found)
0x100252b7: push es ; add byte [eax+0x0F], al ; mov dh, 0x4A ; add dword [ebx], edi ; enter 0xF37D, 0x83 ; retn 0x8002 ;  (1 found)
0x10012216: push es ; add byte [eax], al ; add eax, 0x08 ; ret  ;  (1 found)
0x1001221f: push es ; add byte [eax], al ; add eax, 0x0C ; ret  ;  (1 found)
0x100132d9: push es ; add byte [eax], al ; jmp dword [0x10013938+eax*4] ;  (1 found)
0x100217df: push es ; add byte [eax], al ; jmp dword [0x10021E56+eax*4] ;  (1 found)
0x100228be: push es ; add byte [eax], al ; jmp dword [0x10022F2D+eax*4] ;  (1 found)
0x100204b7: push es ; add byte [eax], al ; pop edi ; pop esi ; pop ebp ; ret  ;  (1 found)
0x10017bcb: push es ; add byte [ebx+0x5B5E5FC7], cl ; ret  ;  (1 found)
0x10017ef0: push es ; add byte [ebx+0x5B5E5FC7], cl ; ret  ;  (1 found)
0x100174e1: push es ; add byte [esi+0x5D], bl ; ret  ;  (1 found)
0x100181f3: push es ; and byte [edi+0x5E], bl ; pop ebx ; pop ebp ; ret  ;  (1 found)
0x100143ac: push es ; and esi, 0xFFFFFFDF ; lea eax, dword [esi-0x07] ; pop esi ; ret  ;  (1 found)
0x10023c8c: push es ; and esi, 0xFFFFFFDF ; lea eax, dword [esi-0x07] ; pop esi ; ret  ;  (1 found)
0x10016726: push es ; call dword [0x10011058] ;  (1 found)
0x10016833: push es ; call dword [0x10011058] ;  (1 found)
0x10018679: push es ; call dword [0x10011058] ;  (1 found)
0x10017421: push es ; call dword [0x10011058] ;  (1 found)
0x10019570: push es ; call dword [0x10011058] ;  (1 found)
0x1001b2ac: push es ; call dword [0x10011058] ;  (1 found)
0x1001dc26: push es ; call dword [0x10011058] ;  (1 found)
0x10012c56: push es ; call dword [0x10032BDC] ;  (1 found)
0x10012cbe: push es ; call dword [0x10032BE0] ;  (1 found)
0x10029e02: push es ; fadd st0, st1 ; fchs  ; fxch st0, st1 ; fdivrp st1, st0 ; ret  ;  (1 found)
0x10029df3: push es ; fld1  ; fadd st1, st0 ; faddp st1, st0 ; ret  ;  (1 found)
0x100171aa: push es ; jmp dword [0x10011058] ;  (1 found)
0x100159af: push es ; lea eax, dword [ebp-0x10] ; push eax ; call dword [0x100110E8] ;  (1 found)
0x1001762d: push es ; mov al, byte [eax+0x01] ; mov byte [ecx+0x01], al ; ret  ;  (1 found)
0x10011ed5: push es ; mov al, byte [eax] ; add byte [eax], al ; push dword [esi] ; push 0x00000008 ; call edx ;  (1 found)
0x10025802: push es ; mov ax, word [eax+0x100329C0] ; ret  ;  (1 found)
0x100225b5: push es ; mov dword [esi+0x04], 0x00000000 ; pop esi ; pop ebx ; ret  ;  (1 found)
0x10023079: push es ; mov dword [esi+0x08], eax ; and byte [esi+0x0C], 0xFFFFFFF7 ; mov dword [esi+0x04], eax ; pop esi ; ret  ;  (1 found)
0x10011ed3: push es ; mov dword [esi], 0x0000008A ; push dword [esi] ; push 0x00000008 ; call edx ;  (1 found)
0x1001975e: push es ; mov eax, dword [eax+0x0C] ; mov dword [edx+0x1C], eax ; sub eax, eax ; ret  ;  (1 found)
0x100224da: push es ; mov eax, dword [ebp-0x20] ; mov dword [ebp-0x08], eax ; push dword [ebp-0x1C] ; call dword [0x10011094] ;  (1 found)
0x10016a3d: push es ; mov word [ebp-0x16], 0x0004 ; lea eax, dword [ebp-0x20] ; push eax ; call dword [0x1001111C] ;  (1 found)
0x1001a392: push es ; or si, ax ; mov ax, si ; pop esi ; pop ebx ; ret  ;  (1 found)
0x10015a0d: push es ; pop esi ; mov esp, ebp ; pop ebp ; ret  ;  (1 found)
0x100272ac: push es ; pop esi ; ret  ;  (1 found)
0x10011ee6: push es ; push ecx ; call edx ;  (1 found)
0x10012565: push es ; push esi ; call edi ;  (1 found)
0x1001775c: push es ; sub esi, 0x000000A2 ; mov eax, esi ; pop esi ; ret  ;  (1 found)
0x10014448: push esi ; call dword [0x10011094] ;  (1 found)
0x10014401: push esi ; call dword [0x100110BC] ;  (1 found)
0x100143f2: push esi ; call dword [0x100110C0] ;  (1 found)
0x1001a0e7: push esi ; call dword [0x100110D0] ;  (1 found)
0x1001977c: push esi ; call dword [ebx+0x04] ;  (1 found)
0x10012566: push esi ; call edi ;  (1 found)
0x10012413: push esi ; call edi ;  (1 found)
0x100128c2: push esi ; mov eax, dword [0x1002E148] ; push eax ; call dword [0x10011064] ;  (1 found)
0x100128c1: push esi ; mov eax, dword [0x1002E148] ; push eax ; call dword [0x10011064] ;  (1 found)
0x1001293b: push esi ; mov eax, dword [0x1002E148] ; push eax ; call dword [0x10011064] ;  (1 found)
0x10012916: push esi ; mov eax, dword [0x1002E148] ; push eax ; call dword [0x10011070] ;  (1 found)
0x10021544: push esi ; mov eax, dword [0x1002FA84] ; push eax ; mov esi, dword [0x1001119C] ; call esi ;  (1 found)
0x100252d9: push esi ; mov eax, dword [0x1002FF90] ; push ebx ; push eax ; call dword [0x10011134] ;  (1 found)
0x10014eea: push esi ; mov eax, dword [0x10033CB8] ; push 0x00000010 ; push eax ; call dword [0x100110CC] ;  (1 found)
0x10020db5: push esi ; push 0x00000000 ; call dword [0x1001104C] ;  (1 found)
0x1002100d: push esi ; push 0x00000000 ; call dword [0x1001104C] ;  (1 found)
0x10021730: push esi ; push 0x00000003 ; push 0x40000000 ; push 0x100119D0 ; call dword [0x10011150] ;  (1 found)
0x10021714: push esi ; push 0x00000003 ; push 0xC0000000 ; push 0x100119D8 ; call dword [0x10011150] ;  (1 found)
0x1001b52c: push esi ; push 0x00000100 ; push eax ; call dword [0x10011174] ;  (1 found)
0x1001b55d: push esi ; push 0x00000100 ; push eax ; call dword [0x10011174] ;  (1 found)
0x1001b734: push esi ; push 0x00000200 ; push eax ; call dword [0x10011174] ;  (1 found)
0x1001b703: push esi ; push 0x00000200 ; push eax ; call dword [0x10011174] ;  (1 found)
0x1001f868: push esi ; push 0x00000400 ; push dword [0x1002FF7C] ; call dword [0x10011174] ;  (1 found)
0x1001f894: push esi ; push 0x00000400 ; push dword [0x1002FF7C] ; call dword [0x10011174] ;  (1 found)
0x10012312: push esi ; push 0x100123B7 ; call dword [0x1001105C] ;  (1 found)
0x10012bd9: push esi ; push 0x10012C0A ; push dword [esp+0x20] ; push 0x00000000 ; call dword [0x1001108C] ;  (1 found)
0x1001f848: push esi ; push 0xFFFFFFFF ; push dword [ebp+0x0C] ; push 0x00000001 ; push dword [0x1002FF90] ; call dword [0x10011134] ;  (1 found)
0x10020aa0: push esi ; push 0xFFFFFFFF ; push dword [ebp+0x0C] ; push 0x00000220 ; push dword [0x1002FF90] ; call dword [0x10011170] ;  (1 found)
0x10020b7d: push esi ; push 0xFFFFFFFF ; push dword [ebp+0x0C] ; push 0x00000220 ; push eax ; call dword [0x10011170] ;  (1 found)
0x10020c1b: push esi ; push 0xFFFFFFFF ; push dword [ebp+0x0C] ; push edi ; push eax ; call dword [0x10011174] ;  (1 found)
0x1001bc34: push esi ; push dword [ebp+0x08] ; call dword [ebp+0x18] ;  (1 found)
0x10025c4b: push esi ; push dword [ebp+0x10] ; push dword [ebp+0x0C] ; call dword [0x100111B4] ;  (1 found)
0x10025c98: push esi ; push dword [ebp+0x10] ; push dword [ebp+0x0C] ; call dword [0x100111B4] ;  (1 found)
0x1001da7b: push esi ; push dword [ebp-0x04] ; call dword [ebp+0x14] ;  (1 found)
0x1001da62: push esi ; push dword [ebp-0x08] ; call dword [ebp+0x14] ;  (1 found)
0x10022452: push esi ; push dword [ebp-0x10] ; push dword [ebp+0x0C] ; call dword [0x100111AC] ;  (1 found)
0x1001716a: push esi ; push dword [esp+0x14] ; call dword [esp+0x28] ;  (1 found)
0x10012c38: push esi ; push eax ; call dword [0x10011064] ;  (1 found)
0x10016340: push esi ; push eax ; call dword [0x100110FC] ;  (1 found)
0x1001d0f4: push esi ; push eax ; push edi ; push 0x00000001 ; push dword [0x1002FF90] ; call dword [0x10011134] ;  (1 found)
0x10021682: push esi ; push ebp ; lea ebp, dword [ebx+0x10] ; call dword [edi+ecx*4+0x04] ;  (1 found)
0x1001485e: push esi ; push ebp ; mov ebp, dword [ebx+0x10] ; call dword [edi+ecx*4+0x04] ;  (1 found)
0x10012e2e: push esi ; push ebx ; call dword [0x100110A4] ;  (1 found)
0x10025ce0: push esi ; push ebx ; push dword [0x1002FF90] ; call dword [0x10011170] ;  (1 found)
0x10025cb6: push esi ; push ebx ; push eax ; call dword [0x10011170] ;  (1 found)
0x1001a3fc: push esi ; push edi ; mov bx, 0x0064 ; push eax ; call dword [0x100110E8] ;  (1 found)
0x100168f7: push esi ; push edi ; mov dword [ebp-0x18], esp ; push 0x00000000 ; push 0x00000000 ; call dword [0x1001111C] ;  (1 found)
0x100213db: push esi ; push edi ; push eax ; call dword [0x10011198] ;  (1 found)
0x100151d3: push esi ; push edi ; push eax ; push dword [ebp+0x08] ; call dword [0x100110D0] ;  (1 found)
0x100152d1: push esi ; push edi ; push eax ; push dword [ebp+0x08] ; call dword [0x100110D4] ;  (1 found)
0x1001a87e: push esi ; push edi ; push ebp ; push eax ; call dword [0x100110E8] ;  (1 found)
0x10022451: push esi ; push esi ; push dword [ebp-0x10] ; push dword [ebp+0x0C] ; call dword [0x100111AC] ;  (1 found)
0x10015eba: push esi ; ret  ;  (1 found)
0x10012ea3: push esi ; xor esi, esi ; push eax ; push 0x00000104 ; call dword [0x100110A4] ;  (1 found)
0x10012024: push esp ; adc byte [ecx], al ; adc byte [esi+0x5B], bl ; ret  ;  (1 found)
0x1002893a: push esp ; add dword [eax], eax ; add byte [ebx+0x5D5E08C4], al ; ret  ;  (1 found)
0x10012a5f: push esp ; and al, 0x10 ; mov dword [edx], eax ; mov eax, 0x00000003 ; ret  ;  (1 found)
0x100153d4: push ss ; add byte [eax], al ; add byte [eax-0x00000001], bh ; ret  ;  (1 found)
0x1001983d: push ss ; add byte [eax], al ; add byte [eax-0x00000001], bh ; ret  ;  (1 found)
0x10012af5: push ss ; call dword [0x10011058] ;  (1 found)
0x1001611a: push ss ; call dword [0x10011058] ;  (1 found)
0x1002562c: push ss ; movzx eax, word [ebp-0x04] ; push eax ; call dword [0x100111B8] ;  (1 found)
0x1002a6ed: push ss ; pop esi ; pop ebx ; mov esp, ebp ; pop ebp ; ret  ;  (1 found)
0x1001977a: push ss ; push ebx ; push esi ; call dword [ebx+0x04] ;  (1 found)
0x1001db3d: push ss ; push edi ; push ebx ; call dword [ebp+0x14] ;  (1 found)
0x10029cec: push ss ; ret  ;  (1 found)
0x100212ba: pushad  ; cmp eax, dword [ebx] ; adc byte [eax+0x57], dl ; call dword [0x100110D0] ;  (1 found)
0x10021305: pushad  ; cmp eax, dword [ebx] ; adc byte [ebx+0x5E5F2CC0], al ; ret  ;  (1 found)
0x1001adc1: pushad  ; push 0xC4830000 ; add al, 0x8B ; ret  ;  (1 found)
0x1002154d: pushfd  ; adc dword [ecx], eax ; adc bh, bh ; salc  ; push dword [0x1002FA74] ; call esi ;  (1 found)
0x10029b71: pushfd  ; add byte [eax], al ; add byte [esi-0x75], ah ; test dword [edi+edi*8-0x01], ebx ; jmp dword [esi-0x7D] ;  (1 found)
0x100158ab: rcl byte [eax+0x51], 1  ; call dword [0x100110DC] ;  (1 found)
0x10027e88: rcl byte [eax], 0xFFFFFFEB ; or eax, 0x1B01F983 ; shl byte [0x000000F8], 0xFFFFFF83 ; ror byte [eax], 0x0000005D ; ret  ;  (1 found)
0x10017a81: rcl dword [eax-0x18], 0xFFFFFFC6 ; xor dword [eax], eax ; add byte [ebx+0x3B6604C4], al ; ret  ;  (1 found)
0x10022d14: rcl dword [edx+0x50], cl ; push ecx ; call dword [0x1002FF58] ;  (1 found)
0x10018759: rcr byte [ebp+0x5F], 0x0000005E ; pop ebx ; add esp, 0x04 ; ret  ;  (1 found)
0x10017a9a: rcr byte [ebp+0x5F], 0x0000005E ; pop ebx ; ret  ;  (1 found)
0x1001ca35: rcr byte [ebp+0x5F], 0x0000005E ; pop ebx ; ret  ;  (1 found)
0x1001fcaf: rcr byte [ebp+0x5F], 0x0000005E ; pop ebx ; ret  ;  (1 found)
0x10016768: rcr byte [ebp-0x3D], 0xFFFFFFFF ; and eax, 0x1001110C ; jmp dword [0x10011110] ;  (1 found)
0x1001f3a4: rcr byte [ebx+0x5F], 0x0000005E ; leave  ; ret  ;  (1 found)
0x10021739: rcr byte [ecx], 1  ; add dword [eax], edx ; call dword [0x10011150] ;  (1 found)
0x1001fd1a: rcr byte [edi+0x5E], 0x0000005B ; add esp, 0x04 ; ret  ;  (1 found)
0x10012590: rcr byte [edi+0x5E], 0x0000005B ; mov esp, ebp ; pop ebp ; ret  ;  (1 found)
0x100153b2: rcr byte [edi+0x5E], 0x0000005B ; mov esp, ebp ; pop ebp ; ret  ;  (1 found)
0x10018dd5: rcr byte [edi+0x5E], 0x0000005B ; mov esp, ebp ; pop ebp ; ret  ;  (1 found)
0x100172d5: rcr byte [edi+0x5E], 0x0000005B ; mov esp, ebp ; pop ebp ; ret  ;  (1 found)
0x10019556: rcr byte [edi+0x5E], 0x0000005B ; mov esp, ebp ; pop ebp ; ret  ;  (1 found)
0x1001a2c0: rcr byte [edi+0x5E], 0x0000005B ; mov esp, ebp ; pop ebp ; ret  ;  (1 found)
0x1001bc23: rcr byte [edi+0x5E], 0x0000005B ; mov esp, ebp ; pop ebp ; ret  ;  (1 found)
0x1001df52: rcr byte [edi+0x5E], 0x0000005B ; mov esp, ebp ; pop ebp ; ret  ;  (1 found)
0x1001f78f: rcr byte [edi+0x5E], 0x0000005B ; mov esp, ebp ; pop ebp ; ret  ;  (1 found)
0x100209da: rcr byte [edi+0x5E], 0x0000005B ; mov esp, ebp ; pop ebp ; ret  ;  (1 found)
0x10017dfc: rcr byte [edi+0x5E], 0x0000005B ; pop ebp ; ret  ;  (1 found)
0x10018116: rcr byte [edi+0x5E], 0x0000005B ; pop ebp ; ret  ;  (1 found)
0x10017184: rcr byte [edi+0x5E], 0x0000005B ; ret  ;  (1 found)
0x10017c67: rcr byte [edi+0x5E], 0x0000005B ; ret  ;  (1 found)
0x10017fb9: rcr byte [edi+0x5E], 0x0000005B ; ret  ;  (1 found)
0x10018481: rcr byte [edi+0x5E], 0x0000005B ; ret  ;  (1 found)
0x1001ac41: rcr byte [edi+0x5E], 0x0000005B ; ret  ;  (1 found)
0x1001b27d: rcr byte [edi+0x5E], 0x0000005B ; ret  ;  (1 found)
0x1001fbe0: rcr byte [edi+0x5E], 0x0000005B ; ret  ;  (1 found)
0x10024f31: rcr byte [edi+0x5E], 0x0000005B ; ret  ;  (1 found)
0x100257d3: rcr byte [edi+0x5E], 0x0000005B ; ret  ;  (1 found)
0x10025782: rcr byte [edi+0x5E], 0x0000005B ; ret  ;  (1 found)
0x1001d2f8: rcr byte [edi+0x5E], 0x0000005D ; ret  ;  (1 found)
0x100163a7: rcr byte [edi+0x5E], 0xFFFFFF8B ; in eax, 0x5D ; ret  ;  (1 found)
0x10014327: rcr byte [edi+0x5E], 1  ; pop ebx ; mov esp, ebp ; pop ebp ; ret  ;  (1 found)
0x10023c07: rcr byte [edi+0x5E], 1  ; pop ebx ; mov esp, ebp ; pop ebp ; ret  ;  (1 found)
0x1001f2e1: rcr byte [esi+0x5F], 0xFFFFFFC9 ; ret  ;  (1 found)
0x10029e9c: rcr cl, cl ; int1  ; ret  ;  (1 found)
0x1001865f: rcr dword [ebx+0x5E], 0x5F ; leave  ; ret  ;  (1 found)
0x1001a7ab: rcr dword [ebx+0x5E], 0x5F ; leave  ; ret  ;  (1 found)
0x1001f27e: rcr dword [ebx+0x5E], 0x5F ; leave  ; ret  ;  (1 found)
0x1001adeb: rcr dword [edi+0x5B], 0xFFFFFF8B ; in eax, 0x5D ; ret  ;  (1 found)
0x1001af97: rcr dword [edi+0x5B], 0xFFFFFF8B ; in eax, 0x5D ; ret  ;  (1 found)
0x1001b610: rcr dword [edi+0x5E], 0x5B ; pop ebp ; ret  ;  (1 found)
0x1002040d: rcr dword [edi-0x2F], 0xFFFFFFF8 ; pop esi ; pop ebx ; ret  ;  (1 found)
0x100205dd: rcr dword [edi-0x2F], 0xFFFFFFF8 ; pop esi ; pop ebx ; ret  ;  (1 found)
0x1001a74f: rcr dword [edi-0x3D], 0xFFFFFF8B ; dec esp ; and al, 0x04 ; movzx eax, byte [ecx] ; ret  ;  (1 found)
0x1001e87d: rcr dword [esi+0x5F], 0xFFFFFFC9 ; ret  ;  (1 found)
0x1001f345: rcr dword [esi+0x5F], 0xFFFFFFC9 ; ret  ;  (1 found)
0x10029e04: rcr ecx, 0xFFFFFFE0 ; fxch st0, st1 ; fdivrp st1, st0 ; ret  ;  (1 found)
0x10029df7: rcr esi, 0xFFFFFFC1 ; ret  ;  (1 found)
0x1001782c: rep movsb  ; mov eax, dword [ebp+0x08] ; pop edi ; pop esi ; leave  ; ret  ;  (1 found)
0x1001e690: rep movsb  ; mov eax, dword [ebp+0x08] ; pop edi ; pop esi ; leave  ; ret  ;  (1 found)
0x1001d3e0: rep movsb  ; mov eax, dword [ebp+0x08] ; pop esi ; pop edi ; leave  ; ret  ;  (1 found)
0x1001d530: rep movsb  ; mov eax, dword [ebp+0x08] ; pop esi ; pop edi ; leave  ; ret  ;  (1 found)
0x1001e8e4: rep movsb  ; mov eax, edx ; pop edi ; pop esi ; ret  ;  (1 found)
0x1001d3ca: rep movsb  ; mov ecx, eax ; and eax, 0x03 ; shr ecx, 0x02 ; rep movsd  ; jmp dword [0x1001D378+eax*4] ;  (1 found)
0x1001d51a: rep movsb  ; mov ecx, eax ; and eax, 0x03 ; shr ecx, 0x02 ; rep movsd  ; jmp dword [0x1001D4C8+eax*4] ;  (1 found)
0x10022020: rep movsb  ; pop ebp ; pop edi ; pop esi ; pop ebx ; ret  ;  (1 found)
0x1001d3d4: rep movsd  ; jmp dword [0x1001D378+eax*4] ;  (1 found)
0x1001d36e: rep movsd  ; jmp dword [0x1001D378+edx*4] ;  (1 found)
0x1001d47a: rep movsd  ; jmp dword [0x1001D410+eax*4] ;  (1 found)
0x1001d407: rep movsd  ; jmp dword [0x1001D410+edx*4] ;  (1 found)
0x1001d524: rep movsd  ; jmp dword [0x1001D4C8+eax*4] ;  (1 found)
0x1001d4be: rep movsd  ; jmp dword [0x1001D4C8+edx*4] ;  (1 found)
0x1001d5ca: rep movsd  ; jmp dword [0x1001D560+eax*4] ;  (1 found)
0x1001d557: rep movsd  ; jmp dword [0x1001D560+edx*4] ;  (1 found)
0x1001d61a: rep stosb  ; mov eax, dword [ebp+0x08] ; pop edi ; leave  ; ret  ;  (1 found)
0x1001a7dd: rep stosb  ; mov eax, edx ; pop ebx ; pop edi ; leave  ; ret  ;  (1 found)
0x1001a831: rep stosb  ; mov eax, edx ; pop edi ; leave  ; ret  ;  (1 found)
0x1001f2a0: rep stosb  ; mov eax, edx ; pop esi ; pop edi ; leave  ; ret  ;  (1 found)
0x10020532: rep stosw  ; mov eax, ebx ; pop edi ; pop esi ; pop ebx ; ret  ;  (1 found)
0x10011c60: ret  ;  (1 found)
0x10011e01: ret  ;  (1 found)
0x10011dd7: ret  ;  (1 found)
0x10011df1: ret  ;  (1 found)
0x10011de4: ret  ;  (1 found)
0x10011f04: ret  ;  (1 found)
0x10011e2f: ret  ;  (1 found)
0x10011f70: ret  ;  (1 found)
0x10011f9f: ret  ;  (1 found)
0x10011f2f: ret  ;  (1 found)
0x10011f5f: ret  ;  (1 found)
0x10011f81: ret  ;  (1 found)
0x10011f90: ret  ;  (1 found)
0x1001202a: ret  ;  (1 found)
0x10012131: ret  ;  (1 found)
0x100120e6: ret  ;  (1 found)
0x100120f8: ret  ;  (1 found)
0x10012035: ret  ;  (1 found)
0x10012040: ret  ;  (1 found)
0x1001205e: ret  ;  (1 found)
0x1001219c: ret  ;  (1 found)
0x1001237e: ret  ;  (1 found)
0x10012213: ret  ;  (1 found)
0x1001221c: ret  ;  (1 found)
0x10012225: ret  ;  (1 found)
0x10012597: ret  ;  (1 found)
0x100125cd: ret  ;  (1 found)
0x100125c4: ret  ;  (1 found)
0x100125d6: ret  ;  (1 found)
0x10012609: ret  ;  (1 found)
0x10012693: ret  ;  (1 found)
0x10012637: ret  ;  (1 found)
0x10012665: ret  ;  (1 found)
0x10012722: ret  ;  (1 found)
0x100126c6: ret  ;  (1 found)
0x100126f4: ret  ;  (1 found)
0x10012755: ret  ;  (1 found)
0x10012788: ret  ;  (1 found)
0x100127e9: ret  ;  (1 found)
0x100127bb: ret  ;  (1 found)
0x100127fa: ret  ;  (1 found)
0x10012915: ret  ;  (1 found)
0x100128f4: ret  ;  (1 found)
0x10012978: ret  ;  (1 found)
0x10012894: ret  ;  (1 found)
0x10012802: ret  ;  (1 found)
0x1001284b: ret  ;  (1 found)
0x10012a19: ret  ;  (1 found)
0x10012a47: ret  ;  (1 found)
0x10012ac3: ret  ;  (1 found)
0x10012ae6: ret  ;  (1 found)
0x10012a69: ret  ;  (1 found)
0x10012b85: ret  ;  (1 found)
0x10012b96: ret  ;  (1 found)
0x10012b36: ret  ;  (1 found)
0x10012ba5: ret  ;  (1 found)
0x10012c09: ret  ;  (1 found)
0x10012c8a: ret  ;  (1 found)
0x10012cfb: ret  ;  (1 found)
0x10012de7: ret  ;  (1 found)
0x10013254: ret  ;  (1 found)
0x10012f5a: ret  ;  (1 found)
0x10012f9f: ret  ;  (1 found)
0x10012fe8: ret  ;  (1 found)
0x1001305f: ret  ;  (1 found)
0x10013162: ret  ;  (1 found)
0x10013112: ret  ;  (1 found)
0x100131d5: ret  ;  (1 found)
0x10013266: ret  ;  (1 found)
0x10012e98: ret  ;  (1 found)
0x10012ed7: ret  ;  (1 found)
0x10012eef: ret  ;  (1 found)
0x10013ccf: ret  ;  (1 found)
0x100133c0: ret  ;  (1 found)
0x10013287: ret  ;  (1 found)
0x10013409: ret  ;  (1 found)
0x1001352f: ret  ;  (1 found)
0x100139f1: ret  ;  (1 found)
0x10013937: ret  ;  (1 found)
0x10013a16: ret  ;  (1 found)
0x10013927: ret  ;  (1 found)
0x10013a43: ret  ;  (1 found)
0x10013abb: ret  ;  (1 found)
0x10013a52: ret  ;  (1 found)
0x10013a62: ret  ;  (1 found)
0x10013ad1: ret  ;  (1 found)
0x10013ae3: ret  ;  (1 found)
0x100146f3: ret  ;  (1 found)
0x10014788: ret  ;  (1 found)
0x100146c0: ret  ;  (1 found)
0x10014722: ret  ;  (1 found)
0x10014815: ret  ;  (1 found)
0x100143b4: ret  ;  (1 found)
0x100142c8: ret  ;  (1 found)
0x1001432e: ret  ;  (1 found)
0x100143da: ret  ;  (1 found)
0x10014474: ret  ;  (1 found)
0x1001456f: ret  ;  (1 found)
0x100156d7: ret  ;  (1 found)
0x100156dc: ret  ;  (1 found)
0x10015702: ret  ;  (1 found)
0x100156f0: ret  ;  (1 found)
0x1001570f: ret  ;  (1 found)
0x10015721: ret  ;  (1 found)
0x10015777: ret  ;  (1 found)
0x10015764: ret  ;  (1 found)
0x10014927: ret  ;  (1 found)
0x100148cd: ret  ;  (1 found)
0x1001499b: ret  ;  (1 found)
0x1001492e: ret  ;  (1 found)
0x10014994: ret  ;  (1 found)
0x10014a69: ret  ;  (1 found)
0x10014a83: ret  ;  (1 found)
0x100149fc: ret  ;  (1 found)
0x10014a03: ret  ;  (1 found)
0x10014a70: ret  ;  (1 found)
0x10014e7e: ret  ;  (1 found)
0x10014e90: ret  ;  (1 found)
0x10014cbf: ret  ;  (1 found)
0x10014c63: ret  ;  (1 found)
0x10014cd2: ret  ;  (1 found)
0x10014e6f: ret  ;  (1 found)
0x10014f10: ret  ;  (1 found)
0x10014ea2: ret  ;  (1 found)
0x10014f54: ret  ;  (1 found)
0x10014ed3: ret  ;  (1 found)
0x1001505e: ret  ;  (1 found)
0x1001506e: ret  ;  (1 found)
0x1001508f: ret  ;  (1 found)
0x10015137: ret  ;  (1 found)
0x100151b5: ret  ;  (1 found)
0x1001507c: ret  ;  (1 found)
0x100151ba: ret  ;  (1 found)
0x100151c2: ret  ;  (1 found)
0x100152c0: ret  ;  (1 found)
0x100153dd: ret  ;  (1 found)
0x100153b9: ret  ;  (1 found)
0x10015546: ret  ;  (1 found)
0x1001558c: ret  ;  (1 found)
0x100155c8: ret  ;  (1 found)
0x1001562a: ret  ;  (1 found)
0x10015434: ret  ;  (1 found)
0x10015635: ret  ;  (1 found)
0x10015a4d: ret  ;  (1 found)
0x10015a12: ret  ;  (1 found)
0x10015dbf: ret  ;  (1 found)
0x10015d84: ret  ;  (1 found)
0x10015ecd: ret  ;  (1 found)
0x10015ebb: ret  ;  (1 found)
0x10015fe0: ret  ;  (1 found)
0x10015f71: ret  ;  (1 found)
0x1001604c: ret  ;  (1 found)
0x100160bb: ret  ;  (1 found)
0x100160f5: ret  ;  (1 found)
0x10016192: ret  ;  (1 found)
0x100161b2: ret  ;  (1 found)
0x100161d2: ret  ;  (1 found)
0x10016298: ret  ;  (1 found)
0x100162bc: ret  ;  (1 found)
0x100162dc: ret  ;  (1 found)
0x100163ad: ret  ;  (1 found)
0x1001598f: ret  ;  (1 found)
0x100163fa: ret  ;  (1 found)
0x1001652d: ret  ;  (1 found)
0x100163d4: ret  ;  (1 found)
0x100164d1: ret  ;  (1 found)
0x100164fe: ret  ;  (1 found)
0x10016673: ret  ;  (1 found)
0x1001667a: ret  ;  (1 found)
0x10016732: ret  ;  (1 found)
0x1001676a: ret  ;  (1 found)
0x1001683e: ret  ;  (1 found)
0x100167d7: ret  ;  (1 found)
0x100168b2: ret  ;  (1 found)
0x100168ce: ret  ;  (1 found)
0x10016993: ret  ;  (1 found)
0x100169e1: ret  ;  (1 found)
0x100169cd: ret  ;  (1 found)
0x100169f6: ret  ;  (1 found)
0x10016a93: ret  ;  (1 found)
0x100172dc: ret  ;  (1 found)
0x10016ab0: ret  ;  (1 found)
0x10016d44: ret  ;  (1 found)
0x10016d65: ret  ;  (1 found)
0x10016e5c: ret  ;  (1 found)
0x10016ddd: ret  ;  (1 found)
0x10016db2: ret  ;  (1 found)
0x10016d87: ret  ;  (1 found)
0x10016ebb: ret  ;  (1 found)
0x10016e01: ret  ;  (1 found)
0x10016ed0: ret  ;  (1 found)
0x10016fac: ret  ;  (1 found)
0x10016f1f: ret  ;  (1 found)
0x10016f7a: ret  ;  (1 found)
0x10017016: ret  ;  (1 found)
0x10016fe3: ret  ;  (1 found)
0x10017073: ret  ;  (1 found)
0x10017054: ret  ;  (1 found)
0x100170bc: ret  ;  (1 found)
0x100170a1: ret  ;  (1 found)
0x1001704f: ret  ;  (1 found)
0x100170f0: ret  ;  (1 found)
0x10017124: ret  ;  (1 found)
0x10017158: ret  ;  (1 found)
0x10017188: ret  ;  (1 found)
0x10017197: ret  ;  (1 found)
0x100171b1: ret  ;  (1 found)
0x10016ade: ret  ;  (1 found)
0x10016b8a: ret  ;  (1 found)
0x10016b7c: ret  ;  (1 found)
0x10016b6e: ret  ;  (1 found)
0x10016bed: ret  ;  (1 found)
0x10016ba9: ret  ;  (1 found)
0x10016bba: ret  ;  (1 found)
0x10016c09: ret  ;  (1 found)
0x10016b98: ret  ;  (1 found)
0x10016bcb: ret  ;  (1 found)
0x10016bfb: ret  ;  (1 found)
0x10016bdc: ret  ;  (1 found)
0x10016cac: ret  ;  (1 found)
0x10016d07: ret  ;  (1 found)
0x10016d23: ret  ;  (1 found)
0x100178ef: ret  ;  (1 found)
0x1001788e: ret  ;  (1 found)
0x100179b3: ret  ;  (1 found)
0x100179d9: ret  ;  (1 found)
0x100178ce: ret  ;  (1 found)
0x10017901: ret  ;  (1 found)
0x10017973: ret  ;  (1 found)
0x10017a2a: ret  ;  (1 found)
0x10017a8d: ret  ;  (1 found)
0x10017a9f: ret  ;  (1 found)
0x10017ae0: ret  ;  (1 found)
0x10017abc: ret  ;  (1 found)
0x10017ca2: ret  ;  (1 found)
0x10017b6f: ret  ;  (1 found)
0x10017bd2: ret  ;  (1 found)
0x10017b31: ret  ;  (1 found)
0x10017b88: ret  ;  (1 found)
0x10017c6b: ret  ;  (1 found)
0x10017e66: ret  ;  (1 found)
0x10017ef7: ret  ;  (1 found)
0x10017cf5: ret  ;  (1 found)
0x10017ea1: ret  ;  (1 found)
0x10017e01: ret  ;  (1 found)
0x10018035: ret  ;  (1 found)
0x10017f33: ret  ;  (1 found)
0x10017fbd: ret  ;  (1 found)
0x1001800b: ret  ;  (1 found)
0x1001813a: ret  ;  (1 found)
0x100181f9: ret  ;  (1 found)
0x1001826f: ret  ;  (1 found)
0x1001811b: ret  ;  (1 found)
0x1001833a: ret  ;  (1 found)
0x100182b5: ret  ;  (1 found)
0x100183a4: ret  ;  (1 found)
0x100182b3: ret  ;  (1 found)
0x100182fd: ret  ;  (1 found)
0x10018485: ret  ;  (1 found)
0x1001841a: ret  ;  (1 found)
0x10018507: ret  ;  (1 found)
0x1001861a: ret  ;  (1 found)
0x10018664: ret  ;  (1 found)
0x100185f6: ret  ;  (1 found)
0x100185a5: ret  ;  (1 found)
0x10018761: ret  ;  (1 found)
0x10018774: ret  ;  (1 found)
0x1001878b: ret  ;  (1 found)
0x10018696: ret  ;  (1 found)
0x10018901: ret  ;  (1 found)
0x10018b06: ret  ;  (1 found)
0x10018ddc: ret  ;  (1 found)
0x10018ebc: ret  ;  (1 found)
0x10018f22: ret  ;  (1 found)
0x1001905e: ret  ;  (1 found)
0x10019053: ret  ;  (1 found)
0x10019085: ret  ;  (1 found)
0x100190c2: ret  ;  (1 found)
0x100172ed: ret  ;  (1 found)
0x1001739d: ret  ;  (1 found)
0x100173f5: ret  ;  (1 found)
0x10017352: ret  ;  (1 found)
0x10017328: ret  ;  (1 found)
0x10017317: ret  ;  (1 found)
0x100190e9: ret  ;  (1 found)
0x10017545: ret  ;  (1 found)
0x10017447: ret  ;  (1 found)
0x100174e5: ret  ;  (1 found)
0x10017615: ret  ;  (1 found)
0x10017634: ret  ;  (1 found)
0x1001768c: ret  ;  (1 found)
0x100175b6: ret  ;  (1 found)
0x1001771b: ret  ;  (1 found)
0x10017766: ret  ;  (1 found)
0x1001778b: ret  ;  (1 found)
0x10017732: ret  ;  (1 found)
0x10017834: ret  ;  (1 found)
0x100177a9: ret  ;  (1 found)
0x100177f7: ret  ;  (1 found)
0x100177c7: ret  ;  (1 found)
0x1001adc9: ret  ;  (1 found)
0x1001adf1: ret  ;  (1 found)
0x1001adf9: ret  ;  (1 found)
0x1001aea9: ret  ;  (1 found)
0x1001ae5c: ret  ;  (1 found)
0x1001aea2: ret  ;  (1 found)
0x1001c7e9: ret  ;  (1 found)
0x1001af10: ret  ;  (1 found)
0x1001af41: ret  ;  (1 found)
0x100192b5: ret  ;  (1 found)
0x1001926c: ret  ;  (1 found)
0x10019389: ret  ;  (1 found)
0x10019331: ret  ;  (1 found)
0x1001946c: ret  ;  (1 found)
0x1001958d: ret  ;  (1 found)
0x1001955d: ret  ;  (1 found)
0x10019723: ret  ;  (1 found)
0x1001972e: ret  ;  (1 found)
0x100195fa: ret  ;  (1 found)
0x100195b6: ret  ;  (1 found)
0x10019767: ret  ;  (1 found)
0x100197df: ret  ;  (1 found)
0x10019916: ret  ;  (1 found)
0x10019846: ret  ;  (1 found)
0x10019796: ret  ;  (1 found)
0x1001989e: ret  ;  (1 found)
0x1001997a: ret  ;  (1 found)
0x10019973: ret  ;  (1 found)
0x100199e3: ret  ;  (1 found)
0x100199ea: ret  ;  (1 found)
0x10019a4f: ret  ;  (1 found)
0x10019ab8: ret  ;  (1 found)
0x10019abf: ret  ;  (1 found)
0x10019a48: ret  ;  (1 found)
0x10019cbc: ret  ;  (1 found)
0x10019ad6: ret  ;  (1 found)
0x10019d19: ret  ;  (1 found)
0x10019d30: ret  ;  (1 found)
0x10019d90: ret  ;  (1 found)
0x10019ebc: ret  ;  (1 found)
0x10019ecb: ret  ;  (1 found)
0x10019edd: ret  ;  (1 found)
0x1001a059: ret  ;  (1 found)
0x10019f13: ret  ;  (1 found)
0x10019ef3: ret  ;  (1 found)
0x10019f45: ret  ;  (1 found)
0x1001a2c7: ret  ;  (1 found)
0x1001a3ad: ret  ;  (1 found)
0x1001a39b: ret  ;  (1 found)
0x1001a3f1: ret  ;  (1 found)
0x1001a47d: ret  ;  (1 found)
0x1001a4a9: ret  ;  (1 found)
0x1001a5c2: ret  ;  (1 found)
0x1001a5c7: ret  ;  (1 found)
0x1001a483: ret  ;  (1 found)
0x1001a734: ret  ;  (1 found)
0x1001a70a: ret  ;  (1 found)
0x1001a710: ret  ;  (1 found)
0x1001a751: ret  ;  (1 found)
0x1001a759: ret  ;  (1 found)
0x1001a7b0: ret  ;  (1 found)
0x1001a7b9: ret  ;  (1 found)
0x1001a817: ret  ;  (1 found)
0x1001a837: ret  ;  (1 found)
0x1001a875: ret  ;  (1 found)
0x1001a7e4: ret  ;  (1 found)
0x1001a8d3: ret  ;  (1 found)
0x1001a8e0: ret  ;  (1 found)
0x1001a8f3: ret  ;  (1 found)
0x1001a94e: ret  ;  (1 found)
0x1001a914: ret  ;  (1 found)
0x1001a93d: ret  ;  (1 found)
0x1001abed: ret  ;  (1 found)
0x1001ac45: ret  ;  (1 found)
0x1001ad64: ret  ;  (1 found)
0x1001acf6: ret  ;  (1 found)
0x1001acb0: ret  ;  (1 found)
0x1001aca3: ret  ;  (1 found)
0x1001ad95: ret  ;  (1 found)
0x1001ac4d: ret  ;  (1 found)
0x1001acfd: ret  ;  (1 found)
0x1001be7d: ret  ;  (1 found)
0x1001be96: ret  ;  (1 found)
0x1001bf0e: ret  ;  (1 found)
0x1001be83: ret  ;  (1 found)
0x1001be70: ret  ;  (1 found)
0x1001c06b: ret  ;  (1 found)
0x1001bf55: ret  ;  (1 found)
0x1001c0c3: ret  ;  (1 found)
0x1001c116: ret  ;  (1 found)
0x1001c1e7: ret  ;  (1 found)
0x1001c11b: ret  ;  (1 found)
0x1001c12c: ret  ;  (1 found)
0x1001c1aa: ret  ;  (1 found)
0x1001c36d: ret  ;  (1 found)
0x1001c26e: ret  ;  (1 found)
0x1001c32b: ret  ;  (1 found)
0x1001c4c4: ret  ;  (1 found)
0x1001c459: ret  ;  (1 found)
0x1001c57c: ret  ;  (1 found)
0x1001c4d7: ret  ;  (1 found)
0x1001c53c: ret  ;  (1 found)
0x1001c634: ret  ;  (1 found)
0x1001c649: ret  ;  (1 found)
0x1001c680: ret  ;  (1 found)
0x1001c6c5: ret  ;  (1 found)
0x1001c5bb: ret  ;  (1 found)
0x1001c74b: ret  ;  (1 found)
0x1001c791: ret  ;  (1 found)
0x1001c789: ret  ;  (1 found)
0x1001af75: ret  ;  (1 found)
0x1001afcf: ret  ;  (1 found)
0x1001afe9: ret  ;  (1 found)
0x1001af9d: ret  ;  (1 found)
0x1001b281: ret  ;  (1 found)
0x1001b1d3: ret  ;  (1 found)
0x1001b299: ret  ;  (1 found)
0x1001b2c9: ret  ;  (1 found)
0x1001b2d6: ret  ;  (1 found)
0x1001b3da: ret  ;  (1 found)
0x1001b32d: ret  ;  (1 found)
0x1001b3a4: ret  ;  (1 found)
0x1001b4bf: ret  ;  (1 found)
0x1001b45b: ret  ;  (1 found)
0x1001b508: ret  ;  (1 found)
0x1001b591: ret  ;  (1 found)
0x1001b643: ret  ;  (1 found)
0x1001b5e2: ret  ;  (1 found)
0x1001b615: ret  ;  (1 found)
0x1001b768: ret  ;  (1 found)
0x1001b696: ret  ;  (1 found)
0x1001b678: ret  ;  (1 found)
0x1001b7c0: ret  ;  (1 found)
0x1001b84e: ret  ;  (1 found)
0x1001b955: ret  ;  (1 found)
0x1001b928: ret  ;  (1 found)
0x1001b982: ret  ;  (1 found)
0x1001b9a1: ret  ;  (1 found)
0x1001baab: ret  ;  (1 found)
0x1001bb11: ret  ;  (1 found)
0x1001bb9b: ret  ;  (1 found)
0x1001b9ab: ret  ;  (1 found)
0x1001bba2: ret  ;  (1 found)
0x1001ba84: ret  ;  (1 found)
0x1001bc2a: ret  ;  (1 found)
0x1001bbb6: ret  ;  (1 found)
0x1001bba9: ret  ;  (1 found)
0x1001bc87: ret  ;  (1 found)
0x1001bcbe: ret  ;  (1 found)
0x1001bd00: ret  ;  (1 found)
0x1001bd1e: ret  ;  (1 found)
0x1001bd35: ret  ;  (1 found)
0x1001bd6c: ret  ;  (1 found)
0x1001bcf2: ret  ;  (1 found)
0x1001be0f: ret  ;  (1 found)
0x1001be1a: ret  ;  (1 found)
0x1001be25: ret  ;  (1 found)
0x1001be6c: ret  ;  (1 found)
0x1001bdb8: ret  ;  (1 found)
0x1001cc85: ret  ;  (1 found)
0x1001cc67: ret  ;  (1 found)
0x1001cc55: ret  ;  (1 found)
0x1001cc76: ret  ;  (1 found)
0x1001cce8: ret  ;  (1 found)
0x1001cc94: ret  ;  (1 found)
0x1001cd09: ret  ;  (1 found)
0x1001cca6: ret  ;  (1 found)
0x1001ccc4: ret  ;  (1 found)
0x1001ccd6: ret  ;  (1 found)
0x1001ccfa: ret  ;  (1 found)
0x1001ccb5: ret  ;  (1 found)
0x1001cd5a: ret  ;  (1 found)
0x1001cd60: ret  ;  (1 found)
0x1001cee5: ret  ;  (1 found)
0x1001cd19: ret  ;  (1 found)
0x1001cd23: ret  ;  (1 found)
0x1001cf56: ret  ;  (1 found)
0x1001d00c: ret  ;  (1 found)
0x1001d03b: ret  ;  (1 found)
0x1001d156: ret  ;  (1 found)
0x1001d140: ret  ;  (1 found)
0x1001d1b6: ret  ;  (1 found)
0x1001d2fc: ret  ;  (1 found)
0x1001d1e5: ret  ;  (1 found)
0x1001d33e: ret  ;  (1 found)
0x1001d31f: ret  ;  (1 found)
0x1001d39a: ret  ;  (1 found)
0x1001d3a8: ret  ;  (1 found)
0x1001d3b6: ret  ;  (1 found)
0x1001d3e8: ret  ;  (1 found)
0x1001d435: ret  ;  (1 found)
0x1001d447: ret  ;  (1 found)
0x1001d455: ret  ;  (1 found)
0x1001d48d: ret  ;  (1 found)
0x1001d4ea: ret  ;  (1 found)
0x1001d506: ret  ;  (1 found)
0x1001d4f8: ret  ;  (1 found)
0x1001d538: ret  ;  (1 found)
0x1001d5a5: ret  ;  (1 found)
0x1001d585: ret  ;  (1 found)
0x1001d597: ret  ;  (1 found)
0x1001d5dd: ret  ;  (1 found)
0x1001d621: ret  ;  (1 found)
0x1001d84f: ret  ;  (1 found)
0x1001d630: ret  ;  (1 found)
0x1001d9d3: ret  ;  (1 found)
0x1001d8f7: ret  ;  (1 found)
0x1001d93e: ret  ;  (1 found)
0x1001d942: ret  ;  (1 found)
0x1001d983: ret  ;  (1 found)
0x1001db1a: ret  ;  (1 found)
0x1001da50: ret  ;  (1 found)
0x1001da05: ret  ;  (1 found)
0x1001dba1: ret  ;  (1 found)
0x1001dbae: ret  ;  (1 found)
0x1001dbbf: ret  ;  (1 found)
0x1001dbd0: ret  ;  (1 found)
0x1001db74: ret  ;  (1 found)
0x1001dc0f: ret  ;  (1 found)
0x1001c9ac: ret  ;  (1 found)
0x1001c941: ret  ;  (1 found)
0x1001c9d3: ret  ;  (1 found)
0x1001c82b: ret  ;  (1 found)
0x1001ca3a: ret  ;  (1 found)
0x1001cbc5: ret  ;  (1 found)
0x1001caa4: ret  ;  (1 found)
0x1001cc21: ret  ;  (1 found)
0x1001cc32: ret  ;  (1 found)
0x10021624: ret  ;  (1 found)
0x100215bd: ret  ;  (1 found)
0x1002163a: ret  ;  (1 found)
0x100216f1: ret  ;  (1 found)
0x1001dc43: ret  ;  (1 found)
0x1001dd94: ret  ;  (1 found)
0x1001dc5a: ret  ;  (1 found)
0x1001dccf: ret  ;  (1 found)
0x1001dc9e: ret  ;  (1 found)
0x1001dcf4: ret  ;  (1 found)
0x1001df4e: ret  ;  (1 found)
0x1001df59: ret  ;  (1 found)
0x1001e0d5: ret  ;  (1 found)
0x1001e1bd: ret  ;  (1 found)
0x1001e34f: ret  ;  (1 found)
0x1001e352: ret  ;  (1 found)
0x1001e366: ret  ;  (1 found)
0x1001e486: ret  ;  (1 found)
0x1001e5bf: ret  ;  (1 found)
0x1001e3a0: ret  ;  (1 found)
0x1001e5c4: ret  ;  (1 found)
0x1001e4ee: ret  ;  (1 found)
0x1001e61d: ret  ;  (1 found)
0x1001e65b: ret  ;  (1 found)
0x1001e6c0: ret  ;  (1 found)
0x1001e6e6: ret  ;  (1 found)
0x1001e698: ret  ;  (1 found)
0x1001e881: ret  ;  (1 found)
0x1001e846: ret  ;  (1 found)
0x1001e8ea: ret  ;  (1 found)
0x1001ee62: ret  ;  (1 found)
0x1001e9c6: ret  ;  (1 found)
0x1001ed82: ret  ;  (1 found)
0x1001eed6: ret  ;  (1 found)
0x1001ef36: ret  ;  (1 found)
0x1001f248: ret  ;  (1 found)
0x1001f283: ret  ;  (1 found)
0x1001f1ff: ret  ;  (1 found)
0x1001f215: ret  ;  (1 found)
0x1001f2a7: ret  ;  (1 found)
0x1001f349: ret  ;  (1 found)
0x1001f2e5: ret  ;  (1 found)
0x1001f3a9: ret  ;  (1 found)
0x1001f30e: ret  ;  (1 found)
0x1001f548: ret  ;  (1 found)
0x1001f497: ret  ;  (1 found)
0x1001f571: ret  ;  (1 found)
0x1001f69b: ret  ;  (1 found)
0x1001f7ad: ret  ;  (1 found)
0x1001f796: ret  ;  (1 found)
0x1001f663: ret  ;  (1 found)
0x1001f5a9: ret  ;  (1 found)
0x1001f588: ret  ;  (1 found)
0x1001f6c6: ret  ;  (1 found)
0x1001f9a9: ret  ;  (1 found)
0x1001f8f9: ret  ;  (1 found)
0x1001f970: ret  ;  (1 found)
0x1001fa3f: ret  ;  (1 found)
0x1001fa82: ret  ;  (1 found)
0x1001fb30: ret  ;  (1 found)
0x1001fb1e: ret  ;  (1 found)
0x1001fb22: ret  ;  (1 found)
0x1001fddb: ret  ;  (1 found)
0x1001fbe4: ret  ;  (1 found)
0x1001fd21: ret  ;  (1 found)
0x1001fcb4: ret  ;  (1 found)
0x1001fe95: ret  ;  (1 found)
0x1001fed0: ret  ;  (1 found)
0x1001ff37: ret  ;  (1 found)
0x1001ff47: ret  ;  (1 found)
0x10020096: ret  ;  (1 found)
0x1001ff84: ret  ;  (1 found)
0x1002018e: ret  ;  (1 found)
0x100200ab: ret  ;  (1 found)
0x100200ed: ret  ;  (1 found)
0x10020144: ret  ;  (1 found)
0x1002018a: ret  ;  (1 found)
0x1002025c: ret  ;  (1 found)
0x100201e6: ret  ;  (1 found)
0x100202a2: ret  ;  (1 found)
0x100202a6: ret  ;  (1 found)
0x100202d7: ret  ;  (1 found)
0x100202f9: ret  ;  (1 found)
0x10020366: ret  ;  (1 found)
0x100203d4: ret  ;  (1 found)
0x10020329: ret  ;  (1 found)
0x10020413: ret  ;  (1 found)
0x1002047a: ret  ;  (1 found)
0x1002045e: ret  ;  (1 found)
0x10020463: ret  ;  (1 found)
0x100204bd: ret  ;  (1 found)
0x100204f7: ret  ;  (1 found)
0x1002053a: ret  ;  (1 found)
0x10020536: ret  ;  (1 found)
0x10020573: ret  ;  (1 found)
0x10020758: ret  ;  (1 found)
0x1002068f: ret  ;  (1 found)
0x100205a4: ret  ;  (1 found)
0x1002078a: ret  ;  (1 found)
0x100205e3: ret  ;  (1 found)
0x10020626: ret  ;  (1 found)
0x100207f8: ret  ;  (1 found)
0x100207e4: ret  ;  (1 found)
0x1002080f: ret  ;  (1 found)
0x1002082a: ret  ;  (1 found)
0x100207f6: ret  ;  (1 found)
0x1002083f: ret  ;  (1 found)
0x100209e1: ret  ;  (1 found)
0x10020a27: ret  ;  (1 found)
0x100209f8: ret  ;  (1 found)
0x10020bb1: ret  ;  (1 found)
0x10020c7a: ret  ;  (1 found)
0x10020ca5: ret  ;  (1 found)
0x10020c75: ret  ;  (1 found)
0x10020d6d: ret  ;  (1 found)
0x10020d71: ret  ;  (1 found)
0x10020d26: ret  ;  (1 found)
0x10020da2: ret  ;  (1 found)
0x10020e38: ret  ;  (1 found)
0x10020ffa: ret  ;  (1 found)
0x1002127b: ret  ;  (1 found)
0x100210a3: ret  ;  (1 found)
0x1002130e: ret  ;  (1 found)
0x100213b2: ret  ;  (1 found)
0x100213d0: ret  ;  (1 found)
0x100214c7: ret  ;  (1 found)
0x100214bb: ret  ;  (1 found)
0x100214ed: ret  ;  (1 found)
0x10021543: ret  ;  (1 found)
0x10021564: ret  ;  (1 found)
0x10024576: ret  ;  (1 found)
0x100245fd: ret  ;  (1 found)
0x10024617: ret  ;  (1 found)
0x10024641: ret  ;  (1 found)
0x100245f0: ret  ;  (1 found)
0x1002468e: ret  ;  (1 found)
0x10024762: ret  ;  (1 found)
0x10024abf: ret  ;  (1 found)
0x10024ab7: ret  ;  (1 found)
0x10025062: ret  ;  (1 found)
0x10024cc7: ret  ;  (1 found)
0x10024da3: ret  ;  (1 found)
0x10025025: ret  ;  (1 found)
0x10024f35: ret  ;  (1 found)
0x10025158: ret  ;  (1 found)
0x1002515d: ret  ;  (1 found)
0x100251bd: ret  ;  (1 found)
0x100254b4: ret  ;  (1 found)
0x10025462: ret  ;  (1 found)
0x1002545f: ret  ;  (1 found)
0x10025721: ret  ;  (1 found)
0x10025741: ret  ;  (1 found)
0x10025786: ret  ;  (1 found)
0x100257d7: ret  ;  (1 found)
0x1002580a: ret  ;  (1 found)
0x10025877: ret  ;  (1 found)
0x100259e5: ret  ;  (1 found)
0x100259ff: ret  ;  (1 found)
0x10025b83: ret  ;  (1 found)
0x10025bc0: ret  ;  (1 found)
0x10025998: ret  ;  (1 found)
0x10025bcb: ret  ;  (1 found)
0x10025b43: ret  ;  (1 found)
0x10025bf8: ret  ;  (1 found)
0x10025cc3: ret  ;  (1 found)
0x10025d50: ret  ;  (1 found)
0x10025dc7: ret  ;  (1 found)
0x10025e42: ret  ;  (1 found)
0x10025e7c: ret  ;  (1 found)
0x10025e82: ret  ;  (1 found)
0x10025eba: ret  ;  (1 found)
0x10025f1a: ret  ;  (1 found)
0x10026039: ret  ;  (1 found)
0x100260d7: ret  ;  (1 found)
0x10025f73: ret  ;  (1 found)
0x10025f88: ret  ;  (1 found)
0x10025fcb: ret  ;  (1 found)
0x10026106: ret  ;  (1 found)
0x10026164: ret  ;  (1 found)
0x1002618b: ret  ;  (1 found)
0x100260f6: ret  ;  (1 found)
0x100260ef: ret  ;  (1 found)
0x100260de: ret  ;  (1 found)
0x1002627d: ret  ;  (1 found)
0x10026217: ret  ;  (1 found)
0x100262b7: ret  ;  (1 found)
0x1002621c: ret  ;  (1 found)
0x10026333: ret  ;  (1 found)
0x10026308: ret  ;  (1 found)
0x1002635b: ret  ;  (1 found)
0x1002637d: ret  ;  (1 found)
0x1002668e: ret  ;  (1 found)
0x100266a5: ret  ;  (1 found)
0x1002638c: ret  ;  (1 found)
0x100263bb: ret  ;  (1 found)
0x1002673a: ret  ;  (1 found)
0x100267ce: ret  ;  (1 found)
0x10026836: ret  ;  (1 found)
0x10026853: ret  ;  (1 found)
0x10026879: ret  ;  (1 found)
0x100267bc: ret  ;  (1 found)
0x1002679f: ret  ;  (1 found)
0x1002685f: ret  ;  (1 found)
0x1002692a: ret  ;  (1 found)
0x100269d8: ret  ;  (1 found)
0x10026ace: ret  ;  (1 found)
0x10026afa: ret  ;  (1 found)
0x10026b29: ret  ;  (1 found)
0x10026b58: ret  ;  (1 found)
0x10026ae4: ret  ;  (1 found)
0x10026be8: ret  ;  (1 found)
0x10026e02: ret  ;  (1 found)
0x10026c51: ret  ;  (1 found)
0x10026e56: ret  ;  (1 found)
0x10026ead: ret  ;  (1 found)
0x10026f05: ret  ;  (1 found)
0x10026dc0: ret  ;  (1 found)
0x10026f6c: ret  ;  (1 found)
0x1002718d: ret  ;  (1 found)
0x100271e0: ret  ;  (1 found)
0x1002723e: ret  ;  (1 found)
0x10026cc9: ret  ;  (1 found)
0x10026cf9: ret  ;  (1 found)
0x1002727b: ret  ;  (1 found)
0x10026d4f: ret  ;  (1 found)
0x10026fc5: ret  ;  (1 found)
0x10026f98: ret  ;  (1 found)
0x10026ff6: ret  ;  (1 found)
0x100272ae: ret  ;  (1 found)
0x10027745: ret  ;  (1 found)
0x100274ac: ret  ;  (1 found)
0x1002775f: ret  ;  (1 found)
0x100275cc: ret  ;  (1 found)
0x10027390: ret  ;  (1 found)
0x10027593: ret  ;  (1 found)
0x10027715: ret  ;  (1 found)
0x10027608: ret  ;  (1 found)
0x100279e0: ret  ;  (1 found)
0x10021749: ret  ;  (1 found)
0x10027a05: ret  ;  (1 found)
0x1002176c: ret  ;  (1 found)
0x1002178d: ret  ;  (1 found)
0x10021915: ret  ;  (1 found)
0x100218cc: ret  ;  (1 found)
0x10021a3b: ret  ;  (1 found)
0x10021e45: ret  ;  (1 found)
0x10021e55: ret  ;  (1 found)
0x10021f89: ret  ;  (1 found)
0x10021f30: ret  ;  (1 found)
0x10021f59: ret  ;  (1 found)
0x10022026: ret  ;  (1 found)
0x10021f98: ret  ;  (1 found)
0x10021fa8: ret  ;  (1 found)
0x100221e7: ret  ;  (1 found)
0x1002221d: ret  ;  (1 found)
0x10022280: ret  ;  (1 found)
0x10022292: ret  ;  (1 found)
0x100222f9: ret  ;  (1 found)
0x10022573: ret  ;  (1 found)
0x10022541: ret  ;  (1 found)
0x100224f3: ret  ;  (1 found)
0x100225bf: ret  ;  (1 found)
0x10022631: ret  ;  (1 found)
0x10022845: ret  ;  (1 found)
0x1002291b: ret  ;  (1 found)
0x100227c2: ret  ;  (1 found)
0x10022999: ret  ;  (1 found)
0x10022a8f: ret  ;  (1 found)
0x10022c8c: ret  ;  (1 found)
0x10022c92: ret  ;  (1 found)
0x100229e3: ret  ;  (1 found)
0x100229f2: ret  ;  (1 found)
0x10022a16: ret  ;  (1 found)
0x10022dde: ret  ;  (1 found)
0x1002301a: ret  ;  (1 found)
0x1002304b: ret  ;  (1 found)
0x10022ee0: ret  ;  (1 found)
0x1002305a: ret  ;  (1 found)
0x10023085: ret  ;  (1 found)
0x10022fed: ret  ;  (1 found)
0x10023133: ret  ;  (1 found)
0x10022df1: ret  ;  (1 found)
0x100231b4: ret  ;  (1 found)
0x10022f2c: ret  ;  (1 found)
0x100231e0: ret  ;  (1 found)
0x10023300: ret  ;  (1 found)
0x10023500: ret  ;  (1 found)
0x10023c94: ret  ;  (1 found)
0x10023c0e: ret  ;  (1 found)
0x10023cb7: ret  ;  (1 found)
0x10023b75: ret  ;  (1 found)
0x10023ccf: ret  ;  (1 found)
0x10023cf7: ret  ;  (1 found)
0x10027dc7: ret  ;  (1 found)
0x10027db2: ret  ;  (1 found)
0x10027df8: ret  ;  (1 found)
0x10027a39: ret  ;  (1 found)
0x10027a24: ret  ;  (1 found)
0x10027b2f: ret  ;  (1 found)
0x10027e9a: ret  ;  (1 found)
0x10027ec5: ret  ;  (1 found)
0x10027eaf: ret  ;  (1 found)
0x10027f01: ret  ;  (1 found)
0x10027f18: ret  ;  (1 found)
0x10027f40: ret  ;  (1 found)
0x1002807f: ret  ;  (1 found)
0x100280b7: ret  ;  (1 found)
0x10028104: ret  ;  (1 found)
0x10027fe4: ret  ;  (1 found)
0x10028736: ret  ;  (1 found)
0x10028979: ret  ;  (1 found)
0x10028943: ret  ;  (1 found)
0x100288b4: ret  ;  (1 found)
0x10028a45: ret  ;  (1 found)
0x10028b04: ret  ;  (1 found)
0x10028ba3: ret  ;  (1 found)
0x10028b3a: ret  ;  (1 found)
0x10028bf7: ret  ;  (1 found)
0x10028b22: ret  ;  (1 found)
0x10028b7e: ret  ;  (1 found)
0x10028d8d: ret  ;  (1 found)
0x10028c1e: ret  ;  (1 found)
0x10028e7a: ret  ;  (1 found)
0x10028c46: ret  ;  (1 found)
0x10028d18: ret  ;  (1 found)
0x10029237: ret  ;  (1 found)
0x10028f8c: ret  ;  (1 found)
0x100290a8: ret  ;  (1 found)
0x10029358: ret  ;  (1 found)
0x10029328: ret  ;  (1 found)
0x1002935b: ret  ;  (1 found)
0x10029445: ret  ;  (1 found)
0x100294ef: ret  ;  (1 found)
0x100295d9: ret  ;  (1 found)
0x100298e8: ret  ;  (1 found)
0x100296cc: ret  ;  (1 found)
0x10029a59: ret  ;  (1 found)
0x10029a0f: ret  ;  (1 found)
0x100299d2: ret  ;  (1 found)
0x10029a39: ret  ;  (1 found)
0x10029a48: ret  ;  (1 found)
0x10029aa6: ret  ;  (1 found)
0x10029aea: ret  ;  (1 found)
0x10029b3a: ret  ;  (1 found)
0x10029ca5: ret  ;  (1 found)
0x10029b9e: ret  ;  (1 found)
0x10029d9a: ret  ;  (1 found)
0x10029cf7: ret  ;  (1 found)
0x10029d02: ret  ;  (1 found)
0x10029d99: ret  ;  (1 found)
0x10029ce1: ret  ;  (1 found)
0x10029dfa: ret  ;  (1 found)
0x10029ced: ret  ;  (1 found)
0x10029d61: ret  ;  (1 found)
0x10029e9f: ret  ;  (1 found)
0x10029eaf: ret  ;  (1 found)
0x10029e85: ret  ;  (1 found)
0x10029eb4: ret  ;  (1 found)
0x10029e0b: ret  ;  (1 found)
0x10029ec3: ret  ;  (1 found)
0x10029ee3: ret  ;  (1 found)
0x10029f2e: ret  ;  (1 found)
0x10029f4c: ret  ;  (1 found)
0x10029f59: ret  ;  (1 found)
0x10029f9b: ret  ;  (1 found)
0x10029f9c: ret  ;  (1 found)
0x1002a067: ret  ;  (1 found)
0x1002a0f3: ret  ;  (1 found)
0x1002a002: ret  ;  (1 found)
0x10029fc2: ret  ;  (1 found)
0x1002a140: ret  ;  (1 found)
0x1002a100: ret  ;  (1 found)
0x1002a10e: ret  ;  (1 found)
0x1002a115: ret  ;  (1 found)
0x1002a132: ret  ;  (1 found)
0x1002a16a: ret  ;  (1 found)
0x1002a1cd: ret  ;  (1 found)
0x1002a1d6: ret  ;  (1 found)
0x1002a1a9: ret  ;  (1 found)
0x1002a1c6: ret  ;  (1 found)
0x1002a237: ret  ;  (1 found)
0x1002a298: ret  ;  (1 found)
0x1002a1e5: ret  ;  (1 found)
0x1002a330: ret  ;  (1 found)
0x1002a1db: ret  ;  (1 found)
0x1002a3e1: ret  ;  (1 found)
0x1002a6f3: ret  ;  (1 found)
0x1002a91c: ret  ;  (1 found)
0x1002a9de: ret  ;  (1 found)
0x1002a9fc: ret  ;  (1 found)
0x1002a9b0: ret  ;  (1 found)
0x1002aa85: ret  ;  (1 found)
0x1002aa3b: ret  ;  (1 found)
0x1002aaea: ret  ;  (1 found)
0x1002aa70: ret  ;  (1 found)
0x1002aba9: ret  ;  (1 found)
0x1002abcc: ret  ;  (1 found)
0x1002abba: ret  ;  (1 found)
0x1002abfa: ret  ;  (1 found)
0x1002ac69: ret  ;  (1 found)
0x1002ad75: ret  ;  (1 found)
0x1002ac54: ret  ;  (1 found)
0x1002af4f: ret  ;  (1 found)
0x1002afa1: ret  ;  (1 found)
0x1002b9f0: ret  ;  (1 found)
0x1002bc58: ret  ;  (1 found)
0x1002bc5c: ret  ;  (1 found)
0x1002be49: ret  ;  (1 found)
0x1002c520: ret  ;  (1 found)
0x1002c224: ret  ;  (1 found)
0x1002cc5e: ret  ;  (1 found)
0x1002c594: ret  ;  (1 found)
0x1002ca5e: ret  ;  (1 found)
0x10015df3: retn 0x0000 ;  (1 found)
0x10020ad5: retn 0x0000 ;  (1 found)
0x10022123: retn 0x0000 ;  (1 found)
0x100254cd: retn 0x0002 ;  (1 found)
0x10026d5f: retn 0x0002 ;  (1 found)
0x1001367e: retn 0x0003 ;  (1 found)
0x10018b5d: retn 0x0003 ;  (1 found)
0x10012429: retn 0x0004 ;  (1 found)
0x10012cb2: retn 0x0004 ;  (1 found)
0x10016c3a: retn 0x0004 ;  (1 found)
0x1002170a: retn 0x0004 ;  (1 found)
0x100246b3: retn 0x0004 ;  (1 found)
0x100236f2: retn 0x0005 ;  (1 found)
0x10011db5: retn 0x000C ;  (1 found)
0x100125eb: retn 0x0044 ;  (1 found)
0x10026192: retn 0x00C6 ;  (1 found)
0x10022058: retn 0x0104 ;  (1 found)
0x100220ff: retn 0x0104 ;  (1 found)
0x10028233: retn 0x01BE ;  (1 found)
0x1002c1b0: retn 0x01CF ;  (1 found)
0x1002c360: retn 0x01D3 ;  (1 found)
0x1002c3d0: retn 0x01D4 ;  (1 found)
0x1002c7d0: retn 0x01DC ;  (1 found)
0x10016c27: retn 0x02EB ;  (1 found)
0x10029f60: retn 0x0336 ;  (1 found)
0x1001b0b3: retn 0x0A02 ;  (1 found)
0x1001ded1: retn 0x0A02 ;  (1 found)
0x1001e230: retn 0x0A02 ;  (1 found)
0x1001ac34: retn 0x0BEB ;  (1 found)
0x10026090: retn 0x0D8A ;  (1 found)
0x10018ecf: retn 0x1273 ;  (1 found)
0x10011d70: retn 0x1589 ;  (1 found)
0x100176d9: retn 0x1DEB ;  (1 found)
0x10026906: retn 0x2B08 ;  (1 found)
0x100242f1: retn 0x2C74 ;  (1 found)
0x10016f9a: retn 0x3B42 ;  (1 found)
0x10018ee1: retn 0x3D72 ;  (1 found)
0x1002a9ef: retn 0x4008 ;  (1 found)
0x1001755c: retn 0x4102 ;  (1 found)
0x10017532: retn 0x4104 ;  (1 found)
0x100268a2: retn 0x45C7 ;  (1 found)
0x1001759b: retn 0x4604 ;  (1 found)
0x100272a0: retn 0x4689 ;  (1 found)
0x10028be7: retn 0x5308 ;  (1 found)
0x1001b9aa: retn 0x53C3 ;  (1 found)
0x10018034: retn 0x55C3 ;  (1 found)
0x1001cd22: retn 0x55C3 ;  (1 found)
0x10015f6b: retn 0x5B5E ;  (1 found)
0x10025dc1: retn 0x5B5E ;  (1 found)
0x10022842: retn 0x5D5B ;  (1 found)
0x1001e348: retn 0x5E5F ;  (1 found)
0x1001e8e7: retn 0x5E5F ;  (1 found)
0x1001a7e0: retn 0x5F5B ;  (1 found)
0x1001a813: retn 0x5F5E ;  (1 found)
0x1001f244: retn 0x5F5E ;  (1 found)
0x1001f2a3: retn 0x5F5E ;  (1 found)
0x100202b6: retn 0x6602 ;  (1 found)
0x1002057d: retn 0x6602 ;  (1 found)
0x1002055e: retn 0x6602 ;  (1 found)
0x1002060c: retn 0x6602 ;  (1 found)
0x10024202: retn 0x6602 ;  (1 found)
0x100241e7: retn 0x6602 ;  (1 found)
0x100241d7: retn 0x6602 ;  (1 found)
0x10017caa: retn 0x748B ;  (1 found)
0x10017fc5: retn 0x748B ;  (1 found)
0x10029dd8: retn 0x7540 ;  (1 found)
0x10029e41: retn 0x7540 ;  (1 found)
0x1001404a: retn 0x7A74 ;  (1 found)
0x1001a2da: retn 0x7A80 ;  (1 found)
0x1002675e: retn 0x7C8B ;  (1 found)
0x1001d5f5: retn 0x7D8B ;  (1 found)
0x100267d1: retn 0x7D8B ;  (1 found)
0x10013705: retn 0x7D8D ;  (1 found)
0x10021c11: retn 0x7D8D ;  (1 found)
0x100176f8: retn 0x7E3D ;  (1 found)
0x100252c3: retn 0x8002 ;  (1 found)
0x10025384: retn 0x8002 ;  (1 found)
0x10025f34: retn 0x8042 ;  (1 found)
0x10025f51: retn 0x804A ;  (1 found)
0x100202cb: retn 0x8302 ;  (1 found)
0x10020344: retn 0x8302 ;  (1 found)
0x1001b41a: retn 0x8320 ;  (1 found)
0x100238b6: retn 0x840F ;  (1 found)
0x10015b81: retn 0x8902 ;  (1 found)
0x100136e0: retn 0x8B30 ;  (1 found)
0x100186e4: retn 0x8B30 ;  (1 found)
0x1001a444: retn 0x8B30 ;  (1 found)
0x1001a470: retn 0x8B30 ;  (1 found)
0x1001a45b: retn 0x8B30 ;  (1 found)
0x1001a8e5: retn 0x8B30 ;  (1 found)
0x1001a8bb: retn 0x8B30 ;  (1 found)
0x1001a8d0: retn 0x8B30 ;  (1 found)
0x1001eea5: retn 0x8B30 ;  (1 found)
0x1001eef9: retn 0x8B30 ;  (1 found)
0x10021bec: retn 0x8B30 ;  (1 found)
0x100178c4: retn 0x8B66 ;  (1 found)
0x100205a3: retn 0x8BC3 ;  (1 found)
0x1001baa3: retn 0x8D30 ;  (1 found)
0x10011f12: retn 0xA10C ;  (1 found)
0x100125a6: retn 0xA10C ;  (1 found)
0x10011f2e: retn 0xA1C3 ;  (1 found)
0x1001b42d: retn 0xB70F ;  (1 found)
0x1001e004: retn 0xC06B ;  (1 found)
0x10025833: retn 0xC06B ;  (1 found)
0x1002585e: retn 0xC06B ;  (1 found)
0x100257ff: retn 0xC06B ;  (1 found)
0x100267d6: retn 0xC123 ;  (1 found)
0x10028aec: retn 0xC133 ;  (1 found)
0x1001b9a8: retn 0xC22B ;  (1 found)
0x1001cd20: retn 0xC22B ;  (1 found)
0x100266ff: retn 0xC22B ;  (1 found)
0x10026706: retn 0xC22B ;  (1 found)
0x100267da: retn 0xC22B ;  (1 found)
0x10026769: retn 0xC22B ;  (1 found)
0x1002689b: retn 0xC22B ;  (1 found)
0x100297b4: retn 0xC22B ;  (1 found)
0x1002057b: retn 0xC283 ;  (1 found)
0x1002ca5c: retn 0xC300 ;  (1 found)
0x1002cc5c: retn 0xC301 ;  (1 found)
0x1001788c: retn 0xC35B ;  (1 found)
0x1001a732: retn 0xC3C9 ;  (1 found)
0x1001a912: retn 0xC3C9 ;  (1 found)
0x100241a8: retn 0xC602 ;  (1 found)
0x10026708: retn 0xC82A ;  (1 found)
0x1002676b: retn 0xC82A ;  (1 found)
0x100267dc: retn 0xC82B ;  (1 found)
0x1002222b: retn 0xC933 ;  (1 found)
0x1001a834: retn 0xC95F ;  (1 found)
0x10026701: retn 0xE083 ;  (1 found)
0x10026764: retn 0xE083 ;  (1 found)
0x1002689d: retn 0xE083 ;  (1 found)
0x1002826d: retn 0xE083 ;  (1 found)
0x10028251: retn 0xE083 ;  (1 found)
0x1002828a: retn 0xE083 ;  (1 found)
0x1002879f: retn 0xE281 ;  (1 found)
0x100125b5: retn 0xE877 ;  (1 found)
0x10028af2: retn 0xE8C1 ;  (1 found)
0x100125c3: retn 0xE8C3 ;  (1 found)
0x10011f21: retn 0xE977 ;  (1 found)
0x1001c3d7: retn 0xE9C1 ;  (1 found)
0x1001c88c: retn 0xE9C1 ;  (1 found)
0x10020b3a: retn 0xEF7F ;  (1 found)
0x10018edd: retn 0xF272 ;  (1 found)
0x100178a3: retn 0xF641 ;  (1 found)
0x100193c4: retn 0xF8C0 ;  (1 found)
0x100266f3: retn 0xF8C1 ;  (1 found)
0x1002674b: retn 0xF8C1 ;  (1 found)
0x1002688d: retn 0xF8C1 ;  (1 found)
0x100267c7: retn 0xF8C1 ;  (1 found)
0x10025751: retn 0xF8D1 ;  (1 found)
0x100257a2: retn 0xF8D1 ;  (1 found)
0x10018487: retn 0xF8EB ;  (1 found)
0x100297b6: retn 0xFF3D ;  (1 found)
0x10024000: retn 0xFF8B ;  (1 found)
0x100268ab: retn 0xFFBA ;  (1 found)
0x1001454e: retn 0xFFDC ;  (1 found)
0x10018a30: retn 0xFFE9 ;  (1 found)
0x10018c59: retn 0xFFFF ;  (1 found)
0x100208e9: retn 0xFFFF ;  (1 found)
0x10020903: retn 0xFFFF ;  (1 found)
0x10023cc9: retn 0xFFFF ;  (1 found)
0x10025871: rol byte [eax+0x5D], 0x0000005F ; pop esi ; pop ebx ; ret  ;  (1 found)
0x100242ea: rol byte [eax-0x1D2CF81F], 0xFFFFFF85 ; retn 0x2C74 ;  (1 found)
0x10017681: rol byte [eax-0x3F], 0xFFFFFFE0 ; or byte [ebx], cl ; shr ebx, 0x02 ; xor eax, eax ; ret  ;  (1 found)
0x10015582: rol byte [eax], 0x00000000 ; add esp, 0x04 ; mov eax, esi ; pop edi ; pop esi ; ret  ;  (1 found)
0x1001cf4b: rol byte [eax], 1  ; mov esp, dword [edx+0x10] ; add esp, 0x04 ; jmp dword [edx+0x14] ;  (1 found)
0x10016c2b: rol byte [ebp+0x0000B8C0], 0x00000000 ; add byte [ebp+eax-0x48], dh ; add dword [eax], eax ; add byte [eax], al ; retn 0x0004 ;  (1 found)
0x1001d337: rol byte [ebx+0x5F5EFFD8], 0xFFFFFFC9 ; ret  ;  (1 found)
0x1001e6df: rol byte [ebx+0x5F5EFFD8], 0xFFFFFFC9 ; ret  ;  (1 found)
0x10017c5f: rol byte [ebx-0x14B7FD20], 0x00000002 ; xor eax, eax ; pop edi ; pop esi ; pop ebx ; ret  ;  (1 found)
0x10017fb1: rol byte [ebx-0x14B7FD20], 0x00000002 ; xor eax, eax ; pop edi ; pop esi ; pop ebx ; ret  ;  (1 found)
0x1001dedc: rol byte [ebx-0x3F7A0028], 0x00000074 ; sbb cl, byte [ebp-0x0000937B] ; call dword [eax-0x01] ;  (1 found)
0x1002a05b: rol byte [ecx+0x000404E1], 0x00000000 ; mov ebx, edx ; add ebx, eax ; add ebx, 0x10 ; jmp dword [ebx] ;  (1 found)
0x1002a0e7: rol byte [ecx+0x000404E1], 0x00000000 ; mov ebx, edx ; add ebx, eax ; add ebx, 0x10 ; jmp dword [ebx] ;  (1 found)
0x10025324: rol byte [edx], 0x00000050 ; mov dword [ebp-0x0C], eax ; push 0x00000100 ; push dword [ebp-0x04] ; push 0x00000001 ; call dword [0x10011130] ;  (1 found)
0x1001b0b0: rol byte [edx], 0xFFFFFF83 ; retn 0x0A02 ;  (1 found)
0x1001dece: rol byte [edx], 0xFFFFFF83 ; retn 0x0A02 ;  (1 found)
0x10025801: rol byte [esi], 0x00000066 ; mov eax, dword [eax+0x100329C0] ; ret  ;  (1 found)
0x1001d5ef: rol cl, 1  ; enter 0x6610, 0x8B ; retn 0x7D8B ;  (1 found)
0x10022288: rol dh, 0x00000002 ; add byte [edi+0x5E], bl ; pop ebx ; mov esp, ebp ; pop ebp ; ret  ;  (1 found)
0x1002686c: rol dword [eax+eax*2], 0xFFFFFF83 ; clc  ; add edi, dword [edx+esi*8-0x48] ; add dword [eax], eax ; add byte [eax], al ; ret  ;  (1 found)
0x1002a0f8: rol dword [eax], 0x00000000 ; add cl, bl ; leave  ; fstp st0 ; ret  ;  (1 found)
0x1001d367: rol dword [ebx-0x163EFC1E], 1  ; add dh, bl ; movsd  ; jmp dword [0x1001D378+edx*4] ;  (1 found)
0x1001d4b7: rol dword [ebx-0x163EFC1E], 1  ; add dh, bl ; movsd  ; jmp dword [0x1001D4C8+edx*4] ;  (1 found)
0x10011f27: rol dword [ebx-0x3FE4FE08], 0x23 ; retn 0xA1C3 ;  (1 found)
0x100125bc: rol dword [ebx-0x3FE4FE08], 0x23 ; retn 0xE8C3 ;  (1 found)
0x10013a5a: rol dword [ecx+ecx*4], 0x08 ; mov ax, word [ecx-0x04] ; ret  ;  (1 found)
0x10021fa0: rol dword [ecx+ecx*4], 0x08 ; mov ax, word [ecx-0x04] ; ret  ;  (1 found)
0x10013a4b: rol dword [ecx+ecx*4], 0x08 ; mov eax, dword [ecx-0x04] ; ret  ;  (1 found)
0x10021f91: rol dword [ecx+ecx*4], 0x08 ; mov eax, dword [ecx-0x04] ; ret  ;  (1 found)
0x10023053: rol dword [ecx+ecx*4], 0x08 ; mov eax, dword [ecx-0x04] ; ret  ;  (1 found)
0x1002684d: rol dword [edx+ecx*2], 0x75 ; pop esi ; ret  ;  (1 found)
0x1001e22d: rol dword [edx], 0xFFFFFF83 ; retn 0x0A02 ;  (1 found)
0x10020609: rol dword [edx], 0xFFFFFF83 ; retn 0x6602 ;  (1 found)
0x1001dbbe: rol ebx, 0xFFFFFF9E ; add byte [ecx-0x3E74EBB8], cl ; and eax, 0x7FFF0000 ; shr eax, 0x10 ; ret  ;  (1 found)
0x10018eda: ror byte [eax], 0x0000003B ; retn 0xF272 ;  (1 found)
0x10027e97: ror byte [eax], 0x0000005D ; ret  ;  (1 found)
0x100245e6: ror byte [ebp+0x0375D946], 0xFFFFFF8D ; inc esi ; stc  ; pop esi ; ret  ;  (1 found)
0x100126b8: ror byte [ebx+0x6604244C], 0xFFFFFF8B ; add al, 0x4A ; and eax, 0x00000080 ; ret  ;  (1 found)
0x100125fb: ror byte [ebx+0x6604244C], 0xFFFFFF8B ; add al, 0x4A ; and eax, 0x00000103 ; ret  ;  (1 found)
0x10012747: ror byte [ebx+0x6604244C], 0xFFFFFF8B ; add al, 0x4A ; and eax, 0x00000107 ; ret  ;  (1 found)
0x100127ad: ror byte [ebx+0x6604244C], 0xFFFFFF8B ; add al, 0x4A ; and eax, 0x00000117 ; ret  ;  (1 found)
0x1001277a: ror byte [ebx+0x6604244C], 0xFFFFFF8B ; add al, 0x4A ; and eax, 0x00000157 ; ret  ;  (1 found)
0x1001262b: ror byte [ebx+0x6604244C], 0xFFFFFF8B ; add al, 0x4A ; and eax, 0x01 ; ret  ;  (1 found)
0x10012659: ror byte [ebx+0x6604244C], 0xFFFFFF8B ; add al, 0x4A ; and eax, 0x02 ; ret  ;  (1 found)
0x10012687: ror byte [ebx+0x6604244C], 0xFFFFFF8B ; add al, 0x4A ; and eax, 0x04 ; ret  ;  (1 found)
0x100126e8: ror byte [ebx+0x6604244C], 0xFFFFFF8B ; add al, 0x4A ; and eax, 0x08 ; ret  ;  (1 found)
0x10012716: ror byte [ebx+0x6604244C], 0xFFFFFF8B ; add al, 0x4A ; and eax, 0x10 ; ret  ;  (1 found)
0x100127dd: ror byte [ebx+0x6604244C], 0xFFFFFF8B ; add al, 0x4A ; and eax, 0x20 ; ret  ;  (1 found)
0x10016bff: ror byte [ebx-0x17F7DBB4], cl ; add dword [eax], eax ; add byte [eax], al ; ret  ;  (1 found)
0x10016b72: ror byte [ebx-0x17F7DBB4], cl ; mov es, word [eax] ; add byte [eax], al ; ret  ;  (1 found)
0x10026856: ror byte [ebx-0x54F7DB84], 0xFFFFFFAB ; stosd  ; pop edi ; ret  ;  (1 found)
0x10027273: ror byte [ebx], 0xFFFFFFC6 ; pop esi ; pop ebx ; mov dword [edx+0x08], eax ; ret  ;  (1 found)
0x10027587: ror byte [ecx+0x06890446], 0x0000005F ; pop esi ; pop ebx ; mov esp, ebp ; pop ebp ; ret  ;  (1 found)
0x10023077: ror byte [ecx+0x08468906], 0xFFFFFF80 ; or al, 0xF7 ; mov dword [esi+0x04], eax ; pop esi ; ret  ;  (1 found)
0x100229e7: ror byte [ecx+0x20E9F045], 1  ; add eax, 0xB70F0000 ; ret  ;  (1 found)
0x10016937: ror byte [ecx+0x4589C845], 0xFFFFFFFC ; lea eax, dword [ebp-0x38] ; push eax ; call dword [0x1001111C] ;  (1 found)
0x10015df0: ror byte [edi], 0xFFFFFF84 ; retn 0x0000 ;  (1 found)
0x100228ba: ror byte [edi], 0xFFFFFF87 ; dec edi ; push es ; add byte [eax], al ; jmp dword [0x10022F2D+eax*4] ;  (1 found)
0x1001802f: ror byte [edi], 1  ; mov dh, 0x01 ; add eax, edx ; ret  ;  (1 found)
0x10016aa6: ror byte [edx+0x02F3C081], 0x00000010 ; and eax, 0x40 ; ret  ;  (1 found)
0x1001d3ab: ror byte [edx-0x74F877FA], 0x00000045 ; or byte [esi+0x5F], bl ; leave  ; ret  ;  (1 found)
0x1001d4fb: ror byte [edx-0x74F877FA], 0x00000045 ; or byte [esi+0x5F], bl ; leave  ; ret  ;  (1 found)
0x10016711: ror dword [eax], 0x51 ; lea eax, dword [ebp-0x04] ; push eax ; call dword [0x1001103C] ;  (1 found)
0x1001f27c: ror dword [ebx+0x5F5E5BC1], 1  ; leave  ; ret  ;  (1 found)
0x100165f4: ror dword [ebx-0x72F01407], 1  ; inc ebp ; call dword [eax+0x6A] ;  (1 found)
0x1001d3c7: ror dword [ebx-0x745B0C36], 0xFFFFFFC8 ; and eax, 0x03 ; shr ecx, 0x02 ; rep movsd  ; jmp dword [0x1001D378+eax*4] ;  (1 found)
0x1001d517: ror dword [ebx-0x745B0C36], 0xFFFFFFC8 ; and eax, 0x03 ; shr ecx, 0x02 ; rep movsd  ; jmp dword [0x1001D4C8+eax*4] ;  (1 found)
0x10013a93: ror dword [ecx+0x51], 1  ; push dword [esp+0x1C] ; push edx ; call dword [0x100110B8] ;  (1 found)
0x1002152f: ror dword [ecx-0x5F], 1  ; enter 0x02F4, 0x10 ; push ecx ; push edx ; push eax ; call dword [0x10011180] ;  (1 found)
0x100132d2: ror dword [ecx-0x78F037B3], 0x3F ; push es ; add byte [eax], al ; jmp dword [0x10013938+eax*4] ;  (1 found)
0x100217d8: ror dword [ecx-0x78F037B3], 0x57 ; push es ; add byte [eax], al ; jmp dword [0x10021E56+eax*4] ;  (1 found)
0x100228b7: ror dword [ecx-0x78F03FB3], 0x4F ; push es ; add byte [eax], al ; jmp dword [0x10022F2D+eax*4] ;  (1 found)
0x1001a134: ror dword [ecx-0x7D], 1  ; stc  ; add esi, dword [ebp+0x4A] ; push edx ; call dword [0x10011168] ;  (1 found)
0x1002a053: ror dword [edx-0x28F0DB3F], 0x0F ; mov esi, 0x04E181C0 ; add al, 0x00 ; add byte [ebx-0x7C27FC26], cl ; ret  ;  (1 found)
0x10029aa0: sahf  ; add byte [eax], al ; add byte [ebx-0x37], bl ; ret  ;  (1 found)
0x1001dbc0: sahf  ; add byte [ecx-0x3E74EBB8], cl ; and eax, 0x7FFF0000 ; shr eax, 0x10 ; ret  ;  (1 found)
0x1001699f: sahf  ; call dword [0x10011058] ;  (1 found)
0x1002468b: sal bh, 0xFFFFFFD8 ; ret  ;  (1 found)
0x10014547: sal bl, 0x00000002 ; adc bl, ch ; sbb ebp, eax ; retn 0xFFDC ;  (1 found)
0x100131cc: sal bl, 0x00000002 ; adc byte [eax], al ; xor eax, eax ; pop edi ; pop esi ; ret  ;  (1 found)
0x1001c77a: sal bl, 0x00000002 ; adc byte [esp+esi*2], al ; add dword [ebp+0x2B], eax ; fisttp qword [ebx+0x03102444] ; ret  ;  (1 found)
0x1001743e: sal bl, 0x00000002 ; adc ch, bh ; mov eax, edi ; pop edi ; pop esi ; ret  ;  (1 found)
0x1001d3df: sal bl, 0xFFFFFFA4 ; mov eax, dword [ebp+0x08] ; pop esi ; pop edi ; leave  ; ret  ;  (1 found)
0x1001d52f: sal bl, 0xFFFFFFA4 ; mov eax, dword [ebp+0x08] ; pop esi ; pop edi ; leave  ; ret  ;  (1 found)
0x1001f29f: sal bl, 0xFFFFFFAA ; mov eax, edx ; pop esi ; pop edi ; leave  ; ret  ;  (1 found)
0x1002846b: sal byte [eax+ebp*2-0x17], 0xFFFFFFF3 ; add dword [eax], eax ; add byte [edi-0x73], dl ; test dword [edi+edi*8-0x01], edi ; call dword [ebx+0x50] ;  (1 found)
0x10012b8b: sal byte [ebp+0x01], 0x00000040 ; push eax ; call dword [0x10011080] ;  (1 found)
0x10025beb: sal byte [ebp+0x0A], 0xFFFFFFC7 ; add eax, 0x1002FF98 ; add byte [eax], al ; add byte [eax], al ; ret  ;  (1 found)
0x100143fa: sal byte [ebp+0x13], 0xFFFFFF8D ; inc ebp ; cld  ; push eax ; push esi ; call dword [0x100110BC] ;  (1 found)
0x100189b3: sal byte [ebp+0x2C], 0x00000057 ; add esi, 0x41 ; call dword [0x10011094] ;  (1 found)
0x10025f16: sal byte [ebp-0x0D], cl ; pop esi ; ret  ;  (1 found)
0x1001db9c: sal byte [ebp-0x11], 0x0000005E ; pop ebx ; ret  ;  (1 found)
0x1001a72e: sal byte [ebp-0x11], 0xFFFFFF8B ; retn 0xC3C9 ;  (1 found)
0x1001a90e: sal byte [ebp-0x11], 0xFFFFFF8B ; retn 0xC3C9 ;  (1 found)
0x100202f1: sal byte [ebp-0x13], cl ; mov eax, dword [esp+0x08] ; pop esi ; ret  ;  (1 found)
0x1001b63e: sal byte [ebp-0x13], cl ; pop edi ; pop esi ; ret  ;  (1 found)
0x10016684: sal byte [ebp-0x15], 0xFFFFFFE8 ; mov byte [ebx+0x00C7FFFF], bh ; or eax, 0xE8000000 ; xchg byte [ebx-0x0F740001], bh ; call dword [0x10011058] ;  (1 found)
0x10024639: sal byte [ebp-0x1E], 0x00000066 ; mov eax, esi ; pop edi ; pop esi ; ret  ;  (1 found)
0x10025992: sal byte [ebp-0x21], cl ; xor eax, eax ; pop esi ; ret  ;  (1 found)
0x10017eea: sal byte [ebp-0x4D], 0xFFFFFFEB ; fcmovb st0, st6 ; push es ; add byte [ebx+0x5B5E5FC7], cl ; ret  ;  (1 found)
0x100178fa: sal byte [ebp-0x60], cl ; xor eax, eax ; pop esi ; pop ebx ; ret  ;  (1 found)
0x1001f6c1: sal byte [ecx+eax*2+0x0F], 0xFFFFFFBE ; ret  ;  (1 found)
0x100269d0: sal byte [ecx+eax+0x47], 0xFFFFFF8B ; pop esi ; add al, 0x8B ; ret  ;  (1 found)
0x100202b2: sal byte [ecx+ecx-0x7D], 1  ; retn 0x6602 ;  (1 found)
0x1001a108: sal byte [edx+edi*2+0x68], 0x00000004 ; add dword [eax], eax ; add byte [ebp-0x0002577B], cl ; call dword [esi+0x33] ;  (1 found)
0x10012e03: sal byte [esi+ebp*2-0x73], 0x00000044 ; and al, 0x0C ; push eax ; push 0x00000000 ; call dword [0x100110A4] ;  (1 found)
0x1002157a: sal byte [esp+ebx-0x7D], 0xFFFFFFFF ; adc dword [edi+edx-0x7D], esi ; dec dword [0xFF831274] ; or dword [ebp+ecx+0x50], esi ; call esi ;  (1 found)
0x10016f8f: sal dh, 0xFFFFFF80 ; cmp edi, ebp ; add dl, byte [eax] ; add al, 0x74 ; or al, 0x8B ; retn 0x3B42 ;  (1 found)
0x10016a16: sal dword [ebp+0x1C], 1  ; lea eax, dword [ebp-0x20] ; push eax ; call dword [0x1001111C] ;  (1 found)
0x1001a74b: sal dword [edx+0x02], 0xFFFFFF8B ; rcr dword [edi-0x3D], 0xFFFFFF8B ; dec esp ; and al, 0x04 ; movzx eax, byte [ecx] ; ret  ;  (1 found)
0x10016fa7: sal dword [esi-0x23], 1  ; xor eax, eax ; ret  ;  (1 found)
0x1002155a: salc  ; mov eax, dword [0x1002FA64] ; push eax ; call esi ;  (1 found)
0x100215a9: salc  ; mov eax, dword [0x1002FA74] ; push eax ; call esi ;  (1 found)
0x100215b1: salc  ; mov eax, dword [0x1002FA84] ; push eax ; call esi ;  (1 found)
0x100215b9: salc  ; pop edi ; pop esi ; pop ebx ; ret  ;  (1 found)
0x10021562: salc  ; pop esi ; ret  ;  (1 found)
0x10021552: salc  ; push dword [0x1002FA74] ; call esi ;  (1 found)
0x100207f3: sar bh, 1  ; and eax, ebx ; pop ebx ; ret  ;  (1 found)
0x1001a86f: sar bh, 1  ; and eax, edi ; pop edi ; pop esi ; ret  ;  (1 found)
0x1001826a: sar bh, 1  ; pop ebx ; and eax, ecx ; ret  ;  (1 found)
0x10018415: sar bh, 1  ; pop ebx ; and eax, ecx ; ret  ;  (1 found)
0x1002283e: sar bh, 1  ; pop esi ; and eax, edx ; pop ebx ; pop ebp ; ret  ;  (1 found)
0x1001c1a3: sar bh, 1  ; pop esi ; pop ebx ; mov esp, ebp ; pop ebp ; ret  ;  (1 found)
0x100155c5: sar bh, 1  ; pop esi ; ret  ;  (1 found)
0x10021469: sar bh, 1  ; push eax ; call dword [0x10011194] ;  (1 found)
0x100127f8: sar bh, 1  ; ret  ;  (1 found)
0x1001cd17: sar bh, 1  ; ret  ;  (1 found)
0x10015eb1: sar byte [eax+0x00000000], 0x00000075 ; adc al, ch ; push esi ; ret  ;  (1 found)
0x1001671f: sar byte [eax+0x00000000], 0x00000075 ; push es ; call dword [0x10011058] ;  (1 found)
0x1001682c: sar byte [eax+0x00000000], 0x00000075 ; push es ; call dword [0x10011058] ;  (1 found)
0x10018672: sar byte [eax+0x00000000], 0x00000075 ; push es ; call dword [0x10011058] ;  (1 found)
0x10019569: sar byte [eax+0x00000000], 0x00000075 ; push es ; call dword [0x10011058] ;  (1 found)
0x1001b2a5: sar byte [eax+0x00000000], 0x00000075 ; push es ; call dword [0x10011058] ;  (1 found)
0x1001dc1f: sar byte [eax+0x00000000], 0x00000075 ; push es ; call dword [0x10011058] ;  (1 found)
0x100171a3: sar byte [eax+0x00000000], 0x00000075 ; push es ; jmp dword [0x10011058] ;  (1 found)
0x10018ecd: sar byte [ebx], 1  ; retn 0x1273 ;  (1 found)
0x10011d14: sar byte [esi], 1  ; add edx, dword [eax] ; call dword [0x10011104] ;  (1 found)
0x1001a1a7: sar dh, 0xFFFFFFFF ; call dword [eax+0x51] ;  (1 found)
0x10015254: sar dh, 0xFFFFFFFF ; call dword [eax-0x18] ;  (1 found)
0x100152cd: sar dh, 0xFFFFFFFF ; call dword [esi+0x57] ;  (1 found)
0x100192ae: sar eax, 0x02 ; neg eax ; pop edi ; pop esi ; ret  ;  (1 found)
0x10020477: sar eax, 1  ; dec eax ; ret  ;  (1 found)
0x1002040f: sar eax, 1  ; pop esi ; pop ebx ; ret  ;  (1 found)
0x100205df: sar eax, 1  ; pop esi ; pop ebx ; ret  ;  (1 found)
0x1002a1e7: sar edi, 0xFFFFFFFF ; call dword [ebp+0x33] ;  (1 found)
0x1001603c: sar edi, 0xFFFFFFFF ; mov dword [eax], 0x00000000 ; mov eax, 0xFFFFFFFF ; pop esi ; pop ebp ; ret  ;  (1 found)
0x100160ac: sar edi, 0xFFFFFFFF ; mov dword [eax], 0x00000000 ; mov eax, 0xFFFFFFFF ; pop esi ; ret  ;  (1 found)
0x100160e7: sar edi, 0xFFFFFFFF ; mov dword [eax], 0x00000000 ; mov eax, 0xFFFFFFFF ; ret  ;  (1 found)
0x10015db5: sar edi, cl ; inc dword [ebx-0x3974FB3C] ; pop edi ; pop esi ; ret  ;  (1 found)
0x10025bc4: sar esi, 0xFFFFFFFF ; add esp, 0x04 ; ret  ;  (1 found)
0x10025bc5: sar esi, 0xFFFFFFFF ; add esp, 0x04 ; ret  ;  (1 found)
0x100212e9: sbb ah, byte [ecx+0x10033B5C] ; push eax ; call dword [0x100110D8] ;  (1 found)
0x100214be: sbb al, 0x11 ; add dword [eax], edx ; mov dword [0x10033CB8], eax ; ret  ;  (1 found)
0x100168b9: sbb al, 0x11 ; add dword [eax], edx ; push eax ; call dword [0x10011118] ;  (1 found)
0x10016902: sbb al, 0x11 ; add dword [eax], edx ; push eax ; call dword [0x10011118] ;  (1 found)
0x100169c2: sbb al, 0x11 ; add dword [eax], edx ; push eax ; call dword [0x10011120] ;  (1 found)
0x10016944: sbb al, 0x11 ; add dword [eax], edx ; push eax ; call dword [0x10011124] ;  (1 found)
0x10016a1f: sbb al, 0x11 ; add dword [eax], edx ; push eax ; call dword [0x10011124] ;  (1 found)
0x10016a4a: sbb al, 0x11 ; add dword [eax], edx ; push eax ; call dword [0x10011124] ;  (1 found)
0x1001691d: sbb al, 0x11 ; add dword [eax], edx ; push eax ; call dword [0x10011128] ;  (1 found)
0x100169e6: sbb al, 0x11 ; add dword [eax], edx ; push eax ; call dword [0x1001112C] ;  (1 found)
0x10013a99: sbb al, 0x52 ; call dword [0x100110B8] ;  (1 found)
0x100295d4: sbb al, 0x5E ; mov esp, ebp ; pop ebp ; ret  ;  (1 found)
0x10029440: sbb al, 0x5E ; mov esp, ebp ; pop ebp ; ret  ;  (1 found)
0x1002157c: sbb al, 0x83 ; call dword [ecx] ;  (1 found)
0x100161d8: sbb al, 0x83 ; cmp eax, 0x1002E768 ; call dword [esi+0x74] ;  (1 found)
0x10026357: sbb al, 0x8B ; fdiv st0, st6 ; ret  ;  (1 found)
0x100207e2: sbb al, 0x8B ; ret  ;  (1 found)
0x1001a3ea: sbb al, 0xFF ; movsx eax, al ; pop esi ; leave  ; ret  ;  (1 found)
0x1001a3e8: sbb al, al ; sbb al, 0xFF ; movsx eax, al ; pop esi ; leave  ; ret  ;  (1 found)
0x10014626: sbb al, byte [eax] ; add byte [ebx-0x00AFFB3C], al ; adc eax, 0x100110C8 ; push eax ; call dword [0x100110C4] ;  (1 found)
0x1001fbd9: sbb al, byte [eax] ; add byte [ebx-0x3FCCFB3C], al ; pop edi ; pop esi ; pop ebx ; ret  ;  (1 found)
0x10025bd4: sbb al, byte [ecx] ; adc byte [edx+0x08], ch ; push eax ; call dword [0x10011134] ;  (1 found)
0x100279d3: sbb al, ch ; pop edi ; sub byte [eax], al ; add byte [ebx-0x74A1E73C], al ; in eax, 0x5D ; ret  ;  (1 found)
0x1001ac3a: sbb byte [eax], al ; add byte [ebx-0x3FCCFB3C], al ; pop edi ; pop esi ; pop ebx ; ret  ;  (1 found)
0x1001fdce: sbb byte [eax], al ; add byte [esi-0x75], ah ; inc ebp ; inc byte [ebx-0x1A74FB3C] ; pop ebp ; ret  ;  (1 found)
0x1001847d: sbb byte [ebp-0x32], dh ; xor eax, eax ; pop edi ; pop esi ; pop ebx ; ret  ;  (1 found)
0x10015f65: sbb byte [ebx+ebx*8-0x3D74098B], al ; pop esi ; pop ebx ; mov esp, ebp ; pop ebp ; ret  ;  (1 found)
0x1002a328: sbb byte [ebx-0x74A1F73C], al ; in eax, 0x5D ; ret  ;  (1 found)
0x10018757: sbb byte [ebx], dh ; rcr byte [ebp+0x5F], 0x0000005E ; pop ebx ; add esp, 0x04 ; ret  ;  (1 found)
0x1001fcad: sbb byte [ebx], dh ; rcr byte [ebp+0x5F], 0x0000005E ; pop ebx ; ret  ;  (1 found)
0x100231d8: sbb byte [ecx+0x087E893E], cl ; pop edi ; pop esi ; ret  ;  (1 found)
0x1001fcab: sbb byte [ecx+0x5DC03318], cl ; pop edi ; pop esi ; pop ebx ; ret  ;  (1 found)
0x10013cba: sbb byte [edi+0x0E], dh ; movzx ecx, byte [eax+0x1001435F] ; jmp dword [0x1001432F+ecx*4] ;  (1 found)
0x100234eb: sbb byte [edi+0x0E], dh ; movzx ecx, byte [eax+0x10023C3F] ; jmp dword [0x10023C0F+ecx*4] ;  (1 found)
0x10023ea5: sbb byte [edi+0x0E], dh ; movzx ecx, byte [eax+0x100245A7] ; jmp dword [0x10024577+ecx*4] ;  (1 found)
0x1001e399: sbb byte [edi-0x39], bh ; pop ebp ; pop edi ; pop esi ; pop ebx ; ret  ;  (1 found)
0x100279db: sbb byte [esi-0x75], bl ; in eax, 0x5D ; ret  ;  (1 found)
0x10027dad: sbb byte [esi-0x75], bl ; in eax, 0x5D ; ret  ;  (1 found)
0x10020d63: sbb ch, al ; mov esp, 0x83000008 ; les eax,  [ebx+ecx*4] ; ret  ;  (1 found)
0x1001dee3: sbb cl, byte [ebp-0x0000937B] ; call dword [eax-0x01] ;  (1 found)
0x10025581: sbb cl, byte [edi] ; mov bh, 0x45 ; cld  ; push eax ; call dword [0x100111B8] ;  (1 found)
0x10025542: sbb cl, byte [edi] ; mov bh, 0x45 ; cld  ; push eax ; call dword [0x100111B8] ;  (1 found)
0x100255d4: sbb cl, byte [edi] ; mov bh, 0x45 ; cld  ; push eax ; call dword [0x100111B8] ;  (1 found)
0x1001505b: sbb dword [eax-0x18], edx ; ret  ;  (1 found)
0x100254ca: sbb dword [eax-0x18], edx ; retn 0x0002 ;  (1 found)
0x10028218: sbb dword [ebx-0x0000937B], ecx ; jmp dword [edi] ;  (1 found)
0x100281d4: sbb dword [ebx-0x0000937B], ecx ; jmp dword [esi+edi*8] ;  (1 found)
0x1001e0ca: sbb dword [ecx+esi*8+0x5E5F1002], 0x5B ; mov esp, ebp ; pop ebp ; ret  ;  (1 found)
0x1002173a: sbb dword [ecx], eax ; adc bh, bh ; adc eax, 0x10011150 ; pop esi ; mov dword [0x1002FF48], eax ; ret  ;  (1 found)
0x10015878: sbb dword [esi-0x00000001], edi ; call dword [0x10011058] ;  (1 found)
0x1001923d: sbb eax, 0x0000C600 ; lea eax, dword [eax+0x01] ; and ecx, eax ; push ecx ; push ebx ; call dword [0x10011158] ;  (1 found)
0x10017165: sbb eax, 0x1424748B ; push esi ; push dword [esp+0x14] ; call dword [esp+0x28] ;  (1 found)
0x100193bf: sbb eax, 0x8108558B ; retn 0xF8C0 ;  (1 found)
0x100156fb: sbb eax, 0x8300006A ; les ecx,  [eax] ; ret  ;  (1 found)
0x10021097: sbb eax, 0x83FFFF0D ; les eax,  [edi+ebx*2] ; pop esi ; mov esp, ebp ; pop ebp ; ret  ;  (1 found)
0x10016f8c: sbb eax, 0xF6C0B60F ; cmp byte [ecx], 0xFFFFFFEF ; add dl, byte [eax] ; add al, 0x74 ; or al, 0x8B ; retn 0x3B42 ;  (1 found)
0x1001d338: sbb eax, 0xFFFFFFFF ; pop esi ; pop edi ; leave  ; ret  ;  (1 found)
0x1001e6e0: sbb eax, 0xFFFFFFFF ; pop esi ; pop edi ; leave  ; ret  ;  (1 found)
0x100144ee: sbb eax, dword [eax] ; add byte [ebx-0x00AFFB3C], al ; adc eax, 0x100110C8 ; push eax ; call dword [0x100110C4] ;  (1 found)
0x1001fb17: sbb eax, dword [eax] ; add byte [ebx-0x3C74FB3C], al ; pop edi ; pop esi ; pop ebx ; ret  ;  (1 found)
0x1001772d: sbb eax, eax ; add eax, 0x02 ; ret  ;  (1 found)
0x1001760e: sbb eax, eax ; and al, 0xFD ; add eax, 0x02 ; ret  ;  (1 found)
0x100168c7: sbb eax, eax ; and al, 0xFE ; sub eax, 0x02 ; ret  ;  (1 found)
0x10027e8f: sbb eax, eax ; and eax, 0x000000F8 ; add eax, 0x08 ; pop ebp ; ret  ;  (1 found)
0x10020325: sbb eax, eax ; and eax, ecx ; ret  ;  (1 found)
0x10017889: sbb eax, eax ; and eax, edx ; pop ebx ; ret  ;  (1 found)
0x10011f2b: sbb eax, eax ; and eax, edx ; ret  ;  (1 found)
0x100125c0: sbb eax, eax ; and eax, edx ; ret  ;  (1 found)
0x100205a0: sbb eax, eax ; and eax, edx ; ret  ;  (1 found)
0x10027dc4: sbb eax, eax ; inc eax ; ret  ;  (1 found)
0x1002468a: sbb eax, eax ; neg eax ; ret  ;  (1 found)
0x100120f6: sbb eax, eax ; ret  ;  (1 found)
0x100169f4: sbb eax, eax ; ret  ;  (1 found)
0x1001be94: sbb eax, eax ; ret  ;  (1 found)
0x1001d336: sbb eax, eax ; sbb eax, 0xFFFFFFFF ; pop esi ; pop edi ; leave  ; ret  ;  (1 found)
0x1001e6de: sbb eax, eax ; sbb eax, 0xFFFFFFFF ; pop esi ; pop edi ; leave  ; ret  ;  (1 found)
0x1001ca97: sbb eax, ebp ; mov byte [ebx+0x00], cl ; add byte [ebx-0x3874FB3C], al ; pop edi ; pop esi ; ret  ;  (1 found)
0x1001dcc3: sbb eax, ebp ; pop esp ; cmp dword [eax], eax ; add byte [ebx-0x3974FB3C], al ; pop esi ; ret  ;  (1 found)
0x1001454c: sbb ebp, eax ; retn 0xFFDC ;  (1 found)
0x1001978e: sbb ebp, ebx ; out 0x61, al ; popfd  ; mov esp, ebp ; pop ebp ; ret  ;  (1 found)
0x1001230c: sbb edi, dword [esi+0x00000001] ; push esi ; push 0x100123B7 ; call dword [0x1001105C] ;  (1 found)
0x10029eab: scasb  ; add edx, dword [eax] ; ret  ;  (1 found)
0x10029ec0: scasb  ; fyl2x  ; ret  ;  (1 found)
0x1001bbec: scasd  ; enter 0xCE03, 0x51 ; mov dword [ebp-0x04], ecx ; push dword [ebp+0x08] ; call dword [ebp+0x18] ;  (1 found)
0x10029f50: scasd  ; fstp st0 ; fld tword [0x100336A4] ; ret  ;  (1 found)
0x10020e2a: shl al, 0x00000002 ; adc byte [edi-0x5D], bl ; mov esp, 0x5E1002E0 ; mov esp, ebp ; pop ebp ; ret  ;  (1 found)
0x10027e90: shl byte [0x000000F8], 0xFFFFFF83 ; ror byte [eax], 0x0000005D ; ret  ;  (1 found)
0x1002ba44: shl byte [eax+eax+0x00], cl ; jmp dword [eax+eax+0x00] ;  (1 found)
0x10020326: shl byte [ebx], 0xFFFFFFC1 ; ret  ;  (1 found)
0x1001788a: shl byte [ebx], 0xFFFFFFC2 ; pop ebx ; ret  ;  (1 found)
0x10011f2c: shl byte [ebx], 0xFFFFFFC2 ; ret  ;  (1 found)
0x100125c1: shl byte [ebx], 0xFFFFFFC2 ; ret  ;  (1 found)
0x100205a1: shl byte [ebx], 0xFFFFFFC2 ; ret  ;  (1 found)
0x100188fc: shl byte [ebx], 1  ; inc ebp ; adc al, 0x85 ; ret  ;  (1 found)
0x10016ca2: shl byte [esi-0x75], 0x00000004 ; dec edx ; and eax, 0x00000103 ; ret  ;  (1 found)
0x1001cc4b: shl byte [esi-0x75], 0x00000004 ; dec edx ; and eax, 0x00008000 ; ret  ;  (1 found)
0x10016f72: shl byte [esi-0x75], 0x00000004 ; dec edx ; and eax, 0x01 ; ret  ;  (1 found)
0x10016e54: shl byte [esi-0x75], 0x00000004 ; dec edx ; and eax, 0x02 ; ret  ;  (1 found)
0x10016cff: shl byte [esi-0x75], 0x00000004 ; dec edx ; and eax, 0x04 ; ret  ;  (1 found)
0x10016f17: shl byte [esi-0x75], 0x00000004 ; dec edx ; and eax, 0x08 ; ret  ;  (1 found)
0x1001802a: shl eax, 0x08 ; inc ecx ; mov edx, eax ; movzx eax, byte [ecx] ; add eax, edx ; ret  ;  (1 found)
0x1002aa7a: shr ax, 0x0004 ; sub ax, 0x000003FE ; movsx eax, ax ; ret  ;  (1 found)
0x1001a38f: shr ax, 0x0006 ; or si, ax ; mov ax, si ; pop esi ; pop ebx ; ret  ;  (1 found)
0x1001f306: shr bl, 0x00000002 ; mov eax, edi ; cld  ; pop edi ; leave  ; ret  ;  (1 found)
0x1001cc19: shr bl, 0x00000002 ; xor eax, eax ; mov esp, ebp ; pop ebp ; ret  ;  (1 found)
0x10028b32: shr bl, 0x00000005 ; mov eax, 0x00000001 ; ret  ;  (1 found)
0x10021301: shr bl, 0x00000008 ; mov eax, dword [0x10033B60] ; add eax, 0x2C ; pop edi ; pop esi ; ret  ;  (1 found)
0x1001dbf9: shr bl, 0x00000012 ; push dword [ebp+0x0C] ; push eax ; push 0x00000000 ; push dword [0x10033CB8] ; call dword [0x100110CC] ;  (1 found)
0x10012e71: shr bl, 0x0000001E ; call dword [0x10011058] ;  (1 found)
0x10012f1d: shr bl, 0x00000036 ; call dword [0x10011058] ;  (1 found)
0x100212d1: shr bl, 0x00000038 ; mov eax, dword [0x10033B60] ; push eax ; mov eax, dword [0x10033B5C] ; push eax ; call dword [0x100110D4] ;  (1 found)
0x1002171b: shr byte [eax-0x28], 0x00000019 ; add dword [eax], edx ; call dword [0x10011150] ;  (1 found)
0x1002130a: shr byte [edi+ebx*2], 0x0000005E ; ret  ;  (1 found)
0x10012d2f: shr cl, 0xFFFFFFAC ; add byte [eax], al ; add byte [ebp-0x00AF07BB], cl ; xor eax, 0x1002FF44 ; call dword [0x100110A0] ;  (1 found)
0x1001e290: shr cl, 0xFFFFFFB3 ; add byte [eax], al ; add byte [ebp-0x0000877B], cl ; call dword [eax+0x68] ;  (1 found)
0x1002aa7b: shr eax, 0x04 ; sub ax, 0x000003FE ; movsx eax, ax ; ret  ;  (1 found)
0x1001a390: shr eax, 0x06 ; or si, ax ; mov ax, si ; pop esi ; pop ebx ; ret  ;  (1 found)
0x1001dbcd: shr eax, 0x10 ; ret  ;  (1 found)
0x100272a6: shr eax, 1  ; or eax, edi ; pop edi ; mov dword [esi], eax ; pop esi ; ret  ;  (1 found)
0x1001a3a8: shr eax, cl ; and eax, 0x01 ; ret  ;  (1 found)
0x10017687: shr ebx, 0x02 ; xor eax, eax ; ret  ;  (1 found)
0x1001d3d1: shr ecx, 0x02 ; rep movsd  ; jmp dword [0x1001D378+eax*4] ;  (1 found)
0x1001d36b: shr ecx, 0x02 ; rep movsd  ; jmp dword [0x1001D378+edx*4] ;  (1 found)
0x1001d477: shr ecx, 0x02 ; rep movsd  ; jmp dword [0x1001D410+eax*4] ;  (1 found)
0x1001d404: shr ecx, 0x02 ; rep movsd  ; jmp dword [0x1001D410+edx*4] ;  (1 found)
0x1001d521: shr ecx, 0x02 ; rep movsd  ; jmp dword [0x1001D4C8+eax*4] ;  (1 found)
0x1001d4bb: shr ecx, 0x02 ; rep movsd  ; jmp dword [0x1001D4C8+edx*4] ;  (1 found)
0x1001d5c7: shr ecx, 0x02 ; rep movsd  ; jmp dword [0x1001D560+eax*4] ;  (1 found)
0x1001d554: shr ecx, 0x02 ; rep movsd  ; jmp dword [0x1001D560+edx*4] ;  (1 found)
0x10012f4d: sldt word [eax] ; add byte [eax-0x00000001], bh ; pop ebx ; mov esp, ebp ; pop ebp ; ret  ;  (1 found)
0x10021612: sldt word [eax] ; add byte [ebx+0x37FF04C4], al ; call dword [0x100111A4] ;  (1 found)
0x10029352: sldt word [eax] ; mov esp, ebp ; pop ebp ; ret  ;  (1 found)
0x10027e8d: stc  ; add dword [ebx], ebx ; shl byte [0x000000F8], 0xFFFFFF83 ; ror byte [eax], 0x0000005D ; ret  ;  (1 found)
0x1002059e: stc  ; add dword [ebx], ebx ; shl byte [ebx], 0xFFFFFFC2 ; ret  ;  (1 found)
0x1001a137: stc  ; add esi, dword [ebp+0x4A] ; push edx ; call dword [0x10011168] ;  (1 found)
0x10017715: stc  ; and dword [ebx+0x02], esi ; xor eax, eax ; ret  ;  (1 found)
0x1001fa34: stc  ; mov byte [0xC483FFFF], al ; adc byte [esi-0x75], bl ; in eax, 0x5D ; ret  ;  (1 found)
0x100159ab: stc  ; mov word [esi+0x06], ax ; lea eax, dword [ebp-0x10] ; push eax ; call dword [0x100110E8] ;  (1 found)
0x100143b2: stc  ; pop esi ; ret  ;  (1 found)
0x100245ee: stc  ; pop esi ; ret  ;  (1 found)
0x10023c92: stc  ; pop esi ; ret  ;  (1 found)
0x10018c58: stc  ; retn 0xFFFF ;  (1 found)
0x10017611: std  ; add eax, 0x02 ; ret  ;  (1 found)
0x10013ec1: std  ; dec eax ; push eax ; call dword [0x1002FF60] ;  (1 found)
0x10023720: std  ; dec eax ; push eax ; call dword [0x1002FF60] ;  (1 found)
0x10017442: std  ; mov eax, edi ; pop edi ; pop esi ; ret  ;  (1 found)
0x1001fc70: std  ; push 0xFFFFFFFF ; call dword [eax-0x18] ;  (1 found)
0x10012215: std  ; push es ; add byte [eax], al ; add eax, 0x08 ; ret  ;  (1 found)
0x10028af9: sti  ; add byte [eax], al ; add byte [ebx+0x5F5D0CC4], al ; pop esi ; pop ebx ; ret  ;  (1 found)
0x1001d61b: stosb  ; mov eax, dword [ebp+0x08] ; pop edi ; leave  ; ret  ;  (1 found)
0x1001a7de: stosb  ; mov eax, edx ; pop ebx ; pop edi ; leave  ; ret  ;  (1 found)
0x1001a832: stosb  ; mov eax, edx ; pop edi ; leave  ; ret  ;  (1 found)
0x1001f2a1: stosb  ; mov eax, edx ; pop esi ; pop edi ; leave  ; ret  ;  (1 found)
0x1001f242: stosb  ; mov eax, edx ; pop esi ; pop edi ; leave  ; ret  ;  (1 found)
0x1001320d: stosd  ; add byte [eax], al ; add esp, 0x04 ; mov esi, 0x00000000 ; push eax ; call dword [0x100110B4] ;  (1 found)
0x10020534: stosd  ; mov eax, ebx ; pop edi ; pop esi ; pop ebx ; ret  ;  (1 found)
0x1002685d: stosd  ; pop edi ; ret  ;  (1 found)
0x1002685c: stosd  ; stosd  ; pop edi ; ret  ;  (1 found)
0x1002685b: stosd  ; stosd  ; stosd  ; pop edi ; ret  ;  (1 found)
0x10020533: stosw  ; mov eax, ebx ; pop edi ; pop esi ; pop ebx ; ret  ;  (1 found)
0x100169ed: sub al, 0x11 ; add dword [eax], edx ; cmp eax, 0x01 ; sbb eax, eax ; ret  ;  (1 found)
0x100189b5: sub al, 0x57 ; add esi, 0x41 ; call dword [0x10011094] ;  (1 found)
0x1002130b: sub al, 0x5F ; pop esi ; ret  ;  (1 found)
0x1002aa7e: sub ax, 0x000003FE ; movsx eax, ax ; ret  ;  (1 found)
0x10027dbc: sub ax, 0x00007FF0 ; cmp ax, 0x00000001 ; sbb eax, eax ; inc eax ; ret  ;  (1 found)
0x1002031c: sub ax, word [ebp+0x0C] ; pop ebp ; cmp ax, 0x00000001 ; sbb eax, eax ; and eax, ecx ; ret  ;  (1 found)
0x10011dc2: sub bh, dh ; add byte [eax], al ; add esp, 0x04 ; push 0x000000FF ; call dword [0x1002E004] ;  (1 found)
0x100279d6: sub byte [eax], al ; add byte [ebx-0x74A1E73C], al ; in eax, 0x5D ; ret  ;  (1 found)
0x10019909: sub byte [ebx-0x3B7C0001], bh ; or byte [ebx-0x1A74A13A], cl ; pop ebp ; ret  ;  (1 found)
0x1002875a: sub cl, 0xFFFFFF88 ; add dl, byte [eax] ; jmp dword [0x100288B5+eax*4] ;  (1 found)
0x10020599: sub cx, ax ; cmp cx, 0x0001 ; sbb eax, eax ; and eax, edx ; ret  ;  (1 found)
0x1001318f: sub dword [edi], ebp ; add byte [eax], al ; add esp, 0x04 ; push eax ; call dword [0x10011094] ;  (1 found)
0x10019a40: sub dword [edx], 0xC4830000 ; add al, 0x8B ; ret  ;  (1 found)
0x100168cb: sub eax, 0x02 ; ret  ;  (1 found)
0x10029e79: sub eax, 0x100336A4 ; mov byte [ebp-0x00000090], 0x00000002 ; ret  ;  (1 found)
0x10029f40: sub eax, 0x100336A4 ; mov byte [ebp-0x00000090], 0x00000003 ; ret  ;  (1 found)
0x10029d94: sub eax, 0x100336A4 ; ret  ;  (1 found)
0x10029f54: sub eax, 0x100336A4 ; ret  ;  (1 found)
0x10029eaa: sub eax, 0x100336AE ; ret  ;  (1 found)
0x10029a43: sub eax, 0x1003379A ; ret  ;  (1 found)
0x1001adf6: sub eax, 0x20 ; ret  ;  (1 found)
0x10027dbd: sub eax, 0x3D667FF0 ; add dword [eax], eax ; sbb eax, eax ; inc eax ; ret  ;  (1 found)
0x100192a8: sub eax, dword [0x1002E0C4] ; sar eax, 0x02 ; neg eax ; pop edi ; pop esi ; ret  ;  (1 found)
0x1001bd29: sub eax, dword [ebp+0x0C] ; mov dword [ebp-0x04], eax ; fild dword [ebp-0x04] ; mov esp, ebp ; pop ebp ; ret  ;  (1 found)
0x1002031d: sub eax, dword [ebp+0x0C] ; pop ebp ; cmp ax, 0x00000001 ; sbb eax, eax ; and eax, ecx ; ret  ;  (1 found)
0x10017c9e: sub eax, dword [esp+0x04] ; ret  ;  (1 found)
0x10020473: sub eax, dword [esp+0x04] ; sar eax, 1  ; dec eax ; ret  ;  (1 found)
0x10017882: sub eax, dword [esp+0x0C] ; cmp eax, 0x01 ; sbb eax, eax ; and eax, edx ; pop ebx ; ret  ;  (1 found)
0x10019765: sub eax, eax ; ret  ;  (1 found)
0x10011f26: sub eax, ecx ; cmp eax, 0x01 ; sbb eax, eax ; and eax, edx ; ret  ;  (1 found)
0x100125bb: sub eax, ecx ; cmp eax, 0x01 ; sbb eax, eax ; and eax, edx ; ret  ;  (1 found)
0x1001b60f: sub eax, ecx ; pop edi ; pop esi ; pop ebx ; pop ebp ; ret  ;  (1 found)
0x1002040c: sub eax, ecx ; pop edi ; sar eax, 1  ; pop esi ; pop ebx ; ret  ;  (1 found)
0x100205dc: sub eax, ecx ; pop edi ; sar eax, 1  ; pop esi ; pop ebx ; ret  ;  (1 found)
0x100204f3: sub eax, ecx ; pop esi ; pop ebp ; ret  ;  (1 found)
0x1001b9a9: sub eax, edx ; ret  ;  (1 found)
0x1001cd21: sub eax, edx ; ret  ;  (1 found)
0x1001796d: sub eax, esi ; pop ebp ; pop edi ; pop esi ; pop ebx ; ret  ;  (1 found)
0x1001839e: sub eax, esi ; pop ebp ; pop edi ; pop esi ; pop ebx ; ret  ;  (1 found)
0x100281c2: sub ecx, dword [ebx-0x0000937B] ; jmp dword [0x8589010C+edi*8] ;  (1 found)
0x10028206: sub ecx, dword [ebx-0x0000937B] ; jmp dword [ebx+ebp*8] ;  (1 found)
0x100179a9: sub ecx, eax ; and ecx, 0x01 ; sub edx, ecx ; lea eax, dword [edx-0x01] ; ret  ;  (1 found)
0x1002059a: sub ecx, eax ; cmp cx, 0x0001 ; sbb eax, eax ; and eax, edx ; ret  ;  (1 found)
0x1001bce6: sub ecx, eax ; movzx eax, word [esp+0x04] ; add eax, ecx ; add esp, 0x0C ; ret  ;  (1 found)
0x1001d474: sub edi, 0x03 ; shr ecx, 0x02 ; rep movsd  ; jmp dword [0x1001D410+eax*4] ;  (1 found)
0x1001d5c4: sub edi, 0x03 ; shr ecx, 0x02 ; rep movsd  ; jmp dword [0x1001D560+eax*4] ;  (1 found)
0x1001d401: sub edi, 0x04 ; shr ecx, 0x02 ; rep movsd  ; jmp dword [0x1001D410+edx*4] ;  (1 found)
0x1001d551: sub edi, 0x04 ; shr ecx, 0x02 ; rep movsd  ; jmp dword [0x1001D560+edx*4] ;  (1 found)
0x100179ae: sub edx, ecx ; lea eax, dword [edx-0x01] ; ret  ;  (1 found)
0x1001775d: sub esi, 0x000000A2 ; mov eax, esi ; pop esi ; ret  ;  (1 found)
0x1001d471: sub esi, 0x03 ; sub edi, 0x03 ; shr ecx, 0x02 ; rep movsd  ; jmp dword [0x1001D410+eax*4] ;  (1 found)
0x1001d5c1: sub esi, 0x03 ; sub edi, 0x03 ; shr ecx, 0x02 ; rep movsd  ; jmp dword [0x1001D560+eax*4] ;  (1 found)
0x1001d3fe: sub esi, 0x04 ; sub edi, 0x04 ; shr ecx, 0x02 ; rep movsd  ; jmp dword [0x1001D410+edx*4] ;  (1 found)
0x1001d54e: sub esi, 0x04 ; sub edi, 0x04 ; shr ecx, 0x02 ; rep movsd  ; jmp dword [0x1001D560+edx*4] ;  (1 found)
0x1002abbb: sub esp, 0x04 ; fstsw word [esp+0x02] ; fnclex  ; movsx eax, word [esp+0x02] ; add esp, 0x04 ; ret  ;  (1 found)
0x1002abaa: sub esp, 0x04 ; wait  ; fstsw word [esp+0x02] ; movsx eax, word [esp+0x02] ; add esp, 0x04 ; ret  ;  (1 found)
0x1001677a: sub esp, 0x10 ; lea eax, dword [ebp-0x10] ; push eax ; call dword [0x100110E8] ;  (1 found)
0x1001fa43: sub esp, 0x10 ; lea eax, dword [ebp-0x10] ; push eax ; call dword [0x10011190] ;  (1 found)
0x10011cfe: test al, 0x00 ; add byte [eax], al ; call dword [0x10011044] ;  (1 found)
0x1001bb03: test al, 0x00 ; add ch, bl ; inc eax ; adc byte [ebx+0x5E5F14C4], al ; add esp, 0x18 ; ret  ;  (1 found)
0x1001bb02: test al, 0x00 ; add ch, bl ; inc eax ; adc byte [ebx+0x5E5F14C4], al ; add esp, 0x18 ; ret  ;  (1 found)
0x10021635: test al, 0x11 ; add dword [eax], edx ; pop ebp ; ret  ;  (1 found)
0x100177a2: test al, 0x34 ; add byte [eax], al ; add esp, 0x04 ; ret  ;  (1 found)
0x10011ddd: test al, 0xA6 ; add byte [eax], al ; add esp, 0x04 ; ret  ;  (1 found)
0x10012898: test al, 0xEC ; add byte [eax], al ; call dword [0x10011068] ;  (1 found)
0x10013529: test bh, al ; add al, byte [eax] ; add byte [ebx], bh ; ret  ;  (1 found)
0x10021a35: test bh, al ; add al, byte [eax] ; add byte [ebx], bh ; ret  ;  (1 found)
0x100284e5: test bl, cl ; add byte [eax], al ; add byte [edi-0x73], dl ; test dword [edi+edi*8-0x01], edi ; call dword [ebx+0x50] ;  (1 found)
0x10012ba1: test byte [eax], dl ; add dword [eax], edx ; ret  ;  (1 found)
0x10020550: test byte [ebx+0x661174D1], 0xFFFFFF8B ; cmp byte [esi+0x39], ah ; cmp dh, byte [esp+edx-0x7D] ; retn 0x6602 ;  (1 found)
0x10015f69: test byte [ebx-0x74A4A13E], 0xFFFFFFE5 ; pop ebp ; ret  ;  (1 found)
0x10016300: test byte [ecx-0x73000000], ah ; inc ebp ; clc  ; push eax ; push dword [0x1002FF44] ; call dword [0x10011100] ;  (1 found)
0x1002a3d3: test byte [edi], 0x00000000 ; add ch, bl ; inc ebp ; and byte [ebx-0x74A1F73C], al ; in eax, 0x5D ; ret  ;  (1 found)
0x1001dd8e: test dl, ah ; add byte [eax], al ; add byte [ebx], ch ; ret  ;  (1 found)
0x100215b3: test dl, bh ; add dl, byte [eax] ; push eax ; call esi ;  (1 found)
0x10021546: test dl, bh ; add dl, byte [eax] ; push eax ; mov esi, dword [0x1001119C] ; call esi ;  (1 found)
0x100137a2: test dword [eax+0x50FFFFFD], edi ; call dword [0x1002FF5C] ;  (1 found)
0x10021cae: test dword [eax+0x50FFFFFD], edi ; call dword [0x1002FF5C] ;  (1 found)
0x10013788: test dword [eax+0x50FFFFFD], edi ; call dword [0x1002FF64] ;  (1 found)
0x10021c94: test dword [eax+0x50FFFFFD], edi ; call dword [0x1002FF64] ;  (1 found)
0x10025c66: test dword [eax+0x57000000], ebx ; push edi ; push dword [ebp+0x10] ; push dword [ebp+0x0C] ; call dword [0x100111B4] ;  (1 found)
0x1002162e: test dword [eax-0x06], eax ; add dl, byte [eax] ; call dword [0x100111A8] ;  (1 found)
0x10011dc3: test dword [eax], 0x04C48300 ; push 0x000000FF ; call dword [0x1002E004] ;  (1 found)
0x1001907c: test dword [eax], eax ; add byte [ebx-0x3974FB3C], al ; pop esi ; ret  ;  (1 found)
0x100190e0: test dword [eax], eax ; add byte [ebx-0x3974FB3C], al ; pop esi ; ret  ;  (1 found)
0x10017820: test dword [ebx+0x02E9C1C1], 0xE083A5F3 ; add edx, dword [ecx+0x458BA4F3] ; or byte [edi+0x5E], bl ; leave  ; ret  ;  (1 found)
0x1001e684: test dword [ebx+0x02E9C1C1], 0xE083A5F3 ; add edx, dword [ecx+0x458BA4F3] ; or byte [edi+0x5E], bl ; leave  ; ret  ;  (1 found)
0x1001e8da: test dword [ebx-0x745A0C06], 0x03E183C8 ; rep movsb  ; mov eax, edx ; pop edi ; pop esi ; ret  ;  (1 found)
0x1001dee5: test dword [edi+edi*8-0x01], ebp ; call dword [eax-0x01] ;  (1 found)
0x10028642: test dword [edi+edi*8-0x01], ebp ; call dword [eax-0x01] ;  (1 found)
0x10028585: test dword [edi+edi*8-0x01], ebp ; call dword [eax-0x01] ;  (1 found)
0x1001de12: test dword [edi+edi*8-0x01], ebp ; call dword [esi+0x50] ;  (1 found)
0x100284a4: test dword [edi+edi*8-0x01], ebp ; inc dword [eax+0x50FEBC65] ; call dword [ebp+0x10] ;  (1 found)
0x10028184: test dword [edi+edi*8-0x01], ebp ; jmp dword [0x0001FFE0] ;  (1 found)
0x100281c4: test dword [edi+edi*8-0x01], ebp ; jmp dword [0x8589010C+edi*8] ;  (1 found)
0x10028208: test dword [edi+edi*8-0x01], ebp ; jmp dword [ebx+ebp*8] ;  (1 found)
0x1002821a: test dword [edi+edi*8-0x01], ebp ; jmp dword [edi] ;  (1 found)
0x100281d6: test dword [edi+edi*8-0x01], ebp ; jmp dword [esi+edi*8] ;  (1 found)
0x1001de86: test dword [edi+edi*8-0x01], ebp ; push dword [ebx] ; call dword [edi+0x57] ;  (1 found)
0x10029b77: test dword [edi+edi*8-0x01], ebx ; jmp dword [esi-0x7D] ;  (1 found)
0x10028475: test dword [edi+edi*8-0x01], edi ; call dword [ebx+0x50] ;  (1 found)
0x100284ec: test dword [edi+edi*8-0x01], edi ; call dword [ebx+0x50] ;  (1 found)
0x1001b015: test dword [edi+edi*8-0x01], edx ; call dword [eax-0x01] ;  (1 found)
0x100283b9: test dword [edi+edi*8-0x01], esi ; call dword [eax] ;  (1 found)
0x1002871b: test dword [edi+edi*8-0x01], esi ; call dword [eax] ;  (1 found)
0x10028243: test dword [edi+edi*8-0x01], esi ; jmp dword [ebx] ;  (1 found)
0x1001a0e1: test dword [esi+edi*8+0x5650FFFF], ebp ; call dword [0x100110D0] ;  (1 found)
0x100151ce: test dword [esi+edi*8+0x5756FFFF], edi ; push eax ; push dword [ebp+0x08] ; call dword [0x100110D0] ;  (1 found)
0x10015248: test dword [esi+edi*8+0x5D8BFFFF], edi ; or al, 0x89 ; add ecx, dword [ebp-0x00013F7B] ; call dword [eax-0x18] ;  (1 found)
0x1001ff78: test eax, 0x66000016 ; mov eax, esi ; add esp, 0x04 ; pop edi ; pop esi ; ret  ;  (1 found)
0x10026b22: test eax, 0x8BFFFFFF ; in eax, 0x5D ; ret  ;  (1 found)
0x1001b89d: test eax, eax ; hlt  ; add dl, byte [eax] ; call dword [0x10011180] ;  (1 found)
0x1001b873: test eax, eax ; hlt  ; add dl, byte [eax] ; call dword [0x10011180] ;  (1 found)
0x10018bf7: test eax, eax ; hlt  ; add dl, byte [eax] ; push dword [ebp-0x08] ; call dword [0x100110C4] ;  (1 found)
0x10027fd8: test esi, 0x05741000 ; or eax, 0x00040000 ; pop esi ; ret  ;  (1 found)
0x10014cb2: vmread dword [eax], eax ; add byte [ebx-0x3974FB3C], al ; pop esi ; mov esp, ebp ; pop ebp ; ret  ;  (1 found)
0x10029f91: wait  ; fstsw word [ebp-0x000000A0] ; fabs  ; f2xm1  ; ret  ;  (1 found)
0x1002abad: wait  ; fstsw word [esp+0x02] ; movsx eax, word [esp+0x02] ; add esp, 0x04 ; ret  ;  (1 found)
0x1002ac50: wait  ; mov esp, ebp ; pop ebp ; ret  ;  (1 found)
0x10029b9d: wait  ; ret  ;  (1 found)
0x10016693: xchg byte [ebx-0x0F740001], bh ; call dword [0x10011058] ;  (1 found)
0x10020c9b: xchg byte [ecx], cl ; add byte [eax], al ; add esp, 0x04 ; mov eax, esi ; pop esi ; ret  ;  (1 found)
0x10028753: xchg dword [edi+0x01], edx ; add byte [eax], al ; movzx eax, byte [eax+0x100288E9] ; jmp dword [0x100288B5+eax*4] ;  (1 found)
0x100228bc: xchg dword [edi+0x06], ecx ; add byte [eax], al ; jmp dword [0x10022F2D+eax*4] ;  (1 found)
0x100217dd: xchg dword [edi+0x06], edx ; add byte [eax], al ; jmp dword [0x10021E56+eax*4] ;  (1 found)
0x100132d7: xchg dword [edi], edi ; push es ; add byte [eax], al ; jmp dword [0x10013938+eax*4] ;  (1 found)
0x10026bb4: xchg dword [edx+0x04], esi ; add byte [eax], al ; jmp dword [0x1002718E+eax*4] ;  (1 found)
0x1001c779: xchg eax, eax ; add dl, byte [eax] ; add al, 0x74 ; add dword [ebp+0x2B], eax ; fisttp qword [ebx+0x03102444] ; ret  ;  (1 found)
0x10014625: xchg eax, ebx ; sbb al, byte [eax] ; add byte [ebx-0x00AFFB3C], al ; adc eax, 0x100110C8 ; push eax ; call dword [0x100110C4] ;  (1 found)
0x10022a26: xchg eax, ecx ; das  ; add dl, byte [eax] ; jmp dword [0x10022F4D+ecx*4] ;  (1 found)
0x10015088: xchg eax, ecx ; outsb  ; add byte [eax], al ; add esp, 0x04 ; ret  ;  (1 found)
0x1002211d: xchg eax, edi ; add byte [eax], al ; add byte [edx-0x17], al ; retn 0x0000 ;  (1 found)
0x1001ad8d: xchg eax, esp ; push 0xC4830000 ; add al, 0x8B ; ret  ;  (1 found)
0x1002c51d: xlatb  ; add dword [eax], eax ; ret  ;  (1 found)
0x10011dea: xlatb  ; cmpsb  ; add byte [eax], al ; add esp, 0x04 ; ret  ;  (1 found)
0x10025bbd: xlatb  ; pop edi ; pop esi ; ret  ;  (1 found)
0x100170e6: xor al, 0x11 ; add dword [eax], edx ; mov eax, dword [ebp+0x0C] ; mov esp, ebp ; pop ebp ; ret  ;  (1 found)
0x1001711a: xor al, 0x11 ; add dword [eax], edx ; mov eax, dword [ebp+0x0C] ; mov esp, ebp ; pop ebp ; ret  ;  (1 found)
0x1001714e: xor al, 0x11 ; add dword [eax], edx ; mov eax, dword [ebp+0x0C] ; mov esp, ebp ; pop ebp ; ret  ;  (1 found)
0x1002162d: xor al, 0x85 ; inc eax ; cli  ; add dl, byte [eax] ; call dword [0x100111A8] ;  (1 found)
0x100158e8: xor al, 0x8D ; inc ebp ; lea ecx, dword [ebp-0x38] ; push eax ; push ecx ; call dword [0x100110DC] ;  (1 found)
0x10015930: xor al, 0x8D ; inc ebp ; lea ecx, dword [ebp-0x40] ; push eax ; push ecx ; call dword [0x100110DC] ;  (1 found)
0x10025780: xor ax, ax ; pop edi ; pop esi ; pop ebx ; ret  ;  (1 found)
0x100257d1: xor ax, ax ; pop edi ; pop esi ; pop ebx ; ret  ;  (1 found)
0x1001d8ef: xor bh, byte [0xC4830000] ; add al, 0x5F ; ret  ;  (1 found)
0x10019048: xor byte [eax-0x00000001], bh ; pop edi ; pop esi ; mov esp, ebp ; pop ebp ; ret  ;  (1 found)
0x1002aba4: xor byte [esi-0x75], bl ; in eax, 0x5D ; ret  ;  (1 found)
0x10029a35: xor ch, ch ; fsqrt  ; ret  ;  (1 found)
0x1001de0f: xor dl, byte [edi-0x73] ; test dword [edi+edi*8-0x01], ebp ; call dword [esi+0x50] ;  (1 found)
0x10017a85: xor dword [eax], eax ; add byte [ebx+0x3B6604C4], al ; ret  ;  (1 found)
0x1002684b: xor dword [ebx+0x754A04C1], eax ; pop esi ; ret  ;  (1 found)
0x1002054d: xor dword [esi-0x7B], esp ; test byte [ebx+0x661174D1], 0xFFFFFF8B ; cmp byte [esi+0x39], ah ; cmp dh, byte [esp+edx-0x7D] ; retn 0x6602 ;  (1 found)
0x1001346e: xor eax, 0x03AD870F ; add byte [eax], al ; movzx ecx, byte [eax+0x1001399C] ; jmp dword [0x10013958+ecx*4] ;  (1 found)
0x1002197a: xor eax, 0x03AD870F ; add byte [eax], al ; movzx ecx, byte [eax+0x10021EBA] ; jmp dword [0x10021E76+ecx*4] ;  (1 found)
0x10022a1c: xor eax, 0x03D9870F ; add byte [eax], al ; movzx ecx, byte [eax+0x10022F91] ; jmp dword [0x10022F4D+ecx*4] ;  (1 found)
0x1002154c: xor eax, 0x1001119C ; call esi ;  (1 found)
0x10021554: xor eax, 0x1002FA74 ; call esi ;  (1 found)
0x10012d48: xor eax, 0x1002FF44 ; call dword [0x10011098] ;  (1 found)
0x10012dca: xor eax, 0x1002FF44 ; call dword [0x10011098] ;  (1 found)
0x1001621f: xor eax, 0x1002FF44 ; call dword [0x10011098] ;  (1 found)
0x10016287: xor eax, 0x1002FF44 ; call dword [0x10011098] ;  (1 found)
0x10012d3a: xor eax, 0x1002FF44 ; call dword [0x100110A0] ;  (1 found)
0x10016211: xor eax, 0x1002FF44 ; call dword [0x100110A0] ;  (1 found)
0x10016235: xor eax, 0x1002FF44 ; call dword [0x100110F8] ;  (1 found)
0x1001630a: xor eax, 0x1002FF44 ; call dword [0x10011100] ;  (1 found)
0x1001b49a: xor eax, 0x1002FF7C ; call dword [0x1001116C] ;  (1 found)
0x100203a5: xor eax, 0x1002FF7C ; call dword [0x1001116C] ;  (1 found)
0x1001f86f: xor eax, 0x1002FF7C ; call dword [0x10011174] ;  (1 found)
0x1001f89b: xor eax, 0x1002FF7C ; call dword [0x10011174] ;  (1 found)
0x10020c3a: xor eax, 0x1002FF7C ; call dword [0x10011174] ;  (1 found)
0x1001ad7b: xor eax, 0x1002FF80 ; call dword [0x10011174] ;  (1 found)
0x1001af27: xor eax, 0x1002FF80 ; call dword [0x10011174] ;  (1 found)
0x1001fdad: xor eax, 0x1002FF80 ; call dword [0x10011174] ;  (1 found)
0x1001fe67: xor eax, 0x1002FF80 ; call dword [0x10011174] ;  (1 found)
0x10016b2b: xor eax, 0x1002FF90 ; call dword [0x10011134] ;  (1 found)
0x10018547: xor eax, 0x1002FF90 ; call dword [0x10011134] ;  (1 found)
0x1001aef6: xor eax, 0x1002FF90 ; call dword [0x10011134] ;  (1 found)
0x1001a66a: xor eax, 0x1002FF90 ; call dword [0x10011134] ;  (1 found)
0x1001ad4a: xor eax, 0x1002FF90 ; call dword [0x10011134] ;  (1 found)
0x1001c024: xor eax, 0x1002FF90 ; call dword [0x10011134] ;  (1 found)
0x1001cfc4: xor eax, 0x1002FF90 ; call dword [0x10011134] ;  (1 found)
0x1001cff3: xor eax, 0x1002FF90 ; call dword [0x10011134] ;  (1 found)
0x1001d0ad: xor eax, 0x1002FF90 ; call dword [0x10011134] ;  (1 found)
0x1001d0fa: xor eax, 0x1002FF90 ; call dword [0x10011134] ;  (1 found)
0x1001d190: xor eax, 0x1002FF90 ; call dword [0x10011134] ;  (1 found)
0x1001d28e: xor eax, 0x1002FF90 ; call dword [0x10011134] ;  (1 found)
0x1001d2cf: xor eax, 0x1002FF90 ; call dword [0x10011134] ;  (1 found)
0x1001e7a6: xor eax, 0x1002FF90 ; call dword [0x10011134] ;  (1 found)
0x1001f851: xor eax, 0x1002FF90 ; call dword [0x10011134] ;  (1 found)
0x1001adad: xor eax, 0x1002FF90 ; call dword [0x10011170] ;  (1 found)
0x1001c22b: xor eax, 0x1002FF90 ; call dword [0x10011170] ;  (1 found)
0x1001af59: xor eax, 0x1002FF90 ; call dword [0x10011170] ;  (1 found)
0x1001fff9: xor eax, 0x1002FF90 ; call dword [0x10011170] ;  (1 found)
0x10020b06: xor eax, 0x1002FF90 ; call dword [0x10011170] ;  (1 found)
0x10020aac: xor eax, 0x1002FF90 ; call dword [0x10011170] ;  (1 found)
0x10020cfe: xor eax, 0x1002FF90 ; call dword [0x10011170] ;  (1 found)
0x10025ce3: xor eax, 0x1002FF90 ; call dword [0x10011170] ;  (1 found)
0x1002526f: xor eax, 0x1002FF90 ; call dword [0x100111B0] ;  (1 found)
0x100212b4: xor eax, 0x10033B5C ; mov eax, dword [0x10033B60] ; push eax ; push edi ; call dword [0x100110D0] ;  (1 found)
0x1001dc03: xor eax, 0x10033CB8 ; call dword [0x100110CC] ;  (1 found)
0x10018769: xor eax, 0x10033CB8 ; call dword [0x1001114C] ;  (1 found)
0x1001c4cc: xor eax, 0x10033CB8 ; call dword [0x10011188] ;  (1 found)
0x10027a16: xor eax, 0x80000000 ; mov dword [ebp-0x04], eax ; fld qword [ebp-0x08] ; mov esp, ebp ; pop ebp ; ret  ;  (1 found)
0x1001498c: xor eax, 0x8300007B ; les eax,  [ebx+ecx*4] ; ret  ;  (1 found)
0x1001cc8d: xor eax, 0x83FFFFFF ; les ecx,  [eax] ; ret  ;  (1 found)
0x1001e0c3: xor eax, 0xC4830000 ; add al, 0x8B ; sbb dword [ecx+esi*8+0x5E5F1002], 0x5B ; mov esp, ebp ; pop ebp ; ret  ;  (1 found)
0x10011f69: xor eax, dword [eax] ; add byte [eax], al ; add esp, 0x0C ; ret  ;  (1 found)
0x100146ec: xor eax, dword [eax] ; add byte [eax], al ; mov esp, ebp ; pop ebp ; ret  ;  (1 found)
0x100279f9: xor eax, dword [ebp+0x14] ; mov dword [ebp-0x04], eax ; fld qword [ebp-0x08] ; mov esp, ebp ; pop ebp ; ret  ;  (1 found)
0x10016aa5: xor eax, eax ; mov al, byte [ecx+0x1002F3C0] ; and eax, 0x40 ; ret  ;  (1 found)
0x10016ca1: xor eax, eax ; mov ax, word [edx+ecx*2] ; and eax, 0x00000103 ; ret  ;  (1 found)
0x1001cc4a: xor eax, eax ; mov ax, word [edx+ecx*2] ; and eax, 0x00008000 ; ret  ;  (1 found)
0x10016f71: xor eax, eax ; mov ax, word [edx+ecx*2] ; and eax, 0x01 ; ret  ;  (1 found)
0x10016e53: xor eax, eax ; mov ax, word [edx+ecx*2] ; and eax, 0x02 ; ret  ;  (1 found)
0x10016cfe: xor eax, eax ; mov ax, word [edx+ecx*2] ; and eax, 0x04 ; ret  ;  (1 found)
0x10016f16: xor eax, eax ; mov ax, word [edx+ecx*2] ; and eax, 0x08 ; ret  ;  (1 found)
0x10016936: xor eax, eax ; mov dword [ebp-0x38], eax ; mov dword [ebp-0x04], eax ; lea eax, dword [ebp-0x38] ; push eax ; call dword [0x1001111C] ;  (1 found)
0x100126b7: xor eax, eax ; mov ecx, dword [esp+0x04] ; mov ax, word [edx+ecx*2] ; and eax, 0x00000080 ; ret  ;  (1 found)
0x100125fa: xor eax, eax ; mov ecx, dword [esp+0x04] ; mov ax, word [edx+ecx*2] ; and eax, 0x00000103 ; ret  ;  (1 found)
0x10012746: xor eax, eax ; mov ecx, dword [esp+0x04] ; mov ax, word [edx+ecx*2] ; and eax, 0x00000107 ; ret  ;  (1 found)
0x100127ac: xor eax, eax ; mov ecx, dword [esp+0x04] ; mov ax, word [edx+ecx*2] ; and eax, 0x00000117 ; ret  ;  (1 found)
0x10012779: xor eax, eax ; mov ecx, dword [esp+0x04] ; mov ax, word [edx+ecx*2] ; and eax, 0x00000157 ; ret  ;  (1 found)
0x1001262a: xor eax, eax ; mov ecx, dword [esp+0x04] ; mov ax, word [edx+ecx*2] ; and eax, 0x01 ; ret  ;  (1 found)
0x10012658: xor eax, eax ; mov ecx, dword [esp+0x04] ; mov ax, word [edx+ecx*2] ; and eax, 0x02 ; ret  ;  (1 found)
0x10012686: xor eax, eax ; mov ecx, dword [esp+0x04] ; mov ax, word [edx+ecx*2] ; and eax, 0x04 ; ret  ;  (1 found)
0x100126e7: xor eax, eax ; mov ecx, dword [esp+0x04] ; mov ax, word [edx+ecx*2] ; and eax, 0x08 ; ret  ;  (1 found)
0x10012715: xor eax, eax ; mov ecx, dword [esp+0x04] ; mov ax, word [edx+ecx*2] ; and eax, 0x10 ; ret  ;  (1 found)
0x100127dc: xor eax, eax ; mov ecx, dword [esp+0x04] ; mov ax, word [edx+ecx*2] ; and eax, 0x20 ; ret  ;  (1 found)
0x1001cc1c: xor eax, eax ; mov esp, ebp ; pop ebp ; ret  ;  (1 found)
0x1002af9c: xor eax, eax ; mov esp, ebp ; pop ebp ; ret  ;  (1 found)
0x10017a99: xor eax, eax ; pop ebp ; pop edi ; pop esi ; pop ebx ; ret  ;  (1 found)
0x1001ca34: xor eax, eax ; pop ebp ; pop edi ; pop esi ; pop ebx ; ret  ;  (1 found)
0x1001fcae: xor eax, eax ; pop ebp ; pop edi ; pop esi ; pop ebx ; ret  ;  (1 found)
0x10016767: xor eax, eax ; pop ebp ; ret  ;  (1 found)
0x10018f1f: xor eax, eax ; pop ebp ; ret  ;  (1 found)
0x1002aae7: xor eax, eax ; pop ebp ; ret  ;  (1 found)
0x1001f3a3: xor eax, eax ; pop ebx ; pop edi ; pop esi ; leave  ; ret  ;  (1 found)
0x100163a6: xor eax, eax ; pop edi ; pop esi ; mov esp, ebp ; pop ebp ; ret  ;  (1 found)
0x1001d2f7: xor eax, eax ; pop edi ; pop esi ; pop ebp ; ret  ;  (1 found)
0x1001fd19: xor eax, eax ; pop edi ; pop esi ; pop ebx ; add esp, 0x04 ; ret  ;  (1 found)
0x10017dfb: xor eax, eax ; pop edi ; pop esi ; pop ebx ; pop ebp ; ret  ;  (1 found)
0x10018115: xor eax, eax ; pop edi ; pop esi ; pop ebx ; pop ebp ; ret  ;  (1 found)
0x10017183: xor eax, eax ; pop edi ; pop esi ; pop ebx ; ret  ;  (1 found)
0x10017c66: xor eax, eax ; pop edi ; pop esi ; pop ebx ; ret  ;  (1 found)
0x10017fb8: xor eax, eax ; pop edi ; pop esi ; pop ebx ; ret  ;  (1 found)
0x10018480: xor eax, eax ; pop edi ; pop esi ; pop ebx ; ret  ;  (1 found)
0x1001ac40: xor eax, eax ; pop edi ; pop esi ; pop ebx ; ret  ;  (1 found)
0x1001b27c: xor eax, eax ; pop edi ; pop esi ; pop ebx ; ret  ;  (1 found)
0x1001fbdf: xor eax, eax ; pop edi ; pop esi ; pop ebx ; ret  ;  (1 found)
0x10024f30: xor eax, eax ; pop edi ; pop esi ; pop ebx ; ret  ;  (1 found)
0x100257d2: xor eax, eax ; pop edi ; pop esi ; pop ebx ; ret  ;  (1 found)
0x10025781: xor eax, eax ; pop edi ; pop esi ; pop ebx ; ret  ;  (1 found)
0x100128f0: xor eax, eax ; pop edi ; pop esi ; ret  ;  (1 found)
0x100131d1: xor eax, eax ; pop edi ; pop esi ; ret  ;  (1 found)
0x10014f0c: xor eax, eax ; pop edi ; pop esi ; ret  ;  (1 found)
0x100164cd: xor eax, eax ; pop edi ; pop esi ; ret  ;  (1 found)
0x10018503: xor eax, eax ; pop edi ; pop esi ; ret  ;  (1 found)
0x1001d008: xor eax, eax ; pop edi ; pop esi ; ret  ;  (1 found)
0x1002056f: xor eax, eax ; pop edi ; pop esi ; ret  ;  (1 found)
0x100231b0: xor eax, eax ; pop edi ; pop esi ; ret  ;  (1 found)
0x100178fd: xor eax, eax ; pop esi ; pop ebx ; ret  ;  (1 found)
0x1001f2e0: xor eax, eax ; pop esi ; pop edi ; leave  ; ret  ;  (1 found)
0x10016daf: xor eax, eax ; pop esi ; ret  ;  (1 found)
0x10016dda: xor eax, eax ; pop esi ; ret  ;  (1 found)
0x1001b3d7: xor eax, eax ; pop esi ; ret  ;  (1 found)
0x10020623: xor eax, eax ; pop esi ; ret  ;  (1 found)
0x1002475f: xor eax, eax ; pop esi ; ret  ;  (1 found)
0x10025022: xor eax, eax ; pop esi ; ret  ;  (1 found)
0x10025995: xor eax, eax ; pop esi ; ret  ;  (1 found)
0x10012b34: xor eax, eax ; ret  ;  (1 found)
0x10016d21: xor eax, eax ; ret  ;  (1 found)
0x10016d42: xor eax, eax ; ret  ;  (1 found)
0x10016d85: xor eax, eax ; ret  ;  (1 found)
0x10016d63: xor eax, eax ; ret  ;  (1 found)
0x10016dff: xor eax, eax ; ret  ;  (1 found)
0x10016fe1: xor eax, eax ; ret  ;  (1 found)
0x10016faa: xor eax, eax ; ret  ;  (1 found)
0x10018694: xor eax, eax ; ret  ;  (1 found)
0x10017719: xor eax, eax ; ret  ;  (1 found)
0x1001768a: xor eax, eax ; ret  ;  (1 found)
0x1001958b: xor eax, eax ; ret  ;  (1 found)
0x1001b2c7: xor eax, eax ; ret  ;  (1 found)
0x1001bd1c: xor eax, eax ; ret  ;  (1 found)
0x1001dc41: xor eax, eax ; ret  ;  (1 found)
0x1001e350: xor eax, eax ; ret  ;  (1 found)
0x10025460: xor eax, eax ; ret  ;  (1 found)
0x10025b81: xor eax, eax ; ret  ;  (1 found)
0x10025f86: xor eax, eax ; ret  ;  (1 found)
0x10029359: xor eax, eax ; ret  ;  (1 found)
0x1002a9f9: xor eax, eax ; ret  ;  (1 found)
0x1002a9fa: xor eax, eax ; ret  ;  (1 found)
0x1001b9a7: xor eax, edx ; sub eax, edx ; ret  ;  (1 found)
0x1001cd1f: xor eax, edx ; sub eax, edx ; ret  ;  (1 found)
0x100256e7: xor ecx, dword [ebp-0x0000877B] ; call dword [eax-0x75] ;  (1 found)
0x100166bf: xor ecx, dword [ebp-0x0001077B] ; call dword [eax+0x68] ;  (1 found)
0x1001e6ba: xor edi, edi ; mov eax, edi ; pop edi ; leave  ; ret  ;  (1 found)
0x10018613: xor edi, edi ; mov eax, edi ; pop esi ; pop edi ; leave  ; ret  ;  (1 found)
0x10018b85: xor edi, edi ; mov ebx, esi ; mov dword [ebp-0x28], 0x00000001 ; mov dword [ebp-0x2C], 0x00000001 ; call dword [0x100110C8] ;  (1 found)
0x10025c44: xor edi, edi ; push 0x00000100 ; push esi ; push dword [ebp+0x10] ; push dword [ebp+0x0C] ; call dword [0x100111B4] ;  (1 found)
0x1001be59: xor edx, dword [edx-0x3B7C0001] ; add al, 0x8B ; fcom dword [edi-0x18] ; mov ebp, 0x83000057 ; les eax,  [ebx+ecx*4] ; ret  ;  (1 found)
0x1001735f: xor esi, dword [esi+0x1B] ; push dword [ebp+0x0C] ; push dword [ebp+0x08] ; call dword [ebp+0x18] ;  (1 found)
0x10012ea4: xor esi, esi ; push eax ; push 0x00000104 ; call dword [0x100110A4] ;  (1 found)
