Trying to open 'VulnApp1.exe'..
Loading PE information..
FileFormat: PE, Arch: Ia32
Using the Nasm syntax..

Wait a few seconds, rp++ is looking for gadgets..
in .text
5998 found.

A total of 5998 gadgets found.
0x1480a69e: aaa  ; adc dword [ebx+esi], 0xFFF983C0 ; setne al ; ret  ;  (1 found)
0x14801573: aaa  ; adc dword [ecx+eax], 0x8B5E01B0 ; in eax, 0x5D ; ret  ;  (1 found)
0x1480be78: aaa  ; adc dword [ecx+eax], 0xA4F30973 ; mov eax, dword [esp+0x0C] ; pop esi ; pop edi ; ret  ;  (1 found)
0x1480b7c8: aaa  ; adc dword [ecx+eax], 0xA4F30973 ; mov eax, dword [esp+0x0C] ; pop esi ; pop edi ; ret  ;  (1 found)
0x14801f46: aaa  ; adc dword [ecx+eax], 0xAAF30973 ; mov eax, dword [esp+0x04] ; mov edi, edx ; ret  ;  (1 found)
0x14802dca: aaa  ; push ebx ; push ebx ; call dword [0x1480D0B4] ;  (1 found)
0x14802df2: aaa  ; xor ebx, ebx ; push ebx ; push ebx ; call dword [0x1480D0B4] ;  (1 found)
0x14803d63: aad 0x18 ; add byte [eax], al ; pop ecx ; ret  ;  (1 found)
0x1480aeff: aad 0xFF ; dec dword [ebp+0x6A500845] ; add dword [edx+0x00], ebp ; push edi ; call dword [0x1480D104] ;  (1 found)
0x14809b78: aam 0x83 ; retn 0x8910 ;  (1 found)
0x14809686: aam 0x83 ; retn 0x8914 ;  (1 found)
0x14804a23: aam 0xDC ; adc byte [0xDCD0A1C3+ebx*2], 0xFFFFFF80 ; adc al, 0x5D ; ret  ;  (1 found)
0x148057d5: aas  ; sar ecx, 0x06 ; imul eax, eax, 0x30 ; add eax, dword [0x14813E58+ecx*4] ; push eax ; call dword [0x1480D078] ;  (1 found)
0x148057f8: aas  ; sar ecx, 0x06 ; imul eax, eax, 0x30 ; add eax, dword [0x14813E58+ecx*4] ; push eax ; call dword [0x1480D07C] ;  (1 found)
0x14806849: adc al, 0x00 ; mov al, 0x01 ; ret  ;  (1 found)
0x14807563: adc al, 0x00 ; pop ecx ; pop esi ; ret  ;  (1 found)
0x14801975: adc al, 0x00 ; ret  ;  (1 found)
0x14801575: adc al, 0x01 ; mov al, 0x01 ; pop esi ; mov esp, ebp ; pop ebp ; ret  ;  (1 found)
0x14804e93: adc al, 0x01 ; pop esi ; mov al, 0x01 ; ret  ;  (1 found)
0x14808fb1: adc al, 0x03 ; ret  ;  (1 found)
0x148096e8: adc al, 0x06 ; andpd xmm3,  [0x14810D80] ; movq qword [esp+0x04], xmm3 ; fld qword [esp+0x04] ; ret  ;  (1 found)
0x148081a9: adc al, 0x0F ; mov dh, 0x44 ; or byte [eax], ch ; and eax, 0x40 ; pop ebp ; ret  ;  (1 found)
0x14807ce0: adc al, 0x0F ; xchg eax, ebp ; ror byte [ebp+0x0001C504], 0x00000000 ; add byte [eax+0x57], dl ; call dword [0x1480D0B0] ;  (1 found)
0x1480b9ef: adc al, 0x1C ; mov edx, 0x448B1480 ; and al, 0x0C ; pop esi ; pop edi ; ret  ;  (1 found)
0x148025c5: adc al, 0x30 ; adc dword [ebx], 0x14813B40 ; ret  ;  (1 found)
0x14802442: adc al, 0x30 ; adc dword [edi+eax*4], 0x5EC0333B ; pop edi ; pop ebx ; pop ebp ; ret  ;  (1 found)
0x148063f8: adc al, 0x30 ; adc dword [edi+eax*4], 0x5EC0333B ; pop edi ; pop ebx ; pop ebp ; ret  ;  (1 found)
0x14801738: adc al, 0x30 ; adc dword [edi+esi*8], 0x180D89D1 ; xor byte [ecx-0x3CA1A0EC], al ; xor eax, eax ; inc eax ; ret  ;  (1 found)
0x148016cb: adc al, 0x31 ; inc ebp ; cld  ; call dword [0x1480D03C] ;  (1 found)
0x148016d4: adc al, 0x31 ; inc ebp ; cld  ; lea eax, dword [ebp-0x14] ; push eax ; call dword [0x1480D038] ;  (1 found)
0x14802968: adc al, 0x33 ; call dword [esi+0x57] ;  (1 found)
0x1480775f: adc al, 0x33 ; lds ecx,  [ecx+0x4D8BFC45] ; or byte [ecx-0x0000FF73], cl ; call dword [ebx-0x75] ;  (1 found)
0x14801bd2: adc al, 0x33 ; rcr byte [ebx-0x75], 0xFFFFFFE5 ; pop ebp ; ret  ;  (1 found)
0x1480a6a0: adc al, 0x33 ; rol byte [ebx-0x6AF00007], 0xFFFFFFC0 ; ret  ;  (1 found)
0x14803356: adc al, 0x40 ; xchg dword [ecx], eax ; ret  ;  (1 found)
0x14801c15: adc al, 0x50 ; call dword [0x1480D068] ;  (1 found)
0x14803174: adc al, 0x50 ; call dword [0x1480D068] ;  (1 found)
0x148043d5: adc al, 0x50 ; call dword [0x1480D068] ;  (1 found)
0x14805601: adc al, 0x50 ; call dword [0x1480D078] ;  (1 found)
0x148057e2: adc al, 0x50 ; call dword [0x1480D078] ;  (1 found)
0x14805649: adc al, 0x50 ; call dword [0x1480D07C] ;  (1 found)
0x14805805: adc al, 0x50 ; call dword [0x1480D07C] ;  (1 found)
0x148021b1: adc al, 0x51 ; call dword [0x1480D06C] ;  (1 found)
0x1480116c: adc al, 0x56 ; mov word [esp+0x16], ax ; call dword [0x1480D118] ;  (1 found)
0x148022ee: adc al, 0x57 ; call dword [0x1480D080] ;  (1 found)
0x14805621: adc al, 0x57 ; call dword [0x1480D080] ;  (1 found)
0x148076a2: adc al, 0x57 ; push esi ; call dword [0x1480D144] ;  (1 found)
0x1480753c: adc al, 0x59 ; mov eax, dword [esi+eax] ; add eax, 0x20 ; push eax ; call dword [0x1480D080] ;  (1 found)
0x14801427: adc al, 0x5D ; ret  ;  (1 found)
0x14801c1c: adc al, 0x5D ; ret  ;  (1 found)
0x14803205: adc al, 0x5D ; ret  ;  (1 found)
0x14802893: adc al, 0x5D ; ret  ;  (1 found)
0x1480291e: adc al, 0x5D ; ret  ;  (1 found)
0x14802ff5: adc al, 0x5D ; ret  ;  (1 found)
0x14803271: adc al, 0x5D ; ret  ;  (1 found)
0x1480431d: adc al, 0x5D ; ret  ;  (1 found)
0x1480441f: adc al, 0x5D ; ret  ;  (1 found)
0x14804a26: adc al, 0x5D ; ret  ;  (1 found)
0x14804a18: adc al, 0x5D ; ret  ;  (1 found)
0x14804a2d: adc al, 0x5D ; ret  ;  (1 found)
0x14804a1f: adc al, 0x5D ; ret  ;  (1 found)
0x14805608: adc al, 0x5D ; ret  ;  (1 found)
0x14805650: adc al, 0x5D ; ret  ;  (1 found)
0x148057e9: adc al, 0x5D ; ret  ;  (1 found)
0x1480580c: adc al, 0x5D ; ret  ;  (1 found)
0x14806a61: adc al, 0x5D ; ret  ;  (1 found)
0x14807579: adc al, 0x5D ; ret  ;  (1 found)
0x1480758d: adc al, 0x5D ; ret  ;  (1 found)
0x14806a4c: adc al, 0x5D ; ret  ;  (1 found)
0x14806a53: adc al, 0x5D ; ret  ;  (1 found)
0x14806a5a: adc al, 0x5D ; ret  ;  (1 found)
0x148080c4: adc al, 0x5D ; ret  ;  (1 found)
0x14808106: adc al, 0x5D ; ret  ;  (1 found)
0x14802542: adc al, 0x5E ; pop ebp ; ret  ;  (1 found)
0x148024bf: adc al, 0x5E ; pop ebp ; ret  ;  (1 found)
0x148024fc: adc al, 0x5E ; pop ebp ; ret  ;  (1 found)
0x148043dc: adc al, 0x5E ; ret  ;  (1 found)
0x14808097: adc al, 0x5F ; pop esi ; pop ebx ; mov esp, ebp ; pop ebp ; ret  ;  (1 found)
0x148021b8: adc al, 0x5F ; pop esi ; pop ebx ; pop ebp ; ret  ;  (1 found)
0x14801743: adc al, 0x5F ; pop esi ; ret  ;  (1 found)
0x1480233b: adc al, 0x68 ; add byte [eax], cl ; add byte [eax], al ; push 0x00000000 ; push ebx ; call dword [0x1480D0A0] ;  (1 found)
0x148062ef: adc al, 0x68 ; add byte [eax], cl ; add byte [eax], al ; push 0x00000000 ; push ebx ; call dword [0x1480D0A0] ;  (1 found)
0x14801c0a: adc al, 0x68 ; or dword [eax+eax], eax ; sar bh, 0x00000015 ; rol byte [fs:eax+0x15FF5014], 1  ; push 0x5D1480D0 ; ret  ;  (1 found)
0x1480c147: adc al, 0x68 ; rol dword [eax-0x7F3E83EC], 0x14 ; mov eax, dword [esp+0x0C] ; pop esi ; pop edi ; ret  ;  (1 found)
0x14806295: adc al, 0x6A ; adc al, 0xE8 ; out 0x00, al ; add byte [eax], al ; add esp, 0x10 ; ret  ;  (1 found)
0x148010eb: adc al, 0x6A ; add bh, bh ; adc eax, 0x1480D10C ; ret  ;  (1 found)
0x148011cb: adc al, 0x6A ; add byte [edx+0x00], ch ; call ebx ;  (1 found)
0x1480119c: adc al, 0x6A ; add byte [edx+0x00], ch ; call ebx ;  (1 found)
0x148011b6: adc al, 0x6A ; add byte [edx+0x00], ch ; push edi ; call dword [0x1480D138] ;  (1 found)
0x1480627b: adc al, 0x6A ; add eax, ebp ; add byte [ecx], al ; add byte [eax], al ; add esp, 0x10 ; ret  ;  (1 found)
0x14803fbc: adc al, 0x6A ; call dword [eax-0x18] ;  (1 found)
0x14804065: adc al, 0x6A ; call dword [eax-0x18] ;  (1 found)
0x1480411a: adc al, 0x6A ; call dword [eax-0x18] ;  (1 found)
0x14807514: adc al, 0x75 ; scasd  ; pop edi ; xor eax, eax ; pop esi ; ret  ;  (1 found)
0x1480c14b: adc al, 0x7C ; rol dword [eax+0x24448B14], 0x0C ; pop esi ; pop edi ; ret  ;  (1 found)
0x14809f8c: adc al, 0x80 ; mov ebp, 0xFFFFFF70 ; add byte [edi+0x07], bh ; mov byte [ebp-0x00000090], 0x00000001 ; or cl, cl ; ret  ;  (1 found)
0x1480258e: adc al, 0x83 ; add byte [eax+edx-0x7D], dh ; push dword [eax+ecx-0x01] ; call dword [0x1480D098] ;  (1 found)
0x14806795: adc al, 0x83 ; add byte [eax+edx-0x7D], dh ; push dword [eax+ecx-0x01] ; call dword [0x1480D098] ;  (1 found)
0x14808ed2: adc al, 0x83 ; add byte [ebx], al ; ret  ;  (1 found)
0x1480419e: adc al, 0x83 ; clc  ; push dword [ebp+0x03] ; xor al, al ; ret  ;  (1 found)
0x14802db3: adc al, 0x85 ; push dword [ebp+0x05] ; or eax, 0xFFFFFFFF ; pop edi ; ret  ;  (1 found)
0x14804f26: adc al, 0x85 ; ror byte [edi], 0xFFFFFF84 ; stosb  ; add byte [eax], al ; add byte [ebp+0x5350E845], cl ; call dword [0x1480D0E8] ;  (1 found)
0x14808e89: adc al, 0x85 ; ror byte [edi], 0xFFFFFF95 ; rcr byte [edi+0x5E], 0xFFFFFF8B ; in eax, 0x5D ; ret  ;  (1 found)
0x14805e7a: adc al, 0x85 ; sal byte [eax+edx-0x01], 0x00000075 ; sbb byte [eax+0x56], dl ; push dword [ebp+0x0C] ; call dword [0x1480D100] ;  (1 found)
0x14808b25: adc al, 0x85 ; sal byte [ebp+0x1D], 0xFFFFFFE8 ; push ss ; mov ecx, 0xF08BFFFF ; call dword [0x1480D070] ;  (1 found)
0x148031b4: adc al, 0x85 ; sal byte [ebx+0x56], 0x00000068 ; in al, 0xDA ; adc byte [edi+edi*8], 0x00000075 ; clc  ; call dword [0x1480D09C] ;  (1 found)
0x14803416: adc al, 0x87 ; add dword [ebp-0x3D], ebx ; mov eax, 0x14813CCC ; ret  ;  (1 found)
0x148032c0: adc al, 0x87 ; add dword [ebx], esi ; rcr byte [ebp-0x3D], 0xFFFFFFFF ; adc eax, 0x1480D0C0 ; mov dword [0x14813CB8], eax ; call dword [0x1480D0C4] ;  (1 found)
0x14802445: adc al, 0x87 ; cmp esi, dword [ebx] ; rcr byte [esi+0x5F], 0x0000005B ; pop ebp ; ret  ;  (1 found)
0x148063fb: adc al, 0x87 ; cmp esi, dword [ebx] ; rcr byte [esi+0x5F], 0x0000005B ; pop ebp ; ret  ;  (1 found)
0x148010a9: adc al, 0x89 ; inc ebp ; clc  ; mov ecx, dword [ebp+0x08] ; push ecx ; call dword [0x1480D130] ;  (1 found)
0x14808626: adc al, 0x8B ; add al, 0xB0 ; add eax, 0x20 ; push eax ; call dword [0x1480D080] ;  (1 found)
0x14801140: adc al, 0x8B ; clc  ; call dword [0x1480D13C] ;  (1 found)
0x148016bc: adc al, 0x8B ; inc ebp ; clc  ; xor eax, dword [ebp-0x0C] ; mov dword [ebp-0x04], eax ; call dword [0x1480D040] ;  (1 found)
0x1480b9f3: adc al, 0x8B ; inc esp ; and al, 0x0C ; pop esi ; pop edi ; ret  ;  (1 found)
0x1480ba9f: adc al, 0x8B ; inc esp ; and al, 0x0C ; pop esi ; pop edi ; ret  ;  (1 found)
0x1480c0a3: adc al, 0x8B ; inc esp ; and al, 0x0C ; pop esi ; pop edi ; ret  ;  (1 found)
0x1480c14f: adc al, 0x8B ; inc esp ; and al, 0x0C ; pop esi ; pop edi ; ret  ;  (1 found)
0x14801155: adc al, 0x8B ; mov eax, 0x00000002 ; push 0x00001B59 ; mov word [esp+0x14], ax ; call dword [0x1480D11C] ;  (1 found)
0x1480a70e: adc al, 0x8B ; mov eax, esi ; pop esi ; pop ebp ; ret  ;  (1 found)
0x148018bc: adc al, 0x8D ; inc ebp ; clc  ; push eax ; call dword [0x1480D050] ;  (1 found)
0x148032cc: adc al, 0xA3 ; mov eax, 0xFF14813C ; adc eax, 0x1480D0C4 ; mov dword [0x14813CBC], eax ; mov al, 0x01 ; ret  ;  (1 found)
0x148032d7: adc al, 0xA3 ; mov esp, 0xB014813C ; add ebx, eax ; mov eax, 0x14813CAC ; ret  ;  (1 found)
0x148038b2: adc al, 0xB0 ; add dword [esi-0x75], ebx ; in eax, 0x5D ; ret  ;  (1 found)
0x148032dc: adc al, 0xB0 ; add ebx, eax ; mov eax, 0x14813CAC ; ret  ;  (1 found)
0x1480a00e: adc al, 0xB8 ; add byte [eax], al ; add byte [eax], al ; ret  ;  (1 found)
0x1480c09b: adc al, 0xB8 ; rol byte [eax-0x7F3F33EC], 0x00000014 ; mov eax, dword [esp+0x0C] ; pop esi ; pop edi ; ret  ;  (1 found)
0x148037dd: adc al, 0xB9 ; pop esp ; inc eax ; adc dword [eax+ebp*8], 0x00000100 ; mov al, 0x01 ; ret  ;  (1 found)
0x14804465: adc al, 0xC3 ; add eax, 0x10 ; ret  ;  (1 found)
0x14804452: adc al, 0xC3 ; add eax, 0x14 ; ret  ;  (1 found)
0x148096df: adc al, 0xC3 ; cmppd xmm3,  [0x14810DA0], 0x06 ; andpd xmm3,  [0x14810D80] ; movq qword [esp+0x04], xmm3 ; fld qword [esp+0x04] ; ret  ;  (1 found)
0x14801783: adc al, 0xC3 ; mov eax, 0x148137A8 ; ret  ;  (1 found)
0x148032e4: adc al, 0xC3 ; mov eax, 0x14813CB0 ; ret  ;  (1 found)
0x148017b8: adc al, 0xC3 ; mov eax, 0x14814178 ; ret  ;  (1 found)
0x148043a9: adc al, 0xC3 ; push 0x00000017 ; call dword [0x1480D05C] ;  (1 found)
0x1480ba9b: adc al, 0xCC ; mov edx, 0x448B1480 ; and al, 0x0C ; pop esi ; pop edi ; ret  ;  (1 found)
0x1480c09f: adc al, 0xCC ; rol byte [eax+0x24448B14], 0x0000000C ; pop esi ; pop edi ; ret  ;  (1 found)
0x14809fb9: adc al, 0xDE ; leave  ; ret  ;  (1 found)
0x148037e2: adc al, 0xE8 ; add byte [ecx], al ; add byte [eax], al ; mov al, 0x01 ; ret  ;  (1 found)
0x14803922: adc al, 0xE8 ; das  ; add byte [eax], al ; pop ecx ; pop ecx ; ret  ;  (1 found)
0x1480573b: adc al, 0xE8 ; lahf  ; retn 0xFFFF ;  (1 found)
0x14802ed3: adc al, 0xE8 ; mov dword [0x59FFFFFE], eax ; pop ecx ; ret  ;  (1 found)
0x1480692a: adc al, 0xE8 ; mov eax, 0x5DFFFFCF ; ret  ;  (1 found)
0x14806297: adc al, 0xE8 ; out 0x00, al ; add byte [eax], al ; add esp, 0x10 ; ret  ;  (1 found)
0x14804e7a: adc al, 0xE8 ; ret  ;  (1 found)
0x148096ca: adc al, 0xF2 ; addps xmm1, xmm0 ; movq qword [esp+0x04], xmm1 ; fld qword [esp+0x04] ; ret  ;  (1 found)
0x14801bbb: adc al, 0xF6 ; ret  ;  (1 found)
0x1480b732: adc al, 0xF7 ; retn 0xFFFF ;  (1 found)
0x1480173b: adc al, 0xF7 ; ror dword [ecx-0x7ECFE7F3], 1  ; adc al, 0x5F ; pop esi ; ret  ;  (1 found)
0x1480a67e: adc al, 0xFF ; adc eax, 0x1480D008 ; mov dword [0x14813750], eax ; ret  ;  (1 found)
0x14808100: adc al, 0xFF ; adc eax, 0x1480D028 ; pop ebp ; ret  ;  (1 found)
0x14801755: adc al, 0xFF ; adc eax, 0x1480D048 ; ret  ;  (1 found)
0x14801927: adc al, 0xFF ; adc eax, 0x1480D054 ; ret  ;  (1 found)
0x148032d1: adc al, 0xFF ; adc eax, 0x1480D0C4 ; mov dword [0x14813CBC], eax ; mov al, 0x01 ; ret  ;  (1 found)
0x14801166: adc al, 0xFF ; adc eax, 0x1480D11C ; push esi ; mov word [esp+0x16], ax ; call dword [0x1480D118] ;  (1 found)
0x14802bc5: adc al, 0xFF ; add byte [ebx-0x743CA21B], cl ; call dword [ebp-0x75] ;  (1 found)
0x148041d1: adc al, 0xFF ; mov al, 0x01 ; ret  ;  (1 found)
0x14802298: adc al, 0xFF ; pop ecx ; mov al, 0x01 ; ret  ;  (1 found)
0x148033e1: adc al, 0xFF ; pop esi ; pop ebp ; ret  ;  (1 found)
0x14804a67: adc al, bh ; add eax, 0x14813CF8 ; add dword [eax], eax ; add byte [eax], al ; call dword [0x1480D0C8] ;  (1 found)
0x14804a50: adc al, bh ; add eax, 0x14813CF8 ; add dword [eax], eax ; add byte [eax], al ; call dword [0x1480D0E4] ;  (1 found)
0x14803d5f: adc bh, bh ; xor al, ch ; aad 0x18 ; add byte [eax], al ; pop ecx ; ret  ;  (1 found)
0x14802fcf: adc bh, bh ; xor al, ch ; add byte [eax], al ; pop ecx ; ret  ;  (1 found)
0x14803d14: adc bh, bh ; xor al, ch ; and byte [ecx], bl ; add byte [eax], al ; pop ecx ; ret  ;  (1 found)
0x14803daf: adc bh, bh ; xor al, ch ; test dword [eax], ebx ; add byte [eax], al ; pop ecx ; ret  ;  (1 found)
0x1480823f: adc bh, bh ; xor al, ch ; xor eax, 0x59FFFFF3 ; ret  ;  (1 found)
0x1480a1cf: adc bh, bh ; xor eax, 0x14814184 ; call dword [0x1480D010] ;  (1 found)
0x14807578: adc byte [0x55FF8BC3+ebx*2], 0xFFFFFF8B ; in al, dx ; mov eax, dword [ebp+0x08] ; add eax, 0x20 ; push eax ; call dword [0x1480D07C] ;  (1 found)
0x148031b3: adc byte [0x562374C0+eax*4], 0x00000068 ; in al, 0xDA ; adc byte [edi+edi*8], 0x00000075 ; clc  ; call dword [0x1480D09C] ;  (1 found)
0x148025e7: adc byte [0x8B5B5E5F+ebx*2], 0xFFFFFFE5 ; pop ebp ; ret  ;  (1 found)
0x14804f25: adc byte [0xAA840FC0+eax*4], 0x00000000 ; add byte [eax], al ; lea eax, dword [ebp-0x18] ; push eax ; push ebx ; call dword [0x1480D0E8] ;  (1 found)
0x14808e88: adc byte [0xC0950FC0+eax*4], 0x0000005F ; pop esi ; mov esp, ebp ; pop ebp ; ret  ;  (1 found)
0x14804a25: adc byte [0xDCD0A1C3+ebx*2], 0xFFFFFF80 ; adc al, 0x5D ; ret  ;  (1 found)
0x14804a1e: adc byte [0xDCD4A1C3+ebx*2], 0xFFFFFF80 ; adc al, 0x5D ; ret  ;  (1 found)
0x14804a17: adc byte [0xDCD8A1C3+ebx*2], 0xFFFFFF80 ; adc al, 0x5D ; ret  ;  (1 found)
0x14808b24: adc byte [0xE81D75C0+eax*4], 0x00000016 ; mov ecx, 0xF08BFFFF ; call dword [0x1480D070] ;  (1 found)
0x14805e79: adc byte [0xFF1074C0+eax*4], 0x00000075 ; sbb byte [eax+0x56], dl ; push dword [ebp+0x0C] ; call dword [0x1480D100] ;  (1 found)
0x148042dc: adc byte [0xFFFCD885+ecx*4], 0xFFFFFFFF ; push eax ; call dword [0x1480D050] ;  (1 found)
0x14801182: adc byte [eax+0x57], dl ; call dword [0x1480D114] ;  (1 found)
0x1480233a: adc byte [eax+ebp*2], 0x00000000 ; or byte [eax], al ; add byte [edx+0x00], ch ; push ebx ; call dword [0x1480D0A0] ;  (1 found)
0x148062ee: adc byte [eax+ebp*2], 0x00000000 ; or byte [eax], al ; add byte [edx+0x00], ch ; push ebx ; call dword [0x1480D0A0] ;  (1 found)
0x14801c09: adc byte [eax+ebp*2], 0x00000009 ; add al, 0x00 ; sar bh, 0x00000015 ; rol byte [fs:eax+0x15FF5014], 1  ; push 0x5D1480D0 ; ret  ;  (1 found)
0x1480391c: adc byte [eax+ebp*2], 0xFFFFFFF8 ; fiadd dword [eax+0x2F26E814] ; add byte [eax], al ; pop ecx ; pop ecx ; ret  ;  (1 found)
0x1480392e: adc byte [eax+ebp*2], 0xFFFFFFF8 ; fiadd dword [eax+0x2F97E814] ; add byte [eax], al ; pop ecx ; pop ecx ; ret  ;  (1 found)
0x14803921: adc byte [eax+ebp*8], 0x00000026 ; das  ; add byte [eax], al ; pop ecx ; pop ecx ; ret  ;  (1 found)
0x14803933: adc byte [eax+ebp*8], 0xFFFFFF97 ; das  ; add byte [eax], al ; pop ecx ; pop ecx ; ret  ;  (1 found)
0x14801c14: adc byte [eax+edx*2], 0xFFFFFFFF ; adc eax, 0x1480D068 ; pop ebp ; ret  ;  (1 found)
0x148043d4: adc byte [eax+edx*2], 0xFFFFFFFF ; adc eax, 0x1480D068 ; pop esi ; ret  ;  (1 found)
0x14801096: adc byte [eax], al ; add byte [ebp-0x00110F6B], cl ; call dword [edx-0x75] ;  (1 found)
0x148032b4: adc byte [eax], al ; add byte [edx+0x16], ch ; pop eax ; pop ebp ; ret  ;  (1 found)
0x14806e38: adc byte [eax], al ; add byte [esi-0x7B], ah ; retn 0x0674 ;  (1 found)
0x14806ef6: adc byte [eax], al ; add byte [esi-0x7B], ah ; retn 0x0674 ;  (1 found)
0x14801bcf: adc byte [eax], dh ; adc dword [ebx+esi], 0xE58B5BC0 ; pop ebp ; ret  ;  (1 found)
0x14805de1: adc byte [ebp+0x0001C504], cl ; add byte [eax], al ; push eax ; push ebx ; call dword [0x1480D0B0] ;  (1 found)
0x14803b62: adc byte [ebp+0x5D0275C0], al ; ret  ;  (1 found)
0x1480484a: adc byte [ebp-0x726A8A40], al ; test dword [esi+edi*8+0x5650FFFF], edi ; call dword [0x1480D0DC] ;  (1 found)
0x14804a0a: adc byte [ebx+0x047401E8], al ; xor eax, eax ; pop ebp ; ret  ;  (1 found)
0x14806a3e: adc byte [ebx+0x047401E8], al ; xor eax, eax ; pop ebp ; ret  ;  (1 found)
0x14802593: adc byte [ebx+0x0874FF3E], al ; push dword [esi] ; call dword [0x1480D098] ;  (1 found)
0x1480679a: adc byte [ebx+0x0874FF3E], al ; push dword [esi] ; call dword [0x1480D098] ;  (1 found)
0x1480665d: adc byte [ebx+0x0C75FFCE], cl ; push dword [ebp+0x08] ; call dword [0x1480D144] ;  (1 found)
0x148026cb: adc byte [ebx+0x528B0C51], cl ; or al, 0x39 ; push ecx ; or byte [ebp+0x05], dh ; mov eax, 0x00000001 ; ret  ;  (1 found)
0x1480a6be: adc byte [ebx+eax*8], 0xFFFFFF8B ; call dword [ebp-0x75] ;  (1 found)
0x1480b9f2: adc byte [ebx+ecx*4], 0x00000044 ; and al, 0x0C ; pop esi ; pop edi ; ret  ;  (1 found)
0x1480ba9e: adc byte [ebx+ecx*4], 0x00000044 ; and al, 0x0C ; pop esi ; pop edi ; ret  ;  (1 found)
0x1480c0a2: adc byte [ebx+ecx*4], 0x00000044 ; and al, 0x0C ; pop esi ; pop edi ; ret  ;  (1 found)
0x1480c14e: adc byte [ebx+ecx*4], 0x00000044 ; and al, 0x0C ; pop esi ; pop edi ; ret  ;  (1 found)
0x148016bb: adc byte [ebx+ecx*4], 0x00000045 ; clc  ; xor eax, dword [ebp-0x0C] ; mov dword [ebp-0x04], eax ; call dword [0x1480D040] ;  (1 found)
0x1480402f: adc byte [ebx+ecx*4], 0xFFFFFFC7 ; pop edi ; pop esi ; ret  ;  (1 found)
0x14801154: adc byte [ebx+ecx*4], 0xFFFFFFF0 ; mov eax, 0x00000002 ; push 0x00001B59 ; mov word [esp+0x14], ax ; call dword [0x1480D11C] ;  (1 found)
0x1480a70d: adc byte [ebx+ecx*4], 0xFFFFFFF0 ; mov eax, esi ; pop esi ; pop ebp ; ret  ;  (1 found)
0x1480410c: adc byte [ebx+ecx*4], 0xFFFFFFFB ; mov eax, edi ; pop edi ; pop esi ; pop ebx ; ret  ;  (1 found)
0x1480200d: adc byte [ebx-0x74FBDBBC], cl ; cli  ; ret  ;  (1 found)
0x148032d6: adc byte [ebx], 0xFFFFFFBC ; cmp al, 0x81 ; adc al, 0xB0 ; add ebx, eax ; mov eax, 0x14813CAC ; ret  ;  (1 found)
0x1480213d: adc byte [ecx+0x0003B802], cl ; add byte [eax], al ; ret  ;  (1 found)
0x1480262d: adc byte [ecx+0x0003B802], cl ; add byte [eax], al ; ret  ;  (1 found)
0x148010a8: adc byte [ecx+ecx*4], 0x00000045 ; clc  ; mov ecx, dword [ebp+0x08] ; push ecx ; call dword [0x1480D130] ;  (1 found)
0x148016ca: adc byte [ecx+esi], 0x00000045 ; cld  ; call dword [0x1480D03C] ;  (1 found)
0x148016d3: adc byte [ecx+esi], 0x00000045 ; cld  ; lea eax, dword [ebp-0x14] ; push eax ; call dword [0x1480D038] ;  (1 found)
0x1480777b: adc byte [ecx-0x0000FB4B], cl ; call dword [edi-0x75] ;  (1 found)
0x14809b72: adc byte [ecx-0x74F3DBAC], cl ; aam 0x83 ; retn 0x8910 ;  (1 found)
0x14809680: adc byte [ecx-0x74F3DBAC], cl ; aam 0x83 ; retn 0x8914 ;  (1 found)
0x14809b7b: adc byte [ecx-0x7CF7DBAC], cl ; retn 0x8910 ;  (1 found)
0x148038ac: adc byte [ecx-0x7EC34BCB], cl ; adc al, 0xB0 ; add dword [esi-0x75], ebx ; in eax, 0x5D ; ret  ;  (1 found)
0x1480ade5: adc byte [edi+eax-0x75], dh ; inc ebp ; or byte [ebx-0x09FDF3B8], al ; retn 0x7420 ;  (1 found)
0x1480523f: adc byte [edi+ebx*2], 0x0000005E ; mov eax, ebx ; pop ebx ; mov esp, ebp ; pop ebp ; ret  ;  (1 found)
0x14808096: adc byte [edi+ebx*2], 0x0000005E ; pop ebx ; mov esp, ebp ; pop ebp ; ret  ;  (1 found)
0x148021b7: adc byte [edi+ebx*2], 0x0000005E ; pop ebx ; pop ebp ; ret  ;  (1 found)
0x148031bd: adc byte [edi+edi*8], 0x00000075 ; clc  ; call dword [0x1480D09C] ;  (1 found)
0x14801c00: adc byte [edi+edi*8], 0x00000075 ; or bh, bh ; adc eax, 0x1480D050 ; push 0xC0000409 ; call dword [0x1480D064] ;  (1 found)
0x14805e71: adc byte [edx+0x01], ch ; push ebx ; call dword [0x1480D0B0] ;  (1 found)
0x14801180: adc byte [edx+0x10], ch ; push eax ; push edi ; call dword [0x1480D114] ;  (1 found)
0x148031ab: adc byte [edx+ebp*2], 0x00000000 ; call dword [0x1480D0BC] ;  (1 found)
0x148042d2: adc byte [edx+ebp*2], 0x00000000 ; mov edi, eax ; call dword [0x1480D054] ;  (1 found)
0x148011ca: adc byte [edx+ebp*2], 0x00000000 ; push 0x00000000 ; call ebx ;  (1 found)
0x1480119b: adc byte [edx+ebp*2], 0x00000000 ; push 0x00000000 ; call ebx ;  (1 found)
0x148011b5: adc byte [edx+ebp*2], 0x00000000 ; push 0x00000000 ; push edi ; call dword [0x1480D138] ;  (1 found)
0x1480bdfc: adc byte [edx], bh ; ret  ;  (1 found)
0x14804769: adc byte [esi+0x33], dl ; call dword [edi+0x57] ;  (1 found)
0x1480872f: adc byte [esi+0x5D], bl ; ret  ;  (1 found)
0x14802541: adc byte [esi+ebx*2], 0x0000005D ; ret  ;  (1 found)
0x148024be: adc byte [esi+ebx*2], 0x0000005D ; ret  ;  (1 found)
0x148024fb: adc byte [esi+ebx*2], 0x0000005D ; ret  ;  (1 found)
0x1480116b: adc byte [esi+edx*2], 0x00000066 ; mov dword [esp+0x16], eax ; call dword [0x1480D118] ;  (1 found)
0x1480b9ee: adc byte [esp+ebx], 0xFFFFFFBA ; adc byte [ebx+ecx*4], 0x00000044 ; and al, 0x0C ; pop esi ; pop edi ; ret  ;  (1 found)
0x1480318c: adc byte [esp+ecx*8], 0xFFFFFF8B ; call dword [ebp-0x75] ;  (1 found)
0x1480ba9a: adc byte [esp+ecx*8], 0xFFFFFFBA ; adc byte [ebx+ecx*4], 0x00000044 ; and al, 0x0C ; pop esi ; pop edi ; ret  ;  (1 found)
0x1480c09e: adc byte [esp+ecx*8], 0xFFFFFFC0 ; adc byte [ebx+ecx*4], 0x00000044 ; and al, 0x0C ; pop esi ; pop edi ; ret  ;  (1 found)
0x1480c14a: adc byte [esp+edi*2], 0xFFFFFFC1 ; adc byte [ebx+ecx*4], 0x00000044 ; and al, 0x0C ; pop esi ; pop edi ; ret  ;  (1 found)
0x1480610c: adc byte [esp+esi*2], 0x0000000E ; or eax, 0xFFFFFFFF ; lock xadd dword [ecx+0x000000B0], eax ; dec eax ; pop ebp ; ret  ;  (1 found)
0x1480969c: adc ch, bl ; inc esp ; and al, 0x04 ; ret  ;  (1 found)
0x1480adca: adc dh, dh ; retn 0x7404 ;  (1 found)
0x14806d8d: adc dword [0x00008000], ecx ; pop ebp ; ret  ;  (1 found)
0x14805543: adc dword [0x3CE8500C+esi*2], 0x59FFFFFF ; mov dword [0x14813C90], eax ; ret  ;  (1 found)
0x14806a4b: adc dword [0x414CB8C3+ebx*2], 0xC35D1481 ; mov eax, 0x14814154 ; pop ebp ; ret  ;  (1 found)
0x14806a52: adc dword [0x4154B8C3+ebx*2], 0xC35D1481 ; mov eax, 0x14814148 ; pop ebp ; ret  ;  (1 found)
0x148022df: adc dword [0x6B2074F6+eax*4], 0x8D5718C6 ; mov eax, 0x14813AEC ; push edi ; call dword [0x1480D080] ;  (1 found)
0x14805612: adc dword [0x6B2074F6+eax*4], 0x8D5718C6 ; mov eax, 0x14813CE8 ; push edi ; call dword [0x1480D080] ;  (1 found)
0x14805611: adc dword [0x6B2074F6+eax*4], 0x8D5718C6 ; mov eax, 0x14813CE8 ; push edi ; call dword [0x1480D080] ;  (1 found)
0x14801bc8: adc dword [0xA3000000+eax], 0x14813010 ; xor eax, eax ; pop ebx ; mov esp, ebp ; pop ebp ; ret  ;  (1 found)
0x14802edf: adc dword [0xE80A75C0+eax*4], 0xFFFFFD3C ; mov dword [0x14813C9C], eax ; ret  ;  (1 found)
0x14803c08: adc dword [eax+0x03], 0x47C60000 ; or al, 0x01 ; mov eax, edi ; pop edi ; pop ebp ; retn 0x0004 ;  (1 found)
0x14803355: adc dword [eax+eax*2], 0x8BC30187 ; call dword [ebp-0x75] ;  (1 found)
0x1480976e: adc dword [eax+eax*4], 0xFD283164 ; pop edi ; pop esi ; mov esp, ebp ; pop ebp ; ret  ;  (1 found)
0x1480976d: adc dword [eax+eax*4], 0xFD283164 ; pop edi ; pop esi ; mov esp, ebp ; pop ebp ; ret  ;  (1 found)
0x1480a1c9: adc dword [eax+eax], 0x10745756 ; push dword [0x14814184] ; call dword [0x1480D010] ;  (1 found)
0x14806848: adc dword [eax+eax], 0x8BC301B0 ; call dword [ebp-0x75] ;  (1 found)
0x14807562: adc dword [eax+eax], 0x8BC35E59 ; call dword [ebp-0x75] ;  (1 found)
0x14802c56: adc dword [eax+eax], 0xC0330374 ; ret  ;  (1 found)
0x14807ef9: adc dword [eax+eax], 0xE95D0675 ; retn 0x0007 ;  (1 found)
0x148010e5: adc dword [eax+ebp*2], 0x148119D4 ; push 0x00000000 ; call dword [0x1480D10C] ;  (1 found)
0x1480372d: adc dword [eax+ebp*8], 0x00000070 ; pop ecx ; pop ecx ; pop ebp ; ret  ;  (1 found)
0x148037e1: adc dword [eax+ebp*8], 0x00000100 ; mov al, 0x01 ; ret  ;  (1 found)
0x148028ba: adc dword [eax+ebp*8], 0x00001027 ; pop ebp ; ret  ;  (1 found)
0x14807557: adc dword [eax+ebp*8], 0xFFFFC47A ; and dword [0x14814164], 0x00000000 ; pop ecx ; pop esi ; ret  ;  (1 found)
0x14806ae7: adc dword [eax+ebp*8], 0xFFFFCDFA ; pop ebp ; ret  ;  (1 found)
0x14806929: adc dword [eax+ebp*8], 0xFFFFCFB8 ; pop ebp ; ret  ;  (1 found)
0x14802ed2: adc dword [eax+ebp*8], 0xFFFFFEA3 ; pop ecx ; pop ecx ; ret  ;  (1 found)
0x148037fa: adc dword [eax+ebp*8], 0xFFFFFF66 ; pop ecx ; mov al, 0x01 ; ret  ;  (1 found)
0x1480a00d: adc dword [eax+edi*4], 0x00000000 ; ret  ;  (1 found)
0x14804e75: adc dword [eax+esi*2], 0xE8148132 ; ret  ;  (1 found)
0x148032db: adc dword [eax+esi*4], 0xACB8C301 ; cmp al, 0x81 ; adc al, 0xC3 ; mov eax, 0x14813CB0 ; ret  ;  (1 found)
0x148038b1: adc dword [eax+esi*4], 0xE58B5E01 ; pop ebp ; ret  ;  (1 found)
0x1480419d: adc dword [ebx+eax*4], 0x0375FFF8 ; xor al, al ; ret  ;  (1 found)
0x148028a1: adc dword [ebx+eax*4], 0xC8D31FE1 ; neg eax ; sbb eax, eax ; neg eax ; ret  ;  (1 found)
0x148022fa: adc dword [ebx+eax*4], 0xEE8318EF ; add dword [ebp-0x15], esi ; pop edi ; mov al, 0x01 ; pop esi ; ret  ;  (1 found)
0x1480562c: adc dword [ebx+eax*4], 0xEE8318EF ; add dword [ebp-0x15], esi ; pop edi ; mov al, 0x01 ; pop esi ; ret  ;  (1 found)
0x1480562d: adc dword [ebx+eax*4], 0xEE8318EF ; add dword [ebp-0x15], esi ; pop edi ; mov al, 0x01 ; pop esi ; ret  ;  (1 found)
0x148096de: adc dword [ebx+eax*8], 0x1DC20F66 ; mov al, byte [0x0614810D] ; andpd xmm3,  [0x14810D80] ; movq qword [esp+0x04], xmm3 ; fld qword [esp+0x04] ; ret  ;  (1 found)
0x14802c4f: adc dword [ebx+eax*8], 0x3C903D83 ; adc dword [eax+eax], 0xC0330374 ; ret  ;  (1 found)
0x14809c71: adc dword [ebx+eax*8], 0x5375C90A ; ret  ;  (1 found)
0x14802884: adc dword [ebx+eax*8], 0x8B55FF8B ; in al, dx ; mov eax, dword [ebp+0x08] ; mov dword [0x14813B80], eax ; pop ebp ; ret  ;  (1 found)
0x1480aba1: adc dword [ebx+ebp*8], 0xB005DD08 ; sbb dword [ecx-0x221F26EC], eax ; sbb dword [ebx-0x1E16011A], eax ; add byte [eax], al ; add dh, dh ; ret  ;  (1 found)
0x1480113f: adc dword [ebx+ecx*4], 0x3C15FFF8 ; rol dword [eax+0x0C488B14], 1  ; mov ecx, dword [ecx] ; push dword [ecx] ; call dword [0x1480D120] ;  (1 found)
0x14801bd1: adc dword [ebx+esi], 0xE58B5BC0 ; pop ebp ; ret  ;  (1 found)
0x1480a69f: adc dword [ebx+esi], 0xFFF983C0 ; setne al ; ret  ;  (1 found)
0x14802e42: adc dword [ebx-0x00A9F7B3], ecx ; adc eax, 0x1480D144 ; call dword [ebp+0x08] ;  (1 found)
0x148025c7: adc dword [ebx], 0x14813B40 ; ret  ;  (1 found)
0x1480681a: adc dword [ebx], ebp ; test dword [ebp+0x6A563B04], 0xE7E85000 ; mov dh, 0xFF ; inc dword [ebx-0x74A0F33C] ; ret  ;  (1 found)
0x14801574: adc dword [ecx+eax], 0x8B5E01B0 ; in eax, 0x5D ; ret  ;  (1 found)
0x1480be79: adc dword [ecx+eax], 0xA4F30973 ; mov eax, dword [esp+0x0C] ; pop esi ; pop edi ; ret  ;  (1 found)
0x1480b7c9: adc dword [ecx+eax], 0xA4F30973 ; mov eax, dword [esp+0x0C] ; pop esi ; pop edi ; ret  ;  (1 found)
0x14801f47: adc dword [ecx+eax], 0xAAF30973 ; mov eax, dword [esp+0x04] ; mov edi, edx ; ret  ;  (1 found)
0x1480753b: adc dword [ecx+ebx*2], 0x8306048B ; shl byte [eax], 0x00000050 ; call dword [0x1480D080] ;  (1 found)
0x14803795: adc dword [ecx+ecx*4], 0x04468906 ; mov dword [esi+0x08], eax ; xor eax, eax ; pop esi ; pop ebp ; ret  ;  (1 found)
0x148043fd: adc dword [edi+0x05], esi ; push 0x0000000D ; pop eax ; pop ebp ; ret  ;  (1 found)
0x148032be: adc dword [edi+eax*4], 0x5DC03301 ; ret  ;  (1 found)
0x148032bf: adc dword [edi+eax*4], 0x5DC03301 ; ret  ;  (1 found)
0x14802444: adc dword [edi+eax*4], 0x5EC0333B ; pop edi ; pop ebx ; pop ebp ; ret  ;  (1 found)
0x148063fa: adc dword [edi+eax*4], 0x5EC0333B ; pop edi ; pop ebx ; pop ebp ; ret  ;  (1 found)
0x14801742: adc dword [edi+ebx*2], 0xC033C35E ; inc eax ; ret  ;  (1 found)
0x148081a7: adc dword [edi+ecx], 0x280844B6 ; and eax, 0x40 ; pop ebp ; ret  ;  (1 found)
0x148081a8: adc dword [edi+ecx], 0x280844B6 ; and eax, 0x40 ; pop ebp ; ret  ;  (1 found)
0x1480a707: adc dword [edi+edi*8], 0x80D00415 ; adc al, 0x8B ; mov eax, esi ; pop esi ; pop ebp ; ret  ;  (1 found)
0x148080ff: adc dword [edi+edi*8], 0x80D02815 ; adc al, 0x5D ; ret  ;  (1 found)
0x148032d0: adc dword [edi+edi*8], 0x80D0C415 ; adc al, 0xA3 ; mov esp, 0xB014813C ; add ebx, eax ; mov eax, 0x14813CAC ; ret  ;  (1 found)
0x148041d0: adc dword [edi+edi*8], 0x8BC301B0 ; call dword [ebp-0x75] ;  (1 found)
0x148033df: adc dword [edi+edi*8], 0xA1C35D5E ; enter 0x813C, 0x14 ; ret  ;  (1 found)
0x148033e0: adc dword [edi+edi*8], 0xA1C35D5E ; enter 0x813C, 0x14 ; ret  ;  (1 found)
0x14804172: adc dword [edi+edx*2], 0xFFFC3FE8 ; call dword [ebx-0x18] ;  (1 found)
0x1480173a: adc dword [edi+esi*8], 0x180D89D1 ; xor byte [ecx-0x3CA1A0EC], al ; xor eax, eax ; inc eax ; ret  ;  (1 found)
0x14803acf: adc dword [edx+eax], 0x176A2274 ; call dword [0x1480D05C] ;  (1 found)
0x14809d07: adc dword [esi+eax*8], 0xFFFF7085 ; inc dword [ebx] ; ret  ;  (1 found)
0x14809c40: adc dword [esi+eax*8], 0xFFFF7085 ; inc dword [edx] ; ret  ;  (1 found)
0x148096e7: adc dword [esi+eax], 0x1D540F66 ; or byte [0x0F661481], 0xFFFFFFD6 ; pop esp ; and al, 0x04 ; fld qword [esp+0x04] ; ret  ;  (1 found)
0x148096f0: adc dword [esi], 0x245CD60F ; add al, 0xDD ; inc esp ; and al, 0x04 ; ret  ;  (1 found)
0x14802241: adc dword [esp+esi*2], 0x8DE85007 ; pop ss ; add byte [eax], al ; pop ecx ; pop ebp ; retn 0x0004 ;  (1 found)
0x1480a70a: adc eax, 0x1480D004 ; mov esi, eax ; mov eax, esi ; pop esi ; pop ebp ; ret  ;  (1 found)
0x1480a680: adc eax, 0x1480D008 ; mov dword [0x14813750], eax ; ret  ;  (1 found)
0x1480a6bb: adc eax, 0x1480D00C ; ret  ;  (1 found)
0x14808102: adc eax, 0x1480D028 ; pop ebp ; ret  ;  (1 found)
0x14806834: adc eax, 0x1480D02C ; test eax, eax ; mov dword [0x14814140], eax ; setne al ; ret  ;  (1 found)
0x148016d0: adc eax, 0x1480D03C ; xor dword [ebp-0x04], eax ; lea eax, dword [ebp-0x14] ; push eax ; call dword [0x1480D038] ;  (1 found)
0x148016c7: adc eax, 0x1480D040 ; xor dword [ebp-0x04], eax ; call dword [0x1480D03C] ;  (1 found)
0x148016b8: adc eax, 0x1480D044 ; mov eax, dword [ebp-0x08] ; xor eax, dword [ebp-0x0C] ; mov dword [ebp-0x04], eax ; call dword [0x1480D040] ;  (1 found)
0x14801757: adc eax, 0x1480D048 ; ret  ;  (1 found)
0x148042cf: adc eax, 0x1480D04C ; push 0x00000000 ; mov edi, eax ; call dword [0x1480D054] ;  (1 found)
0x14801c06: adc eax, 0x1480D050 ; push 0xC0000409 ; call dword [0x1480D064] ;  (1 found)
0x148042d9: adc eax, 0x1480D054 ; lea eax, dword [ebp-0x00000328] ; push eax ; call dword [0x1480D050] ;  (1 found)
0x148018b8: adc eax, 0x1480D054 ; lea eax, dword [ebp-0x08] ; push eax ; call dword [0x1480D050] ;  (1 found)
0x14801bfd: adc eax, 0x1480D054 ; push dword [ebp+0x08] ; call dword [0x1480D050] ;  (1 found)
0x14801929: adc eax, 0x1480D054 ; ret  ;  (1 found)
0x14809928: adc eax, 0x1480D05C ; mov dword [0x14814188], eax ; xor eax, eax ; ret  ;  (1 found)
0x14801c11: adc eax, 0x1480D064 ; push eax ; call dword [0x1480D068] ;  (1 found)
0x14803170: adc eax, 0x1480D064 ; push eax ; call dword [0x1480D068] ;  (1 found)
0x148043d1: adc eax, 0x1480D064 ; push eax ; call dword [0x1480D068] ;  (1 found)
0x14801c18: adc eax, 0x1480D068 ; pop ebp ; ret  ;  (1 found)
0x148043d8: adc eax, 0x1480D068 ; pop esi ; ret  ;  (1 found)
0x148021b4: adc eax, 0x1480D06C ; pop edi ; pop esi ; pop ebx ; pop ebp ; ret  ;  (1 found)
0x1480402c: adc eax, 0x1480D074 ; mov eax, edi ; pop edi ; pop esi ; ret  ;  (1 found)
0x14805604: adc eax, 0x1480D078 ; pop ebp ; ret  ;  (1 found)
0x148057e5: adc eax, 0x1480D078 ; pop ebp ; ret  ;  (1 found)
0x14807575: adc eax, 0x1480D078 ; pop ebp ; ret  ;  (1 found)
0x1480564c: adc eax, 0x1480D07C ; pop ebp ; ret  ;  (1 found)
0x14805808: adc eax, 0x1480D07C ; pop ebp ; ret  ;  (1 found)
0x14807589: adc eax, 0x1480D07C ; pop ebp ; ret  ;  (1 found)
0x1480253e: adc eax, 0x1480D084 ; pop esi ; pop ebp ; ret  ;  (1 found)
0x148024f8: adc eax, 0x1480D090 ; pop esi ; pop ebp ; ret  ;  (1 found)
0x148024bb: adc eax, 0x1480D094 ; pop esi ; pop ebp ; ret  ;  (1 found)
0x148032c8: adc eax, 0x1480D0C0 ; mov dword [0x14813CB8], eax ; call dword [0x1480D0C4] ;  (1 found)
0x148032d3: adc eax, 0x1480D0C4 ; mov dword [0x14813CBC], eax ; mov al, 0x01 ; ret  ;  (1 found)
0x148010ef: adc eax, 0x1480D10C ; ret  ;  (1 found)
0x14801168: adc eax, 0x1480D11C ; push esi ; mov word [esp+0x16], ax ; call dword [0x1480D118] ;  (1 found)
0x14801151: adc eax, 0x1480D120 ; mov esi, eax ; mov eax, 0x00000002 ; push 0x00001B59 ; mov word [esp+0x14], ax ; call dword [0x1480D11C] ;  (1 found)
0x148011b2: adc eax, 0x1480D124 ; push 0x00000000 ; push 0x00000000 ; push edi ; call dword [0x1480D138] ;  (1 found)
0x14801137: adc eax, 0x1480D128 ; push 0x148119F3 ; mov edi, eax ; call dword [0x1480D13C] ;  (1 found)
0x148010a5: adc eax, 0x1480D134 ; mov dword [ebp-0x08], eax ; mov ecx, dword [ebp+0x08] ; push ecx ; call dword [0x1480D130] ;  (1 found)
0x14801144: adc eax, 0x1480D13C ; mov ecx, dword [eax+0x0C] ; mov ecx, dword [ecx] ; push dword [ecx] ; call dword [0x1480D120] ;  (1 found)
0x14802e48: adc eax, 0x1480D144 ; call dword [ebp+0x08] ;  (1 found)
0x148076a6: adc eax, 0x1480D144 ; call dword [ebp+0x14] ;  (1 found)
0x148078bb: adc eax, 0x1480D144 ; call dword [ebp-0x00000108] ;  (1 found)
0x14802f30: adc eax, 0x1480D144 ; call dword [ebp-0x08] ;  (1 found)
0x14806c98: adc eax, 0x1480D144 ; call dword [ebp-0x24] ;  (1 found)
0x14806cc6: adc eax, 0x1480D144 ; call dword [ebp-0x24] ;  (1 found)
0x148068ac: adc eax, 0x1480D144 ; call ebx ;  (1 found)
0x14806878: adc eax, 0x1480D144 ; call ebx ;  (1 found)
0x14807a15: adc eax, 0x1480D144 ; call ebx ;  (1 found)
0x14807831: adc eax, 0x1480D144 ; call ebx ;  (1 found)
0x14807804: adc eax, 0x1480D144 ; call ebx ;  (1 found)
0x1480785e: adc eax, 0x1480D144 ; call ebx ;  (1 found)
0x148078ee: adc eax, 0x1480D144 ; call ebx ;  (1 found)
0x148079d1: adc eax, 0x1480D144 ; call ebx ;  (1 found)
0x1480285f: adc eax, 0x1480D144 ; call edi ;  (1 found)
0x14802849: adc eax, 0x1480D144 ; call edi ;  (1 found)
0x14802f71: adc eax, 0x1480D144 ; call edi ;  (1 found)
0x14803054: adc eax, 0x1480D144 ; call edi ;  (1 found)
0x148068f9: adc eax, 0x1480D144 ; call edi ;  (1 found)
0x1480a39f: adc eax, 0x1480D144 ; call edi ;  (1 found)
0x1480a2e7: adc eax, 0x1480D144 ; call edi ;  (1 found)
0x1480a24d: adc eax, 0x1480D144 ; call edi ;  (1 found)
0x148028f5: adc eax, 0x1480D144 ; call esi ;  (1 found)
0x148031d4: adc eax, 0x1480D144 ; call esi ;  (1 found)
0x14803686: adc eax, 0x1480D144 ; call esi ;  (1 found)
0x148039bb: adc eax, 0x1480D144 ; call esi ;  (1 found)
0x14804356: adc eax, 0x1480D144 ; call esi ;  (1 found)
0x1480643d: adc eax, 0x1480D144 ; call esi ;  (1 found)
0x14806496: adc eax, 0x1480D144 ; call esi ;  (1 found)
0x1480655c: adc eax, 0x1480D144 ; call esi ;  (1 found)
0x14806506: adc eax, 0x1480D144 ; call esi ;  (1 found)
0x148065b2: adc eax, 0x1480D144 ; call esi ;  (1 found)
0x1480660b: adc eax, 0x1480D144 ; call esi ;  (1 found)
0x14806667: adc eax, 0x1480D144 ; call esi ;  (1 found)
0x14806726: adc eax, 0x1480D144 ; call esi ;  (1 found)
0x148066c7: adc eax, 0x1480D144 ; call esi ;  (1 found)
0x14806954: adc eax, 0x1480D144 ; call esi ;  (1 found)
0x14807939: adc eax, 0x1480D144 ; call esi ;  (1 found)
0x1480b674: adc eax, 0x7320F980 ; push es ; shld edx, eax, cl ; shl eax, cl ; ret  ;  (1 found)
0x1480b654: adc eax, 0x7320F980 ; push es ; shrd eax, edx, cl ; shr edx, cl ; ret  ;  (1 found)
0x1480665a: adc eax, 0x8B1075FF ; into  ; push dword [ebp+0x0C] ; push dword [ebp+0x08] ; call dword [0x1480D144] ;  (1 found)
0x14803a3a: adc eax, 0xFF006A56 ; xor eax, 0x14814140 ; call dword [0x1480D0D0] ;  (1 found)
0x14803b35: adc eax, 0xFF086A56 ; xor eax, 0x14814140 ; call dword [0x1480D0D0] ;  (1 found)
0x148013ce: adc eax, dword [eax] ; add byte [ecx+0x59], bl ; ret  ;  (1 found)
0x14809aaa: adc eax, dword [esp+0x04] ; fld qword [esp+0x04] ; add esp, 0x10 ; ret  ;  (1 found)
0x148068a0: adc ecx, dword [ebx+0x74DB851E] ; or eax, 0xCB8B006A ; call dword [0x1480D144] ;  (1 found)
0x14805973: adc esi, esi ; retn 0x7401 ;  (1 found)
0x14809f12: add ah, bl ; add eax, 0x14810F4E ; ret  ;  (1 found)
0x1480196e: add ah, cl ; and dword [0x148137B0], 0x00000000 ; ret  ;  (1 found)
0x1480177c: add ah, cl ; ret  ;  (1 found)
0x1480abf4: add al, 0x00 ; add byte [ebx-0x3B7C03AB], cl ; or al, 0x81 ; retn 0xFA00 ;  (1 found)
0x14809e2b: add al, 0x00 ; add byte [ebx-0x7C27FC26], cl ; ret  ;  (1 found)
0x14809eb7: add al, 0x00 ; add byte [ebx-0x7C27FC26], cl ; ret  ;  (1 found)
0x14802709: add al, 0x00 ; call eax ;  (1 found)
0x14801c0d: add al, 0x00 ; sar bh, 0x00000015 ; rol byte [fs:eax+0x15FF5014], 1  ; push 0x5D1480D0 ; ret  ;  (1 found)
0x14809eb6: add al, 0x04 ; add byte [eax], al ; mov ebx, edx ; add ebx, eax ; add ebx, 0x10 ; jmp dword [ebx] ;  (1 found)
0x14809e2a: add al, 0x04 ; add byte [eax], al ; mov ebx, edx ; add ebx, eax ; add ebx, 0x10 ; jmp dword [ebx] ;  (1 found)
0x1480753f: add al, 0x06 ; add eax, 0x20 ; push eax ; call dword [0x1480D080] ;  (1 found)
0x1480b6a8: add al, 0x24 ; leave  ; ret  ;  (1 found)
0x1480b770: add al, 0x24 ; ret  ;  (1 found)
0x14804a0f: add al, 0x33 ; rcr byte [ebp-0x3D], 0xFFFFFFA1 ; fcomp3 st4 ; adc byte [0xDCD8A1C3+ebx*2], 0xFFFFFF80 ; adc al, 0x5D ; ret  ;  (1 found)
0x148028ea: add al, 0x33 ; shr bl, 0x0000000E ; push dword [ebp+0x08] ; mov ecx, esi ; call dword [0x1480D144] ;  (1 found)
0x14803c3b: add al, 0x48 ; and eax, dword [ebp+0x0C] ; pop ebp ; ret  ;  (1 found)
0x1480734d: add al, 0x56 ; push 0x00000009 ; push dword [edi+0x08] ; call dword [0x1480D0B0] ;  (1 found)
0x1480b242: add al, 0x58 ; pop ebp ; ret  ;  (1 found)
0x1480b1f8: add al, 0x6A ; add al, 0xEB ; int 0x33 ; rcr byte [ebp-0x3D], 0xFFFFFF8B ; call dword [ebp-0x75] ;  (1 found)
0x148052fc: add al, 0x6A ; add eax, ebp ; cli  ; out 0xFF, eax ; call dword [ebx-0x5D] ;  (1 found)
0x14809ab1: add al, 0x83 ; les edx,  [eax] ; ret  ;  (1 found)
0x148017a0: add al, 0x83 ; or byte [edx], al ; mov dword [eax+0x04], ecx ; ret  ;  (1 found)
0x1480ba80: add al, 0x83 ; out dx, eax ; add al, 0xFD ; rep movsd  ; cld  ; jmp dword [0x1480BA90+edx*4] ;  (1 found)
0x1480c130: add al, 0x83 ; out dx, eax ; add al, 0xFD ; rep movsd  ; cld  ; jmp dword [0x1480C140+edx*4] ;  (1 found)
0x148081a4: add al, 0x85 ; pop eax ; adc dword [edi+ecx], 0x280844B6 ; and eax, 0x40 ; pop ebp ; ret  ;  (1 found)
0x148026fc: add al, 0x89 ; imul ecx, dword [0x59585051+edx*2], 0x5D ; pop ecx ; pop ebx ; retn 0x0004 ;  (1 found)
0x14802066: add al, 0x8B ; cli  ; ret  ;  (1 found)
0x14801f51: add al, 0x8B ; cli  ; ret  ;  (1 found)
0x14802011: add al, 0x8B ; cli  ; ret  ;  (1 found)
0x1480313f: add al, 0x8B ; in eax, 0x5D ; ret  ;  (1 found)
0x1480486b: add al, 0x8B ; lea esi, dword [eax+0x2BFFFFFE] ; retn 0xF8C1 ;  (1 found)
0x148023fd: add al, 0x8B ; retn 0x49EB ;  (1 found)
0x148063b3: add al, 0x8B ; retn 0x49EB ;  (1 found)
0x14808628: add al, 0xB0 ; add eax, 0x20 ; push eax ; call dword [0x1480D080] ;  (1 found)
0x148096d8: add al, 0xC3 ; fld qword [0x14810DC0] ; ret  ;  (1 found)
0x148017a6: add al, 0xC3 ; xor eax, eax ; cmp dword [0x14813004], eax ; sete al ; ret  ;  (1 found)
0x14805de3: add al, 0xC5 ; add dword [eax], eax ; add byte [eax], al ; push eax ; push ebx ; call dword [0x1480D0B0] ;  (1 found)
0x14807ce5: add al, 0xC5 ; add dword [eax], eax ; add byte [eax], al ; push eax ; push edi ; call dword [0x1480D0B0] ;  (1 found)
0x1480a70b: add al, 0xD0 ; adc byte [ebx+ecx*4], 0xFFFFFFF0 ; mov eax, esi ; pop esi ; pop ebp ; ret  ;  (1 found)
0x14809aad: add al, 0xDD ; inc esp ; and al, 0x04 ; add esp, 0x10 ; ret  ;  (1 found)
0x1480966d: add al, 0xDD ; inc esp ; and al, 0x04 ; ret  ;  (1 found)
0x148096d4: add al, 0xDD ; inc esp ; and al, 0x04 ; ret  ;  (1 found)
0x148096f7: add al, 0xDD ; inc esp ; and al, 0x04 ; ret  ;  (1 found)
0x14802e40: add al, 0xEB ; adc dword [ebx-0x00A9F7B3], ecx ; adc eax, 0x1480D144 ; call dword [ebp+0x08] ;  (1 found)
0x1480b1fa: add al, 0xEB ; int 0x33 ; rcr byte [ebp-0x3D], 0xFFFFFF8B ; call dword [ebp-0x75] ;  (1 found)
0x1480ade2: add al, 0xF6 ; retn 0x7410 ;  (1 found)
0x1480ba83: add al, 0xFD ; rep movsd  ; cld  ; jmp dword [0x1480BA90+edx*4] ;  (1 found)
0x1480c133: add al, 0xFD ; rep movsd  ; cld  ; jmp dword [0x1480C140+edx*4] ;  (1 found)
0x148035c2: add al, 0xFF ; xor al, ch ; psubd mm7, mm7 ; call dword [ebx-0x77] ;  (1 found)
0x14801c0e: add al, al ; call dword [0x1480D064] ;  (1 found)
0x148015f6: add al, al ; sete cl ; mov eax, ecx ; ret  ;  (1 found)
0x1480b394: add al, al ; sete cl ; mov eax, ecx ; ret  ;  (1 found)
0x14801159: add al, byte [eax] ; add byte [eax], al ; push 0x00001B59 ; mov word [esp+0x14], ax ; call dword [0x1480D11C] ;  (1 found)
0x14805aed: add al, byte [eax] ; add byte [edx-0x23], dh ; mov al, 0x01 ; pop esi ; ret  ;  (1 found)
0x1480a9fb: add al, byte [ebx] ; rcr byte [ebp-0x3D], 0xFFFFFF8B ; call dword [ebx-0x75] ;  (1 found)
0x14801115: add al, byte [edx] ; add byte [eax], al ; call dword [0x1480D12C] ;  (1 found)
0x14805f4f: add al, ch ; dec esi ; add dword [eax], eax ; add byte [ecx+0x5E], bl ; pop ebp ; ret  ;  (1 found)
0x1480a098: add al, ch ; fld dword [eax] ; add byte [eax], al ; pop edx ; ret  ;  (1 found)
0x1480126a: add al, ch ; insb  ; push es ; add byte [eax], al ; xor eax, eax ; ret  ;  (1 found)
0x14801ecf: add al, ch ; leave  ; add eax, dword [eax] ; add byte [eax+eax*8-0x3FCDFC8B], al ; ret  ;  (1 found)
0x14803407: add al, ch ; mov cs, word [edi] ; add byte [eax], al ; or eax, 0xFFFFFFFF ; pop ebp ; ret  ;  (1 found)
0x148055e8: add al, ch ; sbb eax, 0x59000000 ; xor al, al ; pop edi ; pop esi ; ret  ;  (1 found)
0x148080eb: add al, ch ; stosb  ; retn 0xFFFF ;  (1 found)
0x14801969: add al, ch ; sub eax, 0xCC000020 ; and dword [0x148137B0], 0x00000000 ; ret  ;  (1 found)
0x148081be: add al, ch ; xlatb  ; sar edi, 0xFFFFFFFF ; xor eax, eax ; pop ebp ; ret  ;  (1 found)
0x14801bfb: add bh, bh ; adc eax, 0x1480D054 ; push dword [ebp+0x08] ; call dword [0x1480D050] ;  (1 found)
0x148010ed: add bh, bh ; adc eax, 0x1480D10C ; ret  ;  (1 found)
0x14801135: add bh, bh ; adc eax, 0x1480D128 ; push 0x148119F3 ; mov edi, eax ; call dword [0x1480D13C] ;  (1 found)
0x1480815f: add bh, bh ; xor eax, 0x14814140 ; call dword [0x1480D024] ;  (1 found)
0x148080fa: add bh, bh ; xor eax, 0x14814140 ; call dword [0x1480D028] ;  (1 found)
0x148039e7: add bh, bh ; xor eax, 0x14814140 ; call dword [0x1480D0CC] ;  (1 found)
0x14803a3d: add bh, bh ; xor eax, 0x14814140 ; call dword [0x1480D0D0] ;  (1 found)
0x1480213f: add bh, byte [eax+0x00000003] ; ret  ;  (1 found)
0x1480262f: add bh, byte [eax+0x00000003] ; ret  ;  (1 found)
0x1480a007: add bl, al ; fadd qword [0x14810F70] ; mov eax, 0x00000000 ; ret  ;  (1 found)
0x14809f0a: add bl, al ; mov byte [ebp-0x00000090], 0x00000000 ; fadd qword [0x14810F4E] ; ret  ;  (1 found)
0x1480174f: add bl, al ; push 0x14813798 ; call dword [0x1480D048] ;  (1 found)
0x1480b1c9: add bl, byte [eax+0x5D] ; ret  ;  (1 found)
0x148051c3: add bl, byte [edi+0x5D] ; ret  ;  (1 found)
0x14809c6a: add bl, ch ; fcomp st0, st3 ; sub eax, 0x14810EDA ; ret  ;  (1 found)
0x14808394: add bl, ch ; fidiv word [eax-0x743CA2FF] ; call dword [ebp-0x75] ;  (1 found)
0x14801ee9: add bl, ch ; in eax, dx ; mov al, 0x01 ; ret  ;  (1 found)
0x14809ed1: add bl, ch ; neg ch ; fcomp st0, st5 ; fcomp st0, st1 ; out dx, al ; ret  ;  (1 found)
0x14809f37: add bl, ch ; pop es ; mov byte [ebp-0x00000090], 0x00000000 ; faddp st1, st0 ; ret  ;  (1 found)
0x14809f76: add bl, ch ; pop es ; mov byte [ebp-0x00000090], 0x00000001 ; faddp st1, st0 ; ret  ;  (1 found)
0x148033d9: add bl, ch ; pop es ; or dword [0x14813690], 0xFFFFFFFF ; pop esi ; pop ebp ; ret  ;  (1 found)
0x148055fe: add byte [0xFF501481], bh ; adc eax, 0x1480D078 ; pop ebp ; ret  ;  (1 found)
0x14805646: add byte [0xFF501481], bh ; adc eax, 0x1480D07C ; pop ebp ; ret  ;  (1 found)
0x1480174c: add byte [eax+0x00], al ; add bl, al ; push 0x14813798 ; call dword [0x1480D048] ;  (1 found)
0x14801093: add byte [eax+0x00], ch ; adc byte [eax], al ; add byte [ebp-0x00110F6B], cl ; call dword [edx-0x75] ;  (1 found)
0x14805de8: add byte [eax+0x53], dl ; call dword [0x1480D0B0] ;  (1 found)
0x14807cea: add byte [eax+0x57], dl ; call dword [0x1480D0B0] ;  (1 found)
0x14808f25: add byte [eax+0x57], dl ; lea eax, dword [ebp-0x00001404] ; push eax ; push ecx ; call dword [0x1480D0A8] ;  (1 found)
0x1480115c: add byte [eax+0x59], ch ; sbb eax, dword [eax] ; add byte [esi-0x77], ah ; inc esp ; and al, 0x14 ; call dword [0x1480D11C] ;  (1 found)
0x148060c1: add byte [eax+0x5D], al ; ret  ;  (1 found)
0x1480611a: add byte [eax+0x5D], cl ; ret  ;  (1 found)
0x1480bdd8: add byte [eax+0x5F5EC475], al ; pop ebx ; xor eax, eax ; ret  ;  (1 found)
0x14801ee0: add byte [eax+eax*8-0x0F17F88B], al ; add eax, dword [eax] ; add bl, ch ; in eax, dx ; mov al, 0x01 ; ret  ;  (1 found)
0x148014bc: add byte [eax+eax*8-0x3FCDFB8B], al ; pop ebp ; ret  ;  (1 found)
0x14801ed4: add byte [eax+eax*8-0x3FCDFC8B], al ; ret  ;  (1 found)
0x14803a56: add byte [eax+eax], cl ; add byte [eax], al ; xor eax, eax ; pop esi ; pop ebp ; ret  ;  (1 found)
0x14803b51: add byte [eax+eax], cl ; add byte [eax], al ; xor eax, eax ; pop esi ; pop ebp ; ret  ;  (1 found)
0x14802591: add byte [eax+edx-0x7D], dh ; push dword [eax+ecx-0x01] ; call dword [0x1480D098] ;  (1 found)
0x14802590: add byte [eax+edx-0x7D], dh ; push dword [eax+ecx-0x01] ; call dword [0x1480D098] ;  (1 found)
0x14806798: add byte [eax+edx-0x7D], dh ; push dword [eax+ecx-0x01] ; call dword [0x1480D098] ;  (1 found)
0x14806797: add byte [eax+edx-0x7D], dh ; push dword [eax+ecx-0x01] ; call dword [0x1480D098] ;  (1 found)
0x148016b5: add byte [eax-0x01], dl ; adc eax, 0x1480D044 ; mov eax, dword [ebp-0x08] ; xor eax, dword [ebp-0x0C] ; mov dword [ebp-0x04], eax ; call dword [0x1480D040] ;  (1 found)
0x14806d8f: add byte [eax-0x3CA30000], al ; or eax, 0x40 ; pop ebp ; ret  ;  (1 found)
0x14802aea: add byte [eax-0x7BF0FFC2], al ; retn 0x0000 ;  (1 found)
0x14806d90: add byte [eax], 0x00000000 ; pop ebp ; ret  ;  (1 found)
0x14806d9c: add byte [eax], 0x00000000 ; pop ebp ; ret  ;  (1 found)
0x1480177a: add byte [eax], al ; add ah, cl ; ret  ;  (1 found)
0x1480a096: add byte [eax], al ; add al, ch ; fld dword [eax] ; add byte [eax], al ; pop edx ; ret  ;  (1 found)
0x148080e9: add byte [eax], al ; add al, ch ; stosb  ; retn 0xFFFF ;  (1 found)
0x1480a005: add byte [eax], al ; add bl, al ; fadd qword [0x14810F70] ; mov eax, 0x00000000 ; ret  ;  (1 found)
0x14805de6: add byte [eax], al ; add byte [eax+0x53], dl ; call dword [0x1480D0B0] ;  (1 found)
0x14807ce8: add byte [eax], al ; add byte [eax+0x57], dl ; call dword [0x1480D0B0] ;  (1 found)
0x148060bf: add byte [eax], al ; add byte [eax+0x5D], al ; ret  ;  (1 found)
0x14806118: add byte [eax], al ; add byte [eax+0x5D], cl ; ret  ;  (1 found)
0x1480bdd6: add byte [eax], al ; add byte [eax+0x5F5EC475], al ; pop ebx ; xor eax, eax ; ret  ;  (1 found)
0x1480a050: add byte [eax], al ; add byte [eax], al ; mov eax, dword [edx+0x04] ; ret  ;  (1 found)
0x14801a20: add byte [eax], al ; add byte [eax], al ; ret  ;  (1 found)
0x1480a004: add byte [eax], al ; add byte [eax], al ; ret  ;  (1 found)
0x1480a010: add byte [eax], al ; add byte [eax], al ; ret  ;  (1 found)
0x1480b4e3: add byte [eax], al ; add byte [eax], al ; ret  ;  (1 found)
0x1480191b: add byte [eax], al ; add byte [eax], al ; setne al ; ret  ;  (1 found)
0x1480bcaa: add byte [eax], al ; add byte [ebp+0x448B0049], cl ; and al, 0x0C ; pop esi ; pop edi ; ret  ;  (1 found)
0x1480c35a: add byte [eax], al ; add byte [ebp+0x448B0049], cl ; and al, 0x0C ; pop esi ; pop edi ; ret  ;  (1 found)
0x14804f2c: add byte [eax], al ; add byte [ebp+0x5350E845], cl ; call dword [0x1480D0E8] ;  (1 found)
0x14801bf4: add byte [eax], al ; add byte [ebp-0x75], dl ; in al, dx ; push 0x00000000 ; call dword [0x1480D054] ;  (1 found)
0x148080b9: add byte [eax], al ; add byte [ebx+0x09], dh ; mov eax, dword [0x1480ECE8+eax*8] ; pop ebp ; ret  ;  (1 found)
0x1480872a: add byte [eax], al ; add byte [ebx+0x5D5E10C4], al ; ret  ;  (1 found)
0x148020f6: add byte [eax], al ; add byte [ebx+0x5E5F18C4], al ; pop ebx ; ret  ;  (1 found)
0x148026b0: add byte [eax], al ; add byte [ebx+0x5E5F18C4], al ; pop ebx ; ret  ;  (1 found)
0x14806944: add byte [eax], al ; add byte [ebx+0x74F685F0], cl ; pop ss ; push dword [ebp+0x08] ; mov ecx, esi ; call dword [0x1480D144] ;  (1 found)
0x14806945: add byte [eax], al ; add byte [ebx+0x74F685F0], cl ; pop ss ; push dword [ebp+0x08] ; mov ecx, esi ; call dword [0x1480D144] ;  (1 found)
0x148062b4: add byte [eax], al ; add byte [ebx-0x743CEF3C], al ; call dword [ebp-0x75] ;  (1 found)
0x1480813f: add byte [eax], al ; add byte [ebx], dh ; rcr byte [esi+0x5F], 0x0000005D ; ret  ;  (1 found)
0x14804f0e: add byte [eax], al ; add byte [ecx+0x00FDE9FB], al ; add byte [edi], cl ; test byte [eax+eax-0x48F10000], bh ; ret  ;  (1 found)
0x14803731: add byte [eax], al ; add byte [ecx+0x59], bl ; pop ebp ; ret  ;  (1 found)
0x148018d3: add byte [eax], al ; add byte [ecx+0x5B], bl ; mov esp, ebp ; pop ebp ; ret  ;  (1 found)
0x148038dc: add byte [eax], al ; add byte [ecx-0x77], bl ; pop edi ; pop esi ; pop ebp ; retn 0x0004 ;  (1 found)
0x14804f1a: add byte [eax], al ; add byte [edi], cl ; mov bh, 0xC3 ; push eax ; call dword [0x1480D0E0] ;  (1 found)
0x1480a09b: add byte [eax], al ; add byte [edx-0x3D], bl ; fldcw word [esp] ; pop edx ; ret  ;  (1 found)
0x1480a100: add byte [eax], al ; add byte [edx-0x3D], bl ; fldcw word [esp] ; pop edx ; ret  ;  (1 found)
0x14809ec5: add byte [eax], al ; add cl, bl ; leave  ; fstp st0 ; ret  ;  (1 found)
0x14809953: add byte [eax], al ; add cl, cl ; ret  ;  (1 found)
0x1480abb4: add byte [eax], al ; add dh, dh ; ret  ;  (1 found)
0x14801a21: add byte [eax], al ; add dl, dh ; ret  ;  (1 found)
0x1480b4e4: add byte [eax], al ; add dl, dh ; ret  ;  (1 found)
0x148030c5: add byte [eax], al ; add esp, 0x04 ; ret  ;  (1 found)
0x14802c11: add byte [eax], al ; add esp, 0x0C ; mov eax, esi ; pop esi ; pop ebp ; ret  ;  (1 found)
0x14807bf0: add byte [eax], al ; add esp, 0x0C ; pop ebp ; ret  ;  (1 found)
0x14809519: add byte [eax], al ; add esp, 0x0C ; ret  ;  (1 found)
0x14809698: add byte [eax], al ; add esp, 0x10 ; fld qword [esp+0x04] ; ret  ;  (1 found)
0x14807f12: add byte [eax], al ; add esp, 0x10 ; pop ebp ; ret  ;  (1 found)
0x1480872b: add byte [eax], al ; add esp, 0x10 ; pop esi ; pop ebp ; ret  ;  (1 found)
0x14806281: add byte [eax], al ; add esp, 0x10 ; ret  ;  (1 found)
0x1480629b: add byte [eax], al ; add esp, 0x10 ; ret  ;  (1 found)
0x148062b5: add byte [eax], al ; add esp, 0x10 ; ret  ;  (1 found)
0x148020f7: add byte [eax], al ; add esp, 0x18 ; pop edi ; pop esi ; pop ebx ; ret  ;  (1 found)
0x148026b1: add byte [eax], al ; add esp, 0x18 ; pop edi ; pop esi ; pop ebx ; ret  ;  (1 found)
0x1480acd7: add byte [eax], al ; add esp, 0x1C ; pop ebp ; ret  ;  (1 found)
0x14809113: add byte [eax], al ; call dword [0x1480D0B4] ;  (1 found)
0x14804a70: add byte [eax], al ; call dword [0x1480D0C8] ;  (1 found)
0x14804a59: add byte [eax], al ; call dword [0x1480D0E4] ;  (1 found)
0x14801117: add byte [eax], al ; call dword [0x1480D12C] ;  (1 found)
0x14801994: add byte [eax], al ; call edi ;  (1 found)
0x148019bf: add byte [eax], al ; call edi ;  (1 found)
0x1480134f: add byte [eax], al ; call esi ;  (1 found)
0x1480b3e6: add byte [eax], al ; cmp word [ecx+0x18], dx ; sete al ; pop ebp ; ret  ;  (1 found)
0x14806119: add byte [eax], al ; dec eax ; pop ebp ; ret  ;  (1 found)
0x14809b8d: add byte [eax], al ; fld qword [esp+0x10] ; add esp, 0x1C ; ret  ;  (1 found)
0x14809c36: add byte [eax], al ; fstp st0 ; fstp st0 ; fld tword [0x14810ED0] ; mov byte [ebp-0x00000090], 0x00000002 ; ret  ;  (1 found)
0x14809cfd: add byte [eax], al ; fstp st0 ; fstp st0 ; fld tword [0x14810ED0] ; mov byte [ebp-0x00000090], 0x00000003 ; ret  ;  (1 found)
0x14809ec6: add byte [eax], al ; fxch st0, st1 ; fstp st0 ; ret  ;  (1 found)
0x1480188a: add byte [eax], al ; inc eax ; mov dword [ebp-0x54], 0x00000001 ; mov dword [ebp-0x4C], eax ; call dword [0x1480D04C] ;  (1 found)
0x148060c0: add byte [eax], al ; inc eax ; pop ebp ; ret  ;  (1 found)
0x1480a677: add byte [eax], al ; inc eax ; push 0x14810FE8 ; call dword [0x1480D008] ;  (1 found)
0x1480196d: add byte [eax], al ; int3  ; and dword [0x148137B0], 0x00000000 ; ret  ;  (1 found)
0x1480177b: add byte [eax], al ; int3  ; ret  ;  (1 found)
0x14804f2d: add byte [eax], al ; lea eax, dword [ebp-0x18] ; push eax ; push ebx ; call dword [0x1480D0E8] ;  (1 found)
0x1480bcab: add byte [eax], al ; lea ecx, dword [ecx+0x00] ; mov eax, dword [esp+0x0C] ; pop esi ; pop edi ; ret  ;  (1 found)
0x1480c35b: add byte [eax], al ; lea ecx, dword [ecx+0x00] ; mov eax, dword [esp+0x0C] ; pop esi ; pop edi ; ret  ;  (1 found)
0x14801097: add byte [eax], al ; lea edx, dword [ebp-0x00001110] ; push edx ; mov eax, dword [ebp+0x08] ; push eax ; call dword [0x1480D134] ;  (1 found)
0x14809954: add byte [eax], al ; leave  ; ret  ;  (1 found)
0x148037e6: add byte [eax], al ; mov al, 0x01 ; ret  ;  (1 found)
0x14803c0b: add byte [eax], al ; mov byte [edi+0x0C], 0x00000001 ; mov eax, edi ; pop edi ; pop ebp ; retn 0x0004 ;  (1 found)
0x14803a53: add byte [eax], al ; mov dword [eax], 0x0000000C ; xor eax, eax ; pop esi ; pop ebp ; ret  ;  (1 found)
0x14803b4e: add byte [eax], al ; mov dword [eax], 0x0000000C ; xor eax, eax ; pop esi ; pop ebp ; ret  ;  (1 found)
0x1480443e: add byte [eax], al ; mov dword [eax], esi ; pop esi ; pop ebp ; ret  ;  (1 found)
0x14801892: add byte [eax], al ; mov dword [ebp-0x4C], eax ; call dword [0x1480D04C] ;  (1 found)
0x1480a052: add byte [eax], al ; mov eax, dword [edx+0x04] ; ret  ;  (1 found)
0x14803a8b: add byte [eax], al ; mov eax, esi ; pop esi ; pop ebp ; ret  ;  (1 found)
0x14809e2c: add byte [eax], al ; mov ebx, edx ; add ebx, eax ; add ebx, 0x10 ; jmp dword [ebx] ;  (1 found)
0x14809eb8: add byte [eax], al ; mov ebx, edx ; add ebx, eax ; add ebx, 0x10 ; jmp dword [ebx] ;  (1 found)
0x14803c34: add byte [eax], al ; mov ecx, dword [ebp+0x08] ; movzx eax, word [eax+ecx*2] ; and eax, dword [ebp+0x0C] ; pop ebp ; ret  ;  (1 found)
0x14802962: add byte [eax], al ; mov esi, 0x14813B88 ; xor edi, edi ; push esi ; push edi ; call dword [0x1480D0AC] ;  (1 found)
0x148039fc: add byte [eax], al ; mov esi, eax ; call dword [0x1480D070] ;  (1 found)
0x14801160: add byte [eax], al ; mov word [esp+0x14], ax ; call dword [0x1480D11C] ;  (1 found)
0x14804f1b: add byte [eax], al ; movzx eax, bx ; push eax ; call dword [0x1480D0E0] ;  (1 found)
0x1480112b: add byte [eax], al ; nop dword [eax] ; push 0x00000006 ; push 0x00000001 ; push 0x00000002 ; call dword [0x1480D128] ;  (1 found)
0x14802291: add byte [eax], al ; or dword [0x14813020], 0xFFFFFFFF ; pop ecx ; mov al, 0x01 ; ret  ;  (1 found)
0x148041ca: add byte [eax], al ; or dword [0x14813044], 0xFFFFFFFF ; mov al, 0x01 ; ret  ;  (1 found)
0x1480340b: add byte [eax], al ; or eax, 0xFFFFFFFF ; pop ebp ; ret  ;  (1 found)
0x14809fed: add byte [eax], al ; or edx, 0x7F ; mov word [esp+0x06], dx ; fldcw word [esp+0x06] ; ret  ;  (1 found)
0x148028bf: add byte [eax], al ; pop ebp ; ret  ;  (1 found)
0x14806d91: add byte [eax], al ; pop ebp ; ret  ;  (1 found)
0x14806d9d: add byte [eax], al ; pop ebp ; ret  ;  (1 found)
0x1480713b: add byte [eax], al ; pop ebp ; ret  ;  (1 found)
0x1480afed: add byte [eax], al ; pop ebp ; ret  ;  (1 found)
0x1480affa: add byte [eax], al ; pop ebp ; ret  ;  (1 found)
0x1480b275: add byte [eax], al ; pop ebp ; ret  ;  (1 found)
0x1480b249: add byte [eax], al ; pop ebp ; ret  ;  (1 found)
0x1480b2a1: add byte [eax], al ; pop ebp ; ret  ;  (1 found)
0x14801f07: add byte [eax], al ; pop ecx ; mov al, 0x01 ; pop ebp ; ret  ;  (1 found)
0x14802917: add byte [eax], al ; pop ecx ; mov dword [0x14813B84], eax ; pop ebp ; ret  ;  (1 found)
0x14803a0a: add byte [eax], al ; pop ecx ; mov dword [esi], eax ; pop esi ; pop ebp ; ret  ;  (1 found)
0x14802ca3: add byte [eax], al ; pop ecx ; mov eax, edi ; pop edi ; pop esi ; ret  ;  (1 found)
0x14803f8a: add byte [eax], al ; pop ecx ; pop ebp ; ret  ;  (1 found)
0x14802249: add byte [eax], al ; pop ecx ; pop ebp ; retn 0x0004 ;  (1 found)
0x148018d4: add byte [eax], al ; pop ecx ; pop ebx ; mov esp, ebp ; pop ebp ; ret  ;  (1 found)
0x1480164d: add byte [eax], al ; pop ecx ; pop ecx ; mov al, 0x01 ; pop ebp ; ret  ;  (1 found)
0x14803732: add byte [eax], al ; pop ecx ; pop ecx ; pop ebp ; ret  ;  (1 found)
0x148013cf: add byte [eax], al ; pop ecx ; pop ecx ; ret  ;  (1 found)
0x14803926: add byte [eax], al ; pop ecx ; pop ecx ; ret  ;  (1 found)
0x14803938: add byte [eax], al ; pop ecx ; pop ecx ; ret  ;  (1 found)
0x14802da4: add byte [eax], al ; pop ecx ; pop edi ; pop esi ; pop ebp ; ret  ;  (1 found)
0x14805f53: add byte [eax], al ; pop ecx ; pop esi ; pop ebp ; ret  ;  (1 found)
0x14803182: add byte [eax], al ; pop ecx ; push dword [ebp+0x08] ; call dword [0x1480D0B8] ;  (1 found)
0x14801291: add byte [eax], al ; pop ecx ; ret  ;  (1 found)
0x14802fd4: add byte [eax], al ; pop ecx ; ret  ;  (1 found)
0x14802fd5: add byte [eax], al ; pop ecx ; ret  ;  (1 found)
0x14802fd3: add byte [eax], al ; pop ecx ; ret  ;  (1 found)
0x1480334c: add byte [eax], al ; pop ecx ; ret  ;  (1 found)
0x148034bf: add byte [eax], al ; pop ecx ; ret  ;  (1 found)
0x1480346e: add byte [eax], al ; pop ecx ; ret  ;  (1 found)
0x14803d1a: add byte [eax], al ; pop ecx ; ret  ;  (1 found)
0x14803db5: add byte [eax], al ; pop ecx ; ret  ;  (1 found)
0x14803cb9: add byte [eax], al ; pop ecx ; ret  ;  (1 found)
0x14803d65: add byte [eax], al ; pop ecx ; ret  ;  (1 found)
0x1480496b: add byte [eax], al ; pop ecx ; ret  ;  (1 found)
0x14804e40: add byte [eax], al ; pop ecx ; ret  ;  (1 found)
0x148055ec: add byte [eax], al ; pop ecx ; xor al, al ; pop edi ; pop esi ; ret  ;  (1 found)
0x148095dc: add byte [eax], al ; pop edx ; ret  ;  (1 found)
0x1480a0fa: add byte [eax], al ; pop edx ; ret  ;  (1 found)
0x1480a101: add byte [eax], al ; pop edx ; ret  ;  (1 found)
0x1480a09c: add byte [eax], al ; pop edx ; ret  ;  (1 found)
0x1480233f: add byte [eax], al ; push 0x00000000 ; push ebx ; call dword [0x1480D0A0] ;  (1 found)
0x148062f3: add byte [eax], al ; push 0x00000000 ; push ebx ; call dword [0x1480D0A0] ;  (1 found)
0x148032b5: add byte [eax], al ; push 0x00000016 ; pop eax ; pop ebp ; ret  ;  (1 found)
0x1480115b: add byte [eax], al ; push 0x00001B59 ; mov word [esp+0x14], ax ; call dword [0x1480D11C] ;  (1 found)
0x148011a9: add byte [eax], al ; push 0x7FFFFFFF ; push edi ; call dword [0x1480D124] ;  (1 found)
0x1480283f: add byte [eax], al ; push dword [esi+0x08] ; mov ecx, edi ; push 0x00000008 ; call dword [0x1480D144] ;  (1 found)
0x148066e7: add byte [eax], al ; push eax ; call dword [0x1480D030] ;  (1 found)
0x148064b6: add byte [eax], al ; push eax ; call dword [0x1480D034] ;  (1 found)
0x14805de7: add byte [eax], al ; push eax ; push ebx ; call dword [0x1480D0B0] ;  (1 found)
0x14807ce9: add byte [eax], al ; push eax ; push edi ; call dword [0x1480D0B0] ;  (1 found)
0x14801bf5: add byte [eax], al ; push ebp ; mov ebp, esp ; push 0x00000000 ; call dword [0x1480D054] ;  (1 found)
0x14801400: add byte [eax], al ; ret  ;  (1 found)
0x1480160d: add byte [eax], al ; ret  ;  (1 found)
0x1480174e: add byte [eax], al ; ret  ;  (1 found)
0x14801a22: add byte [eax], al ; ret  ;  (1 found)
0x14802143: add byte [eax], al ; ret  ;  (1 found)
0x14802633: add byte [eax], al ; ret  ;  (1 found)
0x148026da: add byte [eax], al ; ret  ;  (1 found)
0x148030b8: add byte [eax], al ; ret  ;  (1 found)
0x14806cf7: add byte [eax], al ; ret  ;  (1 found)
0x14809d84: add byte [eax], al ; ret  ;  (1 found)
0x14809dc4: add byte [eax], al ; ret  ;  (1 found)
0x1480a006: add byte [eax], al ; ret  ;  (1 found)
0x1480a012: add byte [eax], al ; ret  ;  (1 found)
0x1480b4e5: add byte [eax], al ; ret  ;  (1 found)
0x148084b0: add byte [eax], al ; sal byte [ebx+eax+0x33], 0xFFFFFFC0 ; ret  ;  (1 found)
0x1480191d: add byte [eax], al ; setne al ; ret  ;  (1 found)
0x1480b9cb: add byte [eax], al ; shr ecx, 0x02 ; rep movsd  ; and edx, 0x03 ; jmp dword [0x1480B9E4+edx*4] ;  (1 found)
0x1480c07b: add byte [eax], al ; shr ecx, 0x02 ; rep movsd  ; and edx, 0x03 ; jmp dword [0x1480C094+edx*4] ;  (1 found)
0x1480516f: add byte [eax], al ; std  ; mov eax, edx ; mov esp, ebp ; pop ebp ; ret  ;  (1 found)
0x14804a9c: add byte [eax], al ; std  ; mov esp, ebp ; pop ebp ; ret  ;  (1 found)
0x14807ee9: add byte [eax], al ; std  ; mov esp, ebp ; pop ebp ; ret  ;  (1 found)
0x148085c5: add byte [eax], al ; std  ; mov esp, ebp ; pop ebp ; ret  ;  (1 found)
0x14808ad0: add byte [eax], al ; std  ; mov esp, ebp ; pop ebp ; ret  ;  (1 found)
0x148022d3: add byte [eax], al ; xor al, al ; pop edi ; pop esi ; ret  ;  (1 found)
0x1480bdd7: add byte [eax], al ; xor byte [ebp-0x3C], 0x0000005E ; pop edi ; pop ebx ; xor eax, eax ; ret  ;  (1 found)
0x14803a59: add byte [eax], al ; xor eax, eax ; pop esi ; pop ebp ; ret  ;  (1 found)
0x14803b54: add byte [eax], al ; xor eax, eax ; pop esi ; pop ebp ; ret  ;  (1 found)
0x14808140: add byte [eax], al ; xor eax, eax ; pop esi ; pop edi ; pop ebp ; ret  ;  (1 found)
0x1480127e: add byte [eax], al ; xor eax, eax ; ret  ;  (1 found)
0x1480126e: add byte [eax], al ; xor eax, eax ; ret  ;  (1 found)
0x1480233d: add byte [eax], cl ; add byte [eax], al ; push 0x00000000 ; push ebx ; call dword [0x1480D0A0] ;  (1 found)
0x148062f1: add byte [eax], cl ; add byte [eax], al ; push 0x00000000 ; push ebx ; call dword [0x1480D0A0] ;  (1 found)
0x14809ffe: add byte [eax], cl ; add byte [esi+eax-0x48], dh ; add byte [eax], al ; add byte [eax], al ; ret  ;  (1 found)
0x14807139: add byte [eax], dl ; add byte [eax], al ; pop ebp ; ret  ;  (1 found)
0x148010d4: add byte [ebp+0x03], dh ; pop eax ; pop ebx ; ret  ;  (1 found)
0x148010ca: add byte [ebp+0x04], dh ; mov eax, esp ; jmp esp ;  (1 found)
0x148074b6: add byte [ebp+0x05], dh ; or eax, 0xFFFFFFFF ; pop esi ; ret  ;  (1 found)
0x1480161f: add byte [ebp+0x09], dh ; xor eax, eax ; mov ecx, 0x14813774 ; xchg dword [ecx], eax ; pop ebp ; ret  ;  (1 found)
0x1480b3e0: add byte [ebp+0x0C], dh ; mov edx, 0x0000010B ; cmp word [ecx+0x18], dx ; sete al ; pop ebp ; ret  ;  (1 found)
0x1480bcac: add byte [ebp+0x448B0049], cl ; and al, 0x0C ; pop esi ; pop edi ; ret  ;  (1 found)
0x1480c35c: add byte [ebp+0x448B0049], cl ; and al, 0x0C ; pop esi ; pop edi ; ret  ;  (1 found)
0x14804f2e: add byte [ebp+0x5350E845], cl ; call dword [0x1480D0E8] ;  (1 found)
0x1480a391: add byte [ebp+0x5DDDDC45], cl ; in al, dx ; fld qword [esi] ; push eax ; fstp qword [ebp-0x0C] ; call dword [0x1480D144] ;  (1 found)
0x1480a23f: add byte [ebp+0x5DDDDC45], cl ; in al, dx ; fld qword [esi] ; push eax ; fstp qword [ebp-0x0C] ; call dword [0x1480D144] ;  (1 found)
0x1480a2d9: add byte [ebp+0x5DDDDC45], cl ; in al, dx ; fld qword [esi] ; push eax ; fstp qword [ebp-0x0C] ; call dword [0x1480D144] ;  (1 found)
0x1480b648: add byte [ebp+0x5E], bl ; pop edi ; retn 0x0010 ;  (1 found)
0x14807135: add byte [ebp+eax+0x0D], dh ; add byte [eax], dl ; add byte [eax], al ; pop ebp ; ret  ;  (1 found)
0x14801098: add byte [ebp-0x00110F6B], cl ; call dword [edx-0x75] ;  (1 found)
0x14801054: add byte [ebp-0x00110F7B], cl ; call dword [eax-0x18] ;  (1 found)
0x148090f9: add byte [ebp-0x00140773], cl ; call dword [ecx-0x73] ;  (1 found)
0x148086c1: add byte [ebp-0x0C], dh ; pop ebp ; ret  ;  (1 found)
0x1480b2a2: add byte [ebp-0x3D], bl ; jmp dword [0x1480D05C] ;  (1 found)
0x14806d92: add byte [ebp-0x3D], bl ; or eax, 0x40 ; pop ebp ; ret  ;  (1 found)
0x14801bf6: add byte [ebp-0x75], dl ; in al, dx ; push 0x00000000 ; call dword [0x1480D054] ;  (1 found)
0x14802bc2: add byte [ebx+0x00FF1445], cl ; mov esp, ebp ; pop ebp ; ret  ;  (1 found)
0x1480835c: add byte [ebx+0x0375F845], cl ; mov eax, dword [ebp-0x0C] ; mov esp, ebp ; pop ebp ; ret  ;  (1 found)
0x14809b07: add byte [ebx+0x077400F8], al ; fld qword [0x14810E78] ; ret  ;  (1 found)
0x148080bb: add byte [ebx+0x09], dh ; mov eax, dword [0x1480ECE8+eax*8] ; pop ebp ; ret  ;  (1 found)
0x14801bcd: add byte [ebx+0x14813010], ah ; xor eax, eax ; pop ebx ; mov esp, ebp ; pop ebp ; ret  ;  (1 found)
0x14806f93: add byte [ebx+0x2B], bl ; ret  ;  (1 found)
0x148038a9: add byte [ebx+0x358910C4], al ; mov ah, 0x3C ; adc dword [eax+esi*4], 0xE58B5E01 ; pop ebp ; ret  ;  (1 found)
0x148039b7: add byte [ebx+0x4415FFCE], cl ; rol dword [eax-0x142900EC], 1  ; pop es ; xor eax, eax ; inc eax ; ret  ;  (1 found)
0x14809699: add byte [ebx+0x44DD10C4], al ; and al, 0x04 ; ret  ;  (1 found)
0x1480769f: add byte [ebx+0x5657144D], cl ; call dword [0x1480D144] ;  (1 found)
0x1480110b: add byte [ebx+0x56], dl ; push edi ; lea eax, dword [esp+0x20] ; push eax ; push 0x00000202 ; call dword [0x1480D12C] ;  (1 found)
0x14805b10: add byte [ebx+0x5959FC45], cl ; mov eax, dword [eax] ; mov esp, ebp ; pop ebp ; ret  ;  (1 found)
0x1480a47a: add byte [ebx+0x5B5E1CC4], al ; mov esp, ebp ; pop ebp ; ret  ;  (1 found)
0x1480872c: add byte [ebx+0x5D5E10C4], al ; ret  ;  (1 found)
0x1480bcaf: add byte [ebx+0x5E0C2444], cl ; pop edi ; ret  ;  (1 found)
0x1480c35f: add byte [ebx+0x5E0C2444], cl ; pop edi ; ret  ;  (1 found)
0x148020f8: add byte [ebx+0x5E5F18C4], al ; pop ebx ; ret  ;  (1 found)
0x148026b2: add byte [ebx+0x5E5F18C4], al ; pop ebx ; ret  ;  (1 found)
0x14805897: add byte [ebx+0x5E5FFFC8], al ; pop ebx ; pop ebp ; ret  ;  (1 found)
0x14806947: add byte [ebx+0x74F685F0], cl ; pop ss ; push dword [ebp+0x08] ; mov ecx, esi ; call dword [0x1480D144] ;  (1 found)
0x148093e6: add byte [ebx-0x27BA7255], ch ; push eax ; push dword [ebp-0x14] ; push ebx ; push ecx ; call dword [0x1480D0A8] ;  (1 found)
0x14802c12: add byte [ebx-0x3974F33C], al ; pop esi ; pop ebp ; ret  ;  (1 found)
0x1480abf6: add byte [ebx-0x3B7C03AB], cl ; or al, 0x81 ; retn 0xFA00 ;  (1 found)
0x1480340c: add byte [ebx-0x3CA20038], al ; mov ecx, 0x14813CC8 ; xchg dword [ecx], eax ; pop ebp ; ret  ;  (1 found)
0x14803c35: add byte [ebx-0x48F0F7B3], cl ; add al, 0x48 ; and eax, dword [ebp+0x0C] ; pop ebp ; ret  ;  (1 found)
0x14802bc7: add byte [ebx-0x743CA21B], cl ; call dword [ebp-0x75] ;  (1 found)
0x14805b17: add byte [ebx-0x743CA21B], cl ; call dword [ebp-0x75] ;  (1 found)
0x148062b6: add byte [ebx-0x743CEF3C], al ; call dword [ebp-0x75] ;  (1 found)
0x14809fee: add byte [ebx-0x76998036], al ; push esp ; and al, 0x06 ; fldcw word [esp+0x06] ; ret  ;  (1 found)
0x14809e2d: add byte [ebx-0x7C27FC26], cl ; ret  ;  (1 found)
0x14809eb9: add byte [ebx-0x7C27FC26], cl ; ret  ;  (1 found)
0x148041cb: add byte [ebx-0x7ECFBBF3], al ; adc al, 0xFF ; mov al, 0x01 ; ret  ;  (1 found)
0x14802292: add byte [ebx-0x7ECFDFF3], al ; adc al, 0xFF ; pop ecx ; mov al, 0x01 ; ret  ;  (1 found)
0x14809feb: add byte [ebx], al ; add byte [eax], al ; or edx, 0x7F ; mov word [esp+0x06], dx ; fldcw word [esp+0x06] ; ret  ;  (1 found)
0x14808ed5: add byte [ebx], al ; ret  ;  (1 found)
0x14808ed4: add byte [ebx], al ; ret  ;  (1 found)
0x1480705b: add byte [ebx], ch ; ret  ;  (1 found)
0x148015ef: add byte [ebx], dh ; leave  ; cmp dword [eax], 0xC0000005 ; sete cl ; mov eax, ecx ; ret  ;  (1 found)
0x1480b38d: add byte [ebx], dh ; leave  ; cmp dword [eax], 0xC0000005 ; sete cl ; mov eax, ecx ; ret  ;  (1 found)
0x14808141: add byte [ebx], dh ; rcr byte [esi+0x5F], 0x0000005D ; ret  ;  (1 found)
0x14802194: add byte [ebx], dh ; sal byte [ebx], 0xFFFFFFDB ; xor ecx, ecx ; xor edx, edx ; xor edi, edi ; jmp esi ;  (1 found)
0x14804f10: add byte [ecx+0x00FDE9FB], al ; add byte [edi], cl ; test byte [eax+eax-0x48F10000], bh ; ret  ;  (1 found)
0x14807537: add byte [ecx+0x14814164], ah ; pop ecx ; mov eax, dword [esi+eax] ; add eax, 0x20 ; push eax ; call dword [0x1480D080] ;  (1 found)
0x14807d61: add byte [ecx+0x53], dl ; push esi ; push dword [ebp+0x14] ; push 0x00000001 ; push edi ; call dword [0x1480D0B0] ;  (1 found)
0x1480164e: add byte [ecx+0x59], bl ; mov al, 0x01 ; pop ebp ; ret  ;  (1 found)
0x14803733: add byte [ecx+0x59], bl ; pop ebp ; ret  ;  (1 found)
0x148013d0: add byte [ecx+0x59], bl ; ret  ;  (1 found)
0x14803927: add byte [ecx+0x59], bl ; ret  ;  (1 found)
0x14803939: add byte [ecx+0x59], bl ; ret  ;  (1 found)
0x14803994: add byte [ecx+0x59], bl ; xor eax, eax ; pop esi ; pop ebp ; ret  ;  (1 found)
0x148018d5: add byte [ecx+0x5B], bl ; mov esp, ebp ; pop ebp ; ret  ;  (1 found)
0x14803f8b: add byte [ecx+0x5D], bl ; ret  ;  (1 found)
0x1480224a: add byte [ecx+0x5D], bl ; retn 0x0004 ;  (1 found)
0x14805f54: add byte [ecx+0x5E], bl ; pop ebp ; ret  ;  (1 found)
0x14807564: add byte [ecx+0x5E], bl ; ret  ;  (1 found)
0x14802da5: add byte [ecx+0x5F], bl ; pop esi ; pop ebp ; ret  ;  (1 found)
0x1480b380: add byte [ecx+0x5F], bl ; pop esi ; pop ebx ; mov esp, ebp ; pop ebp ; ret  ;  (1 found)
0x1480b3b1: add byte [ecx+0x5F], bl ; pop esi ; pop ebx ; mov esp, ebp ; pop ebp ; ret  ;  (1 found)
0x14801682: add byte [ecx-0x09], bl ; fcomp dword [ecx+0x1B] ; sal bh, 0xFFFFFFD0 ; and eax, dword [ebp+0x08] ; pop ebp ; ret  ;  (1 found)
0x14803ac9: add byte [ecx-0x0A], bl ; add eax, 0x14813040 ; add dh, byte [edx+0x6A] ; pop ss ; call dword [0x1480D05C] ;  (1 found)
0x1480334d: add byte [ecx-0x3D], bl ; xor eax, eax ; mov ecx, 0x14813CC4 ; inc eax ; xchg dword [ecx], eax ; ret  ;  (1 found)
0x14802a4c: add byte [ecx-0x75], bl ; ret  ;  (1 found)
0x148038de: add byte [ecx-0x77], bl ; pop edi ; pop esi ; pop ebp ; retn 0x0004 ;  (1 found)
0x14803a0b: add byte [ecx-0x77], bl ; push es ; pop esi ; pop ebp ; ret  ;  (1 found)
0x14803a35: add byte [ecx-0x7B], bl ; sal byte [ebp+edx+0x56], 0x0000006A ; add bh, bh ; xor eax, 0x14814140 ; call dword [0x1480D0D0] ;  (1 found)
0x14803b30: add byte [ecx-0x7B], bl ; sal byte [ebp+edx+0x56], 0x0000006A ; or bh, bh ; xor eax, 0x14814140 ; call dword [0x1480D0D0] ;  (1 found)
0x1480627f: add byte [ecx], al ; add byte [eax], al ; add esp, 0x10 ; ret  ;  (1 found)
0x148037e4: add byte [ecx], al ; add byte [eax], al ; mov al, 0x01 ; ret  ;  (1 found)
0x1480b29f: add byte [ecx], al ; add byte [eax], al ; pop ebp ; ret  ;  (1 found)
0x14809f93: add byte [edi+0x07], bh ; mov byte [ebp-0x00000090], 0x00000001 ; or cl, cl ; ret  ;  (1 found)
0x14809665: add byte [edi+0x0B], bh ; movq qword [esp+0x04], xmm1 ; fld qword [esp+0x04] ; ret  ;  (1 found)
0x148089b6: add byte [edi+0x57], dl ; push ebx ; push dword [ebp-0x24] ; push 0x00000009 ; push esi ; call dword [0x1480D0B0] ;  (1 found)
0x1480103a: add byte [edi+0x5E], bl ; pop ebx ; pop ebp ; ret  ;  (1 found)
0x14809b0a: add byte [edi+eax-0x23], dh ; add eax, 0x14810E78 ; ret  ;  (1 found)
0x1480416b: add byte [edi-0x15], dl ; fldcw word [eax+0x5C] ; inc eax ; adc dword [edi+edx*2], 0xFFFC3FE8 ; call dword [ebx-0x18] ;  (1 found)
0x148096c0: add byte [edi-0x50], bh ; andpd xmm0,  [0x14810D80] ; addsd xmm1, xmm0 ; movq qword [esp+0x04], xmm1 ; fld qword [esp+0x04] ; ret  ;  (1 found)
0x14804f1c: add byte [edi], cl ; mov bh, 0xC3 ; push eax ; call dword [0x1480D0E0] ;  (1 found)
0x1480112c: add byte [edi], cl ; pop ds ; add byte [edx+0x06], ch ; push 0x00000001 ; push 0x00000002 ; call dword [0x1480D128] ;  (1 found)
0x14804f16: add byte [edi], cl ; test byte [eax+eax-0x48F10000], bh ; ret  ;  (1 found)
0x148011cd: add byte [edx+0x00], ch ; call ebx ;  (1 found)
0x1480119e: add byte [edx+0x00], ch ; call ebx ;  (1 found)
0x14801193: add byte [edx+0x00], ch ; push 0x00000000 ; push 0x148010E0 ; push 0x00000000 ; push 0x00000000 ; call ebx ;  (1 found)
0x14801195: add byte [edx+0x00], ch ; push 0x148010E0 ; push 0x00000000 ; push 0x00000000 ; call ebx ;  (1 found)
0x148025d8: add byte [edx+0x00], ch ; push 0x148025E9 ; push dword [ebp+0x08] ; call dword [0x1480D06C] ;  (1 found)
0x148011c3: add byte [edx+0x00], ch ; push eax ; push 0x14801040 ; push 0x00000000 ; push 0x00000000 ; call ebx ;  (1 found)
0x14802340: add byte [edx+0x00], ch ; push ebx ; call dword [0x1480D0A0] ;  (1 found)
0x148062f4: add byte [edx+0x00], ch ; push ebx ; call dword [0x1480D0A0] ;  (1 found)
0x148011b8: add byte [edx+0x00], ch ; push edi ; call dword [0x1480D138] ;  (1 found)
0x1480112f: add byte [edx+0x06], ch ; push 0x00000001 ; push 0x00000002 ; call dword [0x1480D128] ;  (1 found)
0x148032b6: add byte [edx+0x16], ch ; pop eax ; pop ebp ; ret  ;  (1 found)
0x1480bab7: add byte [edx+0x47880346], cl ; add ecx, dword [edx+0x47880246] ; add cl, byte [ebx+0x5E0C2444] ; pop edi ; ret  ;  (1 found)
0x1480c167: add byte [edx+0x47880346], cl ; add ecx, dword [edx+0x47880246] ; add cl, byte [ebx+0x5E0C2444] ; pop edi ; ret  ;  (1 found)
0x148021ab: add byte [edx+0x68], dl ; mov ecx, 0x51148021 ; call dword [0x1480D06C] ;  (1 found)
0x14804a92: add byte [edx+ecx-0x75], dh ; dec ebp ; lock and dword [ecx+0x00000350], 0xFFFFFFFD ; mov esp, ebp ; pop ebp ; ret  ;  (1 found)
0x14807edf: add byte [edx+ecx-0x75], dh ; dec ebp ; lock and dword [ecx+0x00000350], 0xFFFFFFFD ; mov esp, ebp ; pop ebp ; ret  ;  (1 found)
0x148085bb: add byte [edx+ecx-0x75], dh ; dec ebp ; lock and dword [ecx+0x00000350], 0xFFFFFFFD ; mov esp, ebp ; pop ebp ; ret  ;  (1 found)
0x14808ac6: add byte [edx+ecx-0x75], dh ; dec ebp ; lock and dword [ecx+0x00000350], 0xFFFFFFFD ; mov esp, ebp ; pop ebp ; ret  ;  (1 found)
0x14805aef: add byte [edx-0x23], dh ; mov al, 0x01 ; pop esi ; ret  ;  (1 found)
0x1480a102: add byte [edx-0x3D], bl ; fldcw word [esp] ; pop edx ; ret  ;  (1 found)
0x1480a09d: add byte [edx-0x3D], bl ; fldcw word [esp] ; pop edx ; ret  ;  (1 found)
0x1480b247: add byte [edx], al ; add byte [eax], al ; pop ebp ; ret  ;  (1 found)
0x14809b02: add byte [esi+0x0F], ah ; lds eax, edx ; add byte [ebx+0x077400F8], al ; fld qword [0x14810E78] ; ret  ;  (1 found)
0x14802963: add byte [esi+0x14813B88], bh ; xor edi, edi ; push esi ; push edi ; call dword [0x1480D0AC] ;  (1 found)
0x1480a000: add byte [esi+eax-0x48], dh ; add byte [eax], al ; add byte [eax], al ; ret  ;  (1 found)
0x14801161: add byte [esi-0x77], ah ; inc esp ; and al, 0x14 ; call dword [0x1480D11C] ;  (1 found)
0x14806e3a: add byte [esi-0x7B], ah ; retn 0x0674 ;  (1 found)
0x14806ef8: add byte [esi-0x7B], ah ; retn 0x0674 ;  (1 found)
0x148080e7: add byte [esi], dl ; add byte [eax], al ; add al, ch ; stosb  ; retn 0xFFFF ;  (1 found)
0x1480313d: add byte [esp+eax-0x75], dh ; in eax, 0x5D ; ret  ;  (1 found)
0x14806f9d: add byte [esp+ecx+0x2B], dh ; ret  ;  (1 found)
0x14807064: add byte [esp+ecx+0x2B], dh ; ret  ;  (1 found)
0x14805170: add ch, bh ; mov eax, edx ; mov esp, ebp ; pop ebp ; ret  ;  (1 found)
0x14807280: add ch, bh ; mov eax, edx ; pop ebx ; mov esp, ebp ; pop ebp ; ret  ;  (1 found)
0x14807c7b: add ch, bh ; mov eax, esi ; pop esi ; mov esp, ebp ; pop ebp ; ret  ;  (1 found)
0x14804a9d: add ch, bh ; mov esp, ebp ; pop ebp ; ret  ;  (1 found)
0x14807eea: add ch, bh ; mov esp, ebp ; pop ebp ; ret  ;  (1 found)
0x148085c6: add ch, bh ; mov esp, ebp ; pop ebp ; ret  ;  (1 found)
0x14808ad1: add ch, bh ; mov esp, ebp ; pop ebp ; ret  ;  (1 found)
0x1480b23e: add ch, bl ; add ch, byte [edx+0x04] ; pop eax ; pop ebp ; ret  ;  (1 found)
0x14809c37: add ch, bl ; fcomp st0, st5 ; fcomp st0, st3 ; sub eax, 0x14810ED0 ; mov byte [ebp-0x00000090], 0x00000002 ; ret  ;  (1 found)
0x14809cfe: add ch, bl ; fcomp st0, st5 ; fcomp st0, st3 ; sub eax, 0x14810ED0 ; mov byte [ebp-0x00000090], 0x00000003 ; ret  ;  (1 found)
0x14809b8e: add ch, bl ; inc esp ; and al, 0x10 ; add esp, 0x1C ; ret  ;  (1 found)
0x1480b240: add ch, byte [edx+0x04] ; pop eax ; pop ebp ; ret  ;  (1 found)
0x14805a07: add ch, byte [edx-0x0A] ; pop eax ; push eax ; call dword [0x1480D0A4] ;  (1 found)
0x14809ec7: add cl, bl ; leave  ; fstp st0 ; ret  ;  (1 found)
0x1480ba28: add cl, byte [eax+0x448B0247] ; and al, 0x0C ; pop esi ; pop edi ; ret  ;  (1 found)
0x1480bac0: add cl, byte [eax+0x448B0247] ; and al, 0x0C ; pop esi ; pop edi ; ret  ;  (1 found)
0x1480c0d8: add cl, byte [eax+0x448B0247] ; and al, 0x0C ; pop esi ; pop edi ; ret  ;  (1 found)
0x1480c170: add cl, byte [eax+0x448B0247] ; and al, 0x0C ; pop esi ; pop edi ; ret  ;  (1 found)
0x1480bad4: add cl, byte [eax+0x468A0247] ; add dword [eax+0x448B0147], ecx ; and al, 0x0C ; pop esi ; pop edi ; ret  ;  (1 found)
0x1480c184: add cl, byte [eax+0x468A0247] ; add dword [eax+0x448B0147], ecx ; and al, 0x0C ; pop esi ; pop edi ; ret  ;  (1 found)
0x14807097: add cl, byte [ebx+0x5B5E5FC6] ; mov esp, ebp ; pop ebp ; ret  ;  (1 found)
0x1480ba2b: add cl, byte [ebx+0x5E0C2444] ; pop edi ; ret  ;  (1 found)
0x1480bac3: add cl, byte [ebx+0x5E0C2444] ; pop edi ; ret  ;  (1 found)
0x1480c0db: add cl, byte [ebx+0x5E0C2444] ; pop edi ; ret  ;  (1 found)
0x1480c173: add cl, byte [ebx+0x5E0C2444] ; pop edi ; ret  ;  (1 found)
0x14805233: add cl, byte [ebx+0x74F685DF] ; pop es ; push esi ; call dword [0x1480D0F0] ;  (1 found)
0x1480c4e0: add cl, byte [ebx-0x36A00339] ; ret  ;  (1 found)
0x14806bcd: add cl, byte [ebx-0x763D74F0] ; inc ebp ; fdiv qword [ebx] ; rol byte [ebx-0x6BF0FE08], cl ; retn 0x5589 ;  (1 found)
0x14806d16: add cl, byte [ebx] ; ret  ;  (1 found)
0x14803b8c: add cl, byte [edi] ; mov bh, 0x09 ; sub eax, ecx ; pop esi ; pop ebp ; ret  ;  (1 found)
0x1480bad7: add cl, byte [edx+0x47880146] ; add dword [ebx+0x5E0C2444], ecx ; pop edi ; ret  ;  (1 found)
0x1480c187: add cl, byte [edx+0x47880146] ; add dword [ebx+0x5E0C2444], ecx ; pop edi ; ret  ;  (1 found)
0x14809955: add cl, cl ; ret  ;  (1 found)
0x1480b9cf: add dh, bl ; movsd  ; and edx, 0x03 ; jmp dword [0x1480B9E4+edx*4] ;  (1 found)
0x1480c07f: add dh, bl ; movsd  ; and edx, 0x03 ; jmp dword [0x1480C094+edx*4] ;  (1 found)
0x1480a1ab: add dh, byte [ebx+eax-0x27] ; insd  ; or cl, cl ; ret  ;  (1 found)
0x1480a073: add dh, byte [ebx+eax-0x27] ; sub al, 0x24 ; pop edx ; ret  ;  (1 found)
0x1480a62a: add dh, byte [ebx] ; rcr byte [edi+0x5E], 0x0000005D ; ret  ;  (1 found)
0x14803ad1: add dh, byte [edx+0x6A] ; pop ss ; call dword [0x1480D05C] ;  (1 found)
0x1480ab13: add dh, dh ; ret  ;  (1 found)
0x1480abb6: add dh, dh ; ret  ;  (1 found)
0x1480adee: add dh, dh ; retn 0x7420 ;  (1 found)
0x14801bee: add dh, dl ; ret  ;  (1 found)
0x14801a23: add dl, dh ; ret  ;  (1 found)
0x1480b4e6: add dl, dh ; ret  ;  (1 found)
0x1480ba0e: add dword [eax+0x448B0147], ecx ; and al, 0x0C ; pop esi ; pop edi ; ret  ;  (1 found)
0x1480bada: add dword [eax+0x448B0147], ecx ; and al, 0x0C ; pop esi ; pop edi ; ret  ;  (1 found)
0x1480c0be: add dword [eax+0x448B0147], ecx ; and al, 0x0C ; pop esi ; pop edi ; ret  ;  (1 found)
0x1480c18a: add dword [eax+0x448B0147], ecx ; and al, 0x0C ; pop esi ; pop edi ; ret  ;  (1 found)
0x1480ba22: add dword [eax+0x468A0147], ecx ; add cl, byte [eax+0x448B0247] ; and al, 0x0C ; pop esi ; pop edi ; ret  ;  (1 found)
0x1480c0d2: add dword [eax+0x468A0147], ecx ; add cl, byte [eax+0x448B0247] ; and al, 0x0C ; pop esi ; pop edi ; ret  ;  (1 found)
0x14801576: add dword [eax-0x1A74A1FF], esi ; pop ebp ; ret  ;  (1 found)
0x1480b29e: add dword [eax], 0x5D000001 ; ret  ;  (1 found)
0x14804a6e: add dword [eax], eax ; add byte [eax], al ; call dword [0x1480D0C8] ;  (1 found)
0x14804a57: add dword [eax], eax ; add byte [eax], al ; call dword [0x1480D0E4] ;  (1 found)
0x14801890: add dword [eax], eax ; add byte [eax], al ; mov dword [ebp-0x4C], eax ; call dword [0x1480D04C] ;  (1 found)
0x148011a7: add dword [eax], eax ; add byte [eax], al ; push 0x7FFFFFFF ; push edi ; call dword [0x1480D124] ;  (1 found)
0x14805de5: add dword [eax], eax ; add byte [eax], al ; push eax ; push ebx ; call dword [0x1480D0B0] ;  (1 found)
0x14807ce7: add dword [eax], eax ; add byte [eax], al ; push eax ; push edi ; call dword [0x1480D0B0] ;  (1 found)
0x148026d8: add dword [eax], eax ; add byte [eax], al ; ret  ;  (1 found)
0x14809d82: add dword [eax], eax ; add byte [eax], al ; ret  ;  (1 found)
0x1480b2a0: add dword [eax], eax ; add byte [ebp-0x3D], bl ; jmp dword [0x1480D05C] ;  (1 found)
0x148038a6: add dword [eax], eax ; add byte [ebx+0x358910C4], al ; mov ah, 0x3C ; adc dword [eax+esi*4], 0xE58B5E01 ; pop ebp ; ret  ;  (1 found)
0x148038a7: add dword [eax], eax ; add byte [ebx+0x358910C4], al ; mov ah, 0x3C ; adc dword [eax+esi*4], 0xE58B5E01 ; pop ebp ; ret  ;  (1 found)
0x14802290: add dword [eax], eax ; add byte [ebx-0x7ECFDFF3], al ; adc al, 0xFF ; pop ecx ; mov al, 0x01 ; ret  ;  (1 found)
0x14805f52: add dword [eax], eax ; add byte [ecx+0x5E], bl ; pop ebp ; ret  ;  (1 found)
0x14802961: add dword [eax], eax ; add byte [esi+0x14813B88], bh ; xor edi, edi ; push esi ; push edi ; call dword [0x1480D0AC] ;  (1 found)
0x1480ab11: add dword [eax], eax ; add dh, dh ; ret  ;  (1 found)
0x14803169: add dword [ebp+0x10], esi ; push dword [ebp+0x08] ; call dword [0x1480D064] ;  (1 found)
0x14808cf2: add dword [ebp+0x5150E845], ecx ; push dword [ebp-0x38] ; call dword [0x1480D0B4] ;  (1 found)
0x148023a6: add dword [ebp+0x560774C0], eax ; call dword [0x1480D098] ;  (1 found)
0x1480635a: add dword [ebp+0x560774C0], eax ; call dword [0x1480D098] ;  (1 found)
0x1480a9ee: add dword [ebp+eax+0x6A], esi ; add ebx, dword [eax+0x5D] ; ret  ;  (1 found)
0x14804b00: add dword [ebp-0x0B], esi ; pop edi ; pop esi ; pop ebx ; pop ebp ; ret  ;  (1 found)
0x1480bbc1: add dword [ebp-0x0F], esi ; mov eax, dword [esp+0x0C] ; pop esi ; pop edi ; ret  ;  (1 found)
0x1480c271: add dword [ebp-0x0F], esi ; mov eax, dword [esp+0x0C] ; pop esi ; pop edi ; ret  ;  (1 found)
0x14802301: add dword [ebp-0x15], esi ; pop edi ; mov al, 0x01 ; pop esi ; ret  ;  (1 found)
0x14805634: add dword [ebp-0x15], esi ; pop edi ; mov al, 0x01 ; pop esi ; ret  ;  (1 found)
0x14807742: add dword [ebp-0x15], esi ; pop esi ; pop edi ; pop ebp ; ret  ;  (1 found)
0x14803418: add dword [ebp-0x3D], ebx ; mov eax, 0x14813CCC ; ret  ;  (1 found)
0x1480be7b: add dword [ebx+0x09], esi ; rep movsb  ; mov eax, dword [esp+0x0C] ; pop esi ; pop edi ; ret  ;  (1 found)
0x1480b7cb: add dword [ebx+0x09], esi ; rep movsb  ; mov eax, dword [esp+0x0C] ; pop esi ; pop edi ; ret  ;  (1 found)
0x14801f49: add dword [ebx+0x09], esi ; rep stosb  ; mov eax, dword [esp+0x04] ; mov edi, edx ; ret  ;  (1 found)
0x1480ba11: add dword [ebx+0x5E0C2444], ecx ; pop edi ; ret  ;  (1 found)
0x1480badd: add dword [ebx+0x5E0C2444], ecx ; pop edi ; ret  ;  (1 found)
0x1480c0c1: add dword [ebx+0x5E0C2444], ecx ; pop edi ; ret  ;  (1 found)
0x1480c18d: add dword [ebx+0x5E0C2444], ecx ; pop edi ; ret  ;  (1 found)
0x14805679: add dword [ebx+eax+0x33], esi ; test byte [esi-0x75], 0xFFFFFFC6 ; pop esi ; mov esp, ebp ; pop ebp ; ret  ;  (1 found)
0x148049e5: add dword [ebx-0x74FF74FA], ecx ; inc eax ; dec eax ; lock inc dword [eax] ; pop esi ; ret  ;  (1 found)
0x148032c2: add dword [ebx], esi ; rcr byte [ebp-0x3D], 0xFFFFFFFF ; adc eax, 0x1480D0C0 ; mov dword [0x14813CB8], eax ; call dword [0x1480D0C4] ;  (1 found)
0x1480adc1: add dword [edi+eax-0x75], esi ; dec ebp ; or byte [ebx-0x09EFF3B7], al ; retn 0x7404 ;  (1 found)
0x14806bd9: add dword [edi], ecx ; xchg eax, esp ; retn 0x5589 ;  (1 found)
0x1480af07: add dword [edx+0x00], ebp ; push edi ; call dword [0x1480D104] ;  (1 found)
0x14801133: add dword [edx+0x02], ebp ; call dword [0x1480D128] ;  (1 found)
0x1480ba25: add dword [edx+0x47880246], ecx ; add cl, byte [ebx+0x5E0C2444] ; pop edi ; ret  ;  (1 found)
0x1480c0d5: add dword [edx+0x47880246], ecx ; add cl, byte [ebx+0x5E0C2444] ; pop edi ; ret  ;  (1 found)
0x148083b9: add dword [edx-0x743CA23F], ecx ; call dword [ebp-0x75] ;  (1 found)
0x14809f9c: add dword [edx], ecx ; leave  ; ret  ;  (1 found)
0x14801961: add dword [esi+eax+0x33], esi ; rcr byte [ebp-0x3E], 0x00000004 ; add al, ch ; sub eax, 0xCC000020 ; and dword [0x148137B0], 0x00000000 ; ret  ;  (1 found)
0x148058e4: add dword [esi+eax-0x75], esi ; inc esp ; or byte [eax], bl ; pop ebp ; ret  ;  (1 found)
0x14801578: add dword [esi-0x75], ebx ; in eax, 0x5D ; ret  ;  (1 found)
0x148038b4: add dword [esi-0x75], ebx ; in eax, 0x5D ; ret  ;  (1 found)
0x14804a0d: add dword [esp+eax+0x33], esi ; rcr byte [ebp-0x3D], 0xFFFFFFA1 ; fcomp3 st4 ; adc byte [0xDCD8A1C3+ebx*2], 0xFFFFFF80 ; adc al, 0x5D ; ret  ;  (1 found)
0x14805976: add dword [esp+esi-0x0A], esi ; retn 0x7508 ;  (1 found)
0x148020f4: add eax, 0x00000000 ; add esp, 0x18 ; pop edi ; pop esi ; pop ebx ; ret  ;  (1 found)
0x1480398f: add eax, 0x00340CE8 ; add byte [ecx+0x59], bl ; xor eax, eax ; pop esi ; pop ebp ; ret  ;  (1 found)
0x14804414: add eax, 0x08 ; pop ebp ; ret  ;  (1 found)
0x14806af5: add eax, 0x08 ; ret  ;  (1 found)
0x148014b5: add eax, 0x09E80000 ; or al, byte [eax] ; add byte [eax+eax*8-0x3FCDFB8B], al ; pop ebp ; ret  ;  (1 found)
0x1480a665: add eax, 0x0C ; xchg dword [eax], ecx ; pop ebp ; ret  ;  (1 found)
0x14804467: add eax, 0x10 ; ret  ;  (1 found)
0x14804454: add eax, 0x14 ; ret  ;  (1 found)
0x148096c6: add eax, 0x14810D80 ; addsd xmm1, xmm0 ; movq qword [esp+0x04], xmm1 ; fld qword [esp+0x04] ; ret  ;  (1 found)
0x148096db: add eax, 0x14810DC0 ; ret  ;  (1 found)
0x14809b0e: add eax, 0x14810E78 ; ret  ;  (1 found)
0x14809f14: add eax, 0x14810F4E ; ret  ;  (1 found)
0x14809fb5: add eax, 0x14810F56 ; fmulp st1, st0 ; ret  ;  (1 found)
0x1480a00a: add eax, 0x14810F70 ; mov eax, 0x00000000 ; ret  ;  (1 found)
0x148017ab: add eax, 0x14813004 ; sete al ; ret  ;  (1 found)
0x148025c4: add eax, 0x14813014 ; mov dword [0x14813B40], eax ; ret  ;  (1 found)
0x14801423: add eax, 0x14813014 ; pop ebp ; ret  ;  (1 found)
0x14802ff1: add eax, 0x14813014 ; pop ebp ; ret  ;  (1 found)
0x14803acc: add eax, 0x14813040 ; add dh, byte [edx+0x6A] ; pop ss ; call dword [0x1480D05C] ;  (1 found)
0x14801571: add eax, 0x14813790 ; add dword [eax-0x1A74A1FF], esi ; pop ebp ; ret  ;  (1 found)
0x14801bc5: add eax, 0x148137B4 ; add eax, 0xA3000000 ; adc byte [eax], dh ; adc dword [ebx+esi], 0xE58B5BC0 ; pop ebp ; ret  ;  (1 found)
0x14804a69: add eax, 0x14813CF8 ; add dword [eax], eax ; add byte [eax], al ; call dword [0x1480D0C8] ;  (1 found)
0x14804a52: add eax, 0x14813CF8 ; add dword [eax], eax ; add byte [eax], al ; call dword [0x1480D0E4] ;  (1 found)
0x148055fd: add eax, 0x14813D00 ; push eax ; call dword [0x1480D078] ;  (1 found)
0x14805645: add eax, 0x14813D00 ; push eax ; call dword [0x1480D07C] ;  (1 found)
0x14801bdd: add eax, 0x14814174 ; setne al ; ret  ;  (1 found)
0x14807570: add eax, 0x20 ; push eax ; call dword [0x1480D078] ;  (1 found)
0x14807584: add eax, 0x20 ; push eax ; call dword [0x1480D07C] ;  (1 found)
0x14807541: add eax, 0x20 ; push eax ; call dword [0x1480D080] ;  (1 found)
0x1480862a: add eax, 0x20 ; push eax ; call dword [0x1480D080] ;  (1 found)
0x1480adad: add eax, 0x4133D0F7 ; or byte [ebx], ah ; ret  ;  (1 found)
0x1480a9df: add eax, 0x5D40C033 ; ret  ;  (1 found)
0x1480b237: add eax, 0x5D40C033 ; ret  ;  (1 found)
0x1480b1c7: add eax, 0x5D58026A ; ret  ;  (1 found)
0x1480a9f0: add eax, 0x5D58036A ; ret  ;  (1 found)
0x148043ff: add eax, 0x5D580D6A ; ret  ;  (1 found)
0x14804477: add eax, 0x5DFFC883 ; ret  ;  (1 found)
0x148074b8: add eax, 0x5EFFC883 ; ret  ;  (1 found)
0x14802db7: add eax, 0x5FFFC883 ; ret  ;  (1 found)
0x148084a7: add eax, 0x74C00000 ; or eax, dword [ecx+0x00001D38] ; sal byte [ebx+eax+0x33], 0xFFFFFFC0 ; ret  ;  (1 found)
0x14808059: add eax, 0x74D03B66 ; retn 0x4D8B ;  (1 found)
0x14807f10: add eax, 0x83000000 ; les edx,  [eax] ; pop ebp ; ret  ;  (1 found)
0x148072e3: add eax, 0x8966C933 ; or byte [ebx], dh ; rcr byte [esi+0x5B], 0xFFFFFF8B ; in eax, 0x5D ; ret  ;  (1 found)
0x14801bca: add eax, 0xA3000000 ; adc byte [eax], dh ; adc dword [ebx+esi], 0xE58B5BC0 ; pop ebp ; ret  ;  (1 found)
0x1480127d: add eax, 0xC0330000 ; ret  ;  (1 found)
0x14802192: add eax, 0xC0330000 ; xor ebx, ebx ; xor ecx, ecx ; xor edx, edx ; xor edi, edi ; jmp esi ;  (1 found)
0x1480a478: add eax, 0xC4830000 ; sbb al, 0x5E ; pop ebx ; mov esp, ebp ; pop ebp ; ret  ;  (1 found)
0x1480afc5: add eax, 0xDD5041DD ; sbb ebx, dword [edi+0x5B] ; pop ebp ; ret  ;  (1 found)
0x14801277: add eax, 0xE8CC0000 ; or eax, dword [0xC0330000] ; ret  ;  (1 found)
0x14804b74: add eax, 0xFFFFFEFC ; and byte [eax+0x3B], al ; retn 0xEF76 ;  (1 found)
0x148057dc: add eax, dword [0x14813E58+ecx*4] ; push eax ; call dword [0x1480D078] ;  (1 found)
0x148057ff: add eax, dword [0x14813E58+ecx*4] ; push eax ; call dword [0x1480D07C] ;  (1 found)
0x14801ee7: add eax, dword [eax] ; add bl, ch ; in eax, dx ; mov al, 0x01 ; ret  ;  (1 found)
0x14801ee6: add eax, dword [eax] ; add bl, ch ; in eax, dx ; mov al, 0x01 ; ret  ;  (1 found)
0x14801ed2: add eax, dword [eax] ; add byte [eax+eax*8-0x3FCDFC8B], al ; ret  ;  (1 found)
0x14802141: add eax, dword [eax] ; add byte [eax], al ; ret  ;  (1 found)
0x14802631: add eax, dword [eax] ; add byte [eax], al ; ret  ;  (1 found)
0x14809fec: add eax, dword [eax] ; add byte [ebx-0x76998036], al ; push esp ; and al, 0x06 ; fldcw word [esp+0x06] ; ret  ;  (1 found)
0x1480516e: add eax, dword [eax] ; add ch, bh ; mov eax, edx ; mov esp, ebp ; pop ebp ; ret  ;  (1 found)
0x14804a9b: add eax, dword [eax] ; add ch, bh ; mov esp, ebp ; pop ebp ; ret  ;  (1 found)
0x14807ee8: add eax, dword [eax] ; add ch, bh ; mov esp, ebp ; pop ebp ; ret  ;  (1 found)
0x148085c4: add eax, dword [eax] ; add ch, bh ; mov esp, ebp ; pop ebp ; ret  ;  (1 found)
0x14808acf: add eax, dword [eax] ; add ch, bh ; mov esp, ebp ; pop ebp ; ret  ;  (1 found)
0x14802bbf: add eax, dword [ebx+0x458B0021] ; adc al, 0xFF ; add byte [ebx-0x743CA21B], cl ; call dword [ebp-0x75] ;  (1 found)
0x1480ba7d: add eax, dword [ebx-0x107CFB12] ; add al, 0xFD ; rep movsd  ; cld  ; jmp dword [0x1480BA90+edx*4] ;  (1 found)
0x1480c12d: add eax, dword [ebx-0x107CFB12] ; add al, 0xFD ; rep movsd  ; cld  ; jmp dword [0x1480C140+edx*4] ;  (1 found)
0x1480a9fc: add eax, eax ; pop ebp ; ret  ;  (1 found)
0x1480627d: add eax, ebp ; add byte [ecx], al ; add byte [eax], al ; add esp, 0x10 ; ret  ;  (1 found)
0x148052fe: add eax, ebp ; cli  ; out 0xFF, eax ; call dword [ebx-0x5D] ;  (1 found)
0x1480913a: add eax, ebx ; push eax ; push dword [ebp-0x00001410] ; call dword [0x1480D0A8] ;  (1 found)
0x14808c2b: add eax, edi ; mov dword [ebp-0x28], eax ; call dword [0x1480D01C] ;  (1 found)
0x1480c433: add eax, edi ; test ecx, ecx ; cmove eax, edx ; pop edi ; leave  ; ret  ;  (1 found)
0x1480bd5a: add eax, edx ; movd edx, xmm3 ; xor ecx, ecx ; cmp dl, byte [eax] ; cmovne eax, ecx ; ret  ;  (1 found)
0x1480a674: add ebp, dword [eax+0x00] ; add byte [eax], al ; inc eax ; push 0x14810FE8 ; call dword [0x1480D008] ;  (1 found)
0x14805117: add ebp, dword [edx+0x16] ; pop eax ; pop edi ; pop esi ; pop ebp ; ret  ;  (1 found)
0x14809e32: add ebx, 0x10 ; jmp dword [ebx] ;  (1 found)
0x14809ebe: add ebx, 0x10 ; jmp dword [ebx] ;  (1 found)
0x148010d6: add ebx, dword [eax+0x5B] ; ret  ;  (1 found)
0x1480a9f2: add ebx, dword [eax+0x5D] ; ret  ;  (1 found)
0x14809e30: add ebx, eax ; add ebx, 0x10 ; jmp dword [ebx] ;  (1 found)
0x14809ebc: add ebx, eax ; add ebx, 0x10 ; jmp dword [ebx] ;  (1 found)
0x1480380b: add ebx, eax ; mov al, 0x01 ; ret  ;  (1 found)
0x148032de: add ebx, eax ; mov eax, 0x14813CAC ; ret  ;  (1 found)
0x1480b526: add ebx, eax ; mov eax, dword [esp+0x08] ; mul ecx ; add edx, ebx ; pop ebx ; retn 0x0010 ;  (1 found)
0x1480a067: add ebx, eax ; mov eax, dword [esp+0x08] ; ret  ;  (1 found)
0x1480a1ad: add ebx, ecx ; insd  ; or cl, cl ; ret  ;  (1 found)
0x1480a075: add ebx, ecx ; sub al, 0x24 ; pop edx ; ret  ;  (1 found)
0x1480baaa: add ecx, dword [eax+0x448B0347] ; and al, 0x0C ; pop esi ; pop edi ; ret  ;  (1 found)
0x1480c15a: add ecx, dword [eax+0x448B0347] ; and al, 0x0C ; pop esi ; pop edi ; ret  ;  (1 found)
0x1480baba: add ecx, dword [eax+0x468A0347] ; add cl, byte [eax+0x448B0247] ; and al, 0x0C ; pop esi ; pop edi ; ret  ;  (1 found)
0x1480c16a: add ecx, dword [eax+0x468A0347] ; add cl, byte [eax+0x448B0247] ; and al, 0x0C ; pop esi ; pop edi ; ret  ;  (1 found)
0x1480769c: add ecx, dword [ebp+0x4D8B0049] ; adc al, 0x57 ; push esi ; call dword [0x1480D144] ;  (1 found)
0x1480baad: add ecx, dword [ebx+0x5E0C2444] ; pop edi ; ret  ;  (1 found)
0x1480c15d: add ecx, dword [ebx+0x5E0C2444] ; pop edi ; ret  ;  (1 found)
0x14808361: add ecx, dword [ebx-0x1A740BBB] ; pop ebp ; ret  ;  (1 found)
0x1480babd: add ecx, dword [edx+0x47880246] ; add cl, byte [ebx+0x5E0C2444] ; pop edi ; ret  ;  (1 found)
0x1480c16d: add ecx, dword [edx+0x47880246] ; add cl, byte [ebx+0x5E0C2444] ; pop edi ; ret  ;  (1 found)
0x1480bad1: add ecx, dword [edx+0x47880246] ; add cl, byte [edx+0x47880146] ; add dword [ebx+0x5E0C2444], ecx ; pop edi ; ret  ;  (1 found)
0x1480c181: add ecx, dword [edx+0x47880246] ; add cl, byte [edx+0x47880146] ; add dword [ebx+0x5E0C2444], ecx ; pop edi ; ret  ;  (1 found)
0x148077fd: add edi, ecx ; push edi ; push ecx ; mov ecx, ebx ; call dword [0x1480D144] ;  (1 found)
0x1480a671: add edx, dword [eax+0x6A] ; add ebp, dword [eax+0x00] ; add byte [eax], al ; inc eax ; push 0x14810FE8 ; call dword [0x1480D008] ;  (1 found)
0x14806d10: add edx, dword [edi-0x0A] ; ror dword [eax], 0x74 ; add cl, byte [ebx] ; ret  ;  (1 found)
0x14803680: add edx, ebx ; into  ; mov ecx, esi ; call dword [0x1480D144] ;  (1 found)
0x1480b52e: add edx, ebx ; pop ebx ; retn 0x0010 ;  (1 found)
0x14803678: add esi, dword [ebp+esi*8-0x75] ; xor esi, dword [ebx] ; mov dword [ebx], eax ; ror esi, cl ; mov ecx, esi ; call dword [0x1480D144] ;  (1 found)
0x1480567b: add esi, dword [ebx] ; test byte [esi-0x75], 0xFFFFFFC6 ; pop esi ; mov esp, ebp ; pop ebp ; ret  ;  (1 found)
0x148030c7: add esp, 0x04 ; ret  ;  (1 found)
0x1480a04c: add esp, 0x0A ; test eax, 0x00000000 ; mov eax, dword [edx+0x04] ; ret  ;  (1 found)
0x14801883: add esp, 0x0C ; mov dword [ebp-0x58], 0x40000015 ; mov dword [ebp-0x54], 0x00000001 ; mov dword [ebp-0x4C], eax ; call dword [0x1480D04C] ;  (1 found)
0x14802c13: add esp, 0x0C ; mov eax, esi ; pop esi ; pop ebp ; ret  ;  (1 found)
0x1480b099: add esp, 0x0C ; mov esp, ebp ; pop ebp ; ret  ;  (1 found)
0x1480729b: add esp, 0x0C ; neg eax ; sbb eax, eax ; neg eax ; pop ebp ; ret  ;  (1 found)
0x14803285: add esp, 0x0C ; pop ebp ; ret  ;  (1 found)
0x14803237: add esp, 0x0C ; pop ebp ; ret  ;  (1 found)
0x14803c70: add esp, 0x0C ; pop ebp ; ret  ;  (1 found)
0x148072bb: add esp, 0x0C ; pop ebp ; ret  ;  (1 found)
0x14807bf2: add esp, 0x0C ; pop ebp ; ret  ;  (1 found)
0x14802169: add esp, 0x0C ; pop ebp ; retn 0x0004 ;  (1 found)
0x148021d0: add esp, 0x0C ; pop ebp ; retn 0x0008 ;  (1 found)
0x1480781f: add esp, 0x0C ; push dword [ebp-0x000000F8] ; mov ecx, ebx ; push dword [ebp-0x00000100] ; call dword [0x1480D144] ;  (1 found)
0x14807851: add esp, 0x0C ; push dword [ebp-0x000000F8] ; mov ecx, ebx ; push edi ; call dword [0x1480D144] ;  (1 found)
0x148043cc: add esp, 0x0C ; push esi ; call dword [0x1480D064] ;  (1 found)
0x14803222: add esp, 0x0C ; ret  ;  (1 found)
0x14803213: add esp, 0x0C ; ret  ;  (1 found)
0x1480951b: add esp, 0x0C ; ret  ;  (1 found)
0x1480969a: add esp, 0x10 ; fld qword [esp+0x04] ; ret  ;  (1 found)
0x14804e8b: add esp, 0x10 ; mov byte [0x14813CFC], 0x00000001 ; pop esi ; mov al, 0x01 ; ret  ;  (1 found)
0x1480518b: add esp, 0x10 ; pop ebp ; ret  ;  (1 found)
0x148073cf: add esp, 0x10 ; pop ebp ; ret  ;  (1 found)
0x14807f14: add esp, 0x10 ; pop ebp ; ret  ;  (1 found)
0x14809791: add esp, 0x10 ; pop ebp ; ret  ;  (1 found)
0x1480872d: add esp, 0x10 ; pop esi ; pop ebp ; ret  ;  (1 found)
0x1480629d: add esp, 0x10 ; ret  ;  (1 found)
0x148062b7: add esp, 0x10 ; ret  ;  (1 found)
0x14806283: add esp, 0x10 ; ret  ;  (1 found)
0x14809ab2: add esp, 0x10 ; ret  ;  (1 found)
0x14803846: add esp, 0x14 ; mov al, 0x01 ; pop esi ; ret  ;  (1 found)
0x148043a7: add esp, 0x14 ; ret  ;  (1 found)
0x148020f9: add esp, 0x18 ; pop edi ; pop esi ; pop ebx ; ret  ;  (1 found)
0x148026b3: add esp, 0x18 ; pop edi ; pop esi ; pop ebx ; ret  ;  (1 found)
0x1480acd9: add esp, 0x1C ; pop ebp ; ret  ;  (1 found)
0x1480a47b: add esp, 0x1C ; pop esi ; pop ebx ; mov esp, ebp ; pop ebp ; ret  ;  (1 found)
0x14809b93: add esp, 0x1C ; ret  ;  (1 found)
0x14807bda: add esp, 0x20 ; pop esi ; leave  ; ret  ;  (1 found)
0x14805d9d: add esp, 0x28 ; pop esi ; pop ebp ; ret  ;  (1 found)
0x14809aa1: addps xmm0, xmm6 ; addsd xmm0, xmm7 ; movlpd qword [esp+0x04], xmm0 ; fld qword [esp+0x04] ; add esp, 0x10 ; ret  ;  (1 found)
0x14809aa5: addps xmm0, xmm7 ; movlpd qword [esp+0x04], xmm0 ; fld qword [esp+0x04] ; add esp, 0x10 ; ret  ;  (1 found)
0x148096cc: addps xmm1, xmm0 ; movq qword [esp+0x04], xmm1 ; fld qword [esp+0x04] ; ret  ;  (1 found)
0x14809aa0: addsd xmm0, xmm6 ; addsd xmm0, xmm7 ; movlpd qword [esp+0x04], xmm0 ; fld qword [esp+0x04] ; add esp, 0x10 ; ret  ;  (1 found)
0x14809aa4: addsd xmm0, xmm7 ; movlpd qword [esp+0x04], xmm0 ; fld qword [esp+0x04] ; add esp, 0x10 ; ret  ;  (1 found)
0x148096cb: addsd xmm1, xmm0 ; movq qword [esp+0x04], xmm1 ; fld qword [esp+0x04] ; ret  ;  (1 found)
0x14804168: and al, 0x00 ; add byte [edi-0x15], dl ; fldcw word [eax+0x5C] ; inc eax ; adc dword [edi+edx*2], 0xFFFC3FE8 ; call dword [ebx-0x18] ;  (1 found)
0x14804169: and al, 0x00 ; add byte [edi-0x15], dl ; fldcw word [eax+0x5C] ; inc eax ; adc dword [edi+edx*2], 0xFFFC3FE8 ; call dword [ebx-0x18] ;  (1 found)
0x14809ab0: and al, 0x04 ; add esp, 0x10 ; ret  ;  (1 found)
0x14809fe7: and al, 0x04 ; and edx, 0x00000300 ; or edx, 0x7F ; mov word [esp+0x06], dx ; fldcw word [esp+0x06] ; ret  ;  (1 found)
0x14809aac: and al, 0x04 ; fld qword [esp+0x04] ; add esp, 0x10 ; ret  ;  (1 found)
0x1480966c: and al, 0x04 ; fld qword [esp+0x04] ; ret  ;  (1 found)
0x148096d3: and al, 0x04 ; fld qword [esp+0x04] ; ret  ;  (1 found)
0x148096f6: and al, 0x04 ; fld qword [esp+0x04] ; ret  ;  (1 found)
0x14802065: and al, 0x04 ; mov edi, edx ; ret  ;  (1 found)
0x14802010: and al, 0x04 ; mov edi, edx ; ret  ;  (1 found)
0x14801f50: and al, 0x04 ; mov edi, edx ; ret  ;  (1 found)
0x1480b512: and al, 0x04 ; mul ecx ; retn 0x0010 ;  (1 found)
0x14809670: and al, 0x04 ; ret  ;  (1 found)
0x1480969f: and al, 0x04 ; ret  ;  (1 found)
0x148096d7: and al, 0x04 ; ret  ;  (1 found)
0x148096fa: and al, 0x04 ; ret  ;  (1 found)
0x14809b8b: and al, 0x06 ; add byte [eax], al ; fld qword [esp+0x10] ; add esp, 0x1C ; ret  ;  (1 found)
0x148013fe: and al, 0x06 ; add byte [eax], al ; ret  ;  (1 found)
0x14809ff5: and al, 0x06 ; fldcw word [esp+0x06] ; ret  ;  (1 found)
0x14809ff9: and al, 0x06 ; ret  ;  (1 found)
0x14802138: and al, 0x08 ; mov edx, dword [esp+0x10] ; mov dword [edx], eax ; mov eax, 0x00000003 ; ret  ;  (1 found)
0x14802628: and al, 0x08 ; mov edx, dword [esp+0x10] ; mov dword [edx], eax ; mov eax, 0x00000003 ; ret  ;  (1 found)
0x1480b52a: and al, 0x08 ; mul ecx ; add edx, ebx ; pop ebx ; retn 0x0010 ;  (1 found)
0x1480a06b: and al, 0x08 ; ret  ;  (1 found)
0x148011a5: and al, 0x0C ; add dword [eax], eax ; add byte [eax], al ; push 0x7FFFFFFF ; push edi ; call dword [0x1480D124] ;  (1 found)
0x1480ba02: and al, 0x0C ; pop esi ; pop edi ; ret  ;  (1 found)
0x1480ba14: and al, 0x0C ; pop esi ; pop edi ; ret  ;  (1 found)
0x1480b9f6: and al, 0x0C ; pop esi ; pop edi ; ret  ;  (1 found)
0x1480ba2e: and al, 0x0C ; pop esi ; pop edi ; ret  ;  (1 found)
0x1480baa2: and al, 0x0C ; pop esi ; pop edi ; ret  ;  (1 found)
0x1480bab0: and al, 0x0C ; pop esi ; pop edi ; ret  ;  (1 found)
0x1480bac6: and al, 0x0C ; pop esi ; pop edi ; ret  ;  (1 found)
0x1480bae0: and al, 0x0C ; pop esi ; pop edi ; ret  ;  (1 found)
0x1480bbc6: and al, 0x0C ; pop esi ; pop edi ; ret  ;  (1 found)
0x1480bcb2: and al, 0x0C ; pop esi ; pop edi ; ret  ;  (1 found)
0x1480be82: and al, 0x0C ; pop esi ; pop edi ; ret  ;  (1 found)
0x1480b7d2: and al, 0x0C ; pop esi ; pop edi ; ret  ;  (1 found)
0x1480c0a6: and al, 0x0C ; pop esi ; pop edi ; ret  ;  (1 found)
0x1480c0b2: and al, 0x0C ; pop esi ; pop edi ; ret  ;  (1 found)
0x1480c0c4: and al, 0x0C ; pop esi ; pop edi ; ret  ;  (1 found)
0x1480c0de: and al, 0x0C ; pop esi ; pop edi ; ret  ;  (1 found)
0x1480c160: and al, 0x0C ; pop esi ; pop edi ; ret  ;  (1 found)
0x1480c152: and al, 0x0C ; pop esi ; pop edi ; ret  ;  (1 found)
0x1480c176: and al, 0x0C ; pop esi ; pop edi ; ret  ;  (1 found)
0x1480c190: and al, 0x0C ; pop esi ; pop edi ; ret  ;  (1 found)
0x1480c362: and al, 0x0C ; pop esi ; pop edi ; ret  ;  (1 found)
0x1480c276: and al, 0x0C ; pop esi ; pop edi ; ret  ;  (1 found)
0x14809b91: and al, 0x10 ; add esp, 0x1C ; ret  ;  (1 found)
0x1480213c: and al, 0x10 ; mov dword [edx], eax ; mov eax, 0x00000003 ; ret  ;  (1 found)
0x1480262c: and al, 0x10 ; mov dword [edx], eax ; mov eax, 0x00000003 ; ret  ;  (1 found)
0x1480117f: and al, 0x10 ; push 0x00000010 ; push eax ; push edi ; call dword [0x1480D114] ;  (1 found)
0x14801165: and al, 0x14 ; call dword [0x1480D11C] ;  (1 found)
0x1480117b: and al, 0x14 ; lea eax, dword [esp+0x10] ; push 0x00000010 ; push eax ; push edi ; call dword [0x1480D114] ;  (1 found)
0x14801171: and al, 0x16 ; call dword [0x1480D118] ;  (1 found)
0x1480b73d: and al, 0x18 ; fstp dword [esp+0x18] ; leave  ; ret  ;  (1 found)
0x1480b741: and al, 0x18 ; leave  ; ret  ;  (1 found)
0x14801111: and al, 0x20 ; push eax ; push 0x00000202 ; call dword [0x1480D12C] ;  (1 found)
0x1480a078: and al, 0x5A ; ret  ;  (1 found)
0x1480a107: and al, 0x5A ; ret  ;  (1 found)
0x1480a0a2: and al, 0x5A ; ret  ;  (1 found)
0x1480a071: and al, 0x7F ; add dh, byte [ebx+eax-0x27] ; sub al, 0x24 ; pop edx ; ret  ;  (1 found)
0x1480a04b: and al, 0x83 ; les ecx,  [edx] ; test eax, 0x00000000 ; mov eax, dword [edx+0x04] ; ret  ;  (1 found)
0x1480b6a9: and al, 0xC9 ; ret  ;  (1 found)
0x148011b3: and al, 0xD1 ; adc byte [edx+ebp*2], 0x00000000 ; push 0x00000000 ; push edi ; call dword [0x1480D138] ;  (1 found)
0x1480a048: and al, 0xDB ; sub al, 0x24 ; add esp, 0x0A ; test eax, 0x00000000 ; mov eax, dword [edx+0x04] ; ret  ;  (1 found)
0x14809b89: and al, 0xE8 ; and al, 0x06 ; add byte [eax], al ; fld qword [esp+0x10] ; add esp, 0x1C ; ret  ;  (1 found)
0x14809950: and al, 0xE8 ; or byte [eax], al ; add byte [eax], al ; leave  ; ret  ;  (1 found)
0x14809694: and al, 0xE8 ; sbb dword [ebx], ecx ; add byte [eax], al ; add esp, 0x10 ; fld qword [esp+0x04] ; ret  ;  (1 found)
0x1480b6a4: and al, 0xF2 ; cvttps2pi mm0, qword [esp] ; leave  ; ret  ;  (1 found)
0x1480b771: and al, 0xF2 ; ret  ;  (1 found)
0x1480afeb: and al, byte [eax] ; add byte [eax], al ; pop ebp ; ret  ;  (1 found)
0x14808b22: and al, dl ; adc byte [0xE81D75C0+eax*4], 0x00000016 ; mov ecx, 0xF08BFFFF ; call dword [0x1480D070] ;  (1 found)
0x14804b79: and byte [eax+0x3B], al ; retn 0xEF76 ;  (1 found)
0x14801112: and byte [eax+0x68], dl ; add al, byte [edx] ; add byte [eax], al ; call dword [0x1480D12C] ;  (1 found)
0x14807572: and byte [eax-0x01], dl ; adc eax, 0x1480D078 ; pop ebp ; ret  ;  (1 found)
0x14807586: and byte [eax-0x01], dl ; adc eax, 0x1480D07C ; pop ebp ; ret  ;  (1 found)
0x1480196c: and byte [eax], al ; add ah, cl ; and dword [0x148137B0], 0x00000000 ; ret  ;  (1 found)
0x1480b677: and byte [ebx+0x06], dh ; shld edx, eax, cl ; shl eax, cl ; ret  ;  (1 found)
0x1480b657: and byte [ebx+0x06], dh ; shrd eax, edx, cl ; shr edx, cl ; ret  ;  (1 found)
0x1480b098: and byte [ebx-0x1A74F33C], al ; pop ebp ; ret  ;  (1 found)
0x148022e4: and byte [ebx-0x3A], ch ; sbb byte [edi-0x73], dl ; mov eax, 0x14813AEC ; push edi ; call dword [0x1480D080] ;  (1 found)
0x14805617: and byte [ebx-0x3A], ch ; sbb byte [edi-0x73], dl ; mov eax, 0x14813CE8 ; push edi ; call dword [0x1480D080] ;  (1 found)
0x14801419: and byte [ecx+0x2B], bl ; enter 0x458B, 0x08 ; ror eax, cl ; xor eax, dword [0x14813014] ; pop ebp ; ret  ;  (1 found)
0x14802fe7: and byte [ecx+0x2B], bl ; enter 0x458B, 0x08 ; ror eax, cl ; xor eax, dword [0x14813014] ; pop ebp ; ret  ;  (1 found)
0x14809770: and byte [ecx+esi+0x28], 0xFFFFFFFD ; pop edi ; pop esi ; mov esp, ebp ; pop ebp ; ret  ;  (1 found)
0x14803d18: and byte [ecx], bl ; add byte [eax], al ; pop ecx ; ret  ;  (1 found)
0x1480b9c6: and byte [edi], cl ; sub byte [esi-0x3EFFFFFE], 0xFFFFFFE9 ; add dh, bl ; movsd  ; and edx, 0x03 ; jmp dword [0x1480B9E4+edx*4] ;  (1 found)
0x1480c076: and byte [edi], cl ; sub byte [esi-0x3EFFFFFE], 0xFFFFFFE9 ; add dh, bl ; movsd  ; and edx, 0x03 ; jmp dword [0x1480C094+edx*4] ;  (1 found)
0x14807bdc: and byte [esi-0x37], bl ; ret  ;  (1 found)
0x14803ad3: and ch, byte [edx+0x17] ; call dword [0x1480D05C] ;  (1 found)
0x148083b7: and cl, 0x00000001 ; mov al, cl ; pop ebp ; ret  ;  (1 found)
0x1480b684: and cl, 0x0000001F ; shl edx, cl ; ret  ;  (1 found)
0x1480b664: and cl, 0x0000001F ; shr eax, cl ; ret  ;  (1 found)
0x14801152: and cl, dl ; adc byte [ebx+ecx*4], 0xFFFFFFF0 ; mov eax, 0x00000002 ; push 0x00001B59 ; mov word [esp+0x14], ax ; call dword [0x1480D11C] ;  (1 found)
0x14801970: and dword [0x148137B0], 0x00000000 ; ret  ;  (1 found)
0x14806844: and dword [0x14814140], 0x00000000 ; mov al, 0x01 ; ret  ;  (1 found)
0x1480755e: and dword [0x14814164], 0x00000000 ; pop ecx ; pop esi ; ret  ;  (1 found)
0x148021af: and dword [eax+0x15FF5114], eax ; insb  ; rol byte [eax+0x5B5E5F14], 1  ; pop ebp ; ret  ;  (1 found)
0x1480aff8: and dword [eax], eax ; add byte [eax], al ; pop ebp ; ret  ;  (1 found)
0x14802bc1: and dword [eax], eax ; mov eax, dword [ebp+0x14] ; inc dword [eax] ; mov esp, ebp ; pop ebp ; ret  ;  (1 found)
0x148039b4: and dword [ebp-0x04], 0x00000000 ; mov ecx, esi ; call dword [0x1480D144] ;  (1 found)
0x148031a0: and dword [ebp-0x08], 0x00000000 ; lea eax, dword [ebp-0x08] ; push eax ; push 0x1480DACC ; push 0x00000000 ; call dword [0x1480D0BC] ;  (1 found)
0x148016b2: and dword [ebp-0x08], 0x00000000 ; push eax ; call dword [0x1480D044] ;  (1 found)
0x148016ab: and dword [ebp-0x0C], 0x00000000 ; lea eax, dword [ebp-0x0C] ; and dword [ebp-0x08], 0x00000000 ; push eax ; call dword [0x1480D044] ;  (1 found)
0x1480516b: and dword [ecx+0x00000350], 0xFFFFFFFD ; mov eax, edx ; mov esp, ebp ; pop ebp ; ret  ;  (1 found)
0x1480727b: and dword [ecx+0x00000350], 0xFFFFFFFD ; mov eax, edx ; pop ebx ; mov esp, ebp ; pop ebp ; ret  ;  (1 found)
0x14807c76: and dword [ecx+0x00000350], 0xFFFFFFFD ; mov eax, esi ; pop esi ; mov esp, ebp ; pop ebp ; ret  ;  (1 found)
0x14804a98: and dword [ecx+0x00000350], 0xFFFFFFFD ; mov esp, ebp ; pop ebp ; ret  ;  (1 found)
0x14807ee5: and dword [ecx+0x00000350], 0xFFFFFFFD ; mov esp, ebp ; pop ebp ; ret  ;  (1 found)
0x148085c1: and dword [ecx+0x00000350], 0xFFFFFFFD ; mov esp, ebp ; pop ebp ; ret  ;  (1 found)
0x14808acc: and dword [ecx+0x00000350], 0xFFFFFFFD ; mov esp, ebp ; pop ebp ; ret  ;  (1 found)
0x14802bc0: and dword [ecx], 0x00000000 ; mov eax, dword [ebp+0x14] ; inc dword [eax] ; mov esp, ebp ; pop ebp ; ret  ;  (1 found)
0x14808419: and dword [esi], eax ; xor eax, eax ; pop edi ; pop esi ; pop ebp ; ret  ;  (1 found)
0x1480a9f9: and eax, 0x02 ; add eax, eax ; pop ebp ; ret  ;  (1 found)
0x14801f44: and eax, 0x148137B8 ; add dword [ebx+0x09], esi ; rep stosb  ; mov eax, dword [esp+0x04] ; mov edi, edx ; ret  ;  (1 found)
0x1480755f: and eax, 0x14814164 ; add byte [ecx+0x5E], bl ; ret  ;  (1 found)
0x148057d3: and eax, 0x3F ; sar ecx, 0x06 ; imul eax, eax, 0x30 ; add eax, dword [0x14813E58+ecx*4] ; push eax ; call dword [0x1480D078] ;  (1 found)
0x148057f6: and eax, 0x3F ; sar ecx, 0x06 ; imul eax, eax, 0x30 ; add eax, dword [0x14813E58+ecx*4] ; push eax ; call dword [0x1480D07C] ;  (1 found)
0x148081af: and eax, 0x40 ; pop ebp ; ret  ;  (1 found)
0x148041c9: and eax, dword [eax] ; add byte [ebx-0x7ECFBBF3], al ; adc al, 0xFF ; mov al, 0x01 ; ret  ;  (1 found)
0x1480168b: and eax, dword [ebp+0x08] ; pop ebp ; ret  ;  (1 found)
0x14803c3d: and eax, dword [ebp+0x0C] ; pop ebp ; ret  ;  (1 found)
0x14804412: and eax, ecx ; add eax, 0x08 ; pop ebp ; ret  ;  (1 found)
0x14805438: and eax, ecx ; mov byte [ecx-0x01], bl ; push eax ; push esi ; call dword [0x1480D0F4] ;  (1 found)
0x14809e28: and ecx, 0x00000404 ; mov ebx, edx ; add ebx, eax ; add ebx, 0x10 ; jmp dword [ebx] ;  (1 found)
0x14809eb4: and ecx, 0x00000404 ; mov ebx, edx ; add ebx, eax ; add ebx, 0x10 ; jmp dword [ebx] ;  (1 found)
0x148028a3: and ecx, 0x1F ; ror eax, cl ; neg eax ; sbb eax, eax ; neg eax ; ret  ;  (1 found)
0x1480b297: and ecx, 0xFFFFFF08 ; lea eax, dword [ecx+0x00000100] ; pop ebp ; ret  ;  (1 found)
0x1480b26e: and ecx, 0xFFFFFF90 ; lea eax, dword [ecx+0x00000080] ; pop ebp ; ret  ;  (1 found)
0x1480b28b: and ecx, 0xFFFFFFE0 ; lea eax, dword [ecx+0x40] ; pop ebp ; ret  ;  (1 found)
0x14809fe9: and edx, 0x00000300 ; or edx, 0x7F ; mov word [esp+0x06], dx ; fldcw word [esp+0x06] ; ret  ;  (1 found)
0x1480b9d2: and edx, 0x03 ; jmp dword [0x1480B9E4+edx*4] ;  (1 found)
0x1480c082: and edx, 0x03 ; jmp dword [0x1480C094+edx*4] ;  (1 found)
0x148079cb: and edx, dword [edi+0x52] ; mov ecx, ebx ; call dword [0x1480D144] ;  (1 found)
0x148031b8: and edx, dword [esi+0x68] ; in al, 0xDA ; adc byte [edi+edi*8], 0x00000075 ; clc  ; call dword [0x1480D09C] ;  (1 found)
0x14809012: and esi, 0xFFFFFFFE ; lea eax, dword [ebp-0x00001404] ; push esi ; push eax ; push ecx ; call dword [0x1480D0A8] ;  (1 found)
0x1480b69f: and esp, 0xFFFFFFF8 ; fstp qword [esp] ; cvttsd2si eax, qword [esp] ; leave  ; ret  ;  (1 found)
0x148096c3: andpd xmm0,  [0x14810D80] ; addsd xmm1, xmm0 ; movq qword [esp+0x04], xmm1 ; fld qword [esp+0x04] ; ret  ;  (1 found)
0x148096ea: andpd xmm3,  [0x14810D80] ; movq qword [esp+0x04], xmm3 ; fld qword [esp+0x04] ; ret  ;  (1 found)
0x148096c4: andps xmm0,  [0x14810D80] ; addsd xmm1, xmm0 ; movq qword [esp+0x04], xmm1 ; fld qword [esp+0x04] ; ret  ;  (1 found)
0x148096eb: andps xmm3,  [0x14810D80] ; movq qword [esp+0x04], xmm3 ; fld qword [esp+0x04] ; ret  ;  (1 found)
0x14802000: bound ecx, dword [ebp-0x0C1FC684] ; movq qword [edi], mm0 ; movdqu  [edi+0x10], xmm0 ; mov eax, dword [esp+0x04] ; mov edi, edx ; ret  ;  (1 found)
0x1480a6d8: call dword [0x1480D004] ;  (1 found)
0x1480a709: call dword [0x1480D004] ;  (1 found)
0x1480a67f: call dword [0x1480D008] ;  (1 found)
0x1480a5eb: call dword [0x1480D00C] ;  (1 found)
0x1480a6ba: call dword [0x1480D00C] ;  (1 found)
0x1480a1d6: call dword [0x1480D010] ;  (1 found)
0x14809736: call dword [0x1480D014] ;  (1 found)
0x14808e84: call dword [0x1480D018] ;  (1 found)
0x14808c30: call dword [0x1480D01C] ;  (1 found)
0x14808b20: call dword [0x1480D020] ;  (1 found)
0x14808166: call dword [0x1480D024] ;  (1 found)
0x14808101: call dword [0x1480D028] ;  (1 found)
0x14806833: call dword [0x1480D02C] ;  (1 found)
0x148066ea: call dword [0x1480D030] ;  (1 found)
0x148064b9: call dword [0x1480D034] ;  (1 found)
0x148016dc: call dword [0x1480D038] ;  (1 found)
0x148016cf: call dword [0x1480D03C] ;  (1 found)
0x148016c6: call dword [0x1480D040] ;  (1 found)
0x148016b7: call dword [0x1480D044] ;  (1 found)
0x14801756: call dword [0x1480D048] ;  (1 found)
0x14801897: call dword [0x1480D04C] ;  (1 found)
0x148042ce: call dword [0x1480D04C] ;  (1 found)
0x148018c1: call dword [0x1480D050] ;  (1 found)
0x14801c05: call dword [0x1480D050] ;  (1 found)
0x148042e5: call dword [0x1480D050] ;  (1 found)
0x14801928: call dword [0x1480D054] ;  (1 found)
0x148018b7: call dword [0x1480D054] ;  (1 found)
0x14801bfc: call dword [0x1480D054] ;  (1 found)
0x148042d8: call dword [0x1480D054] ;  (1 found)
0x14805916: call dword [0x1480D058] ;  (1 found)
0x14803ad6: call dword [0x1480D05C] ;  (1 found)
0x148043ad: call dword [0x1480D05C] ;  (1 found)
0x14809927: call dword [0x1480D05C] ;  (1 found)
0x148018e1: call dword [0x1480D060] ;  (1 found)
0x14801c10: call dword [0x1480D064] ;  (1 found)
0x1480316f: call dword [0x1480D064] ;  (1 found)
0x148043d0: call dword [0x1480D064] ;  (1 found)
0x14801c17: call dword [0x1480D068] ;  (1 found)
0x14803176: call dword [0x1480D068] ;  (1 found)
0x148043d7: call dword [0x1480D068] ;  (1 found)
0x148021b3: call dword [0x1480D06C] ;  (1 found)
0x148025e3: call dword [0x1480D06C] ;  (1 found)
0x14802350: call dword [0x1480D070] ;  (1 found)
0x14803a00: call dword [0x1480D070] ;  (1 found)
0x148039ff: call dword [0x1480D070] ;  (1 found)
0x14803f93: call dword [0x1480D070] ;  (1 found)
0x148040e2: call dword [0x1480D070] ;  (1 found)
0x14806304: call dword [0x1480D070] ;  (1 found)
0x14808b30: call dword [0x1480D070] ;  (1 found)
0x14808b31: call dword [0x1480D070] ;  (1 found)
0x14808d97: call dword [0x1480D070] ;  (1 found)
0x14808e0e: call dword [0x1480D070] ;  (1 found)
0x14808f59: call dword [0x1480D070] ;  (1 found)
0x1480a5f5: call dword [0x1480D070] ;  (1 found)
0x1480a6e4: call dword [0x1480D070] ;  (1 found)
0x14809047: call dword [0x1480D070] ;  (1 found)
0x14809174: call dword [0x1480D070] ;  (1 found)
0x148093fc: call dword [0x1480D070] ;  (1 found)
0x14809740: call dword [0x1480D070] ;  (1 found)
0x1480402b: call dword [0x1480D074] ;  (1 found)
0x14804037: call dword [0x1480D074] ;  (1 found)
0x14804108: call dword [0x1480D074] ;  (1 found)
0x14804188: call dword [0x1480D074] ;  (1 found)
0x14805603: call dword [0x1480D078] ;  (1 found)
0x148057e4: call dword [0x1480D078] ;  (1 found)
0x14807574: call dword [0x1480D078] ;  (1 found)
0x1480564b: call dword [0x1480D07C] ;  (1 found)
0x14805807: call dword [0x1480D07C] ;  (1 found)
0x14807588: call dword [0x1480D07C] ;  (1 found)
0x148022f0: call dword [0x1480D080] ;  (1 found)
0x14805623: call dword [0x1480D080] ;  (1 found)
0x1480571c: call dword [0x1480D080] ;  (1 found)
0x14807545: call dword [0x1480D080] ;  (1 found)
0x1480862e: call dword [0x1480D080] ;  (1 found)
0x1480253d: call dword [0x1480D084] ;  (1 found)
0x14806676: call dword [0x1480D084] ;  (1 found)
0x1480650f: call dword [0x1480D088] ;  (1 found)
0x148065bb: call dword [0x1480D08C] ;  (1 found)
0x148024f7: call dword [0x1480D090] ;  (1 found)
0x14806614: call dword [0x1480D090] ;  (1 found)
0x148024ba: call dword [0x1480D094] ;  (1 found)
0x14806565: call dword [0x1480D094] ;  (1 found)
0x148023ac: call dword [0x1480D098] ;  (1 found)
0x1480259b: call dword [0x1480D098] ;  (1 found)
0x1480259a: call dword [0x1480D098] ;  (1 found)
0x148031e5: call dword [0x1480D098] ;  (1 found)
0x14806360: call dword [0x1480D098] ;  (1 found)
0x148067a1: call dword [0x1480D098] ;  (1 found)
0x148067a2: call dword [0x1480D098] ;  (1 found)
0x14802418: call dword [0x1480D09C] ;  (1 found)
0x148031c2: call dword [0x1480D09C] ;  (1 found)
0x148063ce: call dword [0x1480D09C] ;  (1 found)
0x14802344: call dword [0x1480D0A0] ;  (1 found)
0x14802386: call dword [0x1480D0A0] ;  (1 found)
0x148062f8: call dword [0x1480D0A0] ;  (1 found)
0x1480633a: call dword [0x1480D0A0] ;  (1 found)
0x14805a0c: call dword [0x1480D0A4] ;  (1 found)
0x14808d55: call dword [0x1480D0A8] ;  (1 found)
0x14808d1b: call dword [0x1480D0A8] ;  (1 found)
0x14808f30: call dword [0x1480D0A8] ;  (1 found)
0x1480901e: call dword [0x1480D0A8] ;  (1 found)
0x14809143: call dword [0x1480D0A8] ;  (1 found)
0x148093f2: call dword [0x1480D0A8] ;  (1 found)
0x1480296d: call dword [0x1480D0AC] ;  (1 found)
0x14805deb: call dword [0x1480D0B0] ;  (1 found)
0x14805e75: call dword [0x1480D0B0] ;  (1 found)
0x1480738a: call dword [0x1480D0B0] ;  (1 found)
0x14807354: call dword [0x1480D0B0] ;  (1 found)
0x14807ced: call dword [0x1480D0B0] ;  (1 found)
0x14807d6b: call dword [0x1480D0B0] ;  (1 found)
0x148089a9: call dword [0x1480D0B0] ;  (1 found)
0x14808919: call dword [0x1480D0B0] ;  (1 found)
0x148089c0: call dword [0x1480D0B0] ;  (1 found)
0x14808a3c: call dword [0x1480D0B0] ;  (1 found)
0x14802dcd: call dword [0x1480D0B4] ;  (1 found)
0x14802df7: call dword [0x1480D0B4] ;  (1 found)
0x14805219: call dword [0x1480D0B4] ;  (1 found)
0x148051f3: call dword [0x1480D0B4] ;  (1 found)
0x14807e62: call dword [0x1480D0B4] ;  (1 found)
0x14808cfb: call dword [0x1480D0B4] ;  (1 found)
0x14809115: call dword [0x1480D0B4] ;  (1 found)
0x14803188: call dword [0x1480D0B8] ;  (1 found)
0x148031af: call dword [0x1480D0BC] ;  (1 found)
0x148032c7: call dword [0x1480D0C0] ;  (1 found)
0x148032d2: call dword [0x1480D0C4] ;  (1 found)
0x14804a72: call dword [0x1480D0C8] ;  (1 found)
0x148039ee: call dword [0x1480D0CC] ;  (1 found)
0x14803a44: call dword [0x1480D0D0] ;  (1 found)
0x14803b3f: call dword [0x1480D0D0] ;  (1 found)
0x148047ec: call dword [0x1480D0D4] ;  (1 found)
0x148047c5: call dword [0x1480D0D8] ;  (1 found)
0x14804857: call dword [0x1480D0DC] ;  (1 found)
0x14804f21: call dword [0x1480D0E0] ;  (1 found)
0x14804a5b: call dword [0x1480D0E4] ;  (1 found)
0x14804b2d: call dword [0x1480D0E8] ;  (1 found)
0x14804f34: call dword [0x1480D0E8] ;  (1 found)
0x14808896: call dword [0x1480D0E8] ;  (1 found)
0x148051d0: call dword [0x1480D0EC] ;  (1 found)
0x1480523b: call dword [0x1480D0F0] ;  (1 found)
0x1480543f: call dword [0x1480D0F4] ;  (1 found)
0x1480586f: call dword [0x1480D0F8] ;  (1 found)
0x1480597f: call dword [0x1480D0FC] ;  (1 found)
0x14805a1e: call dword [0x1480D0FC] ;  (1 found)
0x14805e87: call dword [0x1480D100] ;  (1 found)
0x1480af0b: call dword [0x1480D104] ;  (1 found)
0x148010ee: call dword [0x1480D10C] ;  (1 found)
0x14801185: call dword [0x1480D114] ;  (1 found)
0x14801173: call dword [0x1480D118] ;  (1 found)
0x14801167: call dword [0x1480D11C] ;  (1 found)
0x14801150: call dword [0x1480D120] ;  (1 found)
0x148011b1: call dword [0x1480D124] ;  (1 found)
0x14801136: call dword [0x1480D128] ;  (1 found)
0x14801119: call dword [0x1480D12C] ;  (1 found)
0x148010b1: call dword [0x1480D130] ;  (1 found)
0x148010a4: call dword [0x1480D134] ;  (1 found)
0x148011bc: call dword [0x1480D138] ;  (1 found)
0x14801143: call dword [0x1480D13C] ;  (1 found)
0x14802848: call dword [0x1480D144] ;  (1 found)
0x1480285e: call dword [0x1480D144] ;  (1 found)
0x14802e47: call dword [0x1480D144] ;  (1 found)
0x148028f4: call dword [0x1480D144] ;  (1 found)
0x148031d3: call dword [0x1480D144] ;  (1 found)
0x14802f70: call dword [0x1480D144] ;  (1 found)
0x14802f2f: call dword [0x1480D144] ;  (1 found)
0x14803053: call dword [0x1480D144] ;  (1 found)
0x14803685: call dword [0x1480D144] ;  (1 found)
0x148039ba: call dword [0x1480D144] ;  (1 found)
0x14804355: call dword [0x1480D144] ;  (1 found)
0x14806c97: call dword [0x1480D144] ;  (1 found)
0x14806cc5: call dword [0x1480D144] ;  (1 found)
0x148076a5: call dword [0x1480D144] ;  (1 found)
0x1480643c: call dword [0x1480D144] ;  (1 found)
0x14806505: call dword [0x1480D144] ;  (1 found)
0x14806495: call dword [0x1480D144] ;  (1 found)
0x1480655b: call dword [0x1480D144] ;  (1 found)
0x148065b1: call dword [0x1480D144] ;  (1 found)
0x1480660a: call dword [0x1480D144] ;  (1 found)
0x148066c6: call dword [0x1480D144] ;  (1 found)
0x14806666: call dword [0x1480D144] ;  (1 found)
0x14806725: call dword [0x1480D144] ;  (1 found)
0x14806877: call dword [0x1480D144] ;  (1 found)
0x148068ab: call dword [0x1480D144] ;  (1 found)
0x148068f8: call dword [0x1480D144] ;  (1 found)
0x14806953: call dword [0x1480D144] ;  (1 found)
0x14807803: call dword [0x1480D144] ;  (1 found)
0x148078ba: call dword [0x1480D144] ;  (1 found)
0x14807830: call dword [0x1480D144] ;  (1 found)
0x148078ed: call dword [0x1480D144] ;  (1 found)
0x1480785d: call dword [0x1480D144] ;  (1 found)
0x14807a14: call dword [0x1480D144] ;  (1 found)
0x14807938: call dword [0x1480D144] ;  (1 found)
0x148079d0: call dword [0x1480D144] ;  (1 found)
0x1480a2e6: call dword [0x1480D144] ;  (1 found)
0x1480a24c: call dword [0x1480D144] ;  (1 found)
0x1480a39e: call dword [0x1480D144] ;  (1 found)
0x14808f2d: call dword [eax+0x51] ;  (1 found)
0x14804854: call dword [eax+0x56] ;  (1 found)
0x1480543c: call dword [eax+0x56] ;  (1 found)
0x14804bb5: call dword [eax+0x57] ;  (1 found)
0x14804b91: call dword [eax+0x57] ;  (1 found)
0x14804bd9: call dword [eax+0x68] ;  (1 found)
0x14804b99: call dword [eax+0x6A] ;  (1 found)
0x148042e3: call dword [eax-0x01] ;  (1 found)
0x1480737a: call dword [eax-0x01] ;  (1 found)
0x1480105a: call dword [eax-0x18] ;  (1 found)
0x14803fbe: call dword [eax-0x18] ;  (1 found)
0x14804067: call dword [eax-0x18] ;  (1 found)
0x1480411c: call dword [eax-0x18] ;  (1 found)
0x14804ea3: call dword [eax-0x18] ;  (1 found)
0x14808456: call dword [eax-0x18] ;  (1 found)
0x148097d9: call dword [eax-0x18] ;  (1 found)
0x14803375: call dword [eax-0x73] ;  (1 found)
0x14806aa6: call dword [eax-0x73] ;  (1 found)
0x1480a961: call dword [eax-0x73] ;  (1 found)
0x148010bc: call dword [eax-0x75] ;  (1 found)
0x14801e75: call dword [eax-0x75] ;  (1 found)
0x14806fd2: call dword [eax-0x77] ;  (1 found)
0x14802e4d: call dword [ebp+0x08] ;  (1 found)
0x148076ab: call dword [ebp+0x14] ;  (1 found)
0x148078c0: call dword [ebp-0x00000108] ;  (1 found)
0x14802147: call dword [ebp-0x01] ;  (1 found)
0x14802f35: call dword [ebp-0x08] ;  (1 found)
0x14806c9d: call dword [ebp-0x24] ;  (1 found)
0x14806ccb: call dword [ebp-0x24] ;  (1 found)
0x1480140c: call dword [ebp-0x75] ;  (1 found)
0x1480211f: call dword [ebp-0x75] ;  (1 found)
0x148021bf: call dword [ebp-0x75] ;  (1 found)
0x14802610: call dword [ebp-0x75] ;  (1 found)
0x1480270f: call dword [ebp-0x75] ;  (1 found)
0x14802c1c: call dword [ebp-0x75] ;  (1 found)
0x14802bcd: call dword [ebp-0x75] ;  (1 found)
0x14802cac: call dword [ebp-0x75] ;  (1 found)
0x14802d7d: call dword [ebp-0x75] ;  (1 found)
0x14802e2b: call dword [ebp-0x75] ;  (1 found)
0x148028b0: call dword [ebp-0x75] ;  (1 found)
0x14802888: call dword [ebp-0x75] ;  (1 found)
0x148028c4: call dword [ebp-0x75] ;  (1 found)
0x14802922: call dword [ebp-0x75] ;  (1 found)
0x1480290d: call dword [ebp-0x75] ;  (1 found)
0x14802a58: call dword [ebp-0x75] ;  (1 found)
0x148031fa: call dword [ebp-0x75] ;  (1 found)
0x14802e6b: call dword [ebp-0x75] ;  (1 found)
0x14802ef6: call dword [ebp-0x75] ;  (1 found)
0x14802e86: call dword [ebp-0x75] ;  (1 found)
0x14802fda: call dword [ebp-0x75] ;  (1 found)
0x14802f52: call dword [ebp-0x75] ;  (1 found)
0x148030d5: call dword [ebp-0x75] ;  (1 found)
0x148030e8: call dword [ebp-0x75] ;  (1 found)
0x1480314e: call dword [ebp-0x75] ;  (1 found)
0x14803190: call dword [ebp-0x75] ;  (1 found)
0x14803723: call dword [ebp-0x75] ;  (1 found)
0x148037a5: call dword [ebp-0x75] ;  (1 found)
0x14803768: call dword [ebp-0x75] ;  (1 found)
0x14803739: call dword [ebp-0x75] ;  (1 found)
0x14803857: call dword [ebp-0x75] ;  (1 found)
0x148038e9: call dword [ebp-0x75] ;  (1 found)
0x148038bb: call dword [ebp-0x75] ;  (1 found)
0x1480393e: call dword [ebp-0x75] ;  (1 found)
0x148039d9: call dword [ebp-0x75] ;  (1 found)
0x14803a13: call dword [ebp-0x75] ;  (1 found)
0x14803275: call dword [ebp-0x75] ;  (1 found)
0x14803227: call dword [ebp-0x75] ;  (1 found)
0x1480328b: call dword [ebp-0x75] ;  (1 found)
0x1480323d: call dword [ebp-0x75] ;  (1 found)
0x1480335c: call dword [ebp-0x75] ;  (1 found)
0x14803385: call dword [ebp-0x75] ;  (1 found)
0x148033ed: call dword [ebp-0x75] ;  (1 found)
0x148034c4: call dword [ebp-0x75] ;  (1 found)
0x14803605: call dword [ebp-0x75] ;  (1 found)
0x14803aff: call dword [ebp-0x75] ;  (1 found)
0x14803a61: call dword [ebp-0x75] ;  (1 found)
0x14803b5c: call dword [ebp-0x75] ;  (1 found)
0x14803c19: call dword [ebp-0x75] ;  (1 found)
0x14803b96: call dword [ebp-0x75] ;  (1 found)
0x14803c43: call dword [ebp-0x75] ;  (1 found)
0x14803e76: call dword [ebp-0x75] ;  (1 found)
0x14803dba: call dword [ebp-0x75] ;  (1 found)
0x14803e55: call dword [ebp-0x75] ;  (1 found)
0x14803f45: call dword [ebp-0x75] ;  (1 found)
0x148041d7: call dword [ebp-0x75] ;  (1 found)
0x14804312: call dword [ebp-0x75] ;  (1 found)
0x14804321: call dword [ebp-0x75] ;  (1 found)
0x148043e0: call dword [ebp-0x75] ;  (1 found)
0x14804423: call dword [ebp-0x75] ;  (1 found)
0x1480446c: call dword [ebp-0x75] ;  (1 found)
0x14804664: call dword [ebp-0x75] ;  (1 found)
0x14804717: call dword [ebp-0x75] ;  (1 found)
0x14804484: call dword [ebp-0x75] ;  (1 found)
0x14804922: call dword [ebp-0x75] ;  (1 found)
0x148049f3: call dword [ebp-0x75] ;  (1 found)
0x14804a31: call dword [ebp-0x75] ;  (1 found)
0x14804aa4: call dword [ebp-0x75] ;  (1 found)
0x14804b09: call dword [ebp-0x75] ;  (1 found)
0x14804eae: call dword [ebp-0x75] ;  (1 found)
0x14804c9d: call dword [ebp-0x75] ;  (1 found)
0x1480509f: call dword [ebp-0x75] ;  (1 found)
0x14805120: call dword [ebp-0x75] ;  (1 found)
0x14805179: call dword [ebp-0x75] ;  (1 found)
0x14805191: call dword [ebp-0x75] ;  (1 found)
0x148051c8: call dword [ebp-0x75] ;  (1 found)
0x1480524b: call dword [ebp-0x75] ;  (1 found)
0x1480548a: call dword [ebp-0x75] ;  (1 found)
0x14805555: call dword [ebp-0x75] ;  (1 found)
0x148055a9: call dword [ebp-0x75] ;  (1 found)
0x148055f5: call dword [ebp-0x75] ;  (1 found)
0x1480563d: call dword [ebp-0x75] ;  (1 found)
0x14805687: call dword [ebp-0x75] ;  (1 found)
0x14805654: call dword [ebp-0x75] ;  (1 found)
0x14805701: call dword [ebp-0x75] ;  (1 found)
0x14805810: call dword [ebp-0x75] ;  (1 found)
0x148057ca: call dword [ebp-0x75] ;  (1 found)
0x148057ed: call dword [ebp-0x75] ;  (1 found)
0x148058a1: call dword [ebp-0x75] ;  (1 found)
0x1480590b: call dword [ebp-0x75] ;  (1 found)
0x14805af7: call dword [ebp-0x75] ;  (1 found)
0x14805b1d: call dword [ebp-0x75] ;  (1 found)
0x14805da4: call dword [ebp-0x75] ;  (1 found)
0x14805c1b: call dword [ebp-0x75] ;  (1 found)
0x14805cc0: call dword [ebp-0x75] ;  (1 found)
0x14805c84: call dword [ebp-0x75] ;  (1 found)
0x14805ebd: call dword [ebp-0x75] ;  (1 found)
0x14805edd: call dword [ebp-0x75] ;  (1 found)
0x14805f5a: call dword [ebp-0x75] ;  (1 found)
0x148060a4: call dword [ebp-0x75] ;  (1 found)
0x148060cd: call dword [ebp-0x75] ;  (1 found)
0x14806a8d: call dword [ebp-0x75] ;  (1 found)
0x14806ab6: call dword [ebp-0x75] ;  (1 found)
0x14806cfb: call dword [ebp-0x75] ;  (1 found)
0x14806da2: call dword [ebp-0x75] ;  (1 found)
0x148070a2: call dword [ebp-0x75] ;  (1 found)
0x14807140: call dword [ebp-0x75] ;  (1 found)
0x148072c1: call dword [ebp-0x75] ;  (1 found)
0x1480728a: call dword [ebp-0x75] ;  (1 found)
0x148072a7: call dword [ebp-0x75] ;  (1 found)
0x148073d5: call dword [ebp-0x75] ;  (1 found)
0x148073bb: call dword [ebp-0x75] ;  (1 found)
0x1480742f: call dword [ebp-0x75] ;  (1 found)
0x14807402: call dword [ebp-0x75] ;  (1 found)
0x14807569: call dword [ebp-0x75] ;  (1 found)
0x14807591: call dword [ebp-0x75] ;  (1 found)
0x1480757d: call dword [ebp-0x75] ;  (1 found)
0x14807671: call dword [ebp-0x75] ;  (1 found)
0x1480621e: call dword [ebp-0x75] ;  (1 found)
0x14806126: call dword [ebp-0x75] ;  (1 found)
0x148060fd: call dword [ebp-0x75] ;  (1 found)
0x148062bc: call dword [ebp-0x75] ;  (1 found)
0x14806384: call dword [ebp-0x75] ;  (1 found)
0x14806406: call dword [ebp-0x75] ;  (1 found)
0x1480645d: call dword [ebp-0x75] ;  (1 found)
0x148064d1: call dword [ebp-0x75] ;  (1 found)
0x1480657d: call dword [ebp-0x75] ;  (1 found)
0x14806527: call dword [ebp-0x75] ;  (1 found)
0x1480662c: call dword [ebp-0x75] ;  (1 found)
0x148065d3: call dword [ebp-0x75] ;  (1 found)
0x1480668e: call dword [ebp-0x75] ;  (1 found)
0x14806702: call dword [ebp-0x75] ;  (1 found)
0x14806786: call dword [ebp-0x75] ;  (1 found)
0x148067bc: call dword [ebp-0x75] ;  (1 found)
0x148067c7: call dword [ebp-0x75] ;  (1 found)
0x1480684f: call dword [ebp-0x75] ;  (1 found)
0x148068d2: call dword [ebp-0x75] ;  (1 found)
0x14806933: call dword [ebp-0x75] ;  (1 found)
0x1480691f: call dword [ebp-0x75] ;  (1 found)
0x14806a65: call dword [ebp-0x75] ;  (1 found)
0x14806a23: call dword [ebp-0x75] ;  (1 found)
0x14807be1: call dword [ebp-0x75] ;  (1 found)
0x14807bf8: call dword [ebp-0x75] ;  (1 found)
0x14807b94: call dword [ebp-0x75] ;  (1 found)
0x14807ae3: call dword [ebp-0x75] ;  (1 found)
0x14807c94: call dword [ebp-0x75] ;  (1 found)
0x14807ef1: call dword [ebp-0x75] ;  (1 found)
0x14807ea6: call dword [ebp-0x75] ;  (1 found)
0x14807fe4: call dword [ebp-0x75] ;  (1 found)
0x14807f1a: call dword [ebp-0x75] ;  (1 found)
0x148080cc: call dword [ebp-0x75] ;  (1 found)
0x148080a0: call dword [ebp-0x75] ;  (1 found)
0x148080d7: call dword [ebp-0x75] ;  (1 found)
0x14808173: call dword [ebp-0x75] ;  (1 found)
0x1480810a: call dword [ebp-0x75] ;  (1 found)
0x1480836a: call dword [ebp-0x75] ;  (1 found)
0x1480828d: call dword [ebp-0x75] ;  (1 found)
0x1480831b: call dword [ebp-0x75] ;  (1 found)
0x148083bf: call dword [ebp-0x75] ;  (1 found)
0x1480839c: call dword [ebp-0x75] ;  (1 found)
0x148084e8: call dword [ebp-0x75] ;  (1 found)
0x14808422: call dword [ebp-0x75] ;  (1 found)
0x148084fb: call dword [ebp-0x75] ;  (1 found)
0x14808582: call dword [ebp-0x75] ;  (1 found)
0x14808527: call dword [ebp-0x75] ;  (1 found)
0x14808594: call dword [ebp-0x75] ;  (1 found)
0x148086c7: call dword [ebp-0x75] ;  (1 found)
0x1480866d: call dword [ebp-0x75] ;  (1 found)
0x148086ab: call dword [ebp-0x75] ;  (1 found)
0x14808734: call dword [ebp-0x75] ;  (1 found)
0x148087eb: call dword [ebp-0x75] ;  (1 found)
0x14808a90: call dword [ebp-0x75] ;  (1 found)
0x14808b70: call dword [ebp-0x75] ;  (1 found)
0x14808bef: call dword [ebp-0x75] ;  (1 found)
0x14808e20: call dword [ebp-0x75] ;  (1 found)
0x14808db3: call dword [ebp-0x75] ;  (1 found)
0x14808e96: call dword [ebp-0x75] ;  (1 found)
0x14808f75: call dword [ebp-0x75] ;  (1 found)
0x14807751: call dword [ebp-0x75] ;  (1 found)
0x14807711: call dword [ebp-0x75] ;  (1 found)
0x1480a3cc: call dword [ebp-0x75] ;  (1 found)
0x1480a507: call dword [ebp-0x75] ;  (1 found)
0x1480a632: call dword [ebp-0x75] ;  (1 found)
0x1480a596: call dword [ebp-0x75] ;  (1 found)
0x1480a6c2: call dword [ebp-0x75] ;  (1 found)
0x14809063: call dword [ebp-0x75] ;  (1 found)
0x14809278: call dword [ebp-0x75] ;  (1 found)
0x148096fe: call dword [ebp-0x75] ;  (1 found)
0x14809797: call dword [ebp-0x75] ;  (1 found)
0x1480977c: call dword [ebp-0x75] ;  (1 found)
0x148098f2: call dword [ebp-0x75] ;  (1 found)
0x1480a1b4: call dword [ebp-0x75] ;  (1 found)
0x1480a781: call dword [ebp-0x75] ;  (1 found)
0x1480a717: call dword [ebp-0x75] ;  (1 found)
0x1480a9cd: call dword [ebp-0x75] ;  (1 found)
0x1480a9b7: call dword [ebp-0x75] ;  (1 found)
0x1480aacf: call dword [ebp-0x75] ;  (1 found)
0x1480acbc: call dword [ebp-0x75] ;  (1 found)
0x1480acdf: call dword [ebp-0x75] ;  (1 found)
0x1480b0a1: call dword [ebp-0x75] ;  (1 found)
0x1480afff: call dword [ebp-0x75] ;  (1 found)
0x1480afd0: call dword [ebp-0x75] ;  (1 found)
0x1480b175: call dword [ebp-0x75] ;  (1 found)
0x1480b1a4: call dword [ebp-0x75] ;  (1 found)
0x1480b202: call dword [ebp-0x75] ;  (1 found)
0x14804840: call dword [ebx+0x50] ;  (1 found)
0x148040de: call dword [ebx+0x56] ;  (1 found)
0x148059c1: call dword [ebx+0x56] ;  (1 found)
0x14804bcc: call dword [ebx-0x01] ;  (1 found)
0x14804179: call dword [ebx-0x18] ;  (1 found)
0x14805303: call dword [ebx-0x5D] ;  (1 found)
0x148052d8: call dword [ebx-0x5D] ;  (1 found)
0x1480776d: call dword [ebx-0x75] ;  (1 found)
0x1480a8ac: call dword [ebx-0x75] ;  (1 found)
0x1480aa01: call dword [ebx-0x75] ;  (1 found)
0x148035c9: call dword [ebx-0x77] ;  (1 found)
0x148077e9: call dword [ecx-0x18] ;  (1 found)
0x148090ff: call dword [ecx-0x73] ;  (1 found)
0x148047ae: call dword [edi+0x50] ;  (1 found)
0x14804bac: call dword [edi+0x50] ;  (1 found)
0x14804b27: call dword [edi+0x50] ;  (1 found)
0x148078b7: call dword [edi+0x56] ;  (1 found)
0x1480470a: call dword [edi+0x57] ;  (1 found)
0x1480476c: call dword [edi+0x57] ;  (1 found)
0x148047be: call dword [edi+0x57] ;  (1 found)
0x1480890d: call dword [edi+0x57] ;  (1 found)
0x148041ee: call dword [edi+0x74] ;  (1 found)
0x1480546d: call dword [edi-0x18] ;  (1 found)
0x14807872: call dword [edi-0x18] ;  (1 found)
0x14802dac: call dword [edi-0x75] ;  (1 found)
0x14807781: call dword [edi-0x75] ;  (1 found)
0x1480109e: call dword [edx-0x75] ;  (1 found)
0x14805acb: call dword [esi+0x33] ;  (1 found)
0x14804e7f: call dword [esi+0x50] ;  (1 found)
0x1480901a: call dword [esi+0x50] ;  (1 found)
0x1480296a: call dword [esi+0x57] ;  (1 found)
0x14803f90: call dword [esi+0x57] ;  (1 found)
0x148055b4: call dword [esi+0x57] ;  (1 found)
0x148011d6: call dword [esi+0x6A] ;  (1 found)
0x1480a6f8: call dword [esi-0x01] ;  (1 found)
0x1480383f: call dword [esi-0x18] ;  (1 found)
0x148060f0: call dword [esi-0x18] ;  (1 found)
0x1480751d: call dword [esi-0x18] ;  (1 found)
0x148097d3: call dword [esi-0x18] ;  (1 found)
0x1480489b: call dword [esi-0x75] ;  (1 found)
0x14804970: call dword [esi-0x75] ;  (1 found)
0x1480560c: call dword [esi-0x75] ;  (1 found)
0x14807777: call dword [esi-0x75] ;  (1 found)
0x148097cb: call dword [esi-0x75] ;  (1 found)
0x1480270b: call eax ;  (1 found)
0x14809e19: call eax ;  (1 found)
0x14809e92: call eax ;  (1 found)
0x148011d0: call ebx ;  (1 found)
0x148011a1: call ebx ;  (1 found)
0x14801546: call ebx ;  (1 found)
0x148068b1: call ebx ;  (1 found)
0x1480687d: call ebx ;  (1 found)
0x14807809: call ebx ;  (1 found)
0x14807836: call ebx ;  (1 found)
0x14807863: call ebx ;  (1 found)
0x148079d6: call ebx ;  (1 found)
0x148078f3: call ebx ;  (1 found)
0x14807a1a: call ebx ;  (1 found)
0x1480c3e6: call ebx ;  (1 found)
0x1480c498: call ebx ;  (1 found)
0x14802180: call ecx ;  (1 found)
0x14802b52: call ecx ;  (1 found)
0x14801996: call edi ;  (1 found)
0x148019c1: call edi ;  (1 found)
0x14802864: call edi ;  (1 found)
0x1480284e: call edi ;  (1 found)
0x14802f76: call edi ;  (1 found)
0x14803059: call edi ;  (1 found)
0x148068fe: call edi ;  (1 found)
0x1480a3a4: call edi ;  (1 found)
0x1480a2ec: call edi ;  (1 found)
0x1480a252: call edi ;  (1 found)
0x14806c8c: call edx ;  (1 found)
0x14801351: call esi ;  (1 found)
0x14801e21: call esi ;  (1 found)
0x1480247c: call esi ;  (1 found)
0x148024b6: call esi ;  (1 found)
0x14802533: call esi ;  (1 found)
0x148024f3: call esi ;  (1 found)
0x148028fa: call esi ;  (1 found)
0x148031d9: call esi ;  (1 found)
0x1480368b: call esi ;  (1 found)
0x148039c0: call esi ;  (1 found)
0x1480435b: call esi ;  (1 found)
0x14806442: call esi ;  (1 found)
0x1480650b: call esi ;  (1 found)
0x1480649b: call esi ;  (1 found)
0x14806561: call esi ;  (1 found)
0x148065b7: call esi ;  (1 found)
0x14806610: call esi ;  (1 found)
0x148066cc: call esi ;  (1 found)
0x1480666c: call esi ;  (1 found)
0x1480672b: call esi ;  (1 found)
0x14806959: call esi ;  (1 found)
0x1480793e: call esi ;  (1 found)
0x148043fc: clc  ; adc dword [edi+0x05], esi ; push 0x0000000D ; pop eax ; pop ebp ; ret  ;  (1 found)
0x148010d3: clc  ; add byte [ebp+0x03], dh ; pop eax ; pop ebx ; ret  ;  (1 found)
0x148010c9: clc  ; add byte [ebp+0x04], dh ; mov eax, esp ; jmp esp ;  (1 found)
0x14809b09: clc  ; add byte [edi+eax-0x23], dh ; add eax, 0x14810E78 ; ret  ;  (1 found)
0x14806bd8: clc  ; add dword [edi], ecx ; xchg eax, esp ; retn 0x5589 ;  (1 found)
0x148042d7: clc  ; call dword [0x1480D054] ;  (1 found)
0x148031e4: clc  ; call dword [0x1480D098] ;  (1 found)
0x148031c1: clc  ; call dword [0x1480D09C] ;  (1 found)
0x14801142: clc  ; call dword [0x1480D13C] ;  (1 found)
0x1480391f: clc  ; fiadd dword [eax+0x2F26E814] ; add byte [eax], al ; pop ecx ; pop ecx ; ret  ;  (1 found)
0x14803931: clc  ; fiadd dword [eax+0x2F97E814] ; add byte [eax], al ; pop ecx ; pop ecx ; ret  ;  (1 found)
0x1480a9c4: clc  ; fld qword [ebp-0x08] ; mov esp, ebp ; pop ebp ; ret  ;  (1 found)
0x1480851a: clc  ; fldcw word [ebp-0x08] ; movsx eax, word [ebp-0x04] ; mov esp, ebp ; pop ebp ; ret  ;  (1 found)
0x1480b6a1: clc  ; fstp qword [esp] ; cvttsd2si eax, qword [esp] ; leave  ; ret  ;  (1 found)
0x148018a9: clc  ; lea eax, dword [ebp-0x00000324] ; sbb bl, bl ; mov dword [ebp-0x04], eax ; inc bl ; call dword [0x1480D054] ;  (1 found)
0x14801a1a: clc  ; lea eax, dword [ebp-0x10] ; mov dword [fs:0x00000000], eax ; ret  ;  (1 found)
0x1480b4dd: clc  ; lea eax, dword [ebp-0x10] ; mov dword [fs:0x00000000], eax ; ret  ;  (1 found)
0x148010ac: clc  ; mov ecx, dword [ebp+0x08] ; push ecx ; call dword [0x1480D130] ;  (1 found)
0x1480a9c7: clc  ; mov esp, ebp ; pop ebp ; ret  ;  (1 found)
0x1480b19e: clc  ; mov esp, ebp ; pop ebp ; ret  ;  (1 found)
0x1480851d: clc  ; movsx eax, word [ebp-0x04] ; mov esp, ebp ; pop ebp ; ret  ;  (1 found)
0x14802261: clc  ; push dword [ebp+0x03] ; xor al, al ; ret  ;  (1 found)
0x148041a0: clc  ; push dword [ebp+0x03] ; xor al, al ; ret  ;  (1 found)
0x148018bf: clc  ; push eax ; call dword [0x1480D050] ;  (1 found)
0x148031a6: clc  ; push eax ; push 0x1480DACC ; push 0x00000000 ; call dword [0x1480D0BC] ;  (1 found)
0x1480972d: clc  ; push ecx ; push dword [ebp+0x10] ; push dword [ebp+0x0C] ; push eax ; call dword [0x1480D014] ;  (1 found)
0x148016bf: clc  ; xor eax, dword [ebp-0x0C] ; mov dword [ebp-0x04], eax ; call dword [0x1480D040] ;  (1 found)
0x148016ce: cld  ; call dword [0x1480D03C] ;  (1 found)
0x148016c5: cld  ; call dword [0x1480D040] ;  (1 found)
0x14804e90: cld  ; cmp al, 0x81 ; adc al, 0x01 ; pop esi ; mov al, 0x01 ; ret  ;  (1 found)
0x148084ef: cld  ; fnclex  ; movsx eax, word [ebp-0x04] ; mov esp, ebp ; pop ebp ; ret  ;  (1 found)
0x1480a9c1: cld  ; fstp qword [ebp-0x08] ; fld qword [ebp-0x08] ; mov esp, ebp ; pop ebp ; ret  ;  (1 found)
0x148018b4: cld  ; inc bl ; call dword [0x1480D054] ;  (1 found)
0x1480ba87: cld  ; jmp dword [0x1480BA90+edx*4] ;  (1 found)
0x1480c137: cld  ; jmp dword [0x1480C140+edx*4] ;  (1 found)
0x148016d7: cld  ; lea eax, dword [ebp-0x14] ; push eax ; call dword [0x1480D038] ;  (1 found)
0x14801a10: cld  ; mov dword [ebp-0x04], 0xFFFFFFFE ; mov dword [ebp-0x08], eax ; lea eax, dword [ebp-0x10] ; mov dword [fs:0x00000000], eax ; ret  ;  (1 found)
0x1480b4d3: cld  ; mov dword [ebp-0x04], 0xFFFFFFFE ; mov dword [ebp-0x08], eax ; lea eax, dword [ebp-0x10] ; mov dword [fs:0x00000000], eax ; ret  ;  (1 found)
0x14808521: cld  ; mov esp, ebp ; pop ebp ; ret  ;  (1 found)
0x148084f5: cld  ; mov esp, ebp ; pop ebp ; ret  ;  (1 found)
0x1480858e: cld  ; mov esp, ebp ; pop ebp ; ret  ;  (1 found)
0x1480858a: cld  ; movsx eax, word [ebp-0x04] ; mov esp, ebp ; pop ebp ; ret  ;  (1 found)
0x1480c4e3: cld  ; pop edi ; leave  ; ret  ;  (1 found)
0x1480be26: cld  ; pop esi ; pop edi ; pop ebx ; ret  ;  (1 found)
0x14808e77: cld  ; push eax ; mov eax, dword [0x14813E58+edi*4] ; push dword [eax+esi+0x18] ; call dword [0x1480D018] ;  (1 found)
0x148016ed: cld  ; xor eax, ecx ; mov esp, ebp ; pop ebp ; ret  ;  (1 found)
0x1480643b: cli  ; call dword [0x1480D144] ;  (1 found)
0x14805300: cli  ; out 0xFF, eax ; call dword [ebx-0x5D] ;  (1 found)
0x14804e3e: cli  ; pop es ; add byte [eax], al ; pop ecx ; ret  ;  (1 found)
0x14802013: cli  ; ret  ;  (1 found)
0x14801f53: cli  ; ret  ;  (1 found)
0x14802068: cli  ; ret  ;  (1 found)
0x14804b02: cmc  ; pop edi ; pop esi ; pop ebx ; pop ebp ; ret  ;  (1 found)
0x1480c437: cmove eax, edx ; pop edi ; leave  ; ret  ;  (1 found)
0x1480bd64: cmovne eax, ecx ; ret  ;  (1 found)
0x148086bf: cmp al, 0x08 ; add byte [ebp-0x0C], dh ; pop ebp ; ret  ;  (1 found)
0x14804e91: cmp al, 0x81 ; adc al, 0x01 ; pop esi ; mov al, 0x01 ; ret  ;  (1 found)
0x14803354: cmp al, 0x81 ; adc al, 0x40 ; xchg dword [ecx], eax ; ret  ;  (1 found)
0x1480561f: cmp al, 0x81 ; adc al, 0x57 ; call dword [0x1480D080] ;  (1 found)
0x14803203: cmp al, 0x81 ; adc al, 0x5D ; ret  ;  (1 found)
0x1480326f: cmp al, 0x81 ; adc al, 0x5D ; ret  ;  (1 found)
0x1480431b: cmp al, 0x81 ; adc al, 0x5D ; ret  ;  (1 found)
0x14802db1: cmp al, 0x81 ; adc al, 0x85 ; push dword [ebp+0x05] ; or eax, 0xFFFFFFFF ; pop edi ; ret  ;  (1 found)
0x14803414: cmp al, 0x81 ; adc al, 0x87 ; add dword [ebp-0x3D], ebx ; mov eax, 0x14813CCC ; ret  ;  (1 found)
0x148038b0: cmp al, 0x81 ; adc al, 0xB0 ; add dword [esi-0x75], ebx ; in eax, 0x5D ; ret  ;  (1 found)
0x148032da: cmp al, 0x81 ; adc al, 0xB0 ; add ebx, eax ; mov eax, 0x14813CAC ; ret  ;  (1 found)
0x148032e2: cmp al, 0x81 ; adc al, 0xC3 ; mov eax, 0x14813CB0 ; ret  ;  (1 found)
0x14802ed1: cmp al, 0x81 ; adc al, 0xE8 ; mov dword [0x59FFFFFE], eax ; pop ecx ; ret  ;  (1 found)
0x148032cf: cmp al, 0x81 ; adc al, 0xFF ; adc eax, 0x1480D0C4 ; mov dword [0x14813CBC], eax ; mov al, 0x01 ; ret  ;  (1 found)
0x148016d1: cmp al, 0xD0 ; adc byte [ecx+esi], 0x00000045 ; cld  ; lea eax, dword [ebp-0x14] ; push eax ; call dword [0x1480D038] ;  (1 found)
0x148084a6: cmp byte [0x74C00000], al ; or eax, dword [ecx+0x00001D38] ; sal byte [ebx+eax+0x33], 0xFFFFFFC0 ; ret  ;  (1 found)
0x14801992: cmp byte [eax], al ; add byte [eax], al ; call edi ;  (1 found)
0x14802890: cmp byte [ebx], 0xFFFFFF81 ; adc al, 0x5D ; ret  ;  (1 found)
0x1480b170: cmp byte [edi+0x5D], bl ; ret  ;  (1 found)
0x14808daa: cmp byte [esi-0x1A740001], cl ; pop ebp ; ret  ;  (1 found)
0x1480180d: cmp ch, 0xFFFFFFFF ; dec dword [ecx-0x0002834B] ; dec dword [ecx-0x00028743] ; jmp dword [esi-0x74] ;  (1 found)
0x1480b93c: cmp cl, byte [edi] ; retn 0x6604 ;  (1 found)
0x1480bfec: cmp cl, byte [edi] ; retn 0x6604 ;  (1 found)
0x1480b8e4: cmp cl, byte [edi] ; retn 0x6608 ;  (1 found)
0x1480bf94: cmp cl, byte [edi] ; retn 0x6608 ;  (1 found)
0x1480b888: cmp cl, byte [edi] ; retn 0x660C ;  (1 found)
0x1480bf38: cmp cl, byte [edi] ; retn 0x660C ;  (1 found)
0x148051bd: cmp dh, byte [ebp-0x1F] ; pop esi ; lea eax, dword [edx+0x02] ; pop edi ; pop ebp ; ret  ;  (1 found)
0x14807e59: cmp dl, byte [eax+0x50] ; push esi ; push edi ; push eax ; push dword [ebp+0x24] ; call dword [0x1480D0B4] ;  (1 found)
0x1480bd62: cmp dl, byte [eax] ; cmovne eax, ecx ; ret  ;  (1 found)
0x148017aa: cmp dword [0x14813004], eax ; sete al ; ret  ;  (1 found)
0x14801bdc: cmp dword [0x14814174], eax ; setne al ; ret  ;  (1 found)
0x14801918: cmp dword [eax+0x000000E8], 0x00000000 ; setne al ; ret  ;  (1 found)
0x148015f2: cmp dword [eax], 0xC0000005 ; sete cl ; mov eax, ecx ; ret  ;  (1 found)
0x1480b390: cmp dword [eax], 0xC0000005 ; sete cl ; mov eax, ecx ; ret  ;  (1 found)
0x1480a1a7: cmp dword [ebp+0x08], 0x0374027F ; fldcw word [ebp+0x08] ; leave  ; ret  ;  (1 found)
0x148030db: cmp dword [ebp+0x08], 0xE06D7363 ; sete al ; pop ebp ; ret  ;  (1 found)
0x1480b3e9: cmp dword [ecx+0x18], edx ; sete al ; pop ebp ; ret  ;  (1 found)
0x1480a06f: cmp dword [esp], 0x0374027F ; fldcw word [esp] ; pop edx ; ret  ;  (1 found)
0x148074b1: cmp eax, 0x14814164 ; add byte [ebp+0x05], dh ; or eax, 0xFFFFFFFF ; pop esi ; ret  ;  (1 found)
0x148013cd: cmp eax, 0x59000013 ; pop ecx ; ret  ;  (1 found)
0x148055ff: cmp eax, 0xFF501481 ; adc eax, 0x1480D078 ; pop ebp ; ret  ;  (1 found)
0x14805647: cmp eax, 0xFF501481 ; adc eax, 0x1480D07C ; pop ebp ; ret  ;  (1 found)
0x148028b9: cmp eax, dword [ecx+0x1027E814] ; add byte [eax], al ; pop ebp ; ret  ;  (1 found)
0x148028a0: cmp eax, dword [ecx+0x1FE18314] ; ror eax, cl ; neg eax ; sbb eax, eax ; neg eax ; ret  ;  (1 found)
0x14802966: cmp eax, dword [ecx+0x56FF3314] ; push edi ; call dword [0x1480D0AC] ;  (1 found)
0x148025aa: cmp eax, dword [ecx+0x5EE07514] ; pop ebp ; ret  ;  (1 found)
0x148022de: cmp eax, dword [ecx+0x74F68514] ; and byte [ebx-0x3A], ch ; sbb byte [edi-0x73], dl ; mov eax, 0x14813AEC ; push edi ; call dword [0x1480D080] ;  (1 found)
0x1480291c: cmp eax, dword [ecx-0x743CA2EC] ; call dword [ebp-0x75] ;  (1 found)
0x14802003: cmp eax, esp ; movdqu  [edi], xmm0 ; movdqu  [edi+0x10], xmm0 ; mov eax, dword [esp+0x04] ; mov edi, edx ; ret  ;  (1 found)
0x1480a6a3: cmp ecx, 0xFFFFFFFF ; setne al ; ret  ;  (1 found)
0x1480440e: cmp ecx, eax ; sbb eax, eax ; and eax, ecx ; add eax, 0x08 ; pop ebp ; ret  ;  (1 found)
0x14802447: cmp esi, dword [ebx] ; rcr byte [esi+0x5F], 0x0000005B ; pop ebp ; ret  ;  (1 found)
0x148063fd: cmp esi, dword [ebx] ; rcr byte [esi+0x5F], 0x0000005B ; pop ebp ; ret  ;  (1 found)
0x148077a7: cmp esp, dword [edi+edi*8+0x5DE58BFF] ; ret  ;  (1 found)
0x1480b3e8: cmp word [ecx+0x18], dx ; sete al ; pop ebp ; ret  ;  (1 found)
0x148096e1: cmppd xmm3,  [0x14810DA0], 0x06 ; andpd xmm3,  [0x14810D80] ; movq qword [esp+0x04], xmm3 ; fld qword [esp+0x04] ; ret  ;  (1 found)
0x148096e2: cmpps xmm3,  [0x14810DA0], 0x06 ; andpd xmm3,  [0x14810D80] ; movq qword [esp+0x04], xmm3 ; fld qword [esp+0x04] ; ret  ;  (1 found)
0x1480b6a6: cvttps2pi mm0, qword [esp] ; leave  ; ret  ;  (1 found)
0x1480b6a5: cvttsd2si eax, qword [esp] ; leave  ; ret  ;  (1 found)
0x14802ed0: cwde  ; cmp al, 0x81 ; adc al, 0xE8 ; mov dword [0x59FFFFFE], eax ; pop ecx ; ret  ;  (1 found)
0x14802338: cwde  ; rol dword [eax+0x08006814], 1  ; add byte [eax], al ; push 0x00000000 ; push ebx ; call dword [0x1480D0A0] ;  (1 found)
0x14803937: das  ; add byte [eax], al ; pop ecx ; pop ecx ; ret  ;  (1 found)
0x14803924: das  ; add byte [eax], al ; pop ecx ; pop ecx ; ret  ;  (1 found)
0x14803925: das  ; add byte [eax], al ; pop ecx ; pop ecx ; ret  ;  (1 found)
0x148083b0: dec al ; pop ebp ; ret  ;  (1 found)
0x14809014: dec byte [ebp-0x0014037B] ; call dword [esi+0x50] ;  (1 found)
0x1480773c: dec dword [eax-0x117C00B0] ; add dword [ebp-0x15], esi ; pop esi ; pop edi ; pop ebp ; ret  ;  (1 found)
0x1480b29c: dec dword [ebp+0x00010081] ; add byte [ebp-0x3D], bl ; jmp dword [0x1480D05C] ;  (1 found)
0x1480af01: dec dword [ebp+0x6A500845] ; add dword [edx+0x00], ebp ; push edi ; call dword [0x1480D104] ;  (1 found)
0x1480483a: dec dword [ebp-0x0001177B] ; call dword [ebx+0x50] ;  (1 found)
0x148047a8: dec dword [ebp-0x0001437B] ; call dword [edi+0x50] ;  (1 found)
0x148013f9: dec dword [ebx+0x24E8E045] ; push es ; add byte [eax], al ; ret  ;  (1 found)
0x14806ceb: dec dword [ebx+0x4889C84D] ; or byte [ebx], dh ; shr al, 0xFFFFFFF0 ; inc edi ; add byte [eax], al ; ret  ;  (1 found)
0x14807b2b: dec dword [ebx-0x1A74A13A] ; pop ebp ; ret  ;  (1 found)
0x1480a9ae: dec dword [ebx-0x1C74A21B] ; pop ebx ; ret  ;  (1 found)
0x1480aac6: dec dword [ebx-0x1C74A21B] ; pop ebx ; ret  ;  (1 found)
0x14802907: dec dword [ebx-0x743CA21B] ; call dword [ebp-0x75] ;  (1 found)
0x148031f4: dec dword [ebx-0x743CA21B] ; call dword [ebp-0x75] ;  (1 found)
0x14802f4c: dec dword [ebx-0x743CA21B] ; call dword [ebp-0x75] ;  (1 found)
0x14803762: dec dword [ebx-0x743CA21B] ; call dword [ebp-0x75] ;  (1 found)
0x1480371d: dec dword [ebx-0x743CA21B] ; call dword [ebp-0x75] ;  (1 found)
0x1480337f: dec dword [ebx-0x743CA21B] ; call dword [ebp-0x75] ;  (1 found)
0x14803e4f: dec dword [ebx-0x743CA21B] ; call dword [ebp-0x75] ;  (1 found)
0x14803f3f: dec dword [ebx-0x743CA21B] ; call dword [ebp-0x75] ;  (1 found)
0x1480430c: dec dword [ebx-0x743CA21B] ; call dword [ebp-0x75] ;  (1 found)
0x14804c97: dec dword [ebx-0x743CA21B] ; call dword [ebp-0x75] ;  (1 found)
0x14805099: dec dword [ebx-0x743CA21B] ; call dword [ebp-0x75] ;  (1 found)
0x14805eb7: dec dword [ebx-0x743CA21B] ; call dword [ebp-0x75] ;  (1 found)
0x14806ab0: dec dword [ebx-0x743CA21B] ; call dword [ebp-0x75] ;  (1 found)
0x14806919: dec dword [ebx-0x743CA21B] ; call dword [ebp-0x75] ;  (1 found)
0x148068cc: dec dword [ebx-0x743CA21B] ; call dword [ebp-0x75] ;  (1 found)
0x14808a8a: dec dword [ebx-0x743CA21B] ; call dword [ebp-0x75] ;  (1 found)
0x14808dad: dec dword [ebx-0x743CA21B] ; call dword [ebp-0x75] ;  (1 found)
0x14808f6f: dec dword [ebx-0x743CA21B] ; call dword [ebp-0x75] ;  (1 found)
0x1480a3c6: dec dword [ebx-0x743CA21B] ; call dword [ebp-0x75] ;  (1 found)
0x1480905d: dec dword [ebx-0x743CA21B] ; call dword [ebp-0x75] ;  (1 found)
0x1480a69a: dec dword [ebx-0x7EC8AFF3] ; adc al, 0x33 ; rol byte [ebx-0x6AF00007], 0xFFFFFFC0 ; ret  ;  (1 found)
0x14801a17: dec dword [ecx+0x458DF845] ; mov dword [fs:0x00000000], eax ; ret  ;  (1 found)
0x1480b4da: dec dword [ecx+0x458DF845] ; mov dword [fs:0x00000000], eax ; ret  ;  (1 found)
0x1480423e: dec dword [ecx-0x00022373] ; dec dword [ecx-0x0002276B] ; dec dword [ecx-0x00022B63] ; dec dword [ecx-0x00022F4B] ; dec dword [ecx-0x00023343] ; jmp dword [esi-0x74] ;  (1 found)
0x14804244: dec dword [ecx-0x0002276B] ; dec dword [ecx-0x00022B63] ; dec dword [ecx-0x00022F4B] ; dec dword [ecx-0x00023343] ; jmp dword [esi-0x74] ;  (1 found)
0x1480424a: dec dword [ecx-0x00022B63] ; dec dword [ecx-0x00022F4B] ; dec dword [ecx-0x00023343] ; jmp dword [esi-0x74] ;  (1 found)
0x14804250: dec dword [ecx-0x00022F4B] ; dec dword [ecx-0x00023343] ; jmp dword [esi-0x74] ;  (1 found)
0x14804256: dec dword [ecx-0x00023343] ; jmp dword [esi-0x74] ;  (1 found)
0x148017fe: dec dword [ecx-0x00027773] ; dec dword [ecx-0x00027B6B] ; dec dword [ecx-0x00027F63] ; dec dword [ecx-0x0002834B] ; dec dword [ecx-0x00028743] ; jmp dword [esi-0x74] ;  (1 found)
0x14801804: dec dword [ecx-0x00027B6B] ; dec dword [ecx-0x00027F63] ; dec dword [ecx-0x0002834B] ; dec dword [ecx-0x00028743] ; jmp dword [esi-0x74] ;  (1 found)
0x1480180a: dec dword [ecx-0x00027F63] ; dec dword [ecx-0x0002834B] ; dec dword [ecx-0x00028743] ; jmp dword [esi-0x74] ;  (1 found)
0x14801810: dec dword [ecx-0x0002834B] ; dec dword [ecx-0x00028743] ; jmp dword [esi-0x74] ;  (1 found)
0x14801816: dec dword [ecx-0x00028743] ; jmp dword [esi-0x74] ;  (1 found)
0x1480179f: dec eax ; add al, 0x83 ; or byte [edx], al ; mov dword [eax+0x04], ecx ; ret  ;  (1 found)
0x148017a5: dec eax ; add al, 0xC3 ; xor eax, eax ; cmp dword [0x14813004], eax ; sete al ; ret  ;  (1 found)
0x14803c3c: dec eax ; and eax, dword [ebp+0x0C] ; pop ebp ; ret  ;  (1 found)
0x14805911: dec eax ; lea eax, dword [ebp-0x48] ; push eax ; call dword [0x1480D058] ;  (1 found)
0x148049ec: dec eax ; lock inc dword [eax] ; pop esi ; ret  ;  (1 found)
0x14806cf0: dec eax ; or byte [ebx], dh ; shr al, 0xFFFFFFF0 ; inc edi ; add byte [eax], al ; ret  ;  (1 found)
0x148016a2: dec eax ; pop ebp ; ret  ;  (1 found)
0x1480611b: dec eax ; pop ebp ; ret  ;  (1 found)
0x1480a660: dec eax ; sbb al, 0x8B ; inc ebp ; or byte [ebx+0x08870CC0], al ; pop ebp ; ret  ;  (1 found)
0x148076a1: dec ebp ; adc al, 0x57 ; push esi ; call dword [0x1480D144] ;  (1 found)
0x14808d10: dec ebp ; fcom qword [ecx+0x50] ; lea eax, dword [ebp-0x14] ; push eax ; push dword [ebp-0x30] ; call dword [0x1480D0A8] ;  (1 found)
0x14806c95: dec ebp ; fdiv st7, st0 ; adc eax, 0x1480D144 ; call dword [ebp-0x24] ;  (1 found)
0x14806cc3: dec ebp ; fdiv st7, st0 ; adc eax, 0x1480D144 ; call dword [ebp-0x24] ;  (1 found)
0x14805169: dec ebp ; lock and dword [ecx+0x00000350], 0xFFFFFFFD ; mov eax, edx ; mov esp, ebp ; pop ebp ; ret  ;  (1 found)
0x14804a96: dec ebp ; lock and dword [ecx+0x00000350], 0xFFFFFFFD ; mov esp, ebp ; pop ebp ; ret  ;  (1 found)
0x14807ee3: dec ebp ; lock and dword [ecx+0x00000350], 0xFFFFFFFD ; mov esp, ebp ; pop ebp ; ret  ;  (1 found)
0x148085bf: dec ebp ; lock and dword [ecx+0x00000350], 0xFFFFFFFD ; mov esp, ebp ; pop ebp ; ret  ;  (1 found)
0x14808aca: dec ebp ; lock and dword [ecx+0x00000350], 0xFFFFFFFD ; mov esp, ebp ; pop ebp ; ret  ;  (1 found)
0x1480adc5: dec ebp ; or byte [ebx-0x09EFF3B7], al ; retn 0x7404 ;  (1 found)
0x14807766: dec ebp ; or byte [ecx-0x0000FF73], cl ; call dword [ebx-0x75] ;  (1 found)
0x14802e44: dec ebp ; or byte [esi-0x01], dl ; adc eax, 0x1480D144 ; call dword [ebp+0x08] ;  (1 found)
0x1480769e: dec ecx ; add byte [ebx+0x5657144D], cl ; call dword [0x1480D144] ;  (1 found)
0x1480bcae: dec ecx ; add byte [ebx+0x5E0C2444], cl ; pop edi ; ret  ;  (1 found)
0x1480c35e: dec ecx ; add byte [ebx+0x5E0C2444], cl ; pop edi ; ret  ;  (1 found)
0x1480bab6: dec ecx ; add byte [edx+0x47880346], cl ; add ecx, dword [edx+0x47880246] ; add cl, byte [ebx+0x5E0C2444] ; pop edi ; ret  ;  (1 found)
0x1480c166: dec ecx ; add byte [edx+0x47880346], cl ; add ecx, dword [edx+0x47880246] ; add cl, byte [ebx+0x5E0C2444] ; pop edi ; ret  ;  (1 found)
0x14801ebe: dec ecx ; or al, ch ; ret  ;  (1 found)
0x14801450: dec edx ; or al, 0x72 ; or cl, byte [ebx+0x42030842] ; or al, 0x3B ; enter 0x0C72, 0x83 ; retn 0x3B28 ;  (1 found)
0x14805f51: dec esi ; add dword [eax], eax ; add byte [ecx+0x5E], bl ; pop ebp ; ret  ;  (1 found)
0x1480966b: dec esp ; and al, 0x04 ; fld qword [esp+0x04] ; ret  ;  (1 found)
0x148096d2: dec esp ; and al, 0x04 ; fld qword [esp+0x04] ; ret  ;  (1 found)
0x14806a50: dec esp ; inc ecx ; adc dword [0x4154B8C3+ebx*2], 0xC35D1481 ; mov eax, 0x14814148 ; pop ebp ; ret  ;  (1 found)
0x148040db: dec esp ; mov edi, edi ; push ebx ; push esi ; push edi ; call dword [0x1480D070] ;  (1 found)
0x148042d0: dec esp ; rol byte [eax-0x74FF95EC], 1  ; clc  ; call dword [0x1480D054] ;  (1 found)
0x14806780: div byte [eax-0x743CA1FF] ; call dword [ebp-0x75] ;  (1 found)
0x1480a6e1: div byte [ebp+0x2D] ; call dword [0x1480D070] ;  (1 found)
0x1480234d: div byte [ebp+0x50] ; call dword [0x1480D070] ;  (1 found)
0x14806301: div byte [ebp+0x50] ; call dword [0x1480D070] ;  (1 found)
0x14805237: div byte [edi+eax+0x56] ; call dword [0x1480D0F0] ;  (1 found)
0x14806556: div byte [esp+ecx-0x75] ; into  ; call dword [0x1480D144] ;  (1 found)
0x14806605: div byte [esp+ecx-0x75] ; into  ; call dword [0x1480D144] ;  (1 found)
0x148065ac: div byte [esp+ecx-0x75] ; into  ; call dword [0x1480D144] ;  (1 found)
0x148078af: div dword [ebx+0x25] ; mov ecx, dword [ebp-0x00000108] ; push edi ; push esi ; call dword [0x1480D144] ;  (1 found)
0x1480145b: enter 0x0C72, 0x83 ; retn 0x3B28 ;  (1 found)
0x14801735: enter 0x0D89, 0x14 ; xor byte [ecx-0x762E08EC], al ; or eax, 0x14813018 ; pop edi ; pop esi ; ret  ;  (1 found)
0x148096ce: enter 0x0F66, 0xD6 ; dec esp ; and al, 0x04 ; fld qword [esp+0x04] ; ret  ;  (1 found)
0x1480141c: enter 0x458B, 0x08 ; ror eax, cl ; xor eax, dword [0x14813014] ; pop ebp ; ret  ;  (1 found)
0x14802fea: enter 0x458B, 0x08 ; ror eax, cl ; xor eax, dword [0x14813014] ; pop ebp ; ret  ;  (1 found)
0x14806d96: enter 0x5D40, 0xC3 ; or eax, 0x00008040 ; pop ebp ; ret  ;  (1 found)
0x1480744b: enter 0x5DFF, 0xC3 ; mov eax, dword [eax+0x10] ; pop ebp ; ret  ;  (1 found)
0x1480340e: enter 0x5DFF, 0xC3 ; mov ecx, 0x14813CC8 ; xchg dword [ecx], eax ; pop ebp ; ret  ;  (1 found)
0x148080f2: enter 0x5DFF, 0xC3 ; push dword [ebp+0x08] ; push 0x00000000 ; push dword [0x14814140] ; call dword [0x1480D028] ;  (1 found)
0x14804479: enter 0x5DFF, 0xC3 ; sbb eax, eax ; neg eax ; pop ebp ; ret  ;  (1 found)
0x14808be7: enter 0x5EFF, 0x8B ; in eax, 0x5D ; ret  ;  (1 found)
0x1480a58e: enter 0x5EFF, 0x8B ; in eax, 0x5D ; ret  ;  (1 found)
0x14805899: enter 0x5FFF, 0x5E ; pop ebx ; pop ebp ; ret  ;  (1 found)
0x148010e3: enter 0x8119, 0x14 ; push 0x148119D4 ; push 0x00000000 ; call dword [0x1480D10C] ;  (1 found)
0x148033e7: enter 0x813C, 0x14 ; ret  ;  (1 found)
0x14803413: enter 0x813C, 0x14 ; xchg dword [ecx], eax ; pop ebp ; ret  ;  (1 found)
0x1480b48e: enter 0xC68B, 0x5E ; retn 0x0010 ;  (1 found)
0x148028a7: enter 0xD8F7, 0x1B ; sal bh, 0xFFFFFFD8 ; ret  ;  (1 found)
0x148057d2: enter 0xE083, 0x3F ; sar ecx, 0x06 ; imul eax, eax, 0x30 ; add eax, dword [0x14813E58+ecx*4] ; push eax ; call dword [0x1480D078] ;  (1 found)
0x148057f5: enter 0xE083, 0x3F ; sar ecx, 0x06 ; imul eax, eax, 0x30 ; add eax, dword [0x14813E58+ecx*4] ; push eax ; call dword [0x1480D07C] ;  (1 found)
0x1480a627: enter 0xEBFF, 0x02 ; xor eax, eax ; pop edi ; pop esi ; pop ebp ; ret  ;  (1 found)
0x14806111: enter 0xF0FF, 0x0F ; rol dword [ecx+0x000000B0], 0x48 ; pop ebp ; ret  ;  (1 found)
0x1480371a: enter 0xFFE4, 0xFF ; mov esp, ebp ; pop ebp ; ret  ;  (1 found)
0x14809fda: f2xm1  ; fld1  ; faddp st1, st0 ; fscale  ; fstp st1 ; ret  ;  (1 found)
0x14809d5e: f2xm1  ; ret  ;  (1 found)
0x14809d5c: fabs  ; f2xm1  ; ret  ;  (1 found)
0x1480b645: fadd dword [ebx+0x5E5D00DA] ; pop edi ; retn 0x0010 ;  (1 found)
0x14809f13: fadd qword [0x14810F4E] ; ret  ;  (1 found)
0x1480a009: fadd qword [0x14810F70] ; mov eax, 0x00000000 ; ret  ;  (1 found)
0x14804a1d: fadd qword [eax-0x5E3CA2EC] ; aam 0xDC ; adc byte [0xDCD0A1C3+ebx*2], 0xFFFFFF80 ; adc al, 0x5D ; ret  ;  (1 found)
0x14804a16: fadd qword [eax-0x5E3CA2EC] ; fcomp st0, st4 ; adc byte [0xDCD4A1C3+ebx*2], 0xFFFFFF80 ; adc al, 0x5D ; ret  ;  (1 found)
0x14804a2b: fadd qword [eax-0x743CA2EC] ; call dword [ebp-0x75] ;  (1 found)
0x14809fde: faddp st1, st0 ; fscale  ; fstp st1 ; ret  ;  (1 found)
0x14809f80: faddp st1, st0 ; ret  ;  (1 found)
0x14809f41: faddp st1, st0 ; ret  ;  (1 found)
0x14807931: fbstp  [esi+0x1F] ; push edi ; push ebx ; mov ecx, esi ; call dword [0x1480D144] ;  (1 found)
0x14809ca5: fchs  ; ret  ;  (1 found)
0x14809cf0: fchs  ; ret  ;  (1 found)
0x14809ee5: fchs  ; ret  ;  (1 found)
0x14809fc1: fchs  ; ret  ;  (1 found)
0x1480899d: fcom dword [eax+0x56] ; push dword [ebp-0x20] ; mov esi, dword [ebp+0x24] ; push 0x00000001 ; push esi ; call dword [0x1480D0B0] ;  (1 found)
0x1480bd96: fcom dword [edi-0x75] ; ret  ;  (1 found)
0x14808d11: fcom qword [ecx+0x50] ; lea eax, dword [ebp-0x14] ; push eax ; push dword [ebp-0x30] ; call dword [0x1480D0A8] ;  (1 found)
0x1480729f: fcomp dword [ebx] ; sal bh, 0xFFFFFFD8 ; pop ebp ; ret  ;  (1 found)
0x148028a9: fcomp dword [ebx] ; sal bh, 0xFFFFFFD8 ; ret  ;  (1 found)
0x14805435: fcomp dword [ebx] ; shl byte [ebx], 0xFFFFFFC1 ; mov byte [ecx-0x01], bl ; push eax ; push esi ; call dword [0x1480D0F4] ;  (1 found)
0x14801685: fcomp dword [ecx+0x1B] ; sal bh, 0xFFFFFFD0 ; and eax, dword [ebp+0x08] ; pop ebp ; ret  ;  (1 found)
0x1480169c: fcomp dword [ecx+0x1B] ; sal bh, 0xFFFFFFD8 ; dec eax ; pop ebp ; ret  ;  (1 found)
0x14809ed7: fcomp st0, st1 ; out dx, al ; ret  ;  (1 found)
0x14809c3b: fcomp st0, st3 ; sub eax, 0x14810ED0 ; mov byte [ebp-0x00000090], 0x00000002 ; ret  ;  (1 found)
0x14809d02: fcomp st0, st3 ; sub eax, 0x14810ED0 ; mov byte [ebp-0x00000090], 0x00000003 ; ret  ;  (1 found)
0x14809d16: fcomp st0, st3 ; sub eax, 0x14810ED0 ; ret  ;  (1 found)
0x14809c6c: fcomp st0, st3 ; sub eax, 0x14810EDA ; ret  ;  (1 found)
0x14804a1c: fcomp st0, st4 ; adc byte [0xDCD4A1C3+ebx*2], 0xFFFFFF80 ; adc al, 0x5D ; ret  ;  (1 found)
0x14809ed5: fcomp st0, st5 ; fcomp st0, st1 ; out dx, al ; ret  ;  (1 found)
0x14809c39: fcomp st0, st5 ; fcomp st0, st3 ; sub eax, 0x14810ED0 ; mov byte [ebp-0x00000090], 0x00000002 ; ret  ;  (1 found)
0x14809d00: fcomp st0, st5 ; fcomp st0, st3 ; sub eax, 0x14810ED0 ; mov byte [ebp-0x00000090], 0x00000003 ; ret  ;  (1 found)
0x14804a15: fcomp3 st4 ; adc byte [0xDCD8A1C3+ebx*2], 0xFFFFFF80 ; adc al, 0x5D ; ret  ;  (1 found)
0x14806bd4: fdiv qword [ebx] ; rol byte [ebx-0x6BF0FE08], cl ; retn 0x5589 ;  (1 found)
0x14806c96: fdiv st7, st0 ; adc eax, 0x1480D144 ; call dword [ebp-0x24] ;  (1 found)
0x14806cc4: fdiv st7, st0 ; adc eax, 0x1480D144 ; call dword [ebp-0x24] ;  (1 found)
0x148097d7: fdiv st7, st0 ; call dword [eax-0x18] ;  (1 found)
0x14805d9a: fdiv st7, st0 ; inc dword [ebx+0x5D5E28C4] ; ret  ;  (1 found)
0x1480430a: fdivr st0, st7 ; dec dword [ebx-0x743CA21B] ; call dword [ebp-0x75] ;  (1 found)
0x14803920: fiadd dword [eax+0x2F26E814] ; add byte [eax], al ; pop ecx ; pop ecx ; ret  ;  (1 found)
0x14803932: fiadd dword [eax+0x2F97E814] ; add byte [eax], al ; pop ecx ; pop ecx ; ret  ;  (1 found)
0x148031bc: fiadd dword [eax-0x078A00EC] ; call dword [0x1480D09C] ;  (1 found)
0x1480b647: fiadd dword [eax] ; pop ebp ; pop esi ; pop edi ; retn 0x0010 ;  (1 found)
0x1480bd5f: fidiv dword [ebx] ; leave  ; cmp dl, byte [eax] ; cmovne eax, ecx ; ret  ;  (1 found)
0x14808396: fidiv word [eax-0x743CA2FF] ; call dword [ebp-0x75] ;  (1 found)
0x1480441d: fild dword [eax-0x743CA2EC] ; call dword [ebp-0x75] ;  (1 found)
0x14805235: fild word [ebp+0x560774F6] ; call dword [0x1480D0F0] ;  (1 found)
0x14809c6f: fimul dword [esi] ; adc dword [ebx+eax*8], 0x5375C90A ; ret  ;  (1 found)
0x14802df4: fist dword [ebx+0x53] ; call dword [0x1480D0B4] ;  (1 found)
0x1480815b: fist dword [esi+0x57] ; push 0x00000000 ; push dword [0x14814140] ; call dword [0x1480D024] ;  (1 found)
0x148018b1: fisttp dword [ecx-0x3C0103BB] ; call dword [0x1480D054] ;  (1 found)
0x1480a09a: fld dword [eax] ; add byte [eax], al ; pop edx ; ret  ;  (1 found)
0x148096da: fld qword [0x14810DC0] ; ret  ;  (1 found)
0x14809b0d: fld qword [0x14810E78] ; ret  ;  (1 found)
0x14809fb4: fld qword [0x14810F56] ; fmulp st1, st0 ; ret  ;  (1 found)
0x1480b096: fld qword [ebp+0x20] ; add esp, 0x0C ; mov esp, ebp ; pop ebp ; ret  ;  (1 found)
0x1480a9c5: fld qword [ebp-0x08] ; mov esp, ebp ; pop ebp ; ret  ;  (1 found)
0x1480b19c: fld qword [ebp-0x08] ; mov esp, ebp ; pop ebp ; ret  ;  (1 found)
0x1480afc6: fld qword [ecx+0x50] ; fstp qword [ebx] ; pop edi ; pop ebx ; pop ebp ; ret  ;  (1 found)
0x1480a024: fld qword [edx] ; ret  ;  (1 found)
0x1480a398: fld qword [esi] ; push eax ; fstp qword [ebp-0x0C] ; call dword [0x1480D144] ;  (1 found)
0x1480a246: fld qword [esi] ; push eax ; fstp qword [ebp-0x0C] ; call dword [0x1480D144] ;  (1 found)
0x1480a2e0: fld qword [esi] ; push eax ; fstp qword [ebp-0x0C] ; call dword [0x1480D144] ;  (1 found)
0x14809aae: fld qword [esp+0x04] ; add esp, 0x10 ; ret  ;  (1 found)
0x1480969d: fld qword [esp+0x04] ; ret  ;  (1 found)
0x1480966e: fld qword [esp+0x04] ; ret  ;  (1 found)
0x148096d5: fld qword [esp+0x04] ; ret  ;  (1 found)
0x148096f8: fld qword [esp+0x04] ; ret  ;  (1 found)
0x14809b8f: fld qword [esp+0x10] ; add esp, 0x1C ; ret  ;  (1 found)
0x14809c3c: fld tword [0x14810ED0] ; mov byte [ebp-0x00000090], 0x00000002 ; ret  ;  (1 found)
0x14809d03: fld tword [0x14810ED0] ; mov byte [ebp-0x00000090], 0x00000003 ; ret  ;  (1 found)
0x14809d17: fld tword [0x14810ED0] ; ret  ;  (1 found)
0x14809c6d: fld tword [0x14810EDA] ; ret  ;  (1 found)
0x1480a049: fld tword [esp] ; add esp, 0x0A ; test eax, 0x00000000 ; mov eax, dword [edx+0x04] ; ret  ;  (1 found)
0x14809fdc: fld1  ; faddp st1, st0 ; fscale  ; fstp st1 ; ret  ;  (1 found)
0x14809fdb: fld1  ; faddp st1, st0 ; fscale  ; fstp st1 ; ret  ;  (1 found)
0x1480a8a0: fld1  ; mov eax, dword [ebp+0x18] ; fstp qword [eax] ; xor eax, eax ; pop ebp ; ret  ;  (1 found)
0x14809eec: fld1  ; ret  ;  (1 found)
0x1480416e: fldcw word [eax+0x5C] ; inc eax ; adc dword [edi+edx*2], 0xFFFC3FE8 ; call dword [ebx-0x18] ;  (1 found)
0x1480a1ae: fldcw word [ebp+0x08] ; leave  ; ret  ;  (1 found)
0x1480851b: fldcw word [ebp-0x08] ; movsx eax, word [ebp-0x04] ; mov esp, ebp ; pop ebp ; ret  ;  (1 found)
0x14809ff7: fldcw word [esp+0x06] ; ret  ;  (1 found)
0x1480a076: fldcw word [esp] ; pop edx ; ret  ;  (1 found)
0x1480a0a0: fldcw word [esp] ; pop edx ; ret  ;  (1 found)
0x1480a105: fldcw word [esp] ; pop edx ; ret  ;  (1 found)
0x14808577: fldpi  ; fstp qword [ebp-0x0C] ; wait  ; mov esp, ebp ; pop ebp ; ret  ;  (1 found)
0x14809ed8: fldz  ; ret  ;  (1 found)
0x148016a1: fmul dword [eax+0x5D] ; ret  ;  (1 found)
0x14809fba: fmulp st1, st0 ; ret  ;  (1 found)
0x148084f0: fnclex  ; movsx eax, word [ebp-0x04] ; mov esp, ebp ; pop ebp ; ret  ;  (1 found)
0x1480a9c0: frndint  ; fstp qword [ebp-0x08] ; fld qword [ebp-0x08] ; mov esp, ebp ; pop ebp ; ret  ;  (1 found)
0x14805af1: fsave  [eax-0x743CA1FF] ; call dword [ebp-0x75] ;  (1 found)
0x14809fe0: fscale  ; fstp st1 ; ret  ;  (1 found)
0x1480b294: fstp dword [ebx] ; leave  ; and ecx, 0xFFFFFF08 ; lea eax, dword [ecx+0x00000100] ; pop ebp ; ret  ;  (1 found)
0x1480b26b: fstp dword [ebx] ; leave  ; and ecx, 0xFFFFFF90 ; lea eax, dword [ecx+0x00000080] ; pop ebp ; ret  ;  (1 found)
0x1480b288: fstp dword [ebx] ; leave  ; and ecx, 0xFFFFFFE0 ; lea eax, dword [ecx+0x40] ; pop ebp ; ret  ;  (1 found)
0x1480b73b: fstp dword [esp+0x18] ; fstp dword [esp+0x18] ; leave  ; ret  ;  (1 found)
0x1480b73f: fstp dword [esp+0x18] ; leave  ; ret  ;  (1 found)
0x1480a8a5: fstp qword [eax] ; xor eax, eax ; pop ebp ; ret  ;  (1 found)
0x1480a9c2: fstp qword [ebp-0x08] ; fld qword [ebp-0x08] ; mov esp, ebp ; pop ebp ; ret  ;  (1 found)
0x1480a39b: fstp qword [ebp-0x0C] ; call dword [0x1480D144] ;  (1 found)
0x1480a249: fstp qword [ebp-0x0C] ; call dword [0x1480D144] ;  (1 found)
0x1480a2e3: fstp qword [ebp-0x0C] ; call dword [0x1480D144] ;  (1 found)
0x14808579: fstp qword [ebp-0x0C] ; wait  ; mov esp, ebp ; pop ebp ; ret  ;  (1 found)
0x1480a395: fstp qword [ebp-0x14] ; fld qword [esi] ; push eax ; fstp qword [ebp-0x0C] ; call dword [0x1480D144] ;  (1 found)
0x1480a243: fstp qword [ebp-0x14] ; fld qword [esi] ; push eax ; fstp qword [ebp-0x0C] ; call dword [0x1480D144] ;  (1 found)
0x1480a2dd: fstp qword [ebp-0x14] ; fld qword [esi] ; push eax ; fstp qword [ebp-0x0C] ; call dword [0x1480D144] ;  (1 found)
0x1480afc9: fstp qword [ebx] ; pop edi ; pop ebx ; pop ebp ; ret  ;  (1 found)
0x1480b6a2: fstp qword [esp] ; cvttsd2si eax, qword [esp] ; leave  ; ret  ;  (1 found)
0x14809c3a: fstp st0 ; fld tword [0x14810ED0] ; mov byte [ebp-0x00000090], 0x00000002 ; ret  ;  (1 found)
0x14809d01: fstp st0 ; fld tword [0x14810ED0] ; mov byte [ebp-0x00000090], 0x00000003 ; ret  ;  (1 found)
0x14809d15: fstp st0 ; fld tword [0x14810ED0] ; ret  ;  (1 found)
0x14809c6b: fstp st0 ; fld tword [0x14810EDA] ; ret  ;  (1 found)
0x14809eea: fstp st0 ; fld1  ; ret  ;  (1 found)
0x14809ed6: fstp st0 ; fldz  ; ret  ;  (1 found)
0x14809c38: fstp st0 ; fstp st0 ; fld tword [0x14810ED0] ; mov byte [ebp-0x00000090], 0x00000002 ; ret  ;  (1 found)
0x14809cff: fstp st0 ; fstp st0 ; fld tword [0x14810ED0] ; mov byte [ebp-0x00000090], 0x00000003 ; ret  ;  (1 found)
0x14809ee8: fstp st0 ; fstp st0 ; fld1  ; ret  ;  (1 found)
0x14809ed4: fstp st0 ; fstp st0 ; fldz  ; ret  ;  (1 found)
0x14809eca: fstp st0 ; ret  ;  (1 found)
0x1480a778: fstp st0 ; xor eax, eax ; mov esp, ebp ; pop ebp ; ret  ;  (1 found)
0x14809fe2: fstp st1 ; ret  ;  (1 found)
0x14809d56: fstsw word [ebp-0x000000A0] ; fabs  ; f2xm1  ; ret  ;  (1 found)
0x148084ed: fstsw word [ebp-0x04] ; fnclex  ; movsx eax, word [ebp-0x04] ; mov esp, ebp ; pop ebp ; ret  ;  (1 found)
0x14808588: fstsw word [ebp-0x04] ; movsx eax, word [ebp-0x04] ; mov esp, ebp ; pop ebp ; ret  ;  (1 found)
0x148096af: fsub dword [esi+0x0F] ; retn 0x06C1 ;  (1 found)
0x14808a36: fsubr qword [edx+0x01] ; push dword [ebp+0x24] ; call dword [0x1480D0B0] ;  (1 found)
0x148089bc: fsubr qword [edx+0x09] ; push esi ; call dword [0x1480D0B0] ;  (1 found)
0x14809d53: ftst  ; wait  ; fstsw word [ebp-0x000000A0] ; fabs  ; f2xm1  ; ret  ;  (1 found)
0x14809ec8: fxch st0, st1 ; fstp st0 ; ret  ;  (1 found)
0x14809c61: fyl2x  ; ret  ;  (1 found)
0x14809c85: fyl2x  ; ret  ;  (1 found)
0x148016b1: hlt  ; and dword [ebp-0x08], 0x00000000 ; push eax ; call dword [0x1480D044] ;  (1 found)
0x1480a2e5: hlt  ; call dword [0x1480D144] ;  (1 found)
0x1480a39d: hlt  ; call dword [0x1480D144] ;  (1 found)
0x1480a24b: hlt  ; call dword [0x1480D144] ;  (1 found)
0x148016c2: hlt  ; mov dword [ebp-0x04], eax ; call dword [0x1480D040] ;  (1 found)
0x14808364: hlt  ; mov esp, ebp ; pop ebp ; ret  ;  (1 found)
0x148086c3: hlt  ; pop ebp ; ret  ;  (1 found)
0x1480857b: hlt  ; wait  ; mov esp, ebp ; pop ebp ; ret  ;  (1 found)
0x14806a87: hlt  ; xor eax, eax ; pop ebp ; ret  ;  (1 found)
0x14803807: idiv bh ; push dword [eax+0x01B0C301] ; ret  ;  (1 found)
0x148055f9: imul eax, dword [ebp+0x08], 0x18 ; add eax, 0x14813D00 ; push eax ; call dword [0x1480D078] ;  (1 found)
0x14805641: imul eax, dword [ebp+0x08], 0x18 ; add eax, 0x14813D00 ; push eax ; call dword [0x1480D07C] ;  (1 found)
0x148057d9: imul eax, eax, 0x30 ; add eax, dword [0x14813E58+ecx*4] ; push eax ; call dword [0x1480D078] ;  (1 found)
0x148057fc: imul eax, eax, 0x30 ; add eax, dword [0x14813E58+ecx*4] ; push eax ; call dword [0x1480D07C] ;  (1 found)
0x148022e5: imul eax, esi, 0x18 ; push edi ; lea edi, dword [eax+0x14813AEC] ; push edi ; call dword [0x1480D080] ;  (1 found)
0x14805618: imul eax, esi, 0x18 ; push edi ; lea edi, dword [eax+0x14813CE8] ; push edi ; call dword [0x1480D080] ;  (1 found)
0x148026fe: imul ecx, dword [0x59585051+edx*2], 0x5D ; pop ecx ; pop ebx ; retn 0x0004 ;  (1 found)
0x148081a0: imul ecx, ecx, 0x30 ; mov eax, dword [0x14813E58+eax*4] ; movzx eax, byte [eax+ecx+0x28] ; and eax, 0x40 ; pop ebp ; ret  ;  (1 found)
0x14803e6b: imul edi, ebx, 0x5959FFFF ; pop ebp ; retn 0x0004 ;  (1 found)
0x148077fa: imul edi, esi ; add edi, ecx ; push edi ; push ecx ; mov ecx, ebx ; call dword [0x1480D144] ;  (1 found)
0x14802879: imul esi, ebx, 0xE58BFFFF ; pop ebp ; ret  ;  (1 found)
0x14809eae: in al, 0x0A ; les ecx,  [edi] ; mov esi, 0x04E181C0 ; add al, 0x00 ; add byte [ebx-0x7C27FC26], cl ; ret  ;  (1 found)
0x148032b3: in al, 0x10 ; add byte [eax], al ; push 0x00000016 ; pop eax ; pop ebp ; ret  ;  (1 found)
0x14808d50: in al, 0x50 ; push dword [ebp-0x30] ; call dword [0x1480D0A8] ;  (1 found)
0x14809d54: in al, 0x9B ; fstsw word [ebp-0x000000A0] ; fabs  ; f2xm1  ; ret  ;  (1 found)
0x148031bb: in al, 0xDA ; adc byte [edi+edi*8], 0x00000075 ; clc  ; call dword [0x1480D09C] ;  (1 found)
0x1480b6a0: in al, 0xF8 ; fstp qword [esp] ; cvttsd2si eax, qword [esp] ; leave  ; ret  ;  (1 found)
0x1480371b: in al, 0xFF ; dec dword [ebx-0x743CA21B] ; call dword [ebp-0x75] ;  (1 found)
0x1480967f: in al, dx ; adc byte [ecx-0x74F3DBAC], cl ; aam 0x83 ; retn 0x8914 ;  (1 found)
0x14805910: in al, dx ; dec eax ; lea eax, dword [ebp-0x48] ; push eax ; call dword [0x1480D058] ;  (1 found)
0x1480a397: in al, dx ; fld qword [esi] ; push eax ; fstp qword [ebp-0x0C] ; call dword [0x1480D144] ;  (1 found)
0x1480a2df: in al, dx ; fld qword [esi] ; push eax ; fstp qword [ebp-0x0C] ; call dword [0x1480D144] ;  (1 found)
0x1480a245: in al, dx ; fld qword [esi] ; push eax ; fstp qword [ebp-0x0C] ; call dword [0x1480D144] ;  (1 found)
0x148055f8: in al, dx ; imul eax, dword [ebp+0x08], 0x18 ; add eax, 0x14813D00 ; push eax ; call dword [0x1480D078] ;  (1 found)
0x14805640: in al, dx ; imul eax, dword [ebp+0x08], 0x18 ; add eax, 0x14813D00 ; push eax ; call dword [0x1480D07C] ;  (1 found)
0x1480756c: in al, dx ; mov eax, dword [ebp+0x08] ; add eax, 0x20 ; push eax ; call dword [0x1480D078] ;  (1 found)
0x14807580: in al, dx ; mov eax, dword [ebp+0x08] ; add eax, 0x20 ; push eax ; call dword [0x1480D07C] ;  (1 found)
0x1480288b: in al, dx ; mov eax, dword [ebp+0x08] ; mov dword [0x14813B80], eax ; pop ebp ; ret  ;  (1 found)
0x148031fd: in al, dx ; mov eax, dword [ebp+0x08] ; mov dword [0x14813CA4], eax ; pop ebp ; ret  ;  (1 found)
0x14804315: in al, dx ; mov eax, dword [ebp+0x08] ; mov dword [0x14813CE8], eax ; pop ebp ; ret  ;  (1 found)
0x1480b69d: in al, dx ; or byte [ebx+0x1CDDF8E4], al ; and al, 0xF2 ; cvttps2pi mm0, qword [esp] ; leave  ; ret  ;  (1 found)
0x14801bf9: in al, dx ; push 0x00000000 ; call dword [0x1480D054] ;  (1 found)
0x148016da: in al, dx ; push eax ; call dword [0x1480D038] ;  (1 found)
0x14808d16: in al, dx ; push eax ; push dword [ebp-0x30] ; call dword [0x1480D0A8] ;  (1 found)
0x148093ef: in al, dx ; push ebx ; push ecx ; call dword [0x1480D0A8] ;  (1 found)
0x148051cb: in al, dx ; push ecx ; push ebx ; push esi ; push edi ; call dword [0x1480D0EC] ;  (1 found)
0x1480590e: in al, dx ; sub esp, 0x48 ; lea eax, dword [ebp-0x48] ; push eax ; call dword [0x1480D058] ;  (1 found)
0x148016ea: in al, dx ; xor eax, dword [ebp-0x04] ; xor eax, ecx ; mov esp, ebp ; pop ebp ; ret  ;  (1 found)
0x148030d8: in al, dx ; xor eax, eax ; cmp dword [ebp+0x08], 0xE06D7363 ; sete al ; pop ebp ; ret  ;  (1 found)
0x1480a9b0: in eax, 0x5D ; mov esp, ebx ; pop ebx ; ret  ;  (1 found)
0x1480aac8: in eax, 0x5D ; mov esp, ebx ; pop ebx ; ret  ;  (1 found)
0x14801a36: in eax, 0x5D ; push ecx ; ret  ;  (1 found)
0x148010dc: in eax, 0x5D ; ret  ;  (1 found)
0x1480157b: in eax, 0x5D ; ret  ;  (1 found)
0x148016f1: in eax, 0x5D ; ret  ;  (1 found)
0x148018d9: in eax, 0x5D ; ret  ;  (1 found)
0x14801bd7: in eax, 0x5D ; ret  ;  (1 found)
0x14801e91: in eax, 0x5D ; ret  ;  (1 found)
0x14801d17: in eax, 0x5D ; ret  ;  (1 found)
0x1480287e: in eax, 0x5D ; ret  ;  (1 found)
0x148025ee: in eax, 0x5D ; ret  ;  (1 found)
0x148023c8: in eax, 0x5D ; ret  ;  (1 found)
0x14802bc9: in eax, 0x5D ; ret  ;  (1 found)
0x14802d6c: in eax, 0x5D ; ret  ;  (1 found)
0x14802909: in eax, 0x5D ; ret  ;  (1 found)
0x14802a54: in eax, 0x5D ; ret  ;  (1 found)
0x148031f6: in eax, 0x5D ; ret  ;  (1 found)
0x14802f93: in eax, 0x5D ; ret  ;  (1 found)
0x14802f4e: in eax, 0x5D ; ret  ;  (1 found)
0x14803141: in eax, 0x5D ; ret  ;  (1 found)
0x14803601: in eax, 0x5D ; ret  ;  (1 found)
0x14803764: in eax, 0x5D ; ret  ;  (1 found)
0x1480371f: in eax, 0x5D ; ret  ;  (1 found)
0x148037d6: in eax, 0x5D ; ret  ;  (1 found)
0x148038b7: in eax, 0x5D ; ret  ;  (1 found)
0x14803381: in eax, 0x5D ; ret  ;  (1 found)
0x14803e51: in eax, 0x5D ; ret  ;  (1 found)
0x14803f41: in eax, 0x5D ; ret  ;  (1 found)
0x1480430e: in eax, 0x5D ; ret  ;  (1 found)
0x1480436c: in eax, 0x5D ; ret  ;  (1 found)
0x14804655: in eax, 0x5D ; ret  ;  (1 found)
0x14804706: in eax, 0x5D ; ret  ;  (1 found)
0x14804802: in eax, 0x5D ; ret  ;  (1 found)
0x14804aa0: in eax, 0x5D ; ret  ;  (1 found)
0x14804d22: in eax, 0x5D ; ret  ;  (1 found)
0x14804c99: in eax, 0x5D ; ret  ;  (1 found)
0x1480509b: in eax, 0x5D ; ret  ;  (1 found)
0x14805175: in eax, 0x5D ; ret  ;  (1 found)
0x14805247: in eax, 0x5D ; ret  ;  (1 found)
0x1480547b: in eax, 0x5D ; ret  ;  (1 found)
0x14805525: in eax, 0x5D ; ret  ;  (1 found)
0x148056fd: in eax, 0x5D ; ret  ;  (1 found)
0x14805683: in eax, 0x5D ; ret  ;  (1 found)
0x148059bd: in eax, 0x5D ; ret  ;  (1 found)
0x14805b19: in eax, 0x5D ; ret  ;  (1 found)
0x14805eb9: in eax, 0x5D ; ret  ;  (1 found)
0x148060a0: in eax, 0x5D ; ret  ;  (1 found)
0x14806ab2: in eax, 0x5D ; ret  ;  (1 found)
0x1480709e: in eax, 0x5D ; ret  ;  (1 found)
0x14807286: in eax, 0x5D ; ret  ;  (1 found)
0x148072ee: in eax, 0x5D ; ret  ;  (1 found)
0x1480765f: in eax, 0x5D ; ret  ;  (1 found)
0x1480637c: in eax, 0x5D ; ret  ;  (1 found)
0x148068ce: in eax, 0x5D ; ret  ;  (1 found)
0x1480691b: in eax, 0x5D ; ret  ;  (1 found)
0x14806973: in eax, 0x5D ; ret  ;  (1 found)
0x14807b30: in eax, 0x5D ; ret  ;  (1 found)
0x14807c81: in eax, 0x5D ; ret  ;  (1 found)
0x14807e91: in eax, 0x5D ; ret  ;  (1 found)
0x14807eed: in eax, 0x5D ; ret  ;  (1 found)
0x14807fe0: in eax, 0x5D ; ret  ;  (1 found)
0x1480809c: in eax, 0x5D ; ret  ;  (1 found)
0x14808317: in eax, 0x5D ; ret  ;  (1 found)
0x14808366: in eax, 0x5D ; ret  ;  (1 found)
0x148084f7: in eax, 0x5D ; ret  ;  (1 found)
0x14808523: in eax, 0x5D ; ret  ;  (1 found)
0x14808590: in eax, 0x5D ; ret  ;  (1 found)
0x148085c9: in eax, 0x5D ; ret  ;  (1 found)
0x1480857e: in eax, 0x5D ; ret  ;  (1 found)
0x148087e7: in eax, 0x5D ; ret  ;  (1 found)
0x14808a8c: in eax, 0x5D ; ret  ;  (1 found)
0x14808ad4: in eax, 0x5D ; ret  ;  (1 found)
0x14808beb: in eax, 0x5D ; ret  ;  (1 found)
0x14808daf: in eax, 0x5D ; ret  ;  (1 found)
0x14808e92: in eax, 0x5D ; ret  ;  (1 found)
0x14808e1c: in eax, 0x5D ; ret  ;  (1 found)
0x14808f71: in eax, 0x5D ; ret  ;  (1 found)
0x14807703: in eax, 0x5D ; ret  ;  (1 found)
0x148077ac: in eax, 0x5D ; ret  ;  (1 found)
0x1480a3c8: in eax, 0x5D ; ret  ;  (1 found)
0x1480a592: in eax, 0x5D ; ret  ;  (1 found)
0x1480a481: in eax, 0x5D ; ret  ;  (1 found)
0x1480905f: in eax, 0x5D ; ret  ;  (1 found)
0x1480918c: in eax, 0x5D ; ret  ;  (1 found)
0x14809486: in eax, 0x5D ; ret  ;  (1 found)
0x14809778: in eax, 0x5D ; ret  ;  (1 found)
0x14809922: in eax, 0x5D ; ret  ;  (1 found)
0x1480a77d: in eax, 0x5D ; ret  ;  (1 found)
0x1480a9c9: in eax, 0x5D ; ret  ;  (1 found)
0x1480acb8: in eax, 0x5D ; ret  ;  (1 found)
0x1480b09d: in eax, 0x5D ; ret  ;  (1 found)
0x1480b1a0: in eax, 0x5D ; ret  ;  (1 found)
0x1480b386: in eax, 0x5D ; ret  ;  (1 found)
0x1480b3b7: in eax, 0x5D ; ret  ;  (1 found)
0x14802e65: in eax, 0x5D ; retn 0x0004 ;  (1 found)
0x14806457: in eax, 0x5D ; retn 0x0004 ;  (1 found)
0x14806521: in eax, 0x5D ; retn 0x0004 ;  (1 found)
0x148065cd: in eax, 0x5D ; retn 0x0004 ;  (1 found)
0x14806577: in eax, 0x5D ; retn 0x0004 ;  (1 found)
0x14801036: in eax, 0x5D ; retn 0x0008 ;  (1 found)
0x14806626: in eax, 0x5D ; retn 0x0008 ;  (1 found)
0x14806744: in eax, 0x5D ; retn 0x0008 ;  (1 found)
0x14806688: in eax, 0x5D ; retn 0x000C ;  (1 found)
0x148064cb: in eax, 0x5D ; retn 0x0024 ;  (1 found)
0x148066fc: in eax, 0x5D ; retn 0x0024 ;  (1 found)
0x14801eeb: in eax, dx ; mov al, 0x01 ; ret  ;  (1 found)
0x14802062: in eax, dx ; mov eax, dword [esp+0x04] ; mov edi, edx ; ret  ;  (1 found)
0x1480c47a: in eax, dx ; pop edi ; leave  ; ret  ;  (1 found)
0x148018b5: inc bl ; call dword [0x1480D054] ;  (1 found)
0x14808095: inc byte [eax+0x5B5E5F14] ; mov esp, ebp ; pop ebp ; ret  ;  (1 found)
0x14805aeb: inc byte [eax] ; add al, byte [eax] ; add byte [edx-0x23], dh ; mov al, 0x01 ; pop esi ; ret  ;  (1 found)
0x148077fc: inc byte [ebx] ; stc  ; push edi ; push ecx ; mov ecx, ebx ; call dword [0x1480D144] ;  (1 found)
0x14809f11: inc dword [eax] ; fadd qword [0x14810F4E] ; ret  ;  (1 found)
0x14809f3f: inc dword [eax] ; faddp st1, st0 ; ret  ;  (1 found)
0x14802bc6: inc dword [eax] ; mov esp, ebp ; pop ebp ; ret  ;  (1 found)
0x148049ee: inc dword [eax] ; pop esi ; ret  ;  (1 found)
0x14809f09: inc dword [eax] ; ret  ;  (1 found)
0x1480861f: inc dword [ebp-0x1C] ; mov eax, dword [0x14814164] ; mov eax, dword [eax+esi*4] ; add eax, 0x20 ; push eax ; call dword [0x1480D080] ;  (1 found)
0x14803845: inc dword [ebx+0x01B014C4] ; pop esi ; ret  ;  (1 found)
0x14805d9c: inc dword [ebx+0x5D5E28C4] ; ret  ;  (1 found)
0x148043a6: inc dword [ebx+0x6AC314C4] ; pop ss ; call dword [0x1480D05C] ;  (1 found)
0x14803139: inc dword [ebx+0x7400107D] ; add al, 0x8B ; in eax, 0x5D ; ret  ;  (1 found)
0x148043cb: inc dword [ebx-0x00A9F33C] ; adc eax, 0x1480D064 ; push eax ; call dword [0x1480D068] ;  (1 found)
0x1480773f: inc dword [ebx-0x148AFE12] ; pop esi ; pop edi ; pop ebp ; ret  ;  (1 found)
0x1480729a: inc dword [ebx-0x2708F33C] ; sbb eax, eax ; neg eax ; pop ebp ; ret  ;  (1 found)
0x14807bd9: inc dword [ebx-0x36A1DF3C] ; ret  ;  (1 found)
0x14807449: inc dword [ebx-0x3CA20038] ; mov eax, dword [eax+0x10] ; pop ebp ; ret  ;  (1 found)
0x148080f0: inc dword [ebx-0x3CA20038] ; push dword [ebp+0x08] ; push 0x00000000 ; push dword [0x14814140] ; call dword [0x1480D028] ;  (1 found)
0x14803221: inc dword [ebx-0x743CF33C] ; call dword [ebp-0x75] ;  (1 found)
0x14806828: inc dword [ebx-0x74A0F33C] ; ret  ;  (1 found)
0x14808be5: inc dword [ebx-0x74A10038] ; in eax, 0x5D ; ret  ;  (1 found)
0x1480a58c: inc dword [ebx-0x74A10038] ; in eax, 0x5D ; ret  ;  (1 found)
0x1480755d: inc dword [ebx-0x7EBE9BDB] ; adc al, 0x00 ; pop ecx ; pop esi ; ret  ;  (1 found)
0x14809139: inc dword [ebx] ; ret  ;  (1 found)
0x14809d0e: inc dword [ebx] ; ret  ;  (1 found)
0x14804c44: inc dword [ebx] ; rol dword [ebx], 1  ; retn 0x8589 ;  (1 found)
0x14809c5d: inc dword [ecx+0x75] ; rcr cl, cl ; int1  ; ret  ;  (1 found)
0x14809f7e: inc dword [ecx] ; faddp st1, st0 ; ret  ;  (1 found)
0x14809f9b: inc dword [ecx] ; or cl, cl ; ret  ;  (1 found)
0x14809c69: inc dword [edx] ; fstp st0 ; fld tword [0x14810EDA] ; ret  ;  (1 found)
0x14809c47: inc dword [edx] ; ret  ;  (1 found)
0x148037e0: inc eax ; adc dword [eax+ebp*8], 0x00000100 ; mov al, 0x01 ; ret  ;  (1 found)
0x14804171: inc eax ; adc dword [edi+edx*2], 0xFFFC3FE8 ; call dword [ebx-0x18] ;  (1 found)
0x1480486a: inc eax ; add al, 0x8B ; lea esi, dword [eax+0x2BFFFFFE] ; retn 0xF8C1 ;  (1 found)
0x148035c1: inc eax ; add al, 0xFF ; xor al, ch ; psubd mm7, mm7 ; call dword [ebx-0x77] ;  (1 found)
0x14806d9b: inc eax ; add byte [eax], 0x00000000 ; pop ebp ; ret  ;  (1 found)
0x1480174d: inc eax ; add byte [eax], al ; ret  ;  (1 found)
0x148049eb: inc eax ; dec eax ; lock inc dword [eax] ; pop esi ; ret  ;  (1 found)
0x14806846: inc eax ; inc ecx ; adc dword [eax+eax], 0x8BC301B0 ; call dword [ebp-0x75] ;  (1 found)
0x148080fd: inc eax ; inc ecx ; adc dword [edi+edi*8], 0x80D02815 ; adc al, 0x5D ; ret  ;  (1 found)
0x148060b9: inc eax ; lock xadd dword [ecx+0x000000B0], eax ; inc eax ; pop ebp ; ret  ;  (1 found)
0x1480188c: inc eax ; mov dword [ebp-0x54], 0x00000001 ; mov dword [ebp-0x4C], eax ; call dword [0x1480D04C] ;  (1 found)
0x148060c2: inc eax ; pop ebp ; ret  ;  (1 found)
0x14806d97: inc eax ; pop ebp ; ret  ;  (1 found)
0x148081b1: inc eax ; pop ebp ; ret  ;  (1 found)
0x1480a9e2: inc eax ; pop ebp ; ret  ;  (1 found)
0x1480b23a: inc eax ; pop ebp ; ret  ;  (1 found)
0x1480b1b8: inc eax ; pop ebp ; ret  ;  (1 found)
0x1480b290: inc eax ; pop ebp ; ret  ;  (1 found)
0x1480a679: inc eax ; push 0x14810FE8 ; call dword [0x1480D008] ;  (1 found)
0x14803163: inc eax ; push 0xA808E8C1 ; add dword [ebp+0x10], esi ; push dword [ebp+0x08] ; call dword [0x1480D064] ;  (1 found)
0x14801749: inc eax ; ret  ;  (1 found)
0x148039c6: inc eax ; ret  ;  (1 found)
0x148084ba: inc eax ; ret  ;  (1 found)
0x148016c8: inc eax ; rol byte [eax-0x03BACEEC], 1  ; call dword [0x1480D03C] ;  (1 found)
0x14803357: inc eax ; xchg dword [ecx], eax ; ret  ;  (1 found)
0x14803acd: inc eax ; xor byte [ecx+0x22740214], al ; push 0x00000017 ; call dword [0x1480D05C] ;  (1 found)
0x14808fb0: inc ebp ; adc al, 0x03 ; ret  ;  (1 found)
0x14808ed1: inc ebp ; adc al, 0x83 ; add byte [ebx], al ; ret  ;  (1 found)
0x14802bc4: inc ebp ; adc al, 0xFF ; add byte [ebx-0x743CA21B], cl ; call dword [ebp-0x75] ;  (1 found)
0x14802fce: inc ebp ; adc bh, bh ; xor al, ch ; add byte [eax], al ; pop ecx ; ret  ;  (1 found)
0x1480823e: inc ebp ; adc bh, bh ; xor al, ch ; xor eax, 0x59FFFFF3 ; ret  ;  (1 found)
0x14803b61: inc ebp ; adc byte [ebp+0x5D0275C0], al ; ret  ;  (1 found)
0x1480b097: inc ebp ; and byte [ebx-0x1A74F33C], al ; pop ebp ; ret  ;  (1 found)
0x14803374: inc ebp ; call dword [eax-0x73] ;  (1 found)
0x14806aa5: inc ebp ; call dword [eax-0x73] ;  (1 found)
0x14802b51: inc ebp ; call ecx ;  (1 found)
0x14801a19: inc ebp ; clc  ; lea eax, dword [ebp-0x10] ; mov dword [fs:0x00000000], eax ; ret  ;  (1 found)
0x1480b4dc: inc ebp ; clc  ; lea eax, dword [ebp-0x10] ; mov dword [fs:0x00000000], eax ; ret  ;  (1 found)
0x148010ab: inc ebp ; clc  ; mov ecx, dword [ebp+0x08] ; push ecx ; call dword [0x1480D130] ;  (1 found)
0x1480a9c6: inc ebp ; clc  ; mov esp, ebp ; pop ebp ; ret  ;  (1 found)
0x1480b19d: inc ebp ; clc  ; mov esp, ebp ; pop ebp ; ret  ;  (1 found)
0x148018be: inc ebp ; clc  ; push eax ; call dword [0x1480D050] ;  (1 found)
0x148031a5: inc ebp ; clc  ; push eax ; push 0x1480DACC ; push 0x00000000 ; call dword [0x1480D0BC] ;  (1 found)
0x148016be: inc ebp ; clc  ; xor eax, dword [ebp-0x0C] ; mov dword [ebp-0x04], eax ; call dword [0x1480D040] ;  (1 found)
0x148016cd: inc ebp ; cld  ; call dword [0x1480D03C] ;  (1 found)
0x148016c4: inc ebp ; cld  ; call dword [0x1480D040] ;  (1 found)
0x148018b3: inc ebp ; cld  ; inc bl ; call dword [0x1480D054] ;  (1 found)
0x148016d6: inc ebp ; cld  ; lea eax, dword [ebp-0x14] ; push eax ; call dword [0x1480D038] ;  (1 found)
0x14808520: inc ebp ; cld  ; mov esp, ebp ; pop ebp ; ret  ;  (1 found)
0x148084f4: inc ebp ; cld  ; mov esp, ebp ; pop ebp ; ret  ;  (1 found)
0x1480858d: inc ebp ; cld  ; mov esp, ebp ; pop ebp ; ret  ;  (1 found)
0x14808e76: inc ebp ; cld  ; push eax ; mov eax, dword [0x14813E58+edi*4] ; push dword [eax+esi+0x18] ; call dword [0x1480D018] ;  (1 found)
0x148016ec: inc ebp ; cld  ; xor eax, ecx ; mov esp, ebp ; pop ebp ; ret  ;  (1 found)
0x14806bd3: inc ebp ; fdiv qword [ebx] ; rol byte [ebx-0x6BF0FE08], cl ; retn 0x5589 ;  (1 found)
0x148016b0: inc ebp ; hlt  ; and dword [ebp-0x08], 0x00000000 ; push eax ; call dword [0x1480D044] ;  (1 found)
0x148016c1: inc ebp ; hlt  ; mov dword [ebp-0x04], eax ; call dword [0x1480D040] ;  (1 found)
0x14808363: inc ebp ; hlt  ; mov esp, ebp ; pop ebp ; ret  ;  (1 found)
0x14808d4f: inc ebp ; in al, 0x50 ; push dword [ebp-0x30] ; call dword [0x1480D0A8] ;  (1 found)
0x148016d9: inc ebp ; in al, dx ; push eax ; call dword [0x1480D038] ;  (1 found)
0x14808d15: inc ebp ; in al, dx ; push eax ; push dword [ebp-0x30] ; call dword [0x1480D0A8] ;  (1 found)
0x1480188e: inc ebp ; lodsb  ; add dword [eax], eax ; add byte [eax], al ; mov dword [ebp-0x4C], eax ; call dword [0x1480D04C] ;  (1 found)
0x14801a1c: inc ebp ; mov dword [fs:0x00000000], eax ; ret  ;  (1 found)
0x1480b4df: inc ebp ; mov dword [fs:0x00000000], eax ; ret  ;  (1 found)
0x14803c3e: inc ebp ; or al, 0x5D ; ret  ;  (1 found)
0x14808391: inc ebp ; or al, 0xFF ; add bl, ch ; fidiv word [eax-0x743CA2FF] ; call dword [ebp-0x75] ;  (1 found)
0x1480af03: inc ebp ; or byte [eax+0x6A], dl ; add dword [edx+0x00], ebp ; push edi ; call dword [0x1480D104] ;  (1 found)
0x148055fa: inc ebp ; or byte [eax], bl ; add eax, 0x14813D00 ; push eax ; call dword [0x1480D078] ;  (1 found)
0x14805642: inc ebp ; or byte [eax], bl ; add eax, 0x14813D00 ; push eax ; call dword [0x1480D07C] ;  (1 found)
0x1480a663: inc ebp ; or byte [ebx+0x08870CC0], al ; pop ebp ; ret  ;  (1 found)
0x14804a4a: inc ebp ; or byte [ebx+0x1275FEF8], al ; mov dword [0x14813CF8], 0x00000001 ; call dword [0x1480D0E4] ;  (1 found)
0x1480288d: inc ebp ; or byte [ebx+0x14813B80], ah ; pop ebp ; ret  ;  (1 found)
0x148031ff: inc ebp ; or byte [ebx+0x14813CA4], ah ; pop ebp ; ret  ;  (1 found)
0x14804317: inc ebp ; or byte [ebx+0x14813CE8], ah ; pop ebp ; ret  ;  (1 found)
0x1480756e: inc ebp ; or byte [ebx-0x00AFDF40], al ; adc eax, 0x1480D078 ; pop ebp ; ret  ;  (1 found)
0x14807582: inc ebp ; or byte [ebx-0x00AFDF40], al ; adc eax, 0x1480D07C ; pop ebp ; ret  ;  (1 found)
0x1480add1: inc ebp ; or byte [ebx-0x09F7F3B8], al ; retn 0x7408 ;  (1 found)
0x1480addd: inc ebp ; or byte [ebx-0x09FBF3B8], al ; retn 0x7410 ;  (1 found)
0x1480ade9: inc ebp ; or byte [ebx-0x09FDF3B8], al ; retn 0x7420 ;  (1 found)
0x1480a657: inc ebp ; or byte [ecx+0x458B1848], cl ; or byte [ecx+0x458B1C48], cl ; or byte [ebx+0x08870CC0], al ; pop ebp ; ret  ;  (1 found)
0x1480a65d: inc ebp ; or byte [ecx+0x458B1C48], cl ; or byte [ebx+0x08870CC0], al ; pop ebp ; ret  ;  (1 found)
0x14804474: inc ebp ; or byte [esi+0x05], dh ; or eax, 0xFFFFFFFF ; pop ebp ; ret  ;  (1 found)
0x14808c26: inc ebp ; ror byte [ebx-0x38FCEBBB], 1  ; mov dword [ebp-0x28], eax ; call dword [0x1480D01C] ;  (1 found)
0x1480a8a3: inc ebp ; sbb ch, bl ; sbb byte [ebx], dh ; rcr byte [ebp-0x3D], 0xFFFFFF8B ; call dword [ebx-0x75] ;  (1 found)
0x148026fb: inc ebx ; add al, 0x89 ; imul ecx, dword [0x59585051+edx*2], 0x5D ; pop ecx ; pop ebx ; retn 0x0004 ;  (1 found)
0x14801779: inc ebx ; add byte [eax], al ; add ah, cl ; ret  ;  (1 found)
0x14806a4a: inc ecx ; adc dword [0x414CB8C3+ebx*2], 0xC35D1481 ; mov eax, 0x14814154 ; pop ebp ; ret  ;  (1 found)
0x14806a51: inc ecx ; adc dword [0x4154B8C3+ebx*2], 0xC35D1481 ; mov eax, 0x14814148 ; pop ebp ; ret  ;  (1 found)
0x1480a1c8: inc ecx ; adc dword [eax+eax], 0x10745756 ; push dword [0x14814184] ; call dword [0x1480D010] ;  (1 found)
0x14806847: inc ecx ; adc dword [eax+eax], 0x8BC301B0 ; call dword [ebp-0x75] ;  (1 found)
0x14807560: inc ecx ; adc dword [eax+eax], 0x8BC35E59 ; call dword [ebp-0x75] ;  (1 found)
0x14807561: inc ecx ; adc dword [eax+eax], 0x8BC35E59 ; call dword [ebp-0x75] ;  (1 found)
0x14807555: inc ecx ; adc dword [eax+ebp*8], 0xFFFFC47A ; and dword [0x14814164], 0x00000000 ; pop ecx ; pop esi ; ret  ;  (1 found)
0x14807556: inc ecx ; adc dword [eax+ebp*8], 0xFFFFC47A ; and dword [0x14814164], 0x00000000 ; pop ecx ; pop esi ; ret  ;  (1 found)
0x14806ae6: inc ecx ; adc dword [eax+ebp*8], 0xFFFFCDFA ; pop ebp ; ret  ;  (1 found)
0x14806928: inc ecx ; adc dword [eax+ebp*8], 0xFFFFCFB8 ; pop ebp ; ret  ;  (1 found)
0x14807539: inc ecx ; adc dword [ecx+ebx*2], 0x8306048B ; shl byte [eax], 0x00000050 ; call dword [0x1480D080] ;  (1 found)
0x1480753a: inc ecx ; adc dword [ecx+ebx*2], 0x8306048B ; shl byte [eax], 0x00000050 ; call dword [0x1480D080] ;  (1 found)
0x148080fe: inc ecx ; adc dword [edi+edi*8], 0x80D02815 ; adc al, 0x5D ; ret  ;  (1 found)
0x1480b28f: inc ecx ; inc eax ; pop ebp ; ret  ;  (1 found)
0x1480adb1: inc ecx ; or byte [ebx], ah ; ret  ;  (1 found)
0x148035f9: inc ecx ; or byte [ebx], dh ; rcr byte [edi+0x5B], 0x0000005E ; mov esp, ebp ; pop ebp ; ret  ;  (1 found)
0x1480200c: inc edi ; adc byte [ebx-0x74FBDBBC], cl ; cli  ; ret  ;  (1 found)
0x14806cf6: inc edi ; add byte [eax], al ; ret  ;  (1 found)
0x14806cf5: inc edi ; add byte [eax], al ; ret  ;  (1 found)
0x148080e5: inc edi ; add byte [esi], dl ; add byte [eax], al ; add al, ch ; stosb  ; retn 0xFFFF ;  (1 found)
0x1480ba2a: inc edi ; add cl, byte [ebx+0x5E0C2444] ; pop edi ; ret  ;  (1 found)
0x1480bac2: inc edi ; add cl, byte [ebx+0x5E0C2444] ; pop edi ; ret  ;  (1 found)
0x1480c0da: inc edi ; add cl, byte [ebx+0x5E0C2444] ; pop edi ; ret  ;  (1 found)
0x1480c172: inc edi ; add cl, byte [ebx+0x5E0C2444] ; pop edi ; ret  ;  (1 found)
0x1480bad6: inc edi ; add cl, byte [edx+0x47880146] ; add dword [ebx+0x5E0C2444], ecx ; pop edi ; ret  ;  (1 found)
0x1480c186: inc edi ; add cl, byte [edx+0x47880146] ; add dword [ebx+0x5E0C2444], ecx ; pop edi ; ret  ;  (1 found)
0x1480ba10: inc edi ; add dword [ebx+0x5E0C2444], ecx ; pop edi ; ret  ;  (1 found)
0x1480badc: inc edi ; add dword [ebx+0x5E0C2444], ecx ; pop edi ; ret  ;  (1 found)
0x1480c0c0: inc edi ; add dword [ebx+0x5E0C2444], ecx ; pop edi ; ret  ;  (1 found)
0x1480c18c: inc edi ; add dword [ebx+0x5E0C2444], ecx ; pop edi ; ret  ;  (1 found)
0x1480ba24: inc edi ; add dword [edx+0x47880246], ecx ; add cl, byte [ebx+0x5E0C2444] ; pop edi ; ret  ;  (1 found)
0x1480c0d4: inc edi ; add dword [edx+0x47880246], ecx ; add cl, byte [ebx+0x5E0C2444] ; pop edi ; ret  ;  (1 found)
0x1480baac: inc edi ; add ecx, dword [ebx+0x5E0C2444] ; pop edi ; ret  ;  (1 found)
0x1480c15c: inc edi ; add ecx, dword [ebx+0x5E0C2444] ; pop edi ; ret  ;  (1 found)
0x1480babc: inc edi ; add ecx, dword [edx+0x47880246] ; add cl, byte [ebx+0x5E0C2444] ; pop edi ; ret  ;  (1 found)
0x1480c16c: inc edi ; add ecx, dword [edx+0x47880246] ; add cl, byte [ebx+0x5E0C2444] ; pop edi ; ret  ;  (1 found)
0x1480bad0: inc edi ; add ecx, dword [edx+0x47880246] ; add cl, byte [edx+0x47880146] ; add dword [ebx+0x5E0C2444], ecx ; pop edi ; ret  ;  (1 found)
0x1480c180: inc edi ; add ecx, dword [edx+0x47880246] ; add cl, byte [edx+0x47880146] ; add dword [ebx+0x5E0C2444], ecx ; pop edi ; ret  ;  (1 found)
0x14803c0e: inc edi ; or al, 0x01 ; mov eax, edi ; pop edi ; pop ebp ; retn 0x0004 ;  (1 found)
0x14807382: inc edi ; push edi ; push esi ; push 0x00000009 ; push dword [eax+0x08] ; call dword [0x1480D0B0] ;  (1 found)
0x148051c2: inc edx ; add bl, byte [edi+0x5D] ; ret  ;  (1 found)
0x1480be25: inc edx ; cld  ; pop esi ; pop edi ; pop ebx ; ret  ;  (1 found)
0x14801458: inc edx ; or al, 0x3B ; enter 0x0C72, 0x83 ; retn 0x3B28 ;  (1 found)
0x14801455: inc edx ; or byte [ebx], al ; inc edx ; or al, 0x3B ; enter 0x0C72, 0x83 ; retn 0x3B28 ;  (1 found)
0x1480c477: inc edx ; sal dword [ebp-0x13], 0x5F ; leave  ; ret  ;  (1 found)
0x1480be1e: inc edx ; std  ; pop esi ; pop edi ; pop ebx ; ret  ;  (1 found)
0x1480ba27: inc esi ; add cl, byte [eax+0x448B0247] ; and al, 0x0C ; pop esi ; pop edi ; ret  ;  (1 found)
0x1480babf: inc esi ; add cl, byte [eax+0x448B0247] ; and al, 0x0C ; pop esi ; pop edi ; ret  ;  (1 found)
0x1480c0d7: inc esi ; add cl, byte [eax+0x448B0247] ; and al, 0x0C ; pop esi ; pop edi ; ret  ;  (1 found)
0x1480c16f: inc esi ; add cl, byte [eax+0x448B0247] ; and al, 0x0C ; pop esi ; pop edi ; ret  ;  (1 found)
0x1480ba0d: inc esi ; add dword [eax+0x448B0147], ecx ; and al, 0x0C ; pop esi ; pop edi ; ret  ;  (1 found)
0x1480bad9: inc esi ; add dword [eax+0x448B0147], ecx ; and al, 0x0C ; pop esi ; pop edi ; ret  ;  (1 found)
0x1480c0bd: inc esi ; add dword [eax+0x448B0147], ecx ; and al, 0x0C ; pop esi ; pop edi ; ret  ;  (1 found)
0x1480c189: inc esi ; add dword [eax+0x448B0147], ecx ; and al, 0x0C ; pop esi ; pop edi ; ret  ;  (1 found)
0x14801276: inc esi ; add eax, 0xE8CC0000 ; or eax, dword [0xC0330000] ; ret  ;  (1 found)
0x1480baa9: inc esi ; add ecx, dword [eax+0x448B0347] ; and al, 0x0C ; pop esi ; pop edi ; ret  ;  (1 found)
0x1480c159: inc esi ; add ecx, dword [eax+0x448B0347] ; and al, 0x0C ; pop esi ; pop edi ; ret  ;  (1 found)
0x14807bd8: inc esi ; inc dword [ebx-0x36A1DF3C] ; ret  ;  (1 found)
0x1480567e: inc esi ; mov eax, esi ; pop esi ; mov esp, ebp ; pop ebp ; ret  ;  (1 found)
0x148086a4: inc esi ; or byte [edi+0x5E], bl ; pop ebp ; ret  ;  (1 found)
0x14809aaf: inc esp ; and al, 0x04 ; add esp, 0x10 ; ret  ;  (1 found)
0x14809aab: inc esp ; and al, 0x04 ; fld qword [esp+0x04] ; add esp, 0x10 ; ret  ;  (1 found)
0x14802064: inc esp ; and al, 0x04 ; mov edi, edx ; ret  ;  (1 found)
0x14801f4f: inc esp ; and al, 0x04 ; mov edi, edx ; ret  ;  (1 found)
0x1480200f: inc esp ; and al, 0x04 ; mov edi, edx ; ret  ;  (1 found)
0x1480b511: inc esp ; and al, 0x04 ; mul ecx ; retn 0x0010 ;  (1 found)
0x1480966f: inc esp ; and al, 0x04 ; ret  ;  (1 found)
0x148096d6: inc esp ; and al, 0x04 ; ret  ;  (1 found)
0x1480969e: inc esp ; and al, 0x04 ; ret  ;  (1 found)
0x148096f9: inc esp ; and al, 0x04 ; ret  ;  (1 found)
0x14802137: inc esp ; and al, 0x08 ; mov edx, dword [esp+0x10] ; mov dword [edx], eax ; mov eax, 0x00000003 ; ret  ;  (1 found)
0x14802627: inc esp ; and al, 0x08 ; mov edx, dword [esp+0x10] ; mov dword [edx], eax ; mov eax, 0x00000003 ; ret  ;  (1 found)
0x1480b529: inc esp ; and al, 0x08 ; mul ecx ; add edx, ebx ; pop ebx ; retn 0x0010 ;  (1 found)
0x1480a06a: inc esp ; and al, 0x08 ; ret  ;  (1 found)
0x1480be81: inc esp ; and al, 0x0C ; pop esi ; pop edi ; ret  ;  (1 found)
0x1480ba01: inc esp ; and al, 0x0C ; pop esi ; pop edi ; ret  ;  (1 found)
0x1480ba13: inc esp ; and al, 0x0C ; pop esi ; pop edi ; ret  ;  (1 found)
0x1480b9f5: inc esp ; and al, 0x0C ; pop esi ; pop edi ; ret  ;  (1 found)
0x1480ba2d: inc esp ; and al, 0x0C ; pop esi ; pop edi ; ret  ;  (1 found)
0x1480baaf: inc esp ; and al, 0x0C ; pop esi ; pop edi ; ret  ;  (1 found)
0x1480baa1: inc esp ; and al, 0x0C ; pop esi ; pop edi ; ret  ;  (1 found)
0x1480bac5: inc esp ; and al, 0x0C ; pop esi ; pop edi ; ret  ;  (1 found)
0x1480badf: inc esp ; and al, 0x0C ; pop esi ; pop edi ; ret  ;  (1 found)
0x1480bbc5: inc esp ; and al, 0x0C ; pop esi ; pop edi ; ret  ;  (1 found)
0x1480bcb1: inc esp ; and al, 0x0C ; pop esi ; pop edi ; ret  ;  (1 found)
0x1480b7d1: inc esp ; and al, 0x0C ; pop esi ; pop edi ; ret  ;  (1 found)
0x1480c0a5: inc esp ; and al, 0x0C ; pop esi ; pop edi ; ret  ;  (1 found)
0x1480c0b1: inc esp ; and al, 0x0C ; pop esi ; pop edi ; ret  ;  (1 found)
0x1480c0c3: inc esp ; and al, 0x0C ; pop esi ; pop edi ; ret  ;  (1 found)
0x1480c0dd: inc esp ; and al, 0x0C ; pop esi ; pop edi ; ret  ;  (1 found)
0x1480c151: inc esp ; and al, 0x0C ; pop esi ; pop edi ; ret  ;  (1 found)
0x1480c175: inc esp ; and al, 0x0C ; pop esi ; pop edi ; ret  ;  (1 found)
0x1480c15f: inc esp ; and al, 0x0C ; pop esi ; pop edi ; ret  ;  (1 found)
0x1480c361: inc esp ; and al, 0x0C ; pop esi ; pop edi ; ret  ;  (1 found)
0x1480c18f: inc esp ; and al, 0x0C ; pop esi ; pop edi ; ret  ;  (1 found)
0x1480c275: inc esp ; and al, 0x0C ; pop esi ; pop edi ; ret  ;  (1 found)
0x14809b90: inc esp ; and al, 0x10 ; add esp, 0x1C ; ret  ;  (1 found)
0x1480117e: inc esp ; and al, 0x10 ; push 0x00000010 ; push eax ; push edi ; call dword [0x1480D114] ;  (1 found)
0x14801164: inc esp ; and al, 0x14 ; call dword [0x1480D11C] ;  (1 found)
0x14801170: inc esp ; and al, 0x16 ; call dword [0x1480D118] ;  (1 found)
0x14801110: inc esp ; and al, 0x20 ; push eax ; push 0x00000202 ; call dword [0x1480D12C] ;  (1 found)
0x14806927: inc esp ; inc ecx ; adc dword [eax+ebp*8], 0xFFFFCFB8 ; pop ebp ; ret  ;  (1 found)
0x148058e8: inc esp ; or byte [eax], bl ; pop ebp ; ret  ;  (1 found)
0x148081ac: inc esp ; or byte [eax], ch ; and eax, 0x40 ; pop ebp ; ret  ;  (1 found)
0x1480c438: inc esp ; retn 0xC95F ;  (1 found)
0x148016b9: inc esp ; rol byte [eax-0x07BA74EC], 1  ; xor eax, dword [ebp-0x0C] ; mov dword [ebp-0x04], eax ; call dword [0x1480D040] ;  (1 found)
0x148039bc: inc esp ; rol dword [eax-0x142900EC], 1  ; pop es ; xor eax, eax ; inc eax ; ret  ;  (1 found)
0x14806507: inc esp ; rol dword [eax-0x142900EC], 1  ; push es ; call dword [0x1480D088] ;  (1 found)
0x148065b3: inc esp ; rol dword [eax-0x142900EC], 1  ; push es ; call dword [0x1480D08C] ;  (1 found)
0x1480660c: inc esp ; rol dword [eax-0x142900EC], 1  ; push es ; call dword [0x1480D090] ;  (1 found)
0x1480655d: inc esp ; rol dword [eax-0x142900EC], 1  ; push es ; call dword [0x1480D094] ;  (1 found)
0x148041ce: inc esp ; xor byte [ecx+0x01B0FF14], al ; ret  ;  (1 found)
0x14809ff8: insb  ; and al, 0x06 ; ret  ;  (1 found)
0x1480a1c7: insb  ; inc ecx ; adc dword [eax+eax], 0x10745756 ; push dword [0x14814184] ; call dword [0x1480D010] ;  (1 found)
0x1480126c: insb  ; push es ; add byte [eax], al ; xor eax, eax ; ret  ;  (1 found)
0x148021b5: insb  ; rol byte [eax+0x5B5E5F14], 1  ; pop ebp ; ret  ;  (1 found)
0x148025e5: insb  ; rol byte [eax+0x5E5F5D14], 1  ; pop ebx ; mov esp, ebp ; pop ebp ; ret  ;  (1 found)
0x1480851c: insd  ; clc  ; movsx eax, word [ebp-0x04] ; mov esp, ebp ; pop ebp ; ret  ;  (1 found)
0x1480a1af: insd  ; or cl, cl ; ret  ;  (1 found)
0x14808093: int 0x0C ; inc byte [eax+0x5B5E5F14] ; mov esp, ebp ; pop ebp ; ret  ;  (1 found)
0x14802203: int 0x29 ; pop ebp ; ret  ;  (1 found)
0x14802230: int 0x29 ; pop ebp ; ret  ;  (1 found)
0x1480b1fc: int 0x33 ; rcr byte [ebp-0x3D], 0xFFFFFF8B ; call dword [ebp-0x75] ;  (1 found)
0x14805eb2: int 0xE8 ; mov ebp, 0xE58BFFFF ; pop ebp ; ret  ;  (1 found)
0x14807bd6: int1  ; lea eax, dword [esi-0x01] ; add esp, 0x20 ; pop esi ; leave  ; ret  ;  (1 found)
0x1480bbc3: int1  ; mov eax, dword [esp+0x0C] ; pop esi ; pop edi ; ret  ;  (1 found)
0x1480c273: int1  ; mov eax, dword [esp+0x0C] ; pop esi ; pop edi ; ret  ;  (1 found)
0x14809c62: int1  ; ret  ;  (1 found)
0x14809c86: int1  ; ret  ;  (1 found)
0x148062b3: int3  ; add byte [eax], al ; add byte [ebx-0x743CEF3C], al ; call dword [ebp-0x75] ;  (1 found)
0x1480196f: int3  ; and dword [0x148137B0], 0x00000000 ; ret  ;  (1 found)
0x14806916: int3  ; mov dl, 0xFF ; dec dword [ebx-0x743CA21B] ; call dword [ebp-0x75] ;  (1 found)
0x148040dc: int3  ; mov edi, edi ; push ebx ; push esi ; push edi ; call dword [0x1480D070] ;  (1 found)
0x1480ba9c: int3  ; mov edx, 0x448B1480 ; and al, 0x0C ; pop esi ; pop edi ; ret  ;  (1 found)
0x148010df: int3  ; push 0x00000000 ; push 0x148119C8 ; push 0x148119D4 ; push 0x00000000 ; call dword [0x1480D10C] ;  (1 found)
0x1480177d: int3  ; ret  ;  (1 found)
0x1480c0a0: int3  ; rol byte [eax+0x24448B14], 0x0000000C ; pop esi ; pop edi ; ret  ;  (1 found)
0x14809ec4: into  ; add byte [eax], al ; add cl, bl ; leave  ; fstp st0 ; ret  ;  (1 found)
0x148028f3: into  ; call dword [0x1480D144] ;  (1 found)
0x148031d2: into  ; call dword [0x1480D144] ;  (1 found)
0x14803684: into  ; call dword [0x1480D144] ;  (1 found)
0x148039b9: into  ; call dword [0x1480D144] ;  (1 found)
0x14804354: into  ; call dword [0x1480D144] ;  (1 found)
0x1480655a: into  ; call dword [0x1480D144] ;  (1 found)
0x14806504: into  ; call dword [0x1480D144] ;  (1 found)
0x14806609: into  ; call dword [0x1480D144] ;  (1 found)
0x148065b0: into  ; call dword [0x1480D144] ;  (1 found)
0x14806952: into  ; call dword [0x1480D144] ;  (1 found)
0x14807937: into  ; call dword [0x1480D144] ;  (1 found)
0x14803682: into  ; mov ecx, esi ; call dword [0x1480D144] ;  (1 found)
0x14806439: into  ; push 0xFFFFFFFA ; call dword [0x1480D144] ;  (1 found)
0x14806721: into  ; push dword [ebp+0x08] ; call dword [0x1480D144] ;  (1 found)
0x1480665f: into  ; push dword [ebp+0x0C] ; push dword [ebp+0x08] ; call dword [0x1480D144] ;  (1 found)
0x1480b9d5: jmp dword [0x1480B9E4+edx*4] ;  (1 found)
0x1480b9dc: jmp dword [0x1480B9F4+ecx*4] ;  (1 found)
0x1480ba88: jmp dword [0x1480BA90+edx*4] ;  (1 found)
0x1480c085: jmp dword [0x1480C094+edx*4] ;  (1 found)
0x1480c08c: jmp dword [0x1480C0A4+ecx*4] ;  (1 found)
0x1480c138: jmp dword [0x1480C140+edx*4] ;  (1 found)
0x1480b2a5: jmp dword [0x1480D05C] ;  (1 found)
0x14802483: jmp dword [0x1480D088] ;  (1 found)
0x148019ce: jmp dword [0x1480D144] ;  (1 found)
0x14804b61: jmp dword [eax] ;  (1 found)
0x14804b78: jmp dword [eax] ;  (1 found)
0x14802ee9: jmp dword [ebx+0x14813C9C] ;  (1 found)
0x1480394d: jmp dword [ebx] ;  (1 found)
0x14809e35: jmp dword [ebx] ;  (1 found)
0x14809ec1: jmp dword [ebx] ;  (1 found)
0x1480bd2c: jmp dword [ebx] ;  (1 found)
0x1480c482: jmp dword [ebx] ;  (1 found)
0x14802c25: jmp dword [ecx+0x14813C90] ;  (1 found)
0x1480594f: jmp dword [ecx+0x14814058] ;  (1 found)
0x14805a52: jmp dword [ecx+0x14814164] ;  (1 found)
0x148074d5: jmp dword [ecx+0x14814164] ;  (1 found)
0x1480bbef: jmp dword [esi+0x0F] ;  (1 found)
0x1480bf0b: jmp dword [esi+0x0F] ;  (1 found)
0x1480b85b: jmp dword [esi+0x0F] ;  (1 found)
0x1480b90f: jmp dword [esi+0x0F] ;  (1 found)
0x1480bfbf: jmp dword [esi+0x0F] ;  (1 found)
0x1480c29f: jmp dword [esi+0x0F] ;  (1 found)
0x1480519a: jmp dword [esi+0x39] ;  (1 found)
0x14801823: jmp dword [esi-0x74] ;  (1 found)
0x1480182a: jmp dword [esi-0x74] ;  (1 found)
0x14801838: jmp dword [esi-0x74] ;  (1 found)
0x14801831: jmp dword [esi-0x74] ;  (1 found)
0x1480181c: jmp dword [esi-0x74] ;  (1 found)
0x1480183f: jmp dword [esi-0x74] ;  (1 found)
0x1480425c: jmp dword [esi-0x74] ;  (1 found)
0x14804263: jmp dword [esi-0x74] ;  (1 found)
0x14804271: jmp dword [esi-0x74] ;  (1 found)
0x1480427f: jmp dword [esi-0x74] ;  (1 found)
0x1480426a: jmp dword [esi-0x74] ;  (1 found)
0x14804278: jmp dword [esi-0x74] ;  (1 found)
0x1480b9a5: jmp eax ;  (1 found)
0x1480c055: jmp eax ;  (1 found)
0x1480219f: jmp esi ;  (1 found)
0x148010cf: jmp esp ;  (1 found)
0x1480573d: lahf  ; retn 0xFFFF ;  (1 found)
0x148081b5: lahf  ; retn 0xFFFF ;  (1 found)
0x14805de4: lds eax,  [ecx] ; add byte [eax], al ; add byte [eax+0x53], dl ; call dword [0x1480D0B0] ;  (1 found)
0x14807ce6: lds eax,  [ecx] ; add byte [eax], al ; add byte [eax+0x57], dl ; call dword [0x1480D0B0] ;  (1 found)
0x14809b05: lds eax, edx ; add byte [ebx+0x077400F8], al ; fld qword [0x14810E78] ; ret  ;  (1 found)
0x1480a1c1: lds ecx,  [ecx+0x3D83FC45] ; insb  ; inc ecx ; adc dword [eax+eax], 0x10745756 ; push dword [0x14814184] ; call dword [0x1480D010] ;  (1 found)
0x14807761: lds ecx,  [ecx+0x4D8BFC45] ; or byte [ecx-0x0000FF73], cl ; call dword [ebx-0x75] ;  (1 found)
0x1480441b: lds esi,  [ebx+ebx*8-0x80] ; adc al, 0x5D ; ret  ;  (1 found)
0x14805de2: lea eax, dword [0x00000001+eax*8] ; push eax ; push ebx ; call dword [0x1480D0B0] ;  (1 found)
0x14807ce4: lea eax, dword [0x00000001+eax*8] ; push eax ; push edi ; call dword [0x1480D0B0] ;  (1 found)
0x1480af02: lea eax, dword [ebp+0x08] ; push eax ; push 0x00000001 ; push 0x00000000 ; push edi ; call dword [0x1480D104] ;  (1 found)
0x1480484f: lea eax, dword [ebp-0x00000144] ; push eax ; push esi ; call dword [0x1480D0DC] ;  (1 found)
0x148018aa: lea eax, dword [ebp-0x00000324] ; sbb bl, bl ; mov dword [ebp-0x04], eax ; inc bl ; call dword [0x1480D054] ;  (1 found)
0x148042de: lea eax, dword [ebp-0x00000328] ; push eax ; call dword [0x1480D050] ;  (1 found)
0x14804b22: lea eax, dword [ebp-0x00000718] ; push edi ; push eax ; push dword [esi+0x04] ; call dword [0x1480D0E8] ;  (1 found)
0x14808f28: lea eax, dword [ebp-0x00001404] ; push eax ; push ecx ; call dword [0x1480D0A8] ;  (1 found)
0x14809015: lea eax, dword [ebp-0x00001404] ; push esi ; push eax ; push ecx ; call dword [0x1480D0A8] ;  (1 found)
0x14809134: lea eax, dword [ebp-0x00001408] ; add eax, ebx ; push eax ; push dword [ebp-0x00001410] ; call dword [0x1480D0A8] ;  (1 found)
0x14808e75: lea eax, dword [ebp-0x04] ; push eax ; mov eax, dword [0x14813E58+edi*4] ; push dword [eax+esi+0x18] ; call dword [0x1480D018] ;  (1 found)
0x148018bd: lea eax, dword [ebp-0x08] ; push eax ; call dword [0x1480D050] ;  (1 found)
0x148031a4: lea eax, dword [ebp-0x08] ; push eax ; push 0x1480DACC ; push 0x00000000 ; call dword [0x1480D0BC] ;  (1 found)
0x148016af: lea eax, dword [ebp-0x0C] ; and dword [ebp-0x08], 0x00000000 ; push eax ; call dword [0x1480D044] ;  (1 found)
0x14801a1b: lea eax, dword [ebp-0x10] ; mov dword [fs:0x00000000], eax ; ret  ;  (1 found)
0x1480b4de: lea eax, dword [ebp-0x10] ; mov dword [fs:0x00000000], eax ; ret  ;  (1 found)
0x148016d8: lea eax, dword [ebp-0x14] ; push eax ; call dword [0x1480D038] ;  (1 found)
0x14808d14: lea eax, dword [ebp-0x14] ; push eax ; push dword [ebp-0x30] ; call dword [0x1480D0A8] ;  (1 found)
0x14804f2f: lea eax, dword [ebp-0x18] ; push eax ; push ebx ; call dword [0x1480D0E8] ;  (1 found)
0x14808cf3: lea eax, dword [ebp-0x18] ; push eax ; push ecx ; push dword [ebp-0x38] ; call dword [0x1480D0B4] ;  (1 found)
0x14808d4e: lea eax, dword [ebp-0x1C] ; push eax ; push dword [ebp-0x30] ; call dword [0x1480D0A8] ;  (1 found)
0x1480a392: lea eax, dword [ebp-0x24] ; fstp qword [ebp-0x14] ; fld qword [esi] ; push eax ; fstp qword [ebp-0x0C] ; call dword [0x1480D144] ;  (1 found)
0x1480a240: lea eax, dword [ebp-0x24] ; fstp qword [ebp-0x14] ; fld qword [esi] ; push eax ; fstp qword [ebp-0x0C] ; call dword [0x1480D144] ;  (1 found)
0x1480a2da: lea eax, dword [ebp-0x24] ; fstp qword [ebp-0x14] ; fld qword [esi] ; push eax ; fstp qword [ebp-0x0C] ; call dword [0x1480D144] ;  (1 found)
0x148093e9: lea eax, dword [ebp-0x28] ; push eax ; push dword [ebp-0x14] ; push ebx ; push ecx ; call dword [0x1480D0A8] ;  (1 found)
0x14805912: lea eax, dword [ebp-0x48] ; push eax ; call dword [0x1480D058] ;  (1 found)
0x1480b271: lea eax, dword [ecx+0x00000080] ; pop ebp ; ret  ;  (1 found)
0x1480b29d: lea eax, dword [ecx+0x00000100] ; pop ebp ; ret  ;  (1 found)
0x1480b28e: lea eax, dword [ecx+0x40] ; pop ebp ; ret  ;  (1 found)
0x148051c1: lea eax, dword [edx+0x02] ; pop edi ; pop ebp ; ret  ;  (1 found)
0x1480bde2: lea eax, dword [edx-0x01] ; pop ebx ; ret  ;  (1 found)
0x1480be11: lea eax, dword [edx-0x01] ; pop ebx ; ret  ;  (1 found)
0x1480be16: lea eax, dword [edx-0x02] ; pop esi ; pop edi ; pop ebx ; ret  ;  (1 found)
0x1480be1d: lea eax, dword [edx-0x03] ; pop esi ; pop edi ; pop ebx ; ret  ;  (1 found)
0x1480be24: lea eax, dword [edx-0x04] ; pop esi ; pop edi ; pop ebx ; ret  ;  (1 found)
0x14807bd7: lea eax, dword [esi-0x01] ; add esp, 0x20 ; pop esi ; leave  ; ret  ;  (1 found)
0x1480117d: lea eax, dword [esp+0x10] ; push 0x00000010 ; push eax ; push edi ; call dword [0x1480D114] ;  (1 found)
0x1480110f: lea eax, dword [esp+0x20] ; push eax ; push 0x00000202 ; call dword [0x1480D12C] ;  (1 found)
0x1480972b: lea ecx, dword [ebp-0x08] ; push ecx ; push dword [ebp+0x10] ; push dword [ebp+0x0C] ; push eax ; call dword [0x1480D014] ;  (1 found)
0x14808891: lea ecx, dword [ebp-0x18] ; push ecx ; push eax ; call dword [0x1480D0E8] ;  (1 found)
0x1480bcad: lea ecx, dword [ecx+0x00] ; mov eax, dword [esp+0x0C] ; pop esi ; pop edi ; ret  ;  (1 found)
0x1480c35d: lea ecx, dword [ecx+0x00] ; mov eax, dword [esp+0x0C] ; pop esi ; pop edi ; ret  ;  (1 found)
0x1480769d: lea ecx, dword [ecx+0x00] ; mov ecx, dword [ebp+0x14] ; push edi ; push esi ; call dword [0x1480D144] ;  (1 found)
0x148022e9: lea edi, dword [eax+0x14813AEC] ; push edi ; call dword [0x1480D080] ;  (1 found)
0x1480561c: lea edi, dword [eax+0x14813CE8] ; push edi ; call dword [0x1480D080] ;  (1 found)
0x14802001: lea edi, dword [ecx+edi-0x20] ; movdqu  [edi], xmm0 ; movdqu  [edi+0x10], xmm0 ; mov eax, dword [esp+0x04] ; mov edi, edx ; ret  ;  (1 found)
0x1480b99b: lea edi, dword [edi+0x08] ; mov eax, dword [0x1480B9E4+ecx*4] ; jmp eax ;  (1 found)
0x1480c04b: lea edi, dword [edi+0x08] ; mov eax, dword [0x1480C094+ecx*4] ; jmp eax ;  (1 found)
0x14801099: lea edx, dword [ebp-0x00001110] ; push edx ; mov eax, dword [ebp+0x08] ; push eax ; call dword [0x1480D134] ;  (1 found)
0x14802247: lea edx, dword [edi] ; add byte [eax], al ; pop ecx ; pop ebp ; retn 0x0004 ;  (1 found)
0x1480486d: lea esi, dword [eax+0x2BFFFFFE] ; retn 0xF8C1 ;  (1 found)
0x1480b994: lea esi, dword [esi+0x08] ; movq qword [edi], xmm1 ; lea edi, dword [edi+0x08] ; mov eax, dword [0x1480B9E4+ecx*4] ; jmp eax ;  (1 found)
0x1480c044: lea esi, dword [esi+0x08] ; movq qword [edi], xmm1 ; lea edi, dword [edi+0x08] ; mov eax, dword [0x1480C094+ecx*4] ; jmp eax ;  (1 found)
0x1480bca6: lea esp, dword [esp+0x00000000] ; lea ecx, dword [ecx+0x00] ; mov eax, dword [esp+0x0C] ; pop esi ; pop edi ; ret  ;  (1 found)
0x1480c356: lea esp, dword [esp+0x00000000] ; lea ecx, dword [ecx+0x00] ; mov eax, dword [esp+0x0C] ; pop esi ; pop edi ; ret  ;  (1 found)
0x14801ed1: leave  ; add eax, dword [eax] ; add byte [eax+eax*8-0x3FCDFC8B], al ; ret  ;  (1 found)
0x1480b296: leave  ; and ecx, 0xFFFFFF08 ; lea eax, dword [ecx+0x00000100] ; pop ebp ; ret  ;  (1 found)
0x1480b26d: leave  ; and ecx, 0xFFFFFF90 ; lea eax, dword [ecx+0x00000080] ; pop ebp ; ret  ;  (1 found)
0x1480b28a: leave  ; and ecx, 0xFFFFFFE0 ; lea eax, dword [ecx+0x40] ; pop ebp ; ret  ;  (1 found)
0x1480c436: leave  ; cmove eax, edx ; pop edi ; leave  ; ret  ;  (1 found)
0x1480bd61: leave  ; cmp dl, byte [eax] ; cmovne eax, ecx ; ret  ;  (1 found)
0x148015f1: leave  ; cmp dword [eax], 0xC0000005 ; sete cl ; mov eax, ecx ; ret  ;  (1 found)
0x1480b38f: leave  ; cmp dword [eax], 0xC0000005 ; sete cl ; mov eax, ecx ; ret  ;  (1 found)
0x14809ec9: leave  ; fstp st0 ; ret  ;  (1 found)
0x14807bde: leave  ; ret  ;  (1 found)
0x148098ef: leave  ; ret  ;  (1 found)
0x14809956: leave  ; ret  ;  (1 found)
0x14809f9e: leave  ; ret  ;  (1 found)
0x14809fbb: leave  ; ret  ;  (1 found)
0x1480a1b1: leave  ; ret  ;  (1 found)
0x1480b6aa: leave  ; ret  ;  (1 found)
0x1480b743: leave  ; ret  ;  (1 found)
0x1480c43b: leave  ; ret  ;  (1 found)
0x1480c47c: leave  ; ret  ;  (1 found)
0x1480c4e5: leave  ; ret  ;  (1 found)
0x14807c8a: leave  ; test al, al ; sete cl ; mov eax, ecx ; ret  ;  (1 found)
0x148081a1: leave  ; xor byte [ebx+0x3E588504], cl ; adc dword [edi+ecx], 0x280844B6 ; and eax, 0x40 ; pop ebp ; ret  ;  (1 found)
0x1480219a: leave  ; xor edx, edx ; xor edi, edi ; jmp esi ;  (1 found)
0x14805d9e: les ebp,  [eax] ; pop esi ; pop ebp ; ret  ;  (1 found)
0x148020fa: les ebx,  [eax] ; pop edi ; pop esi ; pop ebx ; ret  ;  (1 found)
0x148026b4: les ebx,  [eax] ; pop edi ; pop esi ; pop ebx ; ret  ;  (1 found)
0x1480bddb: les ebx,  [esi+0x5F] ; pop ebx ; xor eax, eax ; ret  ;  (1 found)
0x1480a47c: les ebx,  [esi+ebx*2] ; pop ebx ; mov esp, ebp ; pop ebp ; ret  ;  (1 found)
0x14802133: les ecx,  [0x0824448B+ebx*2] ; mov edx, dword [esp+0x10] ; mov dword [edx], eax ; mov eax, 0x00000003 ; ret  ;  (1 found)
0x14804024: les ecx,  [0x560C74FF+eax*4] ; call dword [0x1480D074] ;  (1 found)
0x1480237d: les ecx,  [0x560D74C0+eax*4] ; push esi ; push ebx ; call dword [0x1480D0A0] ;  (1 found)
0x14806331: les ecx,  [0x560D74C0+eax*4] ; push esi ; push ebx ; call dword [0x1480D0A0] ;  (1 found)
0x14804181: les ecx,  [0x568074FF+eax*4] ; call dword [0x1480D074] ;  (1 found)
0x14809917: les ecx,  [0x66E374C0+eax*4] ; mov eax, dword [ebp+0x08] ; mov esp, ebp ; pop ebp ; ret  ;  (1 found)
0x148047b7: les ecx,  [0xFFFEBC85+ecx*4] ; call dword [edi+0x57] ;  (1 found)
0x148074ae: les ecx,  [ebx+eax*4] ; cmp eax, 0x14814164 ; add byte [ebp+0x05], dh ; or eax, 0xFFFFFFFF ; pop esi ; ret  ;  (1 found)
0x14802e0f: les ecx,  [ebx+eax*4] ; mov dword [ecx+edi], 0x33AB751F ; rcr byte [esi+0x5B], 0x0000005F ; ret  ;  (1 found)
0x1480b09a: les ecx,  [ebx+ecx*4] ; in eax, 0x5D ; ret  ;  (1 found)
0x1480abfb: les ecx,  [ecx+eax*4] ; retn 0xFA00 ;  (1 found)
0x1480682a: les ecx,  [edi+ebx*2] ; mov eax, ebx ; pop ebx ; pop esi ; pop ebp ; ret  ;  (1 found)
0x1480729c: les ecx,  [edi+esi*8] ; fcomp dword [ebx] ; sal bh, 0xFFFFFFD8 ; pop ebp ; ret  ;  (1 found)
0x14809eb0: les ecx,  [edi] ; mov esi, 0x04E181C0 ; add al, 0x00 ; add byte [ebx-0x7C27FC26], cl ; ret  ;  (1 found)
0x14801090: les ecx,  [edx+ebp*2] ; add byte [eax+0x00], ch ; adc byte [eax], al ; add byte [ebp-0x00110F6B], cl ; call dword [edx-0x75] ;  (1 found)
0x1480a04d: les ecx,  [edx] ; test eax, 0x00000000 ; mov eax, dword [edx+0x04] ; ret  ;  (1 found)
0x148043cd: les ecx,  [esi+edx*2] ; call dword [0x1480D064] ;  (1 found)
0x14803353: les edi,  [ecx+eax*4] ; adc al, 0x40 ; xchg dword [ecx], eax ; ret  ;  (1 found)
0x1480755b: les edi, edi ; inc dword [ebx-0x7EBE9BDB] ; adc al, 0x00 ; pop ecx ; pop esi ; ret  ;  (1 found)
0x1480969b: les edx,  [eax] ; fld qword [esp+0x04] ; ret  ;  (1 found)
0x14804e8c: les edx,  [eax] ; mov byte [0x14813CFC], 0x00000001 ; pop esi ; mov al, 0x01 ; ret  ;  (1 found)
0x1480518c: les edx,  [eax] ; pop ebp ; ret  ;  (1 found)
0x148073d0: les edx,  [eax] ; pop ebp ; ret  ;  (1 found)
0x14807f15: les edx,  [eax] ; pop ebp ; ret  ;  (1 found)
0x14809792: les edx,  [eax] ; pop ebp ; ret  ;  (1 found)
0x1480872e: les edx,  [eax] ; pop esi ; pop ebp ; ret  ;  (1 found)
0x148062b8: les edx,  [eax] ; ret  ;  (1 found)
0x14806284: les edx,  [eax] ; ret  ;  (1 found)
0x1480629e: les edx,  [eax] ; ret  ;  (1 found)
0x14809ab3: les edx,  [eax] ; ret  ;  (1 found)
0x148043a8: les edx,  [ebx+eax*8] ; push 0x00000017 ; call dword [0x1480D05C] ;  (1 found)
0x14807bdb: les esp,  [eax] ; pop esi ; leave  ; ret  ;  (1 found)
0x1480516a: lock and dword [ecx+0x00000350], 0xFFFFFFFD ; mov eax, edx ; mov esp, ebp ; pop ebp ; ret  ;  (1 found)
0x14807c75: lock and dword [ecx+0x00000350], 0xFFFFFFFD ; mov eax, esi ; pop esi ; mov esp, ebp ; pop ebp ; ret  ;  (1 found)
0x14804a97: lock and dword [ecx+0x00000350], 0xFFFFFFFD ; mov esp, ebp ; pop ebp ; ret  ;  (1 found)
0x14807ee4: lock and dword [ecx+0x00000350], 0xFFFFFFFD ; mov esp, ebp ; pop ebp ; ret  ;  (1 found)
0x148085c0: lock and dword [ecx+0x00000350], 0xFFFFFFFD ; mov esp, ebp ; pop ebp ; ret  ;  (1 found)
0x14808acb: lock and dword [ecx+0x00000350], 0xFFFFFFFD ; mov esp, ebp ; pop ebp ; ret  ;  (1 found)
0x14808418: lock and dword [esi], eax ; xor eax, eax ; pop edi ; pop esi ; pop ebp ; ret  ;  (1 found)
0x148049ed: lock inc dword [eax] ; pop esi ; ret  ;  (1 found)
0x14806113: lock xadd dword [ecx+0x000000B0], eax ; dec eax ; pop ebp ; ret  ;  (1 found)
0x148060ba: lock xadd dword [ecx+0x000000B0], eax ; inc eax ; pop ebp ; ret  ;  (1 found)
0x1480188f: lodsb  ; add dword [eax], eax ; add byte [eax], al ; mov dword [ebp-0x4C], eax ; call dword [0x1480D04C] ;  (1 found)
0x148032e1: lodsb  ; cmp al, 0x81 ; adc al, 0xC3 ; mov eax, 0x14813CB0 ; ret  ;  (1 found)
0x1480b269: maskmovq mm3, mm1 ; sbb ecx, ecx ; and ecx, 0xFFFFFF90 ; lea eax, dword [ecx+0x00000080] ; pop ebp ; ret  ;  (1 found)
0x148038af: mov ah, 0x3C ; adc dword [eax+esi*4], 0xE58B5E01 ; pop ebp ; ret  ;  (1 found)
0x14806117: mov al, 0x00 ; add byte [eax], al ; dec eax ; pop ebp ; ret  ;  (1 found)
0x148060be: mov al, 0x00 ; add byte [eax], al ; inc eax ; pop ebp ; ret  ;  (1 found)
0x148014d8: mov al, 0x01 ; pop ebp ; ret  ;  (1 found)
0x14801651: mov al, 0x01 ; pop ebp ; ret  ;  (1 found)
0x14801f0a: mov al, 0x01 ; pop ebp ; ret  ;  (1 found)
0x148067b7: mov al, 0x01 ; pop ebp ; ret  ;  (1 found)
0x14808397: mov al, 0x01 ; pop ebp ; ret  ;  (1 found)
0x14801577: mov al, 0x01 ; pop esi ; mov esp, ebp ; pop ebp ; ret  ;  (1 found)
0x148038b3: mov al, 0x01 ; pop esi ; mov esp, ebp ; pop ebp ; ret  ;  (1 found)
0x1480149f: mov al, 0x01 ; pop esi ; ret  ;  (1 found)
0x14802305: mov al, 0x01 ; pop esi ; ret  ;  (1 found)
0x14803849: mov al, 0x01 ; pop esi ; ret  ;  (1 found)
0x14805638: mov al, 0x01 ; pop esi ; ret  ;  (1 found)
0x14805af2: mov al, 0x01 ; pop esi ; ret  ;  (1 found)
0x14806781: mov al, 0x01 ; pop esi ; ret  ;  (1 found)
0x14801eec: mov al, 0x01 ; ret  ;  (1 found)
0x1480229b: mov al, 0x01 ; ret  ;  (1 found)
0x14802280: mov al, 0x01 ; ret  ;  (1 found)
0x1480380d: mov al, 0x01 ; ret  ;  (1 found)
0x148037e8: mov al, 0x01 ; ret  ;  (1 found)
0x14803802: mov al, 0x01 ; ret  ;  (1 found)
0x1480380a: mov al, 0x01 ; ret  ;  (1 found)
0x148032dd: mov al, 0x01 ; ret  ;  (1 found)
0x148041b9: mov al, 0x01 ; ret  ;  (1 found)
0x148041d3: mov al, 0x01 ; ret  ;  (1 found)
0x14804e96: mov al, 0x01 ; ret  ;  (1 found)
0x1480684b: mov al, 0x01 ; ret  ;  (1 found)
0x148096c2: mov al, 0x66 ; andps xmm0,  [0x14810D80] ; addsd xmm1, xmm0 ; movq qword [esp+0x04], xmm1 ; fld qword [esp+0x04] ; ret  ;  (1 found)
0x14808629: mov al, 0x83 ; shl byte [eax], 0x00000050 ; call dword [0x1480D080] ;  (1 found)
0x14805e77: mov al, 0xD0 ; adc byte [0xFF1074C0+eax*4], 0x00000075 ; sbb byte [eax+0x56], dl ; push dword [ebp+0x0C] ; call dword [0x1480D100] ;  (1 found)
0x148096e5: mov al, byte [0x0614810D] ; andpd xmm3,  [0x14810D80] ; movq qword [esp+0x04], xmm3 ; fld qword [esp+0x04] ; ret  ;  (1 found)
0x1480164b: mov al, byte [0x59000008] ; pop ecx ; mov al, 0x01 ; pop ebp ; ret  ;  (1 found)
0x14801780: mov al, byte [0xC3148137] ; mov eax, 0x148137A8 ; ret  ;  (1 found)
0x1480283d: mov al, byte [eax] ; add byte [eax], al ; push dword [esi+0x08] ; mov ecx, edi ; push 0x00000008 ; call dword [0x1480D144] ;  (1 found)
0x1480ba0c: mov al, byte [esi+0x01] ; mov byte [edi+0x01], al ; mov eax, dword [esp+0x0C] ; pop esi ; pop edi ; ret  ;  (1 found)
0x1480bad8: mov al, byte [esi+0x01] ; mov byte [edi+0x01], al ; mov eax, dword [esp+0x0C] ; pop esi ; pop edi ; ret  ;  (1 found)
0x1480c0bc: mov al, byte [esi+0x01] ; mov byte [edi+0x01], al ; mov eax, dword [esp+0x0C] ; pop esi ; pop edi ; ret  ;  (1 found)
0x1480c188: mov al, byte [esi+0x01] ; mov byte [edi+0x01], al ; mov eax, dword [esp+0x0C] ; pop esi ; pop edi ; ret  ;  (1 found)
0x1480ba26: mov al, byte [esi+0x02] ; mov byte [edi+0x02], al ; mov eax, dword [esp+0x0C] ; pop esi ; pop edi ; ret  ;  (1 found)
0x1480babe: mov al, byte [esi+0x02] ; mov byte [edi+0x02], al ; mov eax, dword [esp+0x0C] ; pop esi ; pop edi ; ret  ;  (1 found)
0x1480c0d6: mov al, byte [esi+0x02] ; mov byte [edi+0x02], al ; mov eax, dword [esp+0x0C] ; pop esi ; pop edi ; ret  ;  (1 found)
0x1480c16e: mov al, byte [esi+0x02] ; mov byte [edi+0x02], al ; mov eax, dword [esp+0x0C] ; pop esi ; pop edi ; ret  ;  (1 found)
0x1480baa8: mov al, byte [esi+0x03] ; mov byte [edi+0x03], al ; mov eax, dword [esp+0x0C] ; pop esi ; pop edi ; ret  ;  (1 found)
0x1480c158: mov al, byte [esi+0x03] ; mov byte [edi+0x03], al ; mov eax, dword [esp+0x0C] ; pop esi ; pop edi ; ret  ;  (1 found)
0x1480b9fc: mov al, byte [esi] ; mov byte [edi], al ; mov eax, dword [esp+0x0C] ; pop esi ; pop edi ; ret  ;  (1 found)
0x1480c0ac: mov al, byte [esi] ; mov byte [edi], al ; mov eax, dword [esp+0x0C] ; pop esi ; pop edi ; ret  ;  (1 found)
0x148083ba: mov al, cl ; pop ebp ; ret  ;  (1 found)
0x1480991d: mov ax, word [ebp+0x08] ; mov esp, ebp ; pop ebp ; ret  ;  (1 found)
0x14803b8b: mov bh, 0x02 ; movzx ecx, word [ecx] ; sub eax, ecx ; pop esi ; pop ebp ; ret  ;  (1 found)
0x14803c3a: mov bh, 0x04 ; dec eax ; and eax, dword [ebp+0x0C] ; pop ebp ; ret  ;  (1 found)
0x14803b8e: mov bh, 0x09 ; sub eax, ecx ; pop esi ; pop ebp ; ret  ;  (1 found)
0x14804f1e: mov bh, 0xC3 ; push eax ; call dword [0x1480D0E0] ;  (1 found)
0x14808be3: mov bh, 0xFF ; inc dword [ebx-0x74A10038] ; in eax, 0x5D ; ret  ;  (1 found)
0x148068ca: mov bl, 0xFF ; dec dword [ebx-0x743CA21B] ; call dword [ebp-0x75] ;  (1 found)
0x14801570: mov byte [0x14813790], 0x00000001 ; mov al, 0x01 ; pop esi ; mov esp, ebp ; pop ebp ; ret  ;  (1 found)
0x14804e8e: mov byte [0x14813CFC], 0x00000001 ; pop esi ; mov al, 0x01 ; ret  ;  (1 found)
0x14809f0c: mov byte [ebp-0x00000090], 0x00000000 ; fadd qword [0x14810F4E] ; ret  ;  (1 found)
0x14809f3a: mov byte [ebp-0x00000090], 0x00000000 ; faddp st1, st0 ; ret  ;  (1 found)
0x14809f04: mov byte [ebp-0x00000090], 0x00000000 ; ret  ;  (1 found)
0x14809f79: mov byte [ebp-0x00000090], 0x00000001 ; faddp st1, st0 ; ret  ;  (1 found)
0x14809f96: mov byte [ebp-0x00000090], 0x00000001 ; or cl, cl ; ret  ;  (1 found)
0x14809c64: mov byte [ebp-0x00000090], 0x00000002 ; fstp st0 ; fld tword [0x14810EDA] ; ret  ;  (1 found)
0x14809c42: mov byte [ebp-0x00000090], 0x00000002 ; ret  ;  (1 found)
0x14809d09: mov byte [ebp-0x00000090], 0x00000003 ; ret  ;  (1 found)
0x1480765a: mov byte [ebp-0x1A740001], ah ; pop ebp ; ret  ;  (1 found)
0x1480905a: mov byte [ebx-0x1A740001], cl ; pop ebp ; ret  ;  (1 found)
0x1480543a: mov byte [ecx-0x01], bl ; push eax ; push esi ; call dword [0x1480D0F4] ;  (1 found)
0x1480ba0f: mov byte [edi+0x01], al ; mov eax, dword [esp+0x0C] ; pop esi ; pop edi ; ret  ;  (1 found)
0x1480badb: mov byte [edi+0x01], al ; mov eax, dword [esp+0x0C] ; pop esi ; pop edi ; ret  ;  (1 found)
0x1480c0bf: mov byte [edi+0x01], al ; mov eax, dword [esp+0x0C] ; pop esi ; pop edi ; ret  ;  (1 found)
0x1480c18b: mov byte [edi+0x01], al ; mov eax, dword [esp+0x0C] ; pop esi ; pop edi ; ret  ;  (1 found)
0x1480ba29: mov byte [edi+0x02], al ; mov eax, dword [esp+0x0C] ; pop esi ; pop edi ; ret  ;  (1 found)
0x1480bac1: mov byte [edi+0x02], al ; mov eax, dword [esp+0x0C] ; pop esi ; pop edi ; ret  ;  (1 found)
0x1480c0d9: mov byte [edi+0x02], al ; mov eax, dword [esp+0x0C] ; pop esi ; pop edi ; ret  ;  (1 found)
0x1480c171: mov byte [edi+0x02], al ; mov eax, dword [esp+0x0C] ; pop esi ; pop edi ; ret  ;  (1 found)
0x1480baab: mov byte [edi+0x03], al ; mov eax, dword [esp+0x0C] ; pop esi ; pop edi ; ret  ;  (1 found)
0x1480c15b: mov byte [edi+0x03], al ; mov eax, dword [esp+0x0C] ; pop esi ; pop edi ; ret  ;  (1 found)
0x14803c0d: mov byte [edi+0x0C], 0x00000001 ; mov eax, edi ; pop edi ; pop ebp ; retn 0x0004 ;  (1 found)
0x148023a4: mov byte [edi+0x74C08501], 0x00000007 ; push esi ; call dword [0x1480D098] ;  (1 found)
0x14806358: mov byte [edi+0x74C08501], 0x00000007 ; push esi ; call dword [0x1480D098] ;  (1 found)
0x1480b9fe: mov byte [edi], al ; mov eax, dword [esp+0x0C] ; pop esi ; pop edi ; ret  ;  (1 found)
0x1480c0ae: mov byte [edi], al ; mov eax, dword [esp+0x0C] ; pop esi ; pop edi ; ret  ;  (1 found)
0x14803409: mov cs, word [edi] ; add byte [eax], al ; or eax, 0xFFFFFFFF ; pop ebp ; ret  ;  (1 found)
0x148081ab: mov dh, 0x44 ; or byte [eax], ch ; and eax, 0x40 ; pop ebp ; ret  ;  (1 found)
0x1480c3c7: mov dh, 0x55 ; or al, 0x8B ; retn 0xE2C1 ;  (1 found)
0x1480a9f7: mov dh, 0xC0 ; and eax, 0x02 ; add eax, eax ; pop ebp ; ret  ;  (1 found)
0x14806826: mov dh, 0xFF ; inc dword [ebx-0x74A0F33C] ; ret  ;  (1 found)
0x14808f6d: mov di, seg? ; dec dword [ebx-0x743CA21B] ; call dword [ebp-0x75] ;  (1 found)
0x14806917: mov dl, 0xFF ; dec dword [ebx-0x743CA21B] ; call dword [ebp-0x75] ;  (1 found)
0x14801a1f: mov dword [0x00000000], eax ; ret  ;  (1 found)
0x1480b4e2: mov dword [0x00000000], eax ; ret  ;  (1 found)
0x148026ad: mov dword [0x00000000], ecx ; add esp, 0x18 ; pop edi ; pop esi ; pop ebx ; ret  ;  (1 found)
0x14801bce: mov dword [0x14813010], eax ; xor eax, eax ; pop ebx ; mov esp, ebp ; pop ebp ; ret  ;  (1 found)
0x14801736: mov dword [0x14813014], ecx ; not ecx ; mov dword [0x14813018], ecx ; pop edi ; pop esi ; ret  ;  (1 found)
0x1480173e: mov dword [0x14813018], ecx ; pop edi ; pop esi ; ret  ;  (1 found)
0x1480a685: mov dword [0x14813750], eax ; ret  ;  (1 found)
0x148025c9: mov dword [0x14813B40], eax ; ret  ;  (1 found)
0x1480288f: mov dword [0x14813B80], eax ; pop ebp ; ret  ;  (1 found)
0x1480291a: mov dword [0x14813B84], eax ; pop ebp ; ret  ;  (1 found)
0x1480554e: mov dword [0x14813C90], eax ; ret  ;  (1 found)
0x14802eea: mov dword [0x14813C9C], eax ; ret  ;  (1 found)
0x14803201: mov dword [0x14813CA4], eax ; pop ebp ; ret  ;  (1 found)
0x1480326d: mov dword [0x14813CA4], eax ; pop ebp ; ret  ;  (1 found)
0x148038ad: mov dword [0x14813CB4], esi ; mov al, 0x01 ; pop esi ; mov esp, ebp ; pop ebp ; ret  ;  (1 found)
0x148032cd: mov dword [0x14813CB8], eax ; call dword [0x1480D0C4] ;  (1 found)
0x148032d8: mov dword [0x14813CBC], eax ; mov al, 0x01 ; ret  ;  (1 found)
0x14804319: mov dword [0x14813CE8], eax ; pop ebp ; ret  ;  (1 found)
0x14804a68: mov dword [0x14813CF8], 0x00000001 ; call dword [0x1480D0C8] ;  (1 found)
0x14804a51: mov dword [0x14813CF8], 0x00000001 ; call dword [0x1480D0E4] ;  (1 found)
0x1480683b: mov dword [0x14814140], eax ; setne al ; ret  ;  (1 found)
0x1480992d: mov dword [0x14814188], eax ; xor eax, eax ; ret  ;  (1 found)
0x14802ed5: mov dword [0x59FFFFFE], eax ; pop ecx ; ret  ;  (1 found)
0x1480673f: mov dword [0x8BFFFFB4], eax ; in eax, 0x5D ; retn 0x0008 ;  (1 found)
0x14807bd2: mov dword [0xF1732404], eax ; lea eax, dword [esi-0x01] ; add esp, 0x20 ; pop esi ; leave  ; ret  ;  (1 found)
0x148017a4: mov dword [eax+0x04], ecx ; ret  ;  (1 found)
0x1480a65f: mov dword [eax+0x1C], ecx ; mov eax, dword [ebp+0x08] ; add eax, 0x0C ; xchg dword [eax], ecx ; pop ebp ; ret  ;  (1 found)
0x14803a55: mov dword [eax], 0x0000000C ; xor eax, eax ; pop esi ; pop ebp ; ret  ;  (1 found)
0x14803b50: mov dword [eax], 0x0000000C ; xor eax, eax ; pop esi ; pop ebp ; ret  ;  (1 found)
0x1480813c: mov dword [eax], 0x0000000C ; xor eax, eax ; pop esi ; pop edi ; pop ebp ; ret  ;  (1 found)
0x1480aff6: mov dword [eax], 0x00000021 ; pop ebp ; ret  ;  (1 found)
0x1480afe9: mov dword [eax], 0x00000022 ; pop ebp ; ret  ;  (1 found)
0x1480b16f: mov dword [eax], edi ; pop edi ; pop ebp ; ret  ;  (1 found)
0x14804440: mov dword [eax], esi ; pop esi ; pop ebp ; ret  ;  (1 found)
0x148042c8: mov dword [ebp-0x00000314], eax ; call dword [0x1480D04C] ;  (1 found)
0x148042bf: mov dword [ebp-0x0000031C], eax ; mov eax, dword [ebp+0x04] ; mov dword [ebp-0x00000314], eax ; call dword [0x1480D04C] ;  (1 found)
0x148042b6: mov dword [ebp-0x00000320], eax ; mov eax, dword [ebp+0x10] ; mov dword [ebp-0x0000031C], eax ; mov eax, dword [ebp+0x04] ; mov dword [ebp-0x00000314], eax ; call dword [0x1480D04C] ;  (1 found)
0x1480b199: mov dword [ebp-0x02], ecx ; fld qword [ebp-0x08] ; mov esp, ebp ; pop ebp ; ret  ;  (1 found)
0x14801a11: mov dword [ebp-0x04], 0xFFFFFFFE ; mov dword [ebp-0x08], eax ; lea eax, dword [ebp-0x10] ; mov dword [fs:0x00000000], eax ; ret  ;  (1 found)
0x1480b4d4: mov dword [ebp-0x04], 0xFFFFFFFE ; mov dword [ebp-0x08], eax ; lea eax, dword [ebp-0x10] ; mov dword [fs:0x00000000], eax ; ret  ;  (1 found)
0x148016c3: mov dword [ebp-0x04], eax ; call dword [0x1480D040] ;  (1 found)
0x148018b2: mov dword [ebp-0x04], eax ; inc bl ; call dword [0x1480D054] ;  (1 found)
0x148018a7: mov dword [ebp-0x08], eax ; lea eax, dword [ebp-0x00000324] ; sbb bl, bl ; mov dword [ebp-0x04], eax ; inc bl ; call dword [0x1480D054] ;  (1 found)
0x14801a18: mov dword [ebp-0x08], eax ; lea eax, dword [ebp-0x10] ; mov dword [fs:0x00000000], eax ; ret  ;  (1 found)
0x1480b4db: mov dword [ebp-0x08], eax ; lea eax, dword [ebp-0x10] ; mov dword [fs:0x00000000], eax ; ret  ;  (1 found)
0x148010aa: mov dword [ebp-0x08], eax ; mov ecx, dword [ebp+0x08] ; push ecx ; call dword [0x1480D130] ;  (1 found)
0x14808518: mov dword [ebp-0x08], ecx ; fldcw word [ebp-0x08] ; movsx eax, word [ebp-0x04] ; mov esp, ebp ; pop ebp ; ret  ;  (1 found)
0x14808c2d: mov dword [ebp-0x28], eax ; call dword [0x1480D01C] ;  (1 found)
0x14808c25: mov dword [ebp-0x30], eax ; mov eax, dword [ebp+0x14] ; add eax, edi ; mov dword [ebp-0x28], eax ; call dword [0x1480D01C] ;  (1 found)
0x14801894: mov dword [ebp-0x4C], eax ; call dword [0x1480D04C] ;  (1 found)
0x1480188d: mov dword [ebp-0x54], 0x00000001 ; mov dword [ebp-0x4C], eax ; call dword [0x1480D04C] ;  (1 found)
0x14801886: mov dword [ebp-0x58], 0x40000015 ; mov dword [ebp-0x54], 0x00000001 ; mov dword [ebp-0x4C], eax ; call dword [0x1480D04C] ;  (1 found)
0x1480367f: mov dword [ebx], eax ; ror esi, cl ; mov ecx, esi ; call dword [0x1480D144] ;  (1 found)
0x1480367e: mov dword [ebx], eax ; ror esi, cl ; mov ecx, esi ; call dword [0x1480D144] ;  (1 found)
0x14803c07: mov dword [ecx+0x00000350], eax ; mov byte [edi+0x0C], 0x00000001 ; mov eax, edi ; pop edi ; pop ebp ; retn 0x0004 ;  (1 found)
0x14802859: mov dword [ecx+0x08], ebx ; mov ecx, edi ; call dword [0x1480D144] ;  (1 found)
0x14802e12: mov dword [ecx+edi], 0x33AB751F ; rcr byte [esi+0x5B], 0x0000005F ; ret  ;  (1 found)
0x1480213e: mov dword [edx], eax ; mov eax, 0x00000003 ; ret  ;  (1 found)
0x1480262e: mov dword [edx], eax ; mov eax, 0x00000003 ; ret  ;  (1 found)
0x14803799: mov dword [esi+0x04], eax ; mov dword [esi+0x08], eax ; xor eax, eax ; pop esi ; pop ebp ; ret  ;  (1 found)
0x1480283a: mov dword [esi+0x08], 0x0000008A ; push dword [esi+0x08] ; mov ecx, edi ; push 0x00000008 ; call dword [0x1480D144] ;  (1 found)
0x148086a3: mov dword [esi+0x08], eax ; pop edi ; pop esi ; pop ebp ; ret  ;  (1 found)
0x1480379c: mov dword [esi+0x08], eax ; xor eax, eax ; pop esi ; pop ebp ; ret  ;  (1 found)
0x148086a1: mov dword [esi], eax ; mov dword [esi+0x08], eax ; pop edi ; pop esi ; pop ebp ; ret  ;  (1 found)
0x14803a0d: mov dword [esi], eax ; pop esi ; pop ebp ; ret  ;  (1 found)
0x14807429: mov dword [esi], eax ; pop esi ; pop ebp ; ret  ;  (1 found)
0x148073fc: mov dword [esi], eax ; pop esi ; pop ebp ; ret  ;  (1 found)
0x148038e0: mov dword [esi], edi ; pop edi ; pop esi ; pop ebp ; retn 0x0004 ;  (1 found)
0x14809ff3: mov dword [esp+0x06], edx ; fldcw word [esp+0x06] ; ret  ;  (1 found)
0x14801125: mov dword [esp+0x0C], 0x00000000 ; nop dword [eax] ; push 0x00000006 ; push 0x00000001 ; push 0x00000002 ; call dword [0x1480D128] ;  (1 found)
0x148011a3: mov dword [esp+0x0C], 0x00000001 ; push 0x7FFFFFFF ; push edi ; call dword [0x1480D124] ;  (1 found)
0x14801163: mov dword [esp+0x14], eax ; call dword [0x1480D11C] ;  (1 found)
0x14801179: mov dword [esp+0x14], eax ; lea eax, dword [esp+0x10] ; push 0x00000010 ; push eax ; push edi ; call dword [0x1480D114] ;  (1 found)
0x1480116f: mov dword [esp+0x16], eax ; call dword [0x1480D118] ;  (1 found)
0x1480b76f: mov dword [esp], eax ; ret  ;  (1 found)
0x1480a046: mov dword [esp], ecx ; fld tword [esp] ; add esp, 0x0A ; test eax, 0x00000000 ; mov eax, dword [edx+0x04] ; ret  ;  (1 found)
0x14801a1d: mov dword [fs:0x00000000], eax ; ret  ;  (1 found)
0x14801a1e: mov dword [fs:0x00000000], eax ; ret  ;  (1 found)
0x1480b4e0: mov dword [fs:0x00000000], eax ; ret  ;  (1 found)
0x1480b4e1: mov dword [fs:0x00000000], eax ; ret  ;  (1 found)
0x148026ac: mov dword [fs:0x00000000], ecx ; add esp, 0x18 ; pop edi ; pop esi ; pop ebx ; ret  ;  (1 found)
0x1480a00f: mov eax, 0x00000000 ; ret  ;  (1 found)
0x1480a003: mov eax, 0x00000000 ; ret  ;  (1 found)
0x148026d7: mov eax, 0x00000001 ; ret  ;  (1 found)
0x14809d81: mov eax, 0x00000001 ; ret  ;  (1 found)
0x14801158: mov eax, 0x00000002 ; push 0x00001B59 ; mov word [esp+0x14], ax ; call dword [0x1480D11C] ;  (1 found)
0x14801157: mov eax, 0x00000002 ; push 0x00001B59 ; mov word [esp+0x14], ax ; call dword [0x1480D11C] ;  (1 found)
0x14802140: mov eax, 0x00000003 ; ret  ;  (1 found)
0x14802630: mov eax, 0x00000003 ; ret  ;  (1 found)
0x1480b246: mov eax, 0x00000200 ; pop ebp ; ret  ;  (1 found)
0x1480174b: mov eax, 0x00004000 ; ret  ;  (1 found)
0x14804461: mov eax, 0x14813048 ; ret  ;  (1 found)
0x1480444e: mov eax, 0x1481304C ; ret  ;  (1 found)
0x1480177f: mov eax, 0x148137A0 ; ret  ;  (1 found)
0x14801785: mov eax, 0x148137A8 ; ret  ;  (1 found)
0x148022ea: mov eax, 0x14813AEC ; push edi ; call dword [0x1480D080] ;  (1 found)
0x148032e0: mov eax, 0x14813CAC ; ret  ;  (1 found)
0x148032e6: mov eax, 0x14813CB0 ; ret  ;  (1 found)
0x1480341b: mov eax, 0x14813CCC ; ret  ;  (1 found)
0x1480561d: mov eax, 0x14813CE8 ; push edi ; call dword [0x1480D080] ;  (1 found)
0x14806a5d: mov eax, 0x14814148 ; pop ebp ; ret  ;  (1 found)
0x14806a4f: mov eax, 0x1481414C ; pop ebp ; ret  ;  (1 found)
0x14806a48: mov eax, 0x14814150 ; pop ebp ; ret  ;  (1 found)
0x14806a56: mov eax, 0x14814154 ; pop ebp ; ret  ;  (1 found)
0x148017ba: mov eax, 0x14814178 ; ret  ;  (1 found)
0x148017b4: mov eax, 0x1481417C ; ret  ;  (1 found)
0x1480b73a: mov eax, 0x18245CD9 ; fstp dword [esp+0x18] ; leave  ; ret  ;  (1 found)
0x1480692c: mov eax, 0x5DFFFFCF ; ret  ;  (1 found)
0x148060c5: mov eax, 0x7FFFFFFF ; pop ebp ; ret  ;  (1 found)
0x1480611e: mov eax, 0x7FFFFFFF ; pop ebp ; ret  ;  (1 found)
0x14806219: mov eax, 0x8BC3FFFF ; call dword [ebp-0x75] ;  (1 found)
0x1480ba98: mov eax, 0xCC1480BA ; mov edx, 0x448B1480 ; and al, 0x0C ; pop esi ; pop edi ; ret  ;  (1 found)
0x1480c09c: mov eax, 0xCC1480C0 ; rol byte [eax+0x24448B14], 0x0000000C ; pop esi ; pop edi ; ret  ;  (1 found)
0x148032ce: mov eax, 0xFF14813C ; adc eax, 0x1480D0C4 ; mov dword [0x14813CBC], eax ; mov al, 0x01 ; ret  ;  (1 found)
0x1480516c: mov eax, dword [0x00000350] ; std  ; mov eax, edx ; mov esp, ebp ; pop ebp ; ret  ;  (1 found)
0x14804a99: mov eax, dword [0x00000350] ; std  ; mov esp, ebp ; pop ebp ; ret  ;  (1 found)
0x14807ee6: mov eax, dword [0x00000350] ; std  ; mov esp, ebp ; pop ebp ; ret  ;  (1 found)
0x148085c2: mov eax, dword [0x00000350] ; std  ; mov esp, ebp ; pop ebp ; ret  ;  (1 found)
0x14808acd: mov eax, dword [0x00000350] ; std  ; mov esp, ebp ; pop ebp ; ret  ;  (1 found)
0x1480b99e: mov eax, dword [0x1480B9E4+ecx*4] ; jmp eax ;  (1 found)
0x1480c04e: mov eax, dword [0x1480C094+ecx*4] ; jmp eax ;  (1 found)
0x14804419: mov eax, dword [0x1480DB74+eax*8] ; pop ebp ; ret  ;  (1 found)
0x14804a29: mov eax, dword [0x1480DCD0] ; pop ebp ; ret  ;  (1 found)
0x14804a22: mov eax, dword [0x1480DCD4] ; pop ebp ; ret  ;  (1 found)
0x14804a1b: mov eax, dword [0x1480DCD8] ; pop ebp ; ret  ;  (1 found)
0x14804a14: mov eax, dword [0x1480DCDC] ; pop ebp ; ret  ;  (1 found)
0x148080be: mov eax, dword [0x1480ECE8+eax*8] ; pop ebp ; ret  ;  (1 found)
0x14802881: mov eax, dword [0x14813B80] ; ret  ;  (1 found)
0x14802c4c: mov eax, dword [0x14813C90] ; ret  ;  (1 found)
0x148033e6: mov eax, dword [0x14813CC8] ; ret  ;  (1 found)
0x148081a3: mov eax, dword [0x14813E58+eax*4] ; movzx eax, byte [eax+ecx+0x28] ; and eax, 0x40 ; pop ebp ; ret  ;  (1 found)
0x14808e79: mov eax, dword [0x14813E58+edi*4] ; push dword [eax+esi+0x18] ; call dword [0x1480D018] ;  (1 found)
0x14808622: mov eax, dword [0x14814164] ; mov eax, dword [eax+esi*4] ; add eax, 0x20 ; push eax ; call dword [0x1480D080] ;  (1 found)
0x14807538: mov eax, dword [0x14814164] ; pop ecx ; mov eax, dword [esi+eax] ; add eax, 0x20 ; push eax ; call dword [0x1480D080] ;  (1 found)
0x1480744f: mov eax, dword [eax+0x10] ; pop ebp ; ret  ;  (1 found)
0x148049ea: mov eax, dword [eax+0x48] ; lock inc dword [eax] ; pop esi ; ret  ;  (1 found)
0x14808c21: mov eax, dword [eax+ebx+0x18] ; mov dword [ebp-0x30], eax ; mov eax, dword [ebp+0x14] ; add eax, edi ; mov dword [ebp-0x28], eax ; call dword [0x1480D01C] ;  (1 found)
0x148058e7: mov eax, dword [eax+ecx+0x18] ; pop ebp ; ret  ;  (1 found)
0x14808627: mov eax, dword [eax+esi*4] ; add eax, 0x20 ; push eax ; call dword [0x1480D080] ;  (1 found)
0x1480b76d: mov eax, dword [eax] ; mov dword [esp], eax ; ret  ;  (1 found)
0x148049e8: mov eax, dword [eax] ; mov eax, dword [eax+0x48] ; lock inc dword [eax] ; pop esi ; ret  ;  (1 found)
0x14805b16: mov eax, dword [eax] ; mov esp, ebp ; pop ebp ; ret  ;  (1 found)
0x148015ee: mov eax, dword [eax] ; xor ecx, ecx ; cmp dword [eax], 0xC0000005 ; sete cl ; mov eax, ecx ; ret  ;  (1 found)
0x1480b38c: mov eax, dword [eax] ; xor ecx, ecx ; cmp dword [eax], 0xC0000005 ; sete cl ; mov eax, ecx ; ret  ;  (1 found)
0x14801880: mov eax, dword [ebp+0x04] ; add esp, 0x0C ; mov dword [ebp-0x58], 0x40000015 ; mov dword [ebp-0x54], 0x00000001 ; mov dword [ebp-0x4C], eax ; call dword [0x1480D04C] ;  (1 found)
0x148042c5: mov eax, dword [ebp+0x04] ; mov dword [ebp-0x00000314], eax ; call dword [0x1480D04C] ;  (1 found)
0x1480a662: mov eax, dword [ebp+0x08] ; add eax, 0x0C ; xchg dword [eax], ecx ; pop ebp ; ret  ;  (1 found)
0x1480756d: mov eax, dword [ebp+0x08] ; add eax, 0x20 ; push eax ; call dword [0x1480D078] ;  (1 found)
0x14807581: mov eax, dword [ebp+0x08] ; add eax, 0x20 ; push eax ; call dword [0x1480D07C] ;  (1 found)
0x1480288c: mov eax, dword [ebp+0x08] ; mov dword [0x14813B80], eax ; pop ebp ; ret  ;  (1 found)
0x148031fe: mov eax, dword [ebp+0x08] ; mov dword [0x14813CA4], eax ; pop ebp ; ret  ;  (1 found)
0x14804316: mov eax, dword [ebp+0x08] ; mov dword [0x14813CE8], eax ; pop ebp ; ret  ;  (1 found)
0x1480991e: mov eax, dword [ebp+0x08] ; mov esp, ebp ; pop ebp ; ret  ;  (1 found)
0x148010a0: mov eax, dword [ebp+0x08] ; push eax ; call dword [0x1480D134] ;  (1 found)
0x1480141d: mov eax, dword [ebp+0x08] ; ror eax, cl ; xor eax, dword [0x14813014] ; pop ebp ; ret  ;  (1 found)
0x14802feb: mov eax, dword [ebp+0x08] ; ror eax, cl ; xor eax, dword [0x14813014] ; pop ebp ; ret  ;  (1 found)
0x1480b16c: mov eax, dword [ebp+0x10] ; mov dword [eax], edi ; pop edi ; pop ebp ; ret  ;  (1 found)
0x148042bc: mov eax, dword [ebp+0x10] ; mov dword [ebp-0x0000031C], eax ; mov eax, dword [ebp+0x04] ; mov dword [ebp-0x00000314], eax ; call dword [0x1480D04C] ;  (1 found)
0x14808c28: mov eax, dword [ebp+0x14] ; add eax, edi ; mov dword [ebp-0x28], eax ; call dword [0x1480D01C] ;  (1 found)
0x14802bc3: mov eax, dword [ebp+0x14] ; inc dword [eax] ; mov esp, ebp ; pop ebp ; ret  ;  (1 found)
0x1480a8a2: mov eax, dword [ebp+0x18] ; fstp qword [eax] ; xor eax, eax ; pop ebp ; ret  ;  (1 found)
0x14801a0e: mov eax, dword [ebp-0x04] ; mov dword [ebp-0x04], 0xFFFFFFFE ; mov dword [ebp-0x08], eax ; lea eax, dword [ebp-0x10] ; mov dword [fs:0x00000000], eax ; ret  ;  (1 found)
0x1480b4d1: mov eax, dword [ebp-0x04] ; mov dword [ebp-0x04], 0xFFFFFFFE ; mov dword [ebp-0x08], eax ; lea eax, dword [ebp-0x10] ; mov dword [fs:0x00000000], eax ; ret  ;  (1 found)
0x148016bd: mov eax, dword [ebp-0x08] ; xor eax, dword [ebp-0x0C] ; mov dword [ebp-0x04], eax ; call dword [0x1480D040] ;  (1 found)
0x14808362: mov eax, dword [ebp-0x0C] ; mov esp, ebp ; pop ebp ; ret  ;  (1 found)
0x1480a054: mov eax, dword [edx+0x04] ; ret  ;  (1 found)
0x1480753e: mov eax, dword [esi+eax] ; add eax, 0x20 ; push eax ; call dword [0x1480D080] ;  (1 found)
0x148049e6: mov eax, dword [esi] ; mov eax, dword [eax] ; mov eax, dword [eax+0x48] ; lock inc dword [eax] ; pop esi ; ret  ;  (1 found)
0x14802063: mov eax, dword [esp+0x04] ; mov edi, edx ; ret  ;  (1 found)
0x1480200e: mov eax, dword [esp+0x04] ; mov edi, edx ; ret  ;  (1 found)
0x14801f4e: mov eax, dword [esp+0x04] ; mov edi, edx ; ret  ;  (1 found)
0x1480b510: mov eax, dword [esp+0x04] ; mul ecx ; retn 0x0010 ;  (1 found)
0x14802136: mov eax, dword [esp+0x08] ; mov edx, dword [esp+0x10] ; mov dword [edx], eax ; mov eax, 0x00000003 ; ret  ;  (1 found)
0x14802626: mov eax, dword [esp+0x08] ; mov edx, dword [esp+0x10] ; mov dword [edx], eax ; mov eax, 0x00000003 ; ret  ;  (1 found)
0x1480b528: mov eax, dword [esp+0x08] ; mul ecx ; add edx, ebx ; pop ebx ; retn 0x0010 ;  (1 found)
0x1480a069: mov eax, dword [esp+0x08] ; ret  ;  (1 found)
0x1480be80: mov eax, dword [esp+0x0C] ; pop esi ; pop edi ; ret  ;  (1 found)
0x1480ba00: mov eax, dword [esp+0x0C] ; pop esi ; pop edi ; ret  ;  (1 found)
0x1480ba12: mov eax, dword [esp+0x0C] ; pop esi ; pop edi ; ret  ;  (1 found)
0x1480ba2c: mov eax, dword [esp+0x0C] ; pop esi ; pop edi ; ret  ;  (1 found)
0x1480baa0: mov eax, dword [esp+0x0C] ; pop esi ; pop edi ; ret  ;  (1 found)
0x1480baae: mov eax, dword [esp+0x0C] ; pop esi ; pop edi ; ret  ;  (1 found)
0x1480bac4: mov eax, dword [esp+0x0C] ; pop esi ; pop edi ; ret  ;  (1 found)
0x1480bade: mov eax, dword [esp+0x0C] ; pop esi ; pop edi ; ret  ;  (1 found)
0x1480bcb0: mov eax, dword [esp+0x0C] ; pop esi ; pop edi ; ret  ;  (1 found)
0x1480bbc4: mov eax, dword [esp+0x0C] ; pop esi ; pop edi ; ret  ;  (1 found)
0x1480b7d0: mov eax, dword [esp+0x0C] ; pop esi ; pop edi ; ret  ;  (1 found)
0x1480b9f4: mov eax, dword [esp+0x0C] ; pop esi ; pop edi ; ret  ;  (1 found)
0x1480c0a4: mov eax, dword [esp+0x0C] ; pop esi ; pop edi ; ret  ;  (1 found)
0x1480c0b0: mov eax, dword [esp+0x0C] ; pop esi ; pop edi ; ret  ;  (1 found)
0x1480c0c2: mov eax, dword [esp+0x0C] ; pop esi ; pop edi ; ret  ;  (1 found)
0x1480c0dc: mov eax, dword [esp+0x0C] ; pop esi ; pop edi ; ret  ;  (1 found)
0x1480c15e: mov eax, dword [esp+0x0C] ; pop esi ; pop edi ; ret  ;  (1 found)
0x1480c150: mov eax, dword [esp+0x0C] ; pop esi ; pop edi ; ret  ;  (1 found)
0x1480c174: mov eax, dword [esp+0x0C] ; pop esi ; pop edi ; ret  ;  (1 found)
0x1480c274: mov eax, dword [esp+0x0C] ; pop esi ; pop edi ; ret  ;  (1 found)
0x1480c18e: mov eax, dword [esp+0x0C] ; pop esi ; pop edi ; ret  ;  (1 found)
0x1480c360: mov eax, dword [esp+0x0C] ; pop esi ; pop edi ; ret  ;  (1 found)
0x14802d68: mov eax, ebx ; pop ebx ; mov esp, ebp ; pop ebp ; ret  ;  (1 found)
0x14805243: mov eax, ebx ; pop ebx ; mov esp, ebp ; pop ebp ; ret  ;  (1 found)
0x14805476: mov eax, ebx ; pop ebx ; pop esi ; mov esp, ebp ; pop ebp ; ret  ;  (1 found)
0x1480682d: mov eax, ebx ; pop ebx ; pop esi ; pop ebp ; ret  ;  (1 found)
0x148098ea: mov eax, ecx ; pop ebx ; pop esi ; pop edi ; leave  ; ret  ;  (1 found)
0x1480b769: mov eax, ecx ; pop ecx ; xchg eax, esp ; mov eax, dword [eax] ; mov dword [esp], eax ; ret  ;  (1 found)
0x1480910c: mov eax, ecx ; push eax ; push ebx ; push 0x0000FDE9 ; call dword [0x1480D0B4] ;  (1 found)
0x148015fb: mov eax, ecx ; ret  ;  (1 found)
0x14807c90: mov eax, ecx ; ret  ;  (1 found)
0x1480b399: mov eax, ecx ; ret  ;  (1 found)
0x1480c4e1: mov eax, edi ; cld  ; pop edi ; leave  ; ret  ;  (1 found)
0x14803c11: mov eax, edi ; pop edi ; pop ebp ; retn 0x0004 ;  (1 found)
0x148056f8: mov eax, edi ; pop edi ; pop ebx ; mov esp, ebp ; pop ebp ; ret  ;  (1 found)
0x14809806: mov eax, edi ; pop edi ; pop esi ; pop ebp ; ret  ;  (1 found)
0x14804110: mov eax, edi ; pop edi ; pop esi ; pop ebx ; ret  ;  (1 found)
0x14802ca6: mov eax, edi ; pop edi ; pop esi ; ret  ;  (1 found)
0x14804031: mov eax, edi ; pop edi ; pop esi ; ret  ;  (1 found)
0x14805172: mov eax, edx ; mov esp, ebp ; pop ebp ; ret  ;  (1 found)
0x14807282: mov eax, edx ; pop ebx ; mov esp, ebp ; pop ebp ; ret  ;  (1 found)
0x1480b660: mov eax, edx ; xor edx, edx ; and cl, 0x0000001F ; shr eax, cl ; ret  ;  (1 found)
0x1480491b: mov eax, esi ; pop ebx ; pop edi ; pop esi ; ret  ;  (1 found)
0x14804651: mov eax, esi ; pop esi ; mov esp, ebp ; pop ebp ; ret  ;  (1 found)
0x1480567f: mov eax, esi ; pop esi ; mov esp, ebp ; pop ebp ; ret  ;  (1 found)
0x14807b2c: mov eax, esi ; pop esi ; mov esp, ebp ; pop ebp ; ret  ;  (1 found)
0x14807c7d: mov eax, esi ; pop esi ; mov esp, ebp ; pop ebp ; ret  ;  (1 found)
0x14802c16: mov eax, esi ; pop esi ; pop ebp ; ret  ;  (1 found)
0x14803a8d: mov eax, esi ; pop esi ; pop ebp ; ret  ;  (1 found)
0x1480a710: mov eax, esi ; pop esi ; pop ebp ; ret  ;  (1 found)
0x1480a711: mov eax, esi ; pop esi ; pop ebp ; ret  ;  (1 found)
0x14804d1d: mov eax, esi ; pop esi ; pop ebx ; mov esp, ebp ; pop ebp ; ret  ;  (1 found)
0x14807fdb: mov eax, esi ; pop esi ; pop ebx ; mov esp, ebp ; pop ebp ; ret  ;  (1 found)
0x14808e17: mov eax, esi ; pop esi ; pop ebx ; mov esp, ebp ; pop ebp ; ret  ;  (1 found)
0x1480559b: mov eax, esi ; pop esi ; pop ebx ; pop ebp ; ret  ;  (1 found)
0x14805520: mov eax, esi ; pop esi ; pop edi ; mov esp, ebp ; pop ebp ; ret  ;  (1 found)
0x148040d3: mov eax, esi ; pop esi ; ret  ;  (1 found)
0x1480b48f: mov eax, esi ; pop esi ; retn 0x0010 ;  (1 found)
0x148010cd: mov eax, esp ; jmp esp ;  (1 found)
0x14808e7b: mov ebp, 0x14813E58 ; push dword [eax+esi+0x18] ; call dword [0x1480D018] ;  (1 found)
0x1480c431: mov ebp, 0x85C703C1 ; leave  ; cmove eax, edx ; pop edi ; leave  ; ret  ;  (1 found)
0x14805eb4: mov ebp, 0xE58BFFFF ; pop ebp ; ret  ;  (1 found)
0x14805eb5: mov ebp, 0xE58BFFFF ; pop ebp ; ret  ;  (1 found)
0x14809d57: mov ebp, 0xFFFFFF60 ; fabs  ; f2xm1  ; ret  ;  (1 found)
0x14809f8e: mov ebp, 0xFFFFFF70 ; add byte [edi+0x07], bh ; mov byte [ebp-0x00000090], 0x00000001 ; or cl, cl ; ret  ;  (1 found)
0x148055f7: mov ebp, esp ; imul eax, dword [ebp+0x08], 0x18 ; add eax, 0x14813D00 ; push eax ; call dword [0x1480D078] ;  (1 found)
0x1480563f: mov ebp, esp ; imul eax, dword [ebp+0x08], 0x18 ; add eax, 0x14813D00 ; push eax ; call dword [0x1480D07C] ;  (1 found)
0x1480756b: mov ebp, esp ; mov eax, dword [ebp+0x08] ; add eax, 0x20 ; push eax ; call dword [0x1480D078] ;  (1 found)
0x1480757f: mov ebp, esp ; mov eax, dword [ebp+0x08] ; add eax, 0x20 ; push eax ; call dword [0x1480D07C] ;  (1 found)
0x1480288a: mov ebp, esp ; mov eax, dword [ebp+0x08] ; mov dword [0x14813B80], eax ; pop ebp ; ret  ;  (1 found)
0x148031fc: mov ebp, esp ; mov eax, dword [ebp+0x08] ; mov dword [0x14813CA4], eax ; pop ebp ; ret  ;  (1 found)
0x14804314: mov ebp, esp ; mov eax, dword [ebp+0x08] ; mov dword [0x14813CE8], eax ; pop ebp ; ret  ;  (1 found)
0x14801bf8: mov ebp, esp ; push 0x00000000 ; call dword [0x1480D054] ;  (1 found)
0x148051ca: mov ebp, esp ; push ecx ; push ebx ; push esi ; push edi ; call dword [0x1480D0EC] ;  (1 found)
0x1480590d: mov ebp, esp ; sub esp, 0x48 ; lea eax, dword [ebp-0x48] ; push eax ; call dword [0x1480D058] ;  (1 found)
0x148030d7: mov ebp, esp ; xor eax, eax ; cmp dword [ebp+0x08], 0xE06D7363 ; sete al ; pop ebp ; ret  ;  (1 found)
0x14802335: mov ebx, dword [0x1480D198+ebx*4] ; push 0x00000800 ; push 0x00000000 ; push ebx ; call dword [0x1480D0A0] ;  (1 found)
0x148062e9: mov ebx, dword [0x1480E7E0+ebx*4] ; push 0x00000800 ; push 0x00000000 ; push ebx ; call dword [0x1480D0A0] ;  (1 found)
0x1480b48b: mov ebx, ecx ; mov ecx, eax ; mov eax, esi ; pop esi ; retn 0x0010 ;  (1 found)
0x14809e2e: mov ebx, edx ; add ebx, eax ; add ebx, 0x10 ; jmp dword [ebx] ;  (1 found)
0x14809eba: mov ebx, edx ; add ebx, eax ; add ebx, 0x10 ; jmp dword [ebx] ;  (1 found)
0x14801624: mov ecx, 0x14813774 ; xchg dword [ecx], eax ; pop ebp ; ret  ;  (1 found)
0x14803352: mov ecx, 0x14813CC4 ; inc eax ; xchg dword [ecx], eax ; ret  ;  (1 found)
0x14803412: mov ecx, 0x14813CC8 ; xchg dword [ecx], eax ; pop ebp ; ret  ;  (1 found)
0x148032bc: mov ecx, 0x14813E54 ; xchg dword [ecx], eax ; xor eax, eax ; pop ebp ; ret  ;  (1 found)
0x148021ae: mov ecx, 0x51148021 ; call dword [0x1480D06C] ;  (1 found)
0x14808b2c: mov ecx, 0xF08BFFFF ; call dword [0x1480D070] ;  (1 found)
0x1480a69b: mov ecx, dword [0x14813750] ; xor eax, eax ; cmp ecx, 0xFFFFFFFF ; setne al ; ret  ;  (1 found)
0x1480179e: mov ecx, dword [eax+0x04] ; or dword [eax], 0x02 ; mov dword [eax+0x04], ecx ; ret  ;  (1 found)
0x14801149: mov ecx, dword [eax+0x0C] ; mov ecx, dword [ecx] ; push dword [ecx] ; call dword [0x1480D120] ;  (1 found)
0x14803c36: mov ecx, dword [ebp+0x08] ; movzx eax, word [eax+ecx*2] ; and eax, dword [ebp+0x0C] ; pop ebp ; ret  ;  (1 found)
0x148010ad: mov ecx, dword [ebp+0x08] ; push ecx ; call dword [0x1480D130] ;  (1 found)
0x14802e43: mov ecx, dword [ebp+0x08] ; push esi ; call dword [0x1480D144] ;  (1 found)
0x148076a0: mov ecx, dword [ebp+0x14] ; push edi ; push esi ; call dword [0x1480D144] ;  (1 found)
0x148078b2: mov ecx, dword [ebp-0x00000108] ; push edi ; push esi ; call dword [0x1480D144] ;  (1 found)
0x14805168: mov ecx, dword [ebp-0x10] ; and dword [ecx+0x00000350], 0xFFFFFFFD ; mov eax, edx ; mov esp, ebp ; pop ebp ; ret  ;  (1 found)
0x14804a95: mov ecx, dword [ebp-0x10] ; and dword [ecx+0x00000350], 0xFFFFFFFD ; mov esp, ebp ; pop ebp ; ret  ;  (1 found)
0x14807ee2: mov ecx, dword [ebp-0x10] ; and dword [ecx+0x00000350], 0xFFFFFFFD ; mov esp, ebp ; pop ebp ; ret  ;  (1 found)
0x148085be: mov ecx, dword [ebp-0x10] ; and dword [ecx+0x00000350], 0xFFFFFFFD ; mov esp, ebp ; pop ebp ; ret  ;  (1 found)
0x14808ac9: mov ecx, dword [ebp-0x10] ; and dword [ecx+0x00000350], 0xFFFFFFFD ; mov esp, ebp ; pop ebp ; ret  ;  (1 found)
0x14806c94: mov ecx, dword [ebp-0x24] ; call dword [0x1480D144] ;  (1 found)
0x14806cc2: mov ecx, dword [ebp-0x24] ; call dword [0x1480D144] ;  (1 found)
0x1480114c: mov ecx, dword [ecx] ; push dword [ecx] ; call dword [0x1480D120] ;  (1 found)
0x14802f2d: mov ecx, eax ; call dword [0x1480D144] ;  (1 found)
0x1480b48d: mov ecx, eax ; mov eax, esi ; pop esi ; retn 0x0010 ;  (1 found)
0x14806875: mov ecx, ebx ; call dword [0x1480D144] ;  (1 found)
0x148068a9: mov ecx, ebx ; call dword [0x1480D144] ;  (1 found)
0x14807801: mov ecx, ebx ; call dword [0x1480D144] ;  (1 found)
0x148078eb: mov ecx, ebx ; call dword [0x1480D144] ;  (1 found)
0x148079ce: mov ecx, ebx ; call dword [0x1480D144] ;  (1 found)
0x14807a12: mov ecx, ebx ; call dword [0x1480D144] ;  (1 found)
0x14807828: mov ecx, ebx ; push dword [ebp-0x00000100] ; call dword [0x1480D144] ;  (1 found)
0x1480785a: mov ecx, ebx ; push edi ; call dword [0x1480D144] ;  (1 found)
0x1480285c: mov ecx, edi ; call dword [0x1480D144] ;  (1 found)
0x14802f6e: mov ecx, edi ; call dword [0x1480D144] ;  (1 found)
0x14803051: mov ecx, edi ; call dword [0x1480D144] ;  (1 found)
0x148068f6: mov ecx, edi ; call dword [0x1480D144] ;  (1 found)
0x14802844: mov ecx, edi ; push 0x00000008 ; call dword [0x1480D144] ;  (1 found)
0x1480304d: mov ecx, edx ; ror edi, cl ; mov ecx, edi ; call dword [0x1480D144] ;  (1 found)
0x148028f2: mov ecx, esi ; call dword [0x1480D144] ;  (1 found)
0x148031d1: mov ecx, esi ; call dword [0x1480D144] ;  (1 found)
0x14803683: mov ecx, esi ; call dword [0x1480D144] ;  (1 found)
0x148039b8: mov ecx, esi ; call dword [0x1480D144] ;  (1 found)
0x14804353: mov ecx, esi ; call dword [0x1480D144] ;  (1 found)
0x14806559: mov ecx, esi ; call dword [0x1480D144] ;  (1 found)
0x14806503: mov ecx, esi ; call dword [0x1480D144] ;  (1 found)
0x148065af: mov ecx, esi ; call dword [0x1480D144] ;  (1 found)
0x14806608: mov ecx, esi ; call dword [0x1480D144] ;  (1 found)
0x14806951: mov ecx, esi ; call dword [0x1480D144] ;  (1 found)
0x14807936: mov ecx, esi ; call dword [0x1480D144] ;  (1 found)
0x14806438: mov ecx, esi ; push 0xFFFFFFFA ; call dword [0x1480D144] ;  (1 found)
0x14806720: mov ecx, esi ; push dword [ebp+0x08] ; call dword [0x1480D144] ;  (1 found)
0x1480665e: mov ecx, esi ; push dword [ebp+0x0C] ; push dword [ebp+0x08] ; call dword [0x1480D144] ;  (1 found)
0x148084f3: mov edi, 0xE58BFC45 ; pop ebp ; ret  ;  (1 found)
0x1480851f: mov edi, 0xE58BFC45 ; pop ebp ; ret  ;  (1 found)
0x1480858c: mov edi, 0xE58BFC45 ; pop ebp ; ret  ;  (1 found)
0x148042d6: mov edi, eax ; call dword [0x1480D054] ;  (1 found)
0x14801141: mov edi, eax ; call dword [0x1480D13C] ;  (1 found)
0x1480410e: mov edi, ebx ; mov eax, edi ; pop edi ; pop esi ; pop ebx ; ret  ;  (1 found)
0x1480905b: mov edi, edi ; dec dword [ebx-0x743CA21B] ; call dword [ebp-0x75] ;  (1 found)
0x148040dd: mov edi, edi ; push ebx ; push esi ; push edi ; call dword [0x1480D070] ;  (1 found)
0x14803f8f: mov edi, edi ; push esi ; push edi ; call dword [0x1480D070] ;  (1 found)
0x14802067: mov edi, edx ; ret  ;  (1 found)
0x14801f52: mov edi, edx ; ret  ;  (1 found)
0x14802012: mov edi, edx ; ret  ;  (1 found)
0x1480b3e3: mov edx, 0x0000010B ; cmp word [ecx+0x18], dx ; sete al ; pop ebp ; ret  ;  (1 found)
0x1480ba9d: mov edx, 0x448B1480 ; and al, 0x0C ; pop esi ; pop edi ; ret  ;  (1 found)
0x1480b9f1: mov edx, 0x448B1480 ; and al, 0x0C ; pop esi ; pop edi ; ret  ;  (1 found)
0x1480b9ed: mov edx, 0xBA1C1480 ; adc byte [ebx+ecx*4], 0x00000044 ; and al, 0x0C ; pop esi ; pop edi ; ret  ;  (1 found)
0x1480ba99: mov edx, 0xBACC1480 ; adc byte [ebx+ecx*4], 0x00000044 ; and al, 0x0C ; pop esi ; pop edi ; ret  ;  (1 found)
0x14801697: mov edx, 0xF7FFFFFF ; fcomp dword [ecx+0x1B] ; sal bh, 0xFFFFFFD8 ; dec eax ; pop ebp ; ret  ;  (1 found)
0x14809fe5: mov edx, dword [esp+0x04] ; and edx, 0x00000300 ; or edx, 0x7F ; mov word [esp+0x06], dx ; fldcw word [esp+0x06] ; ret  ;  (1 found)
0x1480213a: mov edx, dword [esp+0x10] ; mov dword [edx], eax ; mov eax, 0x00000003 ; ret  ;  (1 found)
0x1480262a: mov edx, dword [esp+0x10] ; mov dword [edx], eax ; mov eax, 0x00000003 ; ret  ;  (1 found)
0x1480b680: mov edx, eax ; xor eax, eax ; and cl, 0x0000001F ; shl edx, cl ; ret  ;  (1 found)
0x1480b489: mov edx, ebx ; mov ebx, ecx ; mov ecx, eax ; mov eax, esi ; pop esi ; retn 0x0010 ;  (1 found)
0x14809e26: mov esi, 0x04E181C0 ; add al, 0x00 ; add byte [ebx-0x7C27FC26], cl ; ret  ;  (1 found)
0x14809eb2: mov esi, 0x04E181C0 ; add al, 0x00 ; add byte [ebx-0x7C27FC26], cl ; ret  ;  (1 found)
0x14802964: mov esi, 0x14813B88 ; xor edi, edi ; push esi ; push edi ; call dword [0x1480D0AC] ;  (1 found)
0x14804916: mov esi, 0x59FFFFF0 ; mov eax, esi ; pop ebx ; pop edi ; pop esi ; ret  ;  (1 found)
0x1480375f: mov esi, 0x8BFFFFFC ; in eax, 0x5D ; ret  ;  (1 found)
0x148093b2: mov esi, 0xEBFFFFFB ; retn 0x75FF ;  (1 found)
0x14804b1f: mov esi, dword [ebp+0x08] ; lea eax, dword [ebp-0x00000718] ; push edi ; push eax ; push dword [esi+0x04] ; call dword [0x1480D0E8] ;  (1 found)
0x148089a3: mov esi, dword [ebp+0x24] ; push 0x00000001 ; push esi ; call dword [0x1480D0B0] ;  (1 found)
0x1480367b: mov esi, dword [ebx] ; xor esi, edx ; mov dword [ebx], eax ; ror esi, cl ; mov ecx, esi ; call dword [0x1480D144] ;  (1 found)
0x148039fe: mov esi, eax ; call dword [0x1480D070] ;  (1 found)
0x14808b2f: mov esi, eax ; call dword [0x1480D070] ;  (1 found)
0x14801156: mov esi, eax ; mov eax, 0x00000002 ; push 0x00001B59 ; mov word [esp+0x14], ax ; call dword [0x1480D11C] ;  (1 found)
0x1480a70f: mov esi, eax ; mov eax, esi ; pop esi ; pop ebp ; ret  ;  (1 found)
0x14804f19: mov esp, 0x0F000000 ; mov bh, 0xC3 ; push eax ; call dword [0x1480D0E0] ;  (1 found)
0x14804851: mov esp, 0x50FFFFFE ; push esi ; call dword [0x1480D0DC] ;  (1 found)
0x1480bd58: mov esp, 0x66C203C1 ; movd edx, mm3 ; xor ecx, ecx ; cmp dl, byte [eax] ; cmovne eax, ecx ; ret  ;  (1 found)
0x148031b1: mov esp, 0x851480D0 ; sal byte [ebx+0x56], 0x00000068 ; in al, 0xDA ; adc byte [edi+edi*8], 0x00000075 ; clc  ; call dword [0x1480D09C] ;  (1 found)
0x148032d9: mov esp, 0xB014813C ; add ebx, eax ; mov eax, 0x14813CAC ; ret  ;  (1 found)
0x1480a9af: mov esp, ebp ; pop ebp ; mov esp, ebx ; pop ebx ; ret  ;  (1 found)
0x1480aac7: mov esp, ebp ; pop ebp ; mov esp, ebx ; pop ebx ; ret  ;  (1 found)
0x14801a35: mov esp, ebp ; pop ebp ; push ecx ; ret  ;  (1 found)
0x148010db: mov esp, ebp ; pop ebp ; ret  ;  (1 found)
0x1480157a: mov esp, ebp ; pop ebp ; ret  ;  (1 found)
0x148016f0: mov esp, ebp ; pop ebp ; ret  ;  (1 found)
0x148018d8: mov esp, ebp ; pop ebp ; ret  ;  (1 found)
0x14801bd6: mov esp, ebp ; pop ebp ; ret  ;  (1 found)
0x14801e90: mov esp, ebp ; pop ebp ; ret  ;  (1 found)
0x14801d16: mov esp, ebp ; pop ebp ; ret  ;  (1 found)
0x148025ed: mov esp, ebp ; pop ebp ; ret  ;  (1 found)
0x1480287d: mov esp, ebp ; pop ebp ; ret  ;  (1 found)
0x148023c7: mov esp, ebp ; pop ebp ; ret  ;  (1 found)
0x14802bc8: mov esp, ebp ; pop ebp ; ret  ;  (1 found)
0x14802d6b: mov esp, ebp ; pop ebp ; ret  ;  (1 found)
0x14802908: mov esp, ebp ; pop ebp ; ret  ;  (1 found)
0x14802a53: mov esp, ebp ; pop ebp ; ret  ;  (1 found)
0x148031f5: mov esp, ebp ; pop ebp ; ret  ;  (1 found)
0x14802f92: mov esp, ebp ; pop ebp ; ret  ;  (1 found)
0x14802f4d: mov esp, ebp ; pop ebp ; ret  ;  (1 found)
0x14803140: mov esp, ebp ; pop ebp ; ret  ;  (1 found)
0x14803600: mov esp, ebp ; pop ebp ; ret  ;  (1 found)
0x1480371e: mov esp, ebp ; pop ebp ; ret  ;  (1 found)
0x14803763: mov esp, ebp ; pop ebp ; ret  ;  (1 found)
0x148037d5: mov esp, ebp ; pop ebp ; ret  ;  (1 found)
0x148038b6: mov esp, ebp ; pop ebp ; ret  ;  (1 found)
0x14803380: mov esp, ebp ; pop ebp ; ret  ;  (1 found)
0x1480547a: mov esp, ebp ; pop ebp ; ret  ;  (1 found)
0x14803e50: mov esp, ebp ; pop ebp ; ret  ;  (1 found)
0x14803f40: mov esp, ebp ; pop ebp ; ret  ;  (1 found)
0x1480430d: mov esp, ebp ; pop ebp ; ret  ;  (1 found)
0x1480436b: mov esp, ebp ; pop ebp ; ret  ;  (1 found)
0x14804654: mov esp, ebp ; pop ebp ; ret  ;  (1 found)
0x14804705: mov esp, ebp ; pop ebp ; ret  ;  (1 found)
0x14804801: mov esp, ebp ; pop ebp ; ret  ;  (1 found)
0x14804a9f: mov esp, ebp ; pop ebp ; ret  ;  (1 found)
0x14804c98: mov esp, ebp ; pop ebp ; ret  ;  (1 found)
0x14804d21: mov esp, ebp ; pop ebp ; ret  ;  (1 found)
0x1480509a: mov esp, ebp ; pop ebp ; ret  ;  (1 found)
0x14805174: mov esp, ebp ; pop ebp ; ret  ;  (1 found)
0x14805246: mov esp, ebp ; pop ebp ; ret  ;  (1 found)
0x14805524: mov esp, ebp ; pop ebp ; ret  ;  (1 found)
0x14805682: mov esp, ebp ; pop ebp ; ret  ;  (1 found)
0x148056fc: mov esp, ebp ; pop ebp ; ret  ;  (1 found)
0x148059bc: mov esp, ebp ; pop ebp ; ret  ;  (1 found)
0x14805b18: mov esp, ebp ; pop ebp ; ret  ;  (1 found)
0x14805eb8: mov esp, ebp ; pop ebp ; ret  ;  (1 found)
0x1480609f: mov esp, ebp ; pop ebp ; ret  ;  (1 found)
0x14806ab1: mov esp, ebp ; pop ebp ; ret  ;  (1 found)
0x1480709d: mov esp, ebp ; pop ebp ; ret  ;  (1 found)
0x14807285: mov esp, ebp ; pop ebp ; ret  ;  (1 found)
0x148072ed: mov esp, ebp ; pop ebp ; ret  ;  (1 found)
0x1480765e: mov esp, ebp ; pop ebp ; ret  ;  (1 found)
0x1480637b: mov esp, ebp ; pop ebp ; ret  ;  (1 found)
0x148068cd: mov esp, ebp ; pop ebp ; ret  ;  (1 found)
0x1480691a: mov esp, ebp ; pop ebp ; ret  ;  (1 found)
0x14806972: mov esp, ebp ; pop ebp ; ret  ;  (1 found)
0x14807b2f: mov esp, ebp ; pop ebp ; ret  ;  (1 found)
0x14807c80: mov esp, ebp ; pop ebp ; ret  ;  (1 found)
0x14807eec: mov esp, ebp ; pop ebp ; ret  ;  (1 found)
0x14807e90: mov esp, ebp ; pop ebp ; ret  ;  (1 found)
0x14807fdf: mov esp, ebp ; pop ebp ; ret  ;  (1 found)
0x1480809b: mov esp, ebp ; pop ebp ; ret  ;  (1 found)
0x14808316: mov esp, ebp ; pop ebp ; ret  ;  (1 found)
0x14808365: mov esp, ebp ; pop ebp ; ret  ;  (1 found)
0x14808522: mov esp, ebp ; pop ebp ; ret  ;  (1 found)
0x148084f6: mov esp, ebp ; pop ebp ; ret  ;  (1 found)
0x1480858f: mov esp, ebp ; pop ebp ; ret  ;  (1 found)
0x148085c8: mov esp, ebp ; pop ebp ; ret  ;  (1 found)
0x1480857d: mov esp, ebp ; pop ebp ; ret  ;  (1 found)
0x148087e6: mov esp, ebp ; pop ebp ; ret  ;  (1 found)
0x14808ad3: mov esp, ebp ; pop ebp ; ret  ;  (1 found)
0x14808a8b: mov esp, ebp ; pop ebp ; ret  ;  (1 found)
0x14808bea: mov esp, ebp ; pop ebp ; ret  ;  (1 found)
0x14808dae: mov esp, ebp ; pop ebp ; ret  ;  (1 found)
0x14808e91: mov esp, ebp ; pop ebp ; ret  ;  (1 found)
0x14808e1b: mov esp, ebp ; pop ebp ; ret  ;  (1 found)
0x14808f70: mov esp, ebp ; pop ebp ; ret  ;  (1 found)
0x14807702: mov esp, ebp ; pop ebp ; ret  ;  (1 found)
0x148077ab: mov esp, ebp ; pop ebp ; ret  ;  (1 found)
0x1480a3c7: mov esp, ebp ; pop ebp ; ret  ;  (1 found)
0x1480a480: mov esp, ebp ; pop ebp ; ret  ;  (1 found)
0x1480a591: mov esp, ebp ; pop ebp ; ret  ;  (1 found)
0x1480905e: mov esp, ebp ; pop ebp ; ret  ;  (1 found)
0x1480918b: mov esp, ebp ; pop ebp ; ret  ;  (1 found)
0x14809485: mov esp, ebp ; pop ebp ; ret  ;  (1 found)
0x14809777: mov esp, ebp ; pop ebp ; ret  ;  (1 found)
0x14809921: mov esp, ebp ; pop ebp ; ret  ;  (1 found)
0x1480a77c: mov esp, ebp ; pop ebp ; ret  ;  (1 found)
0x1480a9c8: mov esp, ebp ; pop ebp ; ret  ;  (1 found)
0x1480acb7: mov esp, ebp ; pop ebp ; ret  ;  (1 found)
0x1480b19f: mov esp, ebp ; pop ebp ; ret  ;  (1 found)
0x1480b09c: mov esp, ebp ; pop ebp ; ret  ;  (1 found)
0x1480b385: mov esp, ebp ; pop ebp ; ret  ;  (1 found)
0x1480b3b6: mov esp, ebp ; pop ebp ; ret  ;  (1 found)
0x14802e64: mov esp, ebp ; pop ebp ; retn 0x0004 ;  (1 found)
0x14806456: mov esp, ebp ; pop ebp ; retn 0x0004 ;  (1 found)
0x14806520: mov esp, ebp ; pop ebp ; retn 0x0004 ;  (1 found)
0x148065cc: mov esp, ebp ; pop ebp ; retn 0x0004 ;  (1 found)
0x14806576: mov esp, ebp ; pop ebp ; retn 0x0004 ;  (1 found)
0x14801035: mov esp, ebp ; pop ebp ; retn 0x0008 ;  (1 found)
0x14806625: mov esp, ebp ; pop ebp ; retn 0x0008 ;  (1 found)
0x14806743: mov esp, ebp ; pop ebp ; retn 0x0008 ;  (1 found)
0x14806687: mov esp, ebp ; pop ebp ; retn 0x000C ;  (1 found)
0x148064ca: mov esp, ebp ; pop ebp ; retn 0x0024 ;  (1 found)
0x148066fb: mov esp, ebp ; pop ebp ; retn 0x0024 ;  (1 found)
0x1480a9b2: mov esp, ebx ; pop ebx ; ret  ;  (1 found)
0x1480aaca: mov esp, ebx ; pop ebx ; ret  ;  (1 found)
0x14808dab: mov seg?, di ; dec dword [ebx-0x743CA21B] ; call dword [ebp-0x75] ;  (1 found)
0x1480b198: mov word [ebp-0x02], cx ; fld qword [ebp-0x08] ; mov esp, ebp ; pop ebp ; ret  ;  (1 found)
0x14808517: mov word [ebp-0x08], cx ; fldcw word [ebp-0x08] ; movsx eax, word [ebp-0x04] ; mov esp, ebp ; pop ebp ; ret  ;  (1 found)
0x14809ff2: mov word [esp+0x06], dx ; fldcw word [esp+0x06] ; ret  ;  (1 found)
0x14801162: mov word [esp+0x14], ax ; call dword [0x1480D11C] ;  (1 found)
0x1480116e: mov word [esp+0x16], ax ; call dword [0x1480D118] ;  (1 found)
0x1480bd5d: movd edx, mm3 ; xor ecx, ecx ; cmp dl, byte [eax] ; cmovne eax, ecx ; ret  ;  (1 found)
0x1480bd5c: movd edx, xmm3 ; xor ecx, ecx ; cmp dl, byte [eax] ; cmovne eax, ecx ; ret  ;  (1 found)
0x14802009: movdqu  [edi+0x10], xmm0 ; mov eax, dword [esp+0x04] ; mov edi, edx ; ret  ;  (1 found)
0x14802005: movdqu  [edi], xmm0 ; movdqu  [edi+0x10], xmm0 ; mov eax, dword [esp+0x04] ; mov edi, edx ; ret  ;  (1 found)
0x14809aa8: movlpd qword [esp+0x04], xmm0 ; fld qword [esp+0x04] ; add esp, 0x10 ; ret  ;  (1 found)
0x14809aa9: movlps qword [esp+0x04], xmm0 ; fld qword [esp+0x04] ; add esp, 0x10 ; ret  ;  (1 found)
0x1480200a: movq qword [edi+0x10], mm0 ; mov eax, dword [esp+0x04] ; mov edi, edx ; ret  ;  (1 found)
0x14802006: movq qword [edi], mm0 ; movdqu  [edi+0x10], xmm0 ; mov eax, dword [esp+0x04] ; mov edi, edx ; ret  ;  (1 found)
0x1480b997: movq qword [edi], xmm1 ; lea edi, dword [edi+0x08] ; mov eax, dword [0x1480B9E4+ecx*4] ; jmp eax ;  (1 found)
0x1480c047: movq qword [edi], xmm1 ; lea edi, dword [edi+0x08] ; mov eax, dword [0x1480C094+ecx*4] ; jmp eax ;  (1 found)
0x14809668: movq qword [esp+0x04], xmm1 ; fld qword [esp+0x04] ; ret  ;  (1 found)
0x148096cf: movq qword [esp+0x04], xmm1 ; fld qword [esp+0x04] ; ret  ;  (1 found)
0x148096f2: movq qword [esp+0x04], xmm3 ; fld qword [esp+0x04] ; ret  ;  (1 found)
0x14803202: movsb  ; cmp al, 0x81 ; adc al, 0x5D ; ret  ;  (1 found)
0x1480326e: movsb  ; cmp al, 0x81 ; adc al, 0x5D ; ret  ;  (1 found)
0x1480be7f: movsb  ; mov eax, dword [esp+0x0C] ; pop esi ; pop edi ; ret  ;  (1 found)
0x1480b7cf: movsb  ; mov eax, dword [esp+0x0C] ; pop esi ; pop edi ; ret  ;  (1 found)
0x1480b9d1: movsd  ; and edx, 0x03 ; jmp dword [0x1480B9E4+edx*4] ;  (1 found)
0x1480c081: movsd  ; and edx, 0x03 ; jmp dword [0x1480C094+edx*4] ;  (1 found)
0x1480ba86: movsd  ; cld  ; jmp dword [0x1480BA90+edx*4] ;  (1 found)
0x1480c136: movsd  ; cld  ; jmp dword [0x1480C140+edx*4] ;  (1 found)
0x1480b67b: movsd  ; retn 0xE0D3 ;  (1 found)
0x1480427b: movsd  ; sar ch, 0xFFFFFFFF ; jmp dword [esi-0x74] ;  (1 found)
0x14809e25: movsx eax, al ; and ecx, 0x00000404 ; mov ebx, edx ; add ebx, eax ; add ebx, 0x10 ; jmp dword [ebx] ;  (1 found)
0x14809eb1: movsx eax, al ; and ecx, 0x00000404 ; mov ebx, edx ; add ebx, eax ; add ebx, 0x10 ; jmp dword [ebx] ;  (1 found)
0x1480851e: movsx eax, word [ebp-0x04] ; mov esp, ebp ; pop ebp ; ret  ;  (1 found)
0x148084f2: movsx eax, word [ebp-0x04] ; mov esp, ebp ; pop ebp ; ret  ;  (1 found)
0x1480858b: movsx eax, word [ebp-0x04] ; mov esp, ebp ; pop ebp ; ret  ;  (1 found)
0x1480a9f6: movzx eax, al ; and eax, 0x02 ; add eax, eax ; pop ebp ; ret  ;  (1 found)
0x14804f1d: movzx eax, bx ; push eax ; call dword [0x1480D0E0] ;  (1 found)
0x148081aa: movzx eax, byte [eax+ecx+0x28] ; and eax, 0x40 ; pop ebp ; ret  ;  (1 found)
0x14803c39: movzx eax, word [eax+ecx*2] ; and eax, dword [ebp+0x0C] ; pop ebp ; ret  ;  (1 found)
0x14803b8a: movzx eax, word [edx] ; movzx ecx, word [ecx] ; sub eax, ecx ; pop esi ; pop ebp ; ret  ;  (1 found)
0x14803b8d: movzx ecx, word [ecx] ; sub eax, ecx ; pop esi ; pop ebp ; ret  ;  (1 found)
0x1480b52c: mul ecx ; add edx, ebx ; pop ebx ; retn 0x0010 ;  (1 found)
0x1480b514: mul ecx ; retn 0x0010 ;  (1 found)
0x14805a09: neg byte [eax+0x50] ; call dword [0x1480D0A4] ;  (1 found)
0x1480acb1: neg byte [esi+0x0F] ; xchg eax, esp ; rcr byte [ebx-0x75], 0xFFFFFFE5 ; pop ebp ; ret  ;  (1 found)
0x14803913: neg byte [esi+0x5D] ; retn 0x0004 ;  (1 found)
0x14809ed3: neg ch ; fcomp st0, st5 ; fcomp st0, st1 ; out dx, al ; ret  ;  (1 found)
0x148016a0: neg eax ; dec eax ; pop ebp ; ret  ;  (1 found)
0x1480447f: neg eax ; pop ebp ; ret  ;  (1 found)
0x148072a2: neg eax ; pop ebp ; ret  ;  (1 found)
0x148028ac: neg eax ; ret  ;  (1 found)
0x1480729e: neg eax ; sbb eax, eax ; neg eax ; pop ebp ; ret  ;  (1 found)
0x148028a8: neg eax ; sbb eax, eax ; neg eax ; ret  ;  (1 found)
0x1480b644: neg eax ; sbb edx, 0x00000000 ; pop ebp ; pop esi ; pop edi ; retn 0x0010 ;  (1 found)
0x1480b293: neg ecx ; sbb ecx, ecx ; and ecx, 0xFFFFFF08 ; lea eax, dword [ecx+0x00000100] ; pop ebp ; ret  ;  (1 found)
0x1480b26a: neg ecx ; sbb ecx, ecx ; and ecx, 0xFFFFFF90 ; lea eax, dword [ecx+0x00000080] ; pop ebp ; ret  ;  (1 found)
0x1480b287: neg ecx ; sbb ecx, ecx ; and ecx, 0xFFFFFFE0 ; lea eax, dword [ecx+0x40] ; pop ebp ; ret  ;  (1 found)
0x14801572: nop  ; aaa  ; adc dword [ecx+eax], 0x8B5E01B0 ; in eax, 0x5D ; ret  ;  (1 found)
0x148033de: nop  ; adc dword [edi+edi*8], 0xA1C35D5E ; enter 0x813C, 0x14 ; ret  ;  (1 found)
0x1480b270: nop  ; lea eax, dword [ecx+0x00000080] ; pop ebp ; ret  ;  (1 found)
0x1480112d: nop dword [eax] ; push 0x00000006 ; push 0x00000001 ; push 0x00000002 ; call dword [0x1480D128] ;  (1 found)
0x14801689: not eax ; and eax, dword [ebp+0x08] ; pop ebp ; ret  ;  (1 found)
0x1480173c: not ecx ; mov dword [0x14813018], ecx ; pop edi ; pop esi ; ret  ;  (1 found)
0x14803a57: or al, 0x00 ; add byte [eax], al ; xor eax, eax ; pop esi ; pop ebp ; ret  ;  (1 found)
0x14803b52: or al, 0x00 ; add byte [eax], al ; xor eax, eax ; pop esi ; pop ebp ; ret  ;  (1 found)
0x14802da3: or al, 0x00 ; add byte [ecx+0x5F], bl ; pop esi ; pop ebp ; ret  ;  (1 found)
0x14809663: or al, 0x00 ; add byte [edi+0x0B], bh ; movq qword [esp+0x04], xmm1 ; fld qword [esp+0x04] ; ret  ;  (1 found)
0x14803c0f: or al, 0x01 ; mov eax, edi ; pop edi ; pop ebp ; retn 0x0004 ;  (1 found)
0x1480a047: or al, 0x24 ; fld tword [esp] ; add esp, 0x0A ; test eax, 0x00000000 ; mov eax, dword [edx+0x04] ; ret  ;  (1 found)
0x14807066: or al, 0x2B ; ret  ;  (1 found)
0x14806f9f: or al, 0x2B ; ret  ;  (1 found)
0x148026d1: or al, 0x39 ; push ecx ; or byte [ebp+0x05], dh ; mov eax, 0x00000001 ; ret  ;  (1 found)
0x14801459: or al, 0x3B ; enter 0x0C72, 0x83 ; retn 0x3B28 ;  (1 found)
0x14804472: or al, 0x3B ; inc ebp ; or byte [esi+0x05], dh ; or eax, 0xFFFFFFFF ; pop ebp ; ret  ;  (1 found)
0x1480279f: or al, 0x3B ; retn 0xF675 ;  (1 found)
0x14806a83: or al, 0x3B ; sal dword [ebp-0x0C], 0x33 ; rcr byte [ebp-0x3D], 0xFFFFFF8B ; call dword [ebp-0x75] ;  (1 found)
0x14809734: or al, 0x50 ; call dword [0x1480D014] ;  (1 found)
0x14802416: or al, 0x50 ; call dword [0x1480D09C] ;  (1 found)
0x148063cc: or al, 0x50 ; call dword [0x1480D09C] ;  (1 found)
0x148043ce: or al, 0x56 ; call dword [0x1480D064] ;  (1 found)
0x14804029: or al, 0x56 ; call dword [0x1480D074] ;  (1 found)
0x14802134: or al, 0x5D ; mov eax, dword [esp+0x08] ; mov edx, dword [esp+0x10] ; mov dword [edx], eax ; mov eax, 0x00000003 ; ret  ;  (1 found)
0x14803239: or al, 0x5D ; ret  ;  (1 found)
0x14803287: or al, 0x5D ; ret  ;  (1 found)
0x14803c3f: or al, 0x5D ; ret  ;  (1 found)
0x14803c72: or al, 0x5D ; ret  ;  (1 found)
0x148072bd: or al, 0x5D ; ret  ;  (1 found)
0x14807bf4: or al, 0x5D ; ret  ;  (1 found)
0x1480216b: or al, 0x5D ; retn 0x0004 ;  (1 found)
0x148021d2: or al, 0x5D ; retn 0x0008 ;  (1 found)
0x1480be83: or al, 0x5E ; pop edi ; ret  ;  (1 found)
0x1480ba03: or al, 0x5E ; pop edi ; ret  ;  (1 found)
0x1480ba15: or al, 0x5E ; pop edi ; ret  ;  (1 found)
0x1480ba2f: or al, 0x5E ; pop edi ; ret  ;  (1 found)
0x1480bab1: or al, 0x5E ; pop edi ; ret  ;  (1 found)
0x1480baa3: or al, 0x5E ; pop edi ; ret  ;  (1 found)
0x1480bac7: or al, 0x5E ; pop edi ; ret  ;  (1 found)
0x1480bae1: or al, 0x5E ; pop edi ; ret  ;  (1 found)
0x1480bbc7: or al, 0x5E ; pop edi ; ret  ;  (1 found)
0x1480bcb3: or al, 0x5E ; pop edi ; ret  ;  (1 found)
0x1480b7d3: or al, 0x5E ; pop edi ; ret  ;  (1 found)
0x1480b9f7: or al, 0x5E ; pop edi ; ret  ;  (1 found)
0x1480c0b3: or al, 0x5E ; pop edi ; ret  ;  (1 found)
0x1480c0a7: or al, 0x5E ; pop edi ; ret  ;  (1 found)
0x1480c0c5: or al, 0x5E ; pop edi ; ret  ;  (1 found)
0x1480c0df: or al, 0x5E ; pop edi ; ret  ;  (1 found)
0x1480c161: or al, 0x5E ; pop edi ; ret  ;  (1 found)
0x1480c153: or al, 0x5E ; pop edi ; ret  ;  (1 found)
0x1480c177: or al, 0x5E ; pop edi ; ret  ;  (1 found)
0x1480c191: or al, 0x5E ; pop edi ; ret  ;  (1 found)
0x1480c277: or al, 0x5E ; pop edi ; ret  ;  (1 found)
0x1480c363: or al, 0x5E ; pop edi ; ret  ;  (1 found)
0x1480682b: or al, 0x5F ; mov eax, ebx ; pop ebx ; pop esi ; pop ebp ; ret  ;  (1 found)
0x14801091: or al, 0x6A ; add byte [eax+0x00], ch ; adc byte [eax], al ; add byte [ebp-0x00110F6B], cl ; call dword [edx-0x75] ;  (1 found)
0x14801451: or al, 0x72 ; or cl, byte [ebx+0x42030842] ; or al, 0x3B ; enter 0x0C72, 0x83 ; retn 0x3B28 ;  (1 found)
0x1480abfc: or al, 0x81 ; retn 0xFA00 ;  (1 found)
0x148074af: or al, 0x83 ; cmp eax, 0x14814164 ; add byte [ebp+0x05], dh ; or eax, 0xFFFFFFFF ; pop esi ; ret  ;  (1 found)
0x14802e10: or al, 0x83 ; mov dword [ecx+edi], 0x33AB751F ; rcr byte [esi+0x5B], 0x0000005F ; ret  ;  (1 found)
0x1480145d: or al, 0x83 ; retn 0x3B28 ;  (1 found)
0x14804182: or al, 0x85 ; push dword [eax+eax*4+0x56] ; call dword [0x1480D074] ;  (1 found)
0x14804025: or al, 0x85 ; push dword [esp+ecx+0x56] ; call dword [0x1480D074] ;  (1 found)
0x1480237e: or al, 0x85 ; sal byte [ebp+ecx+0x56], 0x00000056 ; push ebx ; call dword [0x1480D0A0] ;  (1 found)
0x14806332: or al, 0x85 ; sal byte [ebp+ecx+0x56], 0x00000056 ; push ebx ; call dword [0x1480D0A0] ;  (1 found)
0x14809b76: or al, 0x8B ; aam 0x83 ; retn 0x8910 ;  (1 found)
0x14809684: or al, 0x8B ; aam 0x83 ; retn 0x8914 ;  (1 found)
0x1480b09b: or al, 0x8B ; in eax, 0x5D ; ret  ;  (1 found)
0x14806558: or al, 0x8B ; into  ; call dword [0x1480D144] ;  (1 found)
0x148065ae: or al, 0x8B ; into  ; call dword [0x1480D144] ;  (1 found)
0x14806607: or al, 0x8B ; into  ; call dword [0x1480D144] ;  (1 found)
0x1480671f: or al, 0x8B ; into  ; push dword [ebp+0x08] ; call dword [0x1480D144] ;  (1 found)
0x1480c3c9: or al, 0x8B ; retn 0xE2C1 ;  (1 found)
0x1480a6bc: or al, 0xD0 ; adc byte [ebx+eax*8], 0xFFFFFF8B ; call dword [ebp-0x75] ;  (1 found)
0x1480729d: or al, 0xF7 ; fcomp dword [ebx] ; sal bh, 0xFFFFFFD8 ; pop ebp ; ret  ;  (1 found)
0x14808094: or al, 0xFE ; adc byte [edi+ebx*2], 0x0000005E ; pop ebx ; mov esp, ebp ; pop ebp ; ret  ;  (1 found)
0x14808392: or al, 0xFF ; add bl, ch ; fidiv word [eax-0x743CA2FF] ; call dword [ebp-0x75] ;  (1 found)
0x148014ba: or al, byte [eax] ; add byte [eax+eax*8-0x3FCDFB8B], al ; pop ebp ; ret  ;  (1 found)
0x14807f0e: or al, ch ; add eax, 0x83000000 ; les edx,  [eax] ; pop ebp ; ret  ;  (1 found)
0x14803e69: or al, ch ; imul edi, ebx, 0x5959FFFF ; pop ebp ; retn 0x0004 ;  (1 found)
0x14801649: or al, ch ; mov al, byte [0x59000008] ; pop ecx ; mov al, 0x01 ; pop ebp ; ret  ;  (1 found)
0x1480317e: or al, ch ; or eax, dword [eax] ; add byte [eax], al ; pop ecx ; push dword [ebp+0x08] ; call dword [0x1480D0B8] ;  (1 found)
0x14808727: or al, ch ; push es ; add byte [eax], al ; add byte [ebx+0x5D5E10C4], al ; ret  ;  (1 found)
0x14801ebf: or al, ch ; ret  ;  (1 found)
0x148066e3: or al, ch ; sbb byte [eax], al ; add byte [eax], al ; push eax ; call dword [0x1480D030] ;  (1 found)
0x14801c04: or bh, bh ; adc eax, 0x1480D050 ; push 0xC0000409 ; call dword [0x1480D064] ;  (1 found)
0x14809926: or bh, bh ; adc eax, 0x1480D05C ; mov dword [0x14814188], eax ; xor eax, eax ; ret  ;  (1 found)
0x1480316e: or bh, bh ; adc eax, 0x1480D064 ; push eax ; call dword [0x1480D068] ;  (1 found)
0x1480253c: or bh, bh ; adc eax, 0x1480D084 ; pop esi ; pop ebp ; ret  ;  (1 found)
0x14802847: or bh, bh ; adc eax, 0x1480D144 ; call edi ;  (1 found)
0x14806494: or bh, bh ; adc eax, 0x1480D144 ; call esi ;  (1 found)
0x14806665: or bh, bh ; adc eax, 0x1480D144 ; call esi ;  (1 found)
0x14806724: or bh, bh ; adc eax, 0x1480D144 ; call esi ;  (1 found)
0x148066c5: or bh, bh ; adc eax, 0x1480D144 ; call esi ;  (1 found)
0x14802598: or bh, bh ; call dword [0x1480D098] ;  (1 found)
0x1480679f: or bh, bh ; call dword [0x1480D098] ;  (1 found)
0x1480a6d1: or bh, bh ; xor eax, 0x14813750 ; call dword [0x1480D004] ;  (1 found)
0x1480a702: or bh, bh ; xor eax, 0x14813750 ; call dword [0x1480D004] ;  (1 found)
0x14803b38: or bh, bh ; xor eax, 0x14814140 ; call dword [0x1480D0D0] ;  (1 found)
0x14806218: or bh, byte [eax-0x743C0001] ; call dword [ebp-0x75] ;  (1 found)
0x1480bd77: or bh, dh ; retn 0x0003 ;  (1 found)
0x148096ee: or byte [0x0F661481], 0xFFFFFFD6 ; pop esp ; and al, 0x04 ; fld qword [esp+0x04] ; ret  ;  (1 found)
0x148096c7: or byte [0x0FF21481], 0x00000058 ; enter 0x0F66, 0xD6 ; dec esp ; and al, 0x04 ; fld qword [esp+0x04] ; ret  ;  (1 found)
0x1480af04: or byte [eax+0x6A], dl ; add dword [edx+0x00], ebp ; push edi ; call dword [0x1480D104] ;  (1 found)
0x148010a2: or byte [eax-0x01], dl ; adc eax, 0x1480D134 ; mov dword [ebp-0x08], eax ; mov ecx, dword [ebp+0x08] ; push ecx ; call dword [0x1480D130] ;  (1 found)
0x14809952: or byte [eax], al ; add byte [eax], al ; leave  ; ret  ;  (1 found)
0x1480164c: or byte [eax], al ; add byte [ecx+0x59], bl ; mov al, 0x01 ; pop ebp ; ret  ;  (1 found)
0x1480233e: or byte [eax], al ; add byte [edx+0x00], ch ; push ebx ; call dword [0x1480D0A0] ;  (1 found)
0x148062f2: or byte [eax], al ; add byte [edx+0x00], ch ; push ebx ; call dword [0x1480D0A0] ;  (1 found)
0x14801039: or byte [eax], al ; pop edi ; pop esi ; pop ebx ; pop ebp ; ret  ;  (1 found)
0x148055fb: or byte [eax], bl ; add eax, 0x14813D00 ; push eax ; call dword [0x1480D078] ;  (1 found)
0x14805643: or byte [eax], bl ; add eax, 0x14813D00 ; push eax ; call dword [0x1480D07C] ;  (1 found)
0x148058e9: or byte [eax], bl ; pop ebp ; ret  ;  (1 found)
0x148058e2: or byte [eax], ch ; add dword [esi+eax-0x75], esi ; inc esp ; or byte [eax], bl ; pop ebp ; ret  ;  (1 found)
0x148081ad: or byte [eax], ch ; and eax, 0x40 ; pop ebp ; ret  ;  (1 found)
0x148026d4: or byte [ebp+0x05], dh ; mov eax, 0x00000001 ; ret  ;  (1 found)
0x1480597b: or byte [ebp+0x0B], dh ; push ecx ; call dword [0x1480D0FC] ;  (1 found)
0x14804b21: or byte [ebp-0x0007177B], cl ; call dword [edi+0x50] ;  (1 found)
0x14804416: or byte [ebp-0x3D], bl ; mov eax, dword [0x1480DB74+eax*8] ; pop ebp ; ret  ;  (1 found)
0x14806554: or byte [ebp-0x74F38B0A], al ; into  ; call dword [0x1480D144] ;  (1 found)
0x148065aa: or byte [ebp-0x74F38B0A], al ; into  ; call dword [0x1480D144] ;  (1 found)
0x14806603: or byte [ebp-0x74F38B0A], al ; into  ; call dword [0x1480D144] ;  (1 found)
0x1480a664: or byte [ebx+0x08870CC0], al ; pop ebp ; ret  ;  (1 found)
0x14804a4b: or byte [ebx+0x1275FEF8], al ; mov dword [0x14813CF8], 0x00000001 ; call dword [0x1480D0E4] ;  (1 found)
0x1480288e: or byte [ebx+0x14813B80], ah ; pop ebp ; ret  ;  (1 found)
0x14803200: or byte [ebx+0x14813CA4], ah ; pop ebp ; ret  ;  (1 found)
0x14804318: or byte [ebx+0x14813CE8], ah ; pop ebp ; ret  ;  (1 found)
0x1480b69e: or byte [ebx+0x1CDDF8E4], al ; and al, 0xF2 ; cvttps2pi mm0, qword [esp] ; leave  ; ret  ;  (1 found)
0x148057d0: or byte [ebx+0x3FE083C8], cl ; sar ecx, 0x06 ; imul eax, eax, 0x30 ; add eax, dword [0x14813E58+ecx*4] ; push eax ; call dword [0x1480D078] ;  (1 found)
0x148057f3: or byte [ebx+0x3FE083C8], cl ; sar ecx, 0x06 ; imul eax, eax, 0x30 ; add eax, dword [0x14813E58+ecx*4] ; push eax ; call dword [0x1480D07C] ;  (1 found)
0x14806502: or byte [ebx+0x4415FFCE], cl ; rol dword [eax-0x142900EC], 1  ; push es ; call dword [0x1480D088] ;  (1 found)
0x1480737e: or byte [ebx+0x5747F445], cl ; push esi ; push 0x00000009 ; push dword [eax+0x08] ; call dword [0x1480D0B0] ;  (1 found)
0x14801e89: or byte [ebx+0x5E5FF445], cl ; pop ebx ; mov esp, ebp ; pop ebp ; ret  ;  (1 found)
0x14809920: or byte [ebx+0x6AC35DE5], cl ; or bh, bh ; adc eax, 0x1480D05C ; mov dword [0x14814188], eax ; xor eax, eax ; ret  ;  (1 found)
0x14806437: or byte [ebx-0x00059532], cl ; adc eax, 0x1480D144 ; call esi ;  (1 found)
0x1480756f: or byte [ebx-0x00AFDF40], al ; adc eax, 0x1480D078 ; pop ebp ; ret  ;  (1 found)
0x14807583: or byte [ebx-0x00AFDF40], al ; adc eax, 0x1480D07C ; pop ebp ; ret  ;  (1 found)
0x14802843: or byte [ebx-0x00F79531], cl ; adc eax, 0x1480D144 ; call edi ;  (1 found)
0x1480bd73: or byte [ebx-0x08F7DBAC], cl ; retn 0x0003 ;  (1 found)
0x1480adc6: or byte [ebx-0x09EFF3B7], al ; retn 0x7404 ;  (1 found)
0x1480add2: or byte [ebx-0x09F7F3B8], al ; retn 0x7408 ;  (1 found)
0x1480adde: or byte [ebx-0x09FBF3B8], al ; retn 0x7410 ;  (1 found)
0x1480adea: or byte [ebx-0x09FDF3B8], al ; retn 0x7420 ;  (1 found)
0x14808faa: or byte [ebx-0x74E7F7B4], cl ; inc ebp ; adc al, 0x03 ; ret  ;  (1 found)
0x14802139: or byte [ebx-0x76EFDBAC], cl ; add bh, byte [eax+0x00000003] ; ret  ;  (1 found)
0x14802629: or byte [ebx-0x76EFDBAC], cl ; add bh, byte [eax+0x00000003] ; ret  ;  (1 found)
0x1480adb2: or byte [ebx], ah ; ret  ;  (1 found)
0x14801456: or byte [ebx], al ; inc edx ; or al, 0x3B ; enter 0x0C72, 0x83 ; retn 0x3B28 ;  (1 found)
0x148035fa: or byte [ebx], dh ; rcr byte [edi+0x5B], 0x0000005E ; mov esp, ebp ; pop ebp ; ret  ;  (1 found)
0x148072e8: or byte [ebx], dh ; rcr byte [esi+0x5B], 0xFFFFFF8B ; in eax, 0x5D ; ret  ;  (1 found)
0x14806cf1: or byte [ebx], dh ; shr al, 0xFFFFFFF0 ; inc edi ; add byte [eax], al ; ret  ;  (1 found)
0x1480bdd3: or byte [ecx+0x000000E6], al ; xor byte [ebp-0x3C], 0x0000005E ; pop edi ; pop ebx ; xor eax, eax ; ret  ;  (1 found)
0x1480a652: or byte [ecx+0x458B1448], cl ; or byte [ecx+0x458B1848], cl ; or byte [ecx+0x458B1C48], cl ; or byte [ebx+0x08870CC0], al ; pop ebp ; ret  ;  (1 found)
0x1480a658: or byte [ecx+0x458B1848], cl ; or byte [ecx+0x458B1C48], cl ; or byte [ebx+0x08870CC0], al ; pop ebp ; ret  ;  (1 found)
0x1480a65e: or byte [ecx+0x458B1C48], cl ; or byte [ebx+0x08870CC0], al ; pop ebp ; ret  ;  (1 found)
0x14807767: or byte [ecx-0x0000FF73], cl ; call dword [ebx-0x75] ;  (1 found)
0x14805197: or byte [edi+0x33], dl ; jmp dword [esi+0x39] ;  (1 found)
0x148086a5: or byte [edi+0x5E], bl ; pop ebp ; ret  ;  (1 found)
0x1480add9: or byte [edi+eax-0x75], dh ; inc ebp ; or byte [ebx-0x09FBF3B8], al ; retn 0x7410 ;  (1 found)
0x14806c92: or byte [edi-0x75], dl ; dec ebp ; fdiv st7, st0 ; adc eax, 0x1480D144 ; call dword [ebp-0x24] ;  (1 found)
0x14803c38: or byte [edi], cl ; mov bh, 0x04 ; dec eax ; and eax, dword [ebp+0x0C] ; pop ebp ; ret  ;  (1 found)
0x148080f8: or byte [edx+0x00], ch ; push dword [0x14814140] ; call dword [0x1480D028] ;  (1 found)
0x148039e5: or byte [edx+0x00], ch ; push dword [0x14814140] ; call dword [0x1480D0CC] ;  (1 found)
0x14806d14: or byte [edx+eax+0x0B], dh ; ret  ;  (1 found)
0x1480b9ec: or byte [edx-0x45E3EB80], bh ; adc byte [ebx+ecx*4], 0x00000044 ; and al, 0x0C ; pop esi ; pop edi ; ret  ;  (1 found)
0x148017a2: or byte [edx], al ; mov dword [eax+0x04], ecx ; ret  ;  (1 found)
0x14804475: or byte [esi+0x05], dh ; or eax, 0xFFFFFFFF ; pop ebp ; ret  ;  (1 found)
0x14802e45: or byte [esi-0x01], dl ; adc eax, 0x1480D144 ; call dword [ebp+0x08] ;  (1 found)
0x14809fb3: or ch, bl ; add eax, 0x14810F56 ; fmulp st1, st0 ; ret  ;  (1 found)
0x1480a04e: or ch, byte [ecx+0x00000000] ; mov eax, dword [edx+0x04] ; ret  ;  (1 found)
0x14801453: or cl, byte [ebx+0x42030842] ; or al, 0x3B ; enter 0x0C72, 0x83 ; retn 0x3B28 ;  (1 found)
0x14809f9d: or cl, cl ; ret  ;  (1 found)
0x1480a1b0: or cl, cl ; ret  ;  (1 found)
0x1480add6: or dh, dh ; retn 0x7408 ;  (1 found)
0x14802293: or dword [0x14813020], 0xFFFFFFFF ; pop ecx ; mov al, 0x01 ; ret  ;  (1 found)
0x148041cc: or dword [0x14813044], 0xFFFFFFFF ; mov al, 0x01 ; ret  ;  (1 found)
0x148033dc: or dword [0x14813690], 0xFFFFFFFF ; pop esi ; pop ebp ; ret  ;  (1 found)
0x14801c0c: or dword [eax+eax], eax ; sar bh, 0x00000015 ; rol byte [fs:eax+0x15FF5014], 1  ; push 0x5D1480D0 ; ret  ;  (1 found)
0x148017a1: or dword [eax], 0x02 ; mov dword [eax+0x04], ecx ; ret  ;  (1 found)
0x14803a09: or dword [eax], eax ; add byte [ecx-0x77], bl ; push es ; pop esi ; pop ebp ; ret  ;  (1 found)
0x1480b1c3: or dword [ebp+0x6A0575C0], eax ; add bl, byte [eax+0x5D] ; ret  ;  (1 found)
0x148019b9: or dword [ebx+0x000DE8CF], ecx ; add byte [eax], al ; call edi ;  (1 found)
0x1480198e: or dword [ebx+0x0038E8CF], ecx ; add byte [eax], al ; call edi ;  (1 found)
0x1480108b: or dword [esi], 0xC4830000 ; or al, 0x6A ; add byte [eax+0x00], ch ; adc byte [eax], al ; add byte [ebp-0x00110F6B], cl ; call dword [edx-0x75] ;  (1 found)
0x148026ae: or eax, 0x00000000 ; add esp, 0x18 ; pop edi ; pop esi ; pop ebx ; ret  ;  (1 found)
0x14807138: or eax, 0x00001000 ; pop ebp ; ret  ;  (1 found)
0x14806d8e: or eax, 0x00008000 ; pop ebp ; ret  ;  (1 found)
0x14806d9a: or eax, 0x00008040 ; pop ebp ; ret  ;  (1 found)
0x14805a18: or eax, 0x0974DB85 ; push ebx ; call dword [0x1480D0FC] ;  (1 found)
0x148096ef: or eax, 0x0F661481 ; salc  ; pop esp ; and al, 0x04 ; fld qword [esp+0x04] ; ret  ;  (1 found)
0x14801737: or eax, 0x14813014 ; not ecx ; mov dword [0x14813018], ecx ; pop edi ; pop esi ; ret  ;  (1 found)
0x1480173f: or eax, 0x14813018 ; pop edi ; pop esi ; ret  ;  (1 found)
0x1480a69c: or eax, 0x14813750 ; xor eax, eax ; cmp ecx, 0xFFFFFFFF ; setne al ; ret  ;  (1 found)
0x148041c5: or eax, 0x235AE850 ; add byte [eax], al ; or dword [0x14813044], 0xFFFFFFFF ; mov al, 0x01 ; ret  ;  (1 found)
0x14806d95: or eax, 0x40 ; pop ebp ; ret  ;  (1 found)
0x14802201: or eax, 0x5D29CD59 ; ret  ;  (1 found)
0x1480222e: or eax, 0x5D29CD59 ; ret  ;  (1 found)
0x148096e6: or eax, 0x66061481 ; andps xmm3,  [0x14810D80] ; movq qword [esp+0x04], xmm3 ; fld qword [esp+0x04] ; ret  ;  (1 found)
0x148096dd: or eax, 0x66C31481 ; cmpps xmm3,  [0x14810DA0], 0x06 ; andpd xmm3,  [0x14810D80] ; movq qword [esp+0x04], xmm3 ; fld qword [esp+0x04] ; ret  ;  (1 found)
0x148031cd: or eax, 0x8B0875FF ; into  ; call dword [0x1480D144] ;  (1 found)
0x148068a6: or eax, 0xCB8B006A ; call dword [0x1480D144] ;  (1 found)
0x148068f3: or eax, 0xCF8B006A ; call dword [0x1480D144] ;  (1 found)
0x14806110: or eax, 0xFFFFFFFF ; lock xadd dword [ecx+0x000000B0], eax ; dec eax ; pop ebp ; ret  ;  (1 found)
0x1480340d: or eax, 0xFFFFFFFF ; pop ebp ; ret  ;  (1 found)
0x14804478: or eax, 0xFFFFFFFF ; pop ebp ; ret  ;  (1 found)
0x14805905: or eax, 0xFFFFFFFF ; pop ebp ; ret  ;  (1 found)
0x1480744a: or eax, 0xFFFFFFFF ; pop ebp ; ret  ;  (1 found)
0x148080f1: or eax, 0xFFFFFFFF ; pop ebp ; ret  ;  (1 found)
0x14805898: or eax, 0xFFFFFFFF ; pop edi ; pop esi ; pop ebx ; pop ebp ; ret  ;  (1 found)
0x14802db8: or eax, 0xFFFFFFFF ; pop edi ; ret  ;  (1 found)
0x14808be6: or eax, 0xFFFFFFFF ; pop esi ; mov esp, ebp ; pop ebp ; ret  ;  (1 found)
0x1480a58d: or eax, 0xFFFFFFFF ; pop esi ; mov esp, ebp ; pop ebp ; ret  ;  (1 found)
0x148074b9: or eax, 0xFFFFFFFF ; pop esi ; ret  ;  (1 found)
0x1480127c: or eax, dword [0xC0330000] ; ret  ;  (1 found)
0x148083b6: or eax, dword [eax-0x3E75FE1F] ; pop ebp ; ret  ;  (1 found)
0x14803180: or eax, dword [eax] ; add byte [eax], al ; pop ecx ; push dword [ebp+0x08] ; call dword [0x1480D0B8] ;  (1 found)
0x14809697: or eax, dword [eax] ; add byte [ebx+0x44DD10C4], al ; and al, 0x04 ; ret  ;  (1 found)
0x148084ac: or eax, dword [ecx+0x00001D38] ; sal byte [ebx+eax+0x33], 0xFFFFFFC0 ; ret  ;  (1 found)
0x1480b3e4: or eax, dword [ecx] ; add byte [eax], al ; cmp word [ecx+0x18], dx ; sete al ; pop ebp ; ret  ;  (1 found)
0x1480be7d: or ebx, esi ; movsb  ; mov eax, dword [esp+0x0C] ; pop esi ; pop edi ; ret  ;  (1 found)
0x1480b7cd: or ebx, esi ; movsb  ; mov eax, dword [esp+0x0C] ; pop esi ; pop edi ; ret  ;  (1 found)
0x14801f4b: or ebx, esi ; stosb  ; mov eax, dword [esp+0x04] ; mov edi, edx ; ret  ;  (1 found)
0x1480b196: or ecx, eax ; mov word [ebp-0x02], cx ; fld qword [ebp-0x08] ; mov esp, ebp ; pop ebp ; ret  ;  (1 found)
0x14809fef: or edx, 0x7F ; mov word [esp+0x06], dx ; fldcw word [esp+0x06] ; ret  ;  (1 found)
0x14809667: or esp, dword [esi+0x0F] ; salc  ; dec esp ; and al, 0x04 ; fld qword [esp+0x04] ; ret  ;  (1 found)
0x14808040: or esp, dword [esi+0x3B] ; ret  ;  (1 found)
0x14806299: out 0x00, al ; add byte [eax], al ; add esp, 0x10 ; ret  ;  (1 found)
0x14809013: out 0xFE, al ; lea eax, dword [ebp-0x00001404] ; push esi ; push eax ; push ecx ; call dword [0x1480D0A8] ;  (1 found)
0x14805301: out 0xFF, eax ; call dword [ebx-0x5D] ;  (1 found)
0x14802300: out dx, al ; add dword [ebp-0x15], esi ; pop edi ; mov al, 0x01 ; pop esi ; ret  ;  (1 found)
0x14805633: out dx, al ; add dword [ebp-0x15], esi ; pop edi ; mov al, 0x01 ; pop esi ; ret  ;  (1 found)
0x14807741: out dx, al ; add dword [ebp-0x15], esi ; pop esi ; pop edi ; pop ebp ; ret  ;  (1 found)
0x14809ed9: out dx, al ; ret  ;  (1 found)
0x1480ba82: out dx, eax ; add al, 0xFD ; rep movsd  ; cld  ; jmp dword [0x1480BA90+edx*4] ;  (1 found)
0x1480c132: out dx, eax ; add al, 0xFD ; rep movsd  ; cld  ; jmp dword [0x1480C140+edx*4] ;  (1 found)
0x148022fd: out dx, eax ; sbb byte [ebx-0x148AFE12], al ; pop edi ; mov al, 0x01 ; pop esi ; ret  ;  (1 found)
0x14805630: out dx, eax ; sbb byte [ebx-0x148AFE12], al ; pop edi ; mov al, 0x01 ; pop esi ; ret  ;  (1 found)
0x1480c466: outsb  ; retn 0xC783 ;  (1 found)
0x14809e23: pmovmskb ecx, qword [edi] ; mov esi, 0x04E181C0 ; add al, 0x00 ; add byte [ebx-0x7C27FC26], cl ; ret  ;  (1 found)
0x14803f89: pop ds ; add byte [eax], al ; pop ecx ; pop ebp ; ret  ;  (1 found)
0x1480112e: pop ds ; add byte [edx+0x06], ch ; push 0x00000001 ; push 0x00000002 ; call dword [0x1480D128] ;  (1 found)
0x14807933: pop ds ; push edi ; push ebx ; mov ecx, esi ; call dword [0x1480D144] ;  (1 found)
0x148078e8: pop ds ; push edi ; push esi ; mov ecx, ebx ; call dword [0x1480D144] ;  (1 found)
0x148028a5: pop ds ; ror eax, cl ; neg eax ; sbb eax, eax ; neg eax ; ret  ;  (1 found)
0x1480b686: pop ds ; shl edx, cl ; ret  ;  (1 found)
0x1480b666: pop ds ; shr eax, cl ; ret  ;  (1 found)
0x148020f3: pop dword [0x00000000] ; add esp, 0x18 ; pop edi ; pop esi ; pop ebx ; ret  ;  (1 found)
0x148020f2: pop dword [fs:0x00000000] ; add esp, 0x18 ; pop edi ; pop esi ; pop ebx ; ret  ;  (1 found)
0x148081a6: pop eax ; adc dword [edi+ecx], 0x280844B6 ; and eax, 0x40 ; pop ebp ; ret  ;  (1 found)
0x148096cd: pop eax ; enter 0x0F66, 0xD6 ; dec esp ; and al, 0x04 ; fld qword [esp+0x04] ; ret  ;  (1 found)
0x148032b9: pop eax ; pop ebp ; ret  ;  (1 found)
0x14804402: pop eax ; pop ebp ; ret  ;  (1 found)
0x1480a9f3: pop eax ; pop ebp ; ret  ;  (1 found)
0x1480b1ca: pop eax ; pop ebp ; ret  ;  (1 found)
0x1480b243: pop eax ; pop ebp ; ret  ;  (1 found)
0x148010d7: pop eax ; pop ebx ; ret  ;  (1 found)
0x14802703: pop eax ; pop ecx ; pop ebp ; pop ecx ; pop ebx ; retn 0x0004 ;  (1 found)
0x1480511a: pop eax ; pop edi ; pop esi ; pop ebp ; ret  ;  (1 found)
0x14805a0a: pop eax ; push eax ; call dword [0x1480D0A4] ;  (1 found)
0x1480a0ff: pop ebp ; add byte [eax], al ; add byte [edx-0x3D], bl ; fldcw word [esp] ; pop edx ; ret  ;  (1 found)
0x1480a9c3: pop ebp ; clc  ; fld qword [ebp-0x08] ; mov esp, ebp ; pop ebp ; ret  ;  (1 found)
0x1480a39c: pop ebp ; hlt  ; call dword [0x1480D144] ;  (1 found)
0x1480a2e4: pop ebp ; hlt  ; call dword [0x1480D144] ;  (1 found)
0x1480a24a: pop ebp ; hlt  ; call dword [0x1480D144] ;  (1 found)
0x1480857a: pop ebp ; hlt  ; wait  ; mov esp, ebp ; pop ebp ; ret  ;  (1 found)
0x1480a396: pop ebp ; in al, dx ; fld qword [esi] ; push eax ; fstp qword [ebp-0x0C] ; call dword [0x1480D144] ;  (1 found)
0x1480a2de: pop ebp ; in al, dx ; fld qword [esi] ; push eax ; fstp qword [ebp-0x0C] ; call dword [0x1480D144] ;  (1 found)
0x1480a244: pop ebp ; in al, dx ; fld qword [esi] ; push eax ; fstp qword [ebp-0x0C] ; call dword [0x1480D144] ;  (1 found)
0x14802482: pop ebp ; jmp dword [0x1480D088] ;  (1 found)
0x14802135: pop ebp ; mov eax, dword [esp+0x08] ; mov edx, dword [esp+0x10] ; mov dword [edx], eax ; mov eax, 0x00000003 ; ret  ;  (1 found)
0x14802625: pop ebp ; mov eax, dword [esp+0x08] ; mov edx, dword [esp+0x10] ; mov dword [edx], eax ; mov eax, 0x00000003 ; ret  ;  (1 found)
0x1480a9b1: pop ebp ; mov esp, ebx ; pop ebx ; ret  ;  (1 found)
0x1480aac9: pop ebp ; mov esp, ebx ; pop ebx ; ret  ;  (1 found)
0x14802705: pop ebp ; pop ecx ; pop ebx ; retn 0x0004 ;  (1 found)
0x1480b649: pop ebp ; pop esi ; pop edi ; retn 0x0010 ;  (1 found)
0x14801a37: pop ebp ; push ecx ; ret  ;  (1 found)
0x148010dd: pop ebp ; ret  ;  (1 found)
0x1480103e: pop ebp ; ret  ;  (1 found)
0x1480157c: pop ebp ; ret  ;  (1 found)
0x14801428: pop ebp ; ret  ;  (1 found)
0x14801468: pop ebp ; ret  ;  (1 found)
0x148014c3: pop ebp ; ret  ;  (1 found)
0x148014da: pop ebp ; ret  ;  (1 found)
0x1480162b: pop ebp ; ret  ;  (1 found)
0x14801653: pop ebp ; ret  ;  (1 found)
0x1480168e: pop ebp ; ret  ;  (1 found)
0x148016a3: pop ebp ; ret  ;  (1 found)
0x148016f2: pop ebp ; ret  ;  (1 found)
0x148018da: pop ebp ; ret  ;  (1 found)
0x14801bd8: pop ebp ; ret  ;  (1 found)
0x14801e92: pop ebp ; ret  ;  (1 found)
0x14801f0c: pop ebp ; ret  ;  (1 found)
0x14801c1d: pop ebp ; ret  ;  (1 found)
0x14801d18: pop ebp ; ret  ;  (1 found)
0x14802205: pop ebp ; ret  ;  (1 found)
0x14802232: pop ebp ; ret  ;  (1 found)
0x1480547c: pop ebp ; ret  ;  (1 found)
0x14802185: pop ebp ; ret  ;  (1 found)
0x148021bc: pop ebp ; ret  ;  (1 found)
0x148025b0: pop ebp ; ret  ;  (1 found)
0x14802544: pop ebp ; ret  ;  (1 found)
0x148025ef: pop ebp ; ret  ;  (1 found)
0x148023c9: pop ebp ; ret  ;  (1 found)
0x1480287f: pop ebp ; ret  ;  (1 found)
0x1480244d: pop ebp ; ret  ;  (1 found)
0x148024c1: pop ebp ; ret  ;  (1 found)
0x1480247f: pop ebp ; ret  ;  (1 found)
0x148024fe: pop ebp ; ret  ;  (1 found)
0x14802c19: pop ebp ; ret  ;  (1 found)
0x14802bca: pop ebp ; ret  ;  (1 found)
0x14802da9: pop ebp ; ret  ;  (1 found)
0x14802d6d: pop ebp ; ret  ;  (1 found)
0x14802894: pop ebp ; ret  ;  (1 found)
0x1480291f: pop ebp ; ret  ;  (1 found)
0x148028c1: pop ebp ; ret  ;  (1 found)
0x1480290a: pop ebp ; ret  ;  (1 found)
0x14802a55: pop ebp ; ret  ;  (1 found)
0x148031f7: pop ebp ; ret  ;  (1 found)
0x14803206: pop ebp ; ret  ;  (1 found)
0x14802e9e: pop ebp ; ret  ;  (1 found)
0x148060ca: pop ebp ; ret  ;  (1 found)
0x14802e83: pop ebp ; ret  ;  (1 found)
0x14802f4f: pop ebp ; ret  ;  (1 found)
0x14802f94: pop ebp ; ret  ;  (1 found)
0x14802ff6: pop ebp ; ret  ;  (1 found)
0x14803142: pop ebp ; ret  ;  (1 found)
0x148030e5: pop ebp ; ret  ;  (1 found)
0x14803602: pop ebp ; ret  ;  (1 found)
0x14803720: pop ebp ; ret  ;  (1 found)
0x14803765: pop ebp ; ret  ;  (1 found)
0x148037a2: pop ebp ; ret  ;  (1 found)
0x14803736: pop ebp ; ret  ;  (1 found)
0x148037d7: pop ebp ; ret  ;  (1 found)
0x148038b8: pop ebp ; ret  ;  (1 found)
0x1480399a: pop ebp ; ret  ;  (1 found)
0x14803a10: pop ebp ; ret  ;  (1 found)
0x148032ba: pop ebp ; ret  ;  (1 found)
0x14803272: pop ebp ; ret  ;  (1 found)
0x14803288: pop ebp ; ret  ;  (1 found)
0x1480323a: pop ebp ; ret  ;  (1 found)
0x148032c5: pop ebp ; ret  ;  (1 found)
0x14803410: pop ebp ; ret  ;  (1 found)
0x14803382: pop ebp ; ret  ;  (1 found)
0x14803419: pop ebp ; ret  ;  (1 found)
0x148033e4: pop ebp ; ret  ;  (1 found)
0x14803a5e: pop ebp ; ret  ;  (1 found)
0x14803a90: pop ebp ; ret  ;  (1 found)
0x14803b93: pop ebp ; ret  ;  (1 found)
0x14803b59: pop ebp ; ret  ;  (1 found)
0x14803b67: pop ebp ; ret  ;  (1 found)
0x14803c73: pop ebp ; ret  ;  (1 found)
0x14803c40: pop ebp ; ret  ;  (1 found)
0x14803e52: pop ebp ; ret  ;  (1 found)
0x14803f42: pop ebp ; ret  ;  (1 found)
0x14803f8d: pop ebp ; ret  ;  (1 found)
0x1480430f: pop ebp ; ret  ;  (1 found)
0x1480431e: pop ebp ; ret  ;  (1 found)
0x1480436d: pop ebp ; ret  ;  (1 found)
0x14804417: pop ebp ; ret  ;  (1 found)
0x14804403: pop ebp ; ret  ;  (1 found)
0x14804420: pop ebp ; ret  ;  (1 found)
0x14804443: pop ebp ; ret  ;  (1 found)
0x14804481: pop ebp ; ret  ;  (1 found)
0x14804656: pop ebp ; ret  ;  (1 found)
0x1480447b: pop ebp ; ret  ;  (1 found)
0x14804707: pop ebp ; ret  ;  (1 found)
0x14804803: pop ebp ; ret  ;  (1 found)
0x14804a19: pop ebp ; ret  ;  (1 found)
0x14804a27: pop ebp ; ret  ;  (1 found)
0x14804a20: pop ebp ; ret  ;  (1 found)
0x14804a12: pop ebp ; ret  ;  (1 found)
0x14804a2e: pop ebp ; ret  ;  (1 found)
0x14804b06: pop ebp ; ret  ;  (1 found)
0x14804aa1: pop ebp ; ret  ;  (1 found)
0x14804c9a: pop ebp ; ret  ;  (1 found)
0x14804d23: pop ebp ; ret  ;  (1 found)
0x1480509c: pop ebp ; ret  ;  (1 found)
0x1480511d: pop ebp ; ret  ;  (1 found)
0x14805176: pop ebp ; ret  ;  (1 found)
0x1480518e: pop ebp ; ret  ;  (1 found)
0x148051c5: pop ebp ; ret  ;  (1 found)
0x14805248: pop ebp ; ret  ;  (1 found)
0x14805526: pop ebp ; ret  ;  (1 found)
0x1480559f: pop ebp ; ret  ;  (1 found)
0x14805609: pop ebp ; ret  ;  (1 found)
0x14805651: pop ebp ; ret  ;  (1 found)
0x148056fe: pop ebp ; ret  ;  (1 found)
0x14805733: pop ebp ; ret  ;  (1 found)
0x14805684: pop ebp ; ret  ;  (1 found)
0x148057ea: pop ebp ; ret  ;  (1 found)
0x1480580d: pop ebp ; ret  ;  (1 found)
0x1480589e: pop ebp ; ret  ;  (1 found)
0x148058eb: pop ebp ; ret  ;  (1 found)
0x14805908: pop ebp ; ret  ;  (1 found)
0x148059be: pop ebp ; ret  ;  (1 found)
0x14805c81: pop ebp ; ret  ;  (1 found)
0x14805c18: pop ebp ; ret  ;  (1 found)
0x14805b1a: pop ebp ; ret  ;  (1 found)
0x14805cbd: pop ebp ; ret  ;  (1 found)
0x14805da1: pop ebp ; ret  ;  (1 found)
0x14805eba: pop ebp ; ret  ;  (1 found)
0x14805f57: pop ebp ; ret  ;  (1 found)
0x14805eda: pop ebp ; ret  ;  (1 found)
0x148060c3: pop ebp ; ret  ;  (1 found)
0x148060a1: pop ebp ; ret  ;  (1 found)
0x14806a5b: pop ebp ; ret  ;  (1 found)
0x14806aee: pop ebp ; ret  ;  (1 found)
0x14806a62: pop ebp ; ret  ;  (1 found)
0x14806a8a: pop ebp ; ret  ;  (1 found)
0x14806ab3: pop ebp ; ret  ;  (1 found)
0x14806d98: pop ebp ; ret  ;  (1 found)
0x14806d9f: pop ebp ; ret  ;  (1 found)
0x14806d93: pop ebp ; ret  ;  (1 found)
0x1480709f: pop ebp ; ret  ;  (1 found)
0x148072a4: pop ebp ; ret  ;  (1 found)
0x1480713d: pop ebp ; ret  ;  (1 found)
0x14807287: pop ebp ; ret  ;  (1 found)
0x148072be: pop ebp ; ret  ;  (1 found)
0x148072ef: pop ebp ; ret  ;  (1 found)
0x1480744d: pop ebp ; ret  ;  (1 found)
0x148073ff: pop ebp ; ret  ;  (1 found)
0x14807452: pop ebp ; ret  ;  (1 found)
0x1480742c: pop ebp ; ret  ;  (1 found)
0x148073d2: pop ebp ; ret  ;  (1 found)
0x1480757a: pop ebp ; ret  ;  (1 found)
0x14807660: pop ebp ; ret  ;  (1 found)
0x1480758e: pop ebp ; ret  ;  (1 found)
0x148060fa: pop ebp ; ret  ;  (1 found)
0x148061a4: pop ebp ; ret  ;  (1 found)
0x14806123: pop ebp ; ret  ;  (1 found)
0x1480611c: pop ebp ; ret  ;  (1 found)
0x1480626b: pop ebp ; ret  ;  (1 found)
0x1480637d: pop ebp ; ret  ;  (1 found)
0x14806403: pop ebp ; ret  ;  (1 found)
0x14806831: pop ebp ; ret  ;  (1 found)
0x148067b9: pop ebp ; ret  ;  (1 found)
0x14806930: pop ebp ; ret  ;  (1 found)
0x148068cf: pop ebp ; ret  ;  (1 found)
0x1480691c: pop ebp ; ret  ;  (1 found)
0x14806974: pop ebp ; ret  ;  (1 found)
0x14806a4d: pop ebp ; ret  ;  (1 found)
0x14806a46: pop ebp ; ret  ;  (1 found)
0x14806a54: pop ebp ; ret  ;  (1 found)
0x14807b31: pop ebp ; ret  ;  (1 found)
0x14807bf5: pop ebp ; ret  ;  (1 found)
0x14807c82: pop ebp ; ret  ;  (1 found)
0x14807e92: pop ebp ; ret  ;  (1 found)
0x14807eee: pop ebp ; ret  ;  (1 found)
0x14807fe1: pop ebp ; ret  ;  (1 found)
0x14807f17: pop ebp ; ret  ;  (1 found)
0x1480809d: pop ebp ; ret  ;  (1 found)
0x148080c9: pop ebp ; ret  ;  (1 found)
0x148080c5: pop ebp ; ret  ;  (1 found)
0x14808107: pop ebp ; ret  ;  (1 found)
0x148080f4: pop ebp ; ret  ;  (1 found)
0x148081b2: pop ebp ; ret  ;  (1 found)
0x14808146: pop ebp ; ret  ;  (1 found)
0x148081c6: pop ebp ; ret  ;  (1 found)
0x14808318: pop ebp ; ret  ;  (1 found)
0x148083b2: pop ebp ; ret  ;  (1 found)
0x148083bc: pop ebp ; ret  ;  (1 found)
0x14808377: pop ebp ; ret  ;  (1 found)
0x14808399: pop ebp ; ret  ;  (1 found)
0x14808367: pop ebp ; ret  ;  (1 found)
0x14808466: pop ebp ; ret  ;  (1 found)
0x1480841f: pop ebp ; ret  ;  (1 found)
0x14808524: pop ebp ; ret  ;  (1 found)
0x148084f8: pop ebp ; ret  ;  (1 found)
0x14808591: pop ebp ; ret  ;  (1 found)
0x1480857f: pop ebp ; ret  ;  (1 found)
0x148086a8: pop ebp ; ret  ;  (1 found)
0x148085ca: pop ebp ; ret  ;  (1 found)
0x14808731: pop ebp ; ret  ;  (1 found)
0x148086c4: pop ebp ; ret  ;  (1 found)
0x148087e8: pop ebp ; ret  ;  (1 found)
0x14808ad5: pop ebp ; ret  ;  (1 found)
0x14808a8d: pop ebp ; ret  ;  (1 found)
0x14808bec: pop ebp ; ret  ;  (1 found)
0x14808db0: pop ebp ; ret  ;  (1 found)
0x14808e93: pop ebp ; ret  ;  (1 found)
0x14808e1d: pop ebp ; ret  ;  (1 found)
0x14808f72: pop ebp ; ret  ;  (1 found)
0x14807747: pop ebp ; ret  ;  (1 found)
0x14807704: pop ebp ; ret  ;  (1 found)
0x148077ad: pop ebp ; ret  ;  (1 found)
0x1480a3c9: pop ebp ; ret  ;  (1 found)
0x1480a482: pop ebp ; ret  ;  (1 found)
0x1480a593: pop ebp ; ret  ;  (1 found)
0x1480a62f: pop ebp ; ret  ;  (1 found)
0x1480a66a: pop ebp ; ret  ;  (1 found)
0x14809060: pop ebp ; ret  ;  (1 found)
0x1480918d: pop ebp ; ret  ;  (1 found)
0x14809487: pop ebp ; ret  ;  (1 found)
0x14809779: pop ebp ; ret  ;  (1 found)
0x14809794: pop ebp ; ret  ;  (1 found)
0x1480980a: pop ebp ; ret  ;  (1 found)
0x14809923: pop ebp ; ret  ;  (1 found)
0x1480a714: pop ebp ; ret  ;  (1 found)
0x1480a77e: pop ebp ; ret  ;  (1 found)
0x1480a8a9: pop ebp ; ret  ;  (1 found)
0x1480a9f4: pop ebp ; ret  ;  (1 found)
0x1480a9fe: pop ebp ; ret  ;  (1 found)
0x1480a9ca: pop ebp ; ret  ;  (1 found)
0x1480a9e3: pop ebp ; ret  ;  (1 found)
0x1480acb9: pop ebp ; ret  ;  (1 found)
0x1480acdc: pop ebp ; ret  ;  (1 found)
0x1480affc: pop ebp ; ret  ;  (1 found)
0x1480afef: pop ebp ; ret  ;  (1 found)
0x1480afcd: pop ebp ; ret  ;  (1 found)
0x1480b1a1: pop ebp ; ret  ;  (1 found)
0x1480b09e: pop ebp ; ret  ;  (1 found)
0x1480b172: pop ebp ; ret  ;  (1 found)
0x1480b1ff: pop ebp ; ret  ;  (1 found)
0x1480b1b9: pop ebp ; ret  ;  (1 found)
0x1480b23b: pop ebp ; ret  ;  (1 found)
0x1480b244: pop ebp ; ret  ;  (1 found)
0x1480b1cb: pop ebp ; ret  ;  (1 found)
0x1480b277: pop ebp ; ret  ;  (1 found)
0x1480b291: pop ebp ; ret  ;  (1 found)
0x1480b24b: pop ebp ; ret  ;  (1 found)
0x1480b2f1: pop ebp ; ret  ;  (1 found)
0x1480b2a3: pop ebp ; ret  ;  (1 found)
0x1480b387: pop ebp ; ret  ;  (1 found)
0x1480b3b8: pop ebp ; ret  ;  (1 found)
0x1480b3ef: pop ebp ; ret  ;  (1 found)
0x1480b3d2: pop ebp ; ret  ;  (1 found)
0x14801966: pop ebp ; retn 0x0004 ;  (1 found)
0x1480224c: pop ebp ; retn 0x0004 ;  (1 found)
0x1480216c: pop ebp ; retn 0x0004 ;  (1 found)
0x14802e66: pop ebp ; retn 0x0004 ;  (1 found)
0x148038e4: pop ebp ; retn 0x0004 ;  (1 found)
0x14803915: pop ebp ; retn 0x0004 ;  (1 found)
0x14803c14: pop ebp ; retn 0x0004 ;  (1 found)
0x14803e71: pop ebp ; retn 0x0004 ;  (1 found)
0x14806458: pop ebp ; retn 0x0004 ;  (1 found)
0x14806522: pop ebp ; retn 0x0004 ;  (1 found)
0x14806578: pop ebp ; retn 0x0004 ;  (1 found)
0x148065ce: pop ebp ; retn 0x0004 ;  (1 found)
0x14801037: pop ebp ; retn 0x0008 ;  (1 found)
0x148021d3: pop ebp ; retn 0x0008 ;  (1 found)
0x14806627: pop ebp ; retn 0x0008 ;  (1 found)
0x14806745: pop ebp ; retn 0x0008 ;  (1 found)
0x14806689: pop ebp ; retn 0x000C ;  (1 found)
0x148064cc: pop ebp ; retn 0x0024 ;  (1 found)
0x148066fd: pop ebp ; retn 0x0024 ;  (1 found)
0x14804650: pop ebx ; mov eax, esi ; pop esi ; mov esp, ebp ; pop ebp ; ret  ;  (1 found)
0x14801a34: pop ebx ; mov esp, ebp ; pop ebp ; push ecx ; ret  ;  (1 found)
0x148010da: pop ebx ; mov esp, ebp ; pop ebp ; ret  ;  (1 found)
0x148018d7: pop ebx ; mov esp, ebp ; pop ebp ; ret  ;  (1 found)
0x14801bd5: pop ebx ; mov esp, ebp ; pop ebp ; ret  ;  (1 found)
0x14801e8f: pop ebx ; mov esp, ebp ; pop ebp ; ret  ;  (1 found)
0x148025ec: pop ebx ; mov esp, ebp ; pop ebp ; ret  ;  (1 found)
0x148023c6: pop ebx ; mov esp, ebp ; pop ebp ; ret  ;  (1 found)
0x14802d6a: pop ebx ; mov esp, ebp ; pop ebp ; ret  ;  (1 found)
0x14802a52: pop ebx ; mov esp, ebp ; pop ebp ; ret  ;  (1 found)
0x14804d20: pop ebx ; mov esp, ebp ; pop ebp ; ret  ;  (1 found)
0x14805245: pop ebx ; mov esp, ebp ; pop ebp ; ret  ;  (1 found)
0x148056fb: pop ebx ; mov esp, ebp ; pop ebp ; ret  ;  (1 found)
0x148059bb: pop ebx ; mov esp, ebp ; pop ebp ; ret  ;  (1 found)
0x1480609e: pop ebx ; mov esp, ebp ; pop ebp ; ret  ;  (1 found)
0x1480709c: pop ebx ; mov esp, ebp ; pop ebp ; ret  ;  (1 found)
0x14807284: pop ebx ; mov esp, ebp ; pop ebp ; ret  ;  (1 found)
0x148072ec: pop ebx ; mov esp, ebp ; pop ebp ; ret  ;  (1 found)
0x1480637a: pop ebx ; mov esp, ebp ; pop ebp ; ret  ;  (1 found)
0x14807fde: pop ebx ; mov esp, ebp ; pop ebp ; ret  ;  (1 found)
0x1480809a: pop ebx ; mov esp, ebp ; pop ebp ; ret  ;  (1 found)
0x14808315: pop ebx ; mov esp, ebp ; pop ebp ; ret  ;  (1 found)
0x14808e1a: pop ebx ; mov esp, ebp ; pop ebp ; ret  ;  (1 found)
0x1480a47f: pop ebx ; mov esp, ebp ; pop ebp ; ret  ;  (1 found)
0x1480acb6: pop ebx ; mov esp, ebp ; pop ebp ; ret  ;  (1 found)
0x1480b384: pop ebx ; mov esp, ebp ; pop ebp ; ret  ;  (1 found)
0x1480b3b5: pop ebx ; mov esp, ebp ; pop ebp ; ret  ;  (1 found)
0x1480103d: pop ebx ; pop ebp ; ret  ;  (1 found)
0x148021bb: pop ebx ; pop ebp ; ret  ;  (1 found)
0x1480244c: pop ebx ; pop ebp ; ret  ;  (1 found)
0x14804b05: pop ebx ; pop ebp ; ret  ;  (1 found)
0x1480559e: pop ebx ; pop ebp ; ret  ;  (1 found)
0x1480589d: pop ebx ; pop ebp ; ret  ;  (1 found)
0x14805cbc: pop ebx ; pop ebp ; ret  ;  (1 found)
0x14806402: pop ebx ; pop ebp ; ret  ;  (1 found)
0x1480afcc: pop ebx ; pop ebp ; ret  ;  (1 found)
0x1480b2f0: pop ebx ; pop ebp ; ret  ;  (1 found)
0x14804703: pop ebx ; pop edi ; mov esp, ebp ; pop ebp ; ret  ;  (1 found)
0x14802182: pop ebx ; pop edi ; pop esi ; pop ebp ; ret  ;  (1 found)
0x1480491d: pop ebx ; pop edi ; pop esi ; ret  ;  (1 found)
0x14802e1b: pop ebx ; pop edi ; ret  ;  (1 found)
0x148035fe: pop ebx ; pop esi ; mov esp, ebp ; pop ebp ; ret  ;  (1 found)
0x14805478: pop ebx ; pop esi ; mov esp, ebp ; pop ebp ; ret  ;  (1 found)
0x14805731: pop ebx ; pop esi ; pop ebp ; ret  ;  (1 found)
0x1480682f: pop ebx ; pop esi ; pop ebp ; ret  ;  (1 found)
0x148098ec: pop ebx ; pop esi ; pop edi ; leave  ; ret  ;  (1 found)
0x148010d8: pop ebx ; ret  ;  (1 found)
0x148019a1: pop ebx ; ret  ;  (1 found)
0x148019cc: pop ebx ; ret  ;  (1 found)
0x148020fe: pop ebx ; ret  ;  (1 found)
0x148026b8: pop ebx ; ret  ;  (1 found)
0x14804114: pop ebx ; ret  ;  (1 found)
0x14805a72: pop ebx ; ret  ;  (1 found)
0x1480bde5: pop ebx ; ret  ;  (1 found)
0x1480be29: pop ebx ; ret  ;  (1 found)
0x1480be14: pop ebx ; ret  ;  (1 found)
0x1480be1b: pop ebx ; ret  ;  (1 found)
0x1480be22: pop ebx ; ret  ;  (1 found)
0x1480a9b4: pop ebx ; ret  ;  (1 found)
0x1480aacc: pop ebx ; ret  ;  (1 found)
0x14802707: pop ebx ; retn 0x0004 ;  (1 found)
0x1480b530: pop ebx ; retn 0x0010 ;  (1 found)
0x1480bdde: pop ebx ; xor eax, eax ; ret  ;  (1 found)
0x1480543b: pop ecx ; call dword [eax+0x56] ;  (1 found)
0x14802202: pop ecx ; int 0x29 ; pop ebp ; ret  ;  (1 found)
0x1480222f: pop ecx ; int 0x29 ; pop ebp ; ret  ;  (1 found)
0x14801650: pop ecx ; mov al, 0x01 ; pop ebp ; ret  ;  (1 found)
0x14801f09: pop ecx ; mov al, 0x01 ; pop ebp ; ret  ;  (1 found)
0x1480229a: pop ecx ; mov al, 0x01 ; ret  ;  (1 found)
0x14803801: pop ecx ; mov al, 0x01 ; ret  ;  (1 found)
0x14802919: pop ecx ; mov dword [0x14813B84], eax ; pop ebp ; ret  ;  (1 found)
0x1480554d: pop ecx ; mov dword [0x14813C90], eax ; ret  ;  (1 found)
0x1480326c: pop ecx ; mov dword [0x14813CA4], eax ; pop ebp ; ret  ;  (1 found)
0x14803a0c: pop ecx ; mov dword [esi], eax ; pop esi ; pop ebp ; ret  ;  (1 found)
0x148038df: pop ecx ; mov dword [esi], edi ; pop edi ; pop esi ; pop ebp ; retn 0x0004 ;  (1 found)
0x14805b15: pop ecx ; mov eax, dword [eax] ; mov esp, ebp ; pop ebp ; ret  ;  (1 found)
0x1480753d: pop ecx ; mov eax, dword [esi+eax] ; add eax, 0x20 ; push eax ; call dword [0x1480D080] ;  (1 found)
0x14809805: pop ecx ; mov eax, edi ; pop edi ; pop esi ; pop ebp ; ret  ;  (1 found)
0x14802ca5: pop ecx ; mov eax, edi ; pop edi ; pop esi ; ret  ;  (1 found)
0x1480491a: pop ecx ; mov eax, esi ; pop ebx ; pop edi ; pop esi ; ret  ;  (1 found)
0x14801034: pop ecx ; mov esp, ebp ; pop ebp ; retn 0x0008 ;  (1 found)
0x14802704: pop ecx ; pop ebp ; pop ecx ; pop ebx ; retn 0x0004 ;  (1 found)
0x14802e82: pop ecx ; pop ebp ; ret  ;  (1 found)
0x14802e9d: pop ecx ; pop ebp ; ret  ;  (1 found)
0x14803735: pop ecx ; pop ebp ; ret  ;  (1 found)
0x14803f8c: pop ecx ; pop ebp ; ret  ;  (1 found)
0x14805ed9: pop ecx ; pop ebp ; ret  ;  (1 found)
0x1480224b: pop ecx ; pop ebp ; retn 0x0004 ;  (1 found)
0x14803e70: pop ecx ; pop ebp ; retn 0x0004 ;  (1 found)
0x148018d6: pop ecx ; pop ebx ; mov esp, ebp ; pop ebp ; ret  ;  (1 found)
0x14802706: pop ecx ; pop ebx ; retn 0x0004 ;  (1 found)
0x1480164f: pop ecx ; pop ecx ; mov al, 0x01 ; pop ebp ; ret  ;  (1 found)
0x14805b14: pop ecx ; pop ecx ; mov eax, dword [eax] ; mov esp, ebp ; pop ebp ; ret  ;  (1 found)
0x14803734: pop ecx ; pop ecx ; pop ebp ; ret  ;  (1 found)
0x14803e6f: pop ecx ; pop ecx ; pop ebp ; retn 0x0004 ;  (1 found)
0x148060f7: pop ecx ; pop ecx ; pop esi ; pop ebp ; ret  ;  (1 found)
0x148013d1: pop ecx ; pop ecx ; ret  ;  (1 found)
0x14802ed9: pop ecx ; pop ecx ; ret  ;  (1 found)
0x1480393a: pop ecx ; pop ecx ; ret  ;  (1 found)
0x14803928: pop ecx ; pop ecx ; ret  ;  (1 found)
0x14804eaa: pop ecx ; pop ecx ; ret  ;  (1 found)
0x14803995: pop ecx ; pop ecx ; xor eax, eax ; pop esi ; pop ebp ; ret  ;  (1 found)
0x1480572f: pop ecx ; pop edi ; pop ebx ; pop esi ; pop ebp ; ret  ;  (1 found)
0x14802da6: pop ecx ; pop edi ; pop esi ; pop ebp ; ret  ;  (1 found)
0x14805c16: pop ecx ; pop esi ; pop ebp ; ret  ;  (1 found)
0x14805c7f: pop ecx ; pop esi ; pop ebp ; ret  ;  (1 found)
0x14805f55: pop ecx ; pop esi ; pop ebp ; ret  ;  (1 found)
0x148060f8: pop ecx ; pop esi ; pop ebp ; ret  ;  (1 found)
0x148061a2: pop ecx ; pop esi ; pop ebp ; ret  ;  (1 found)
0x14807565: pop ecx ; pop esi ; ret  ;  (1 found)
0x14803184: pop ecx ; push dword [ebp+0x08] ; call dword [0x1480D0B8] ;  (1 found)
0x1480a5e9: pop ecx ; push eax ; call dword [0x1480D00C] ;  (1 found)
0x14808b1e: pop ecx ; push eax ; call dword [0x1480D020] ;  (1 found)
0x14801293: pop ecx ; ret  ;  (1 found)
0x148013d2: pop ecx ; ret  ;  (1 found)
0x14802eda: pop ecx ; ret  ;  (1 found)
0x14802fd7: pop ecx ; ret  ;  (1 found)
0x14803854: pop ecx ; ret  ;  (1 found)
0x1480393b: pop ecx ; ret  ;  (1 found)
0x14803929: pop ecx ; ret  ;  (1 found)
0x1480334e: pop ecx ; ret  ;  (1 found)
0x148034c1: pop ecx ; ret  ;  (1 found)
0x14803470: pop ecx ; ret  ;  (1 found)
0x14803cbb: pop ecx ; ret  ;  (1 found)
0x14803d1c: pop ecx ; ret  ;  (1 found)
0x14803db7: pop ecx ; ret  ;  (1 found)
0x14803d67: pop ecx ; ret  ;  (1 found)
0x1480496d: pop ecx ; ret  ;  (1 found)
0x14804e42: pop ecx ; ret  ;  (1 found)
0x14804eab: pop ecx ; ret  ;  (1 found)
0x148057c7: pop ecx ; ret  ;  (1 found)
0x14805ac8: pop ecx ; ret  ;  (1 found)
0x14806cbf: pop ecx ; ret  ;  (1 found)
0x14806213: pop ecx ; ret  ;  (1 found)
0x14806a20: pop ecx ; ret  ;  (1 found)
0x148069c6: pop ecx ; ret  ;  (1 found)
0x1480828a: pop ecx ; ret  ;  (1 found)
0x14808247: pop ecx ; ret  ;  (1 found)
0x1480846f: pop ecx ; ret  ;  (1 found)
0x1480866a: pop ecx ; ret  ;  (1 found)
0x14808b6d: pop ecx ; ret  ;  (1 found)
0x1480a504: pop ecx ; ret  ;  (1 found)
0x14809254: pop ecx ; ret  ;  (1 found)
0x14809883: pop ecx ; ret  ;  (1 found)
0x1480115e: pop ecx ; sbb eax, dword [eax] ; add byte [esi-0x77], ah ; inc esp ; and al, 0x14 ; call dword [0x1480D11C] ;  (1 found)
0x1480169d: pop ecx ; sbb eax, eax ; neg eax ; dec eax ; pop ebp ; ret  ;  (1 found)
0x14801686: pop ecx ; sbb eax, eax ; not eax ; and eax, dword [ebp+0x08] ; pop ebp ; ret  ;  (1 found)
0x1480b76b: pop ecx ; xchg eax, esp ; mov eax, dword [eax] ; mov dword [esp], eax ; ret  ;  (1 found)
0x148055ee: pop ecx ; xor al, al ; pop edi ; pop esi ; ret  ;  (1 found)
0x14803996: pop ecx ; xor eax, eax ; pop esi ; pop ebp ; ret  ;  (1 found)
0x1480be10: pop edi ; lea eax, dword [edx-0x01] ; pop ebx ; ret  ;  (1 found)
0x148098ee: pop edi ; leave  ; ret  ;  (1 found)
0x1480c4e4: pop edi ; leave  ; ret  ;  (1 found)
0x1480c47b: pop edi ; leave  ; ret  ;  (1 found)
0x1480c43a: pop edi ; leave  ; ret  ;  (1 found)
0x14802304: pop edi ; mov al, 0x01 ; pop esi ; ret  ;  (1 found)
0x14805637: pop edi ; mov al, 0x01 ; pop esi ; ret  ;  (1 found)
0x1480682c: pop edi ; mov eax, ebx ; pop ebx ; pop esi ; pop ebp ; ret  ;  (1 found)
0x1480559a: pop edi ; mov eax, esi ; pop esi ; pop ebx ; pop ebp ; ret  ;  (1 found)
0x14804704: pop edi ; mov esp, ebp ; pop ebp ; ret  ;  (1 found)
0x14805523: pop edi ; mov esp, ebp ; pop ebp ; ret  ;  (1 found)
0x148051c4: pop edi ; pop ebp ; ret  ;  (1 found)
0x14808145: pop edi ; pop ebp ; ret  ;  (1 found)
0x14807746: pop edi ; pop ebp ; ret  ;  (1 found)
0x1480b171: pop edi ; pop ebp ; ret  ;  (1 found)
0x14803c13: pop edi ; pop ebp ; retn 0x0004 ;  (1 found)
0x148056fa: pop edi ; pop ebx ; mov esp, ebp ; pop ebp ; ret  ;  (1 found)
0x1480244b: pop edi ; pop ebx ; pop ebp ; ret  ;  (1 found)
0x14806401: pop edi ; pop ebx ; pop ebp ; ret  ;  (1 found)
0x1480afcb: pop edi ; pop ebx ; pop ebp ; ret  ;  (1 found)
0x148035fd: pop edi ; pop ebx ; pop esi ; mov esp, ebp ; pop ebp ; ret  ;  (1 found)
0x14805730: pop edi ; pop ebx ; pop esi ; pop ebp ; ret  ;  (1 found)
0x1480be21: pop edi ; pop ebx ; ret  ;  (1 found)
0x1480be1a: pop edi ; pop ebx ; ret  ;  (1 found)
0x1480be28: pop edi ; pop ebx ; ret  ;  (1 found)
0x1480bddd: pop edi ; pop ebx ; xor eax, eax ; ret  ;  (1 found)
0x14808e8f: pop edi ; pop esi ; mov esp, ebp ; pop ebp ; ret  ;  (1 found)
0x14809775: pop edi ; pop esi ; mov esp, ebp ; pop ebp ; ret  ;  (1 found)
0x14802183: pop edi ; pop esi ; pop ebp ; ret  ;  (1 found)
0x14802da7: pop edi ; pop esi ; pop ebp ; ret  ;  (1 found)
0x1480511b: pop edi ; pop esi ; pop ebp ; ret  ;  (1 found)
0x14806269: pop edi ; pop esi ; pop ebp ; ret  ;  (1 found)
0x1480841d: pop edi ; pop esi ; pop ebp ; ret  ;  (1 found)
0x148086a6: pop edi ; pop esi ; pop ebp ; ret  ;  (1 found)
0x1480a62d: pop edi ; pop esi ; pop ebp ; ret  ;  (1 found)
0x14809808: pop edi ; pop esi ; pop ebp ; ret  ;  (1 found)
0x148038e1: pop edi ; pop esi ; pop ebp ; retn 0x0004 ;  (1 found)
0x148038e2: pop edi ; pop esi ; pop ebp ; retn 0x0004 ;  (1 found)
0x14801e8d: pop edi ; pop esi ; pop ebx ; mov esp, ebp ; pop ebp ; ret  ;  (1 found)
0x148025ea: pop edi ; pop esi ; pop ebx ; mov esp, ebp ; pop ebp ; ret  ;  (1 found)
0x148023c4: pop edi ; pop esi ; pop ebx ; mov esp, ebp ; pop ebp ; ret  ;  (1 found)
0x14802a50: pop edi ; pop esi ; pop ebx ; mov esp, ebp ; pop ebp ; ret  ;  (1 found)
0x148059b9: pop edi ; pop esi ; pop ebx ; mov esp, ebp ; pop ebp ; ret  ;  (1 found)
0x1480609c: pop edi ; pop esi ; pop ebx ; mov esp, ebp ; pop ebp ; ret  ;  (1 found)
0x1480709a: pop edi ; pop esi ; pop ebx ; mov esp, ebp ; pop ebp ; ret  ;  (1 found)
0x14806378: pop edi ; pop esi ; pop ebx ; mov esp, ebp ; pop ebp ; ret  ;  (1 found)
0x14808098: pop edi ; pop esi ; pop ebx ; mov esp, ebp ; pop ebp ; ret  ;  (1 found)
0x14808313: pop edi ; pop esi ; pop ebx ; mov esp, ebp ; pop ebp ; ret  ;  (1 found)
0x1480b382: pop edi ; pop esi ; pop ebx ; mov esp, ebp ; pop ebp ; ret  ;  (1 found)
0x1480b3b3: pop edi ; pop esi ; pop ebx ; mov esp, ebp ; pop ebp ; ret  ;  (1 found)
0x1480103b: pop edi ; pop esi ; pop ebx ; pop ebp ; ret  ;  (1 found)
0x148021b9: pop edi ; pop esi ; pop ebx ; pop ebp ; ret  ;  (1 found)
0x14804b03: pop edi ; pop esi ; pop ebx ; pop ebp ; ret  ;  (1 found)
0x1480589b: pop edi ; pop esi ; pop ebx ; pop ebp ; ret  ;  (1 found)
0x14805cba: pop edi ; pop esi ; pop ebx ; pop ebp ; ret  ;  (1 found)
0x14805cb9: pop edi ; pop esi ; pop ebx ; pop ebp ; ret  ;  (1 found)
0x1480b2ee: pop edi ; pop esi ; pop ebx ; pop ebp ; ret  ;  (1 found)
0x1480199f: pop edi ; pop esi ; pop ebx ; ret  ;  (1 found)
0x148019ca: pop edi ; pop esi ; pop ebx ; ret  ;  (1 found)
0x148020fc: pop edi ; pop esi ; pop ebx ; ret  ;  (1 found)
0x148026b6: pop edi ; pop esi ; pop ebx ; ret  ;  (1 found)
0x14804112: pop edi ; pop esi ; pop ebx ; ret  ;  (1 found)
0x14805a70: pop edi ; pop esi ; pop ebx ; ret  ;  (1 found)
0x14801032: pop edi ; pop esi ; pop ecx ; mov esp, ebp ; pop ebp ; retn 0x0008 ;  (1 found)
0x14801744: pop edi ; pop esi ; ret  ;  (1 found)
0x148022d7: pop edi ; pop esi ; ret  ;  (1 found)
0x14802ca8: pop edi ; pop esi ; ret  ;  (1 found)
0x14804033: pop edi ; pop esi ; ret  ;  (1 found)
0x1480491e: pop edi ; pop esi ; ret  ;  (1 found)
0x148055f1: pop edi ; pop esi ; ret  ;  (1 found)
0x14802dbb: pop edi ; ret  ;  (1 found)
0x14802e1c: pop edi ; ret  ;  (1 found)
0x1480be85: pop edi ; ret  ;  (1 found)
0x1480ba05: pop edi ; ret  ;  (1 found)
0x1480ba17: pop edi ; ret  ;  (1 found)
0x1480baa5: pop edi ; ret  ;  (1 found)
0x1480ba31: pop edi ; ret  ;  (1 found)
0x1480bac9: pop edi ; ret  ;  (1 found)
0x1480bab3: pop edi ; ret  ;  (1 found)
0x1480bbc9: pop edi ; ret  ;  (1 found)
0x1480bae3: pop edi ; ret  ;  (1 found)
0x1480bcb5: pop edi ; ret  ;  (1 found)
0x1480b7d5: pop edi ; ret  ;  (1 found)
0x1480b9f9: pop edi ; ret  ;  (1 found)
0x1480c0a9: pop edi ; ret  ;  (1 found)
0x1480c0b5: pop edi ; ret  ;  (1 found)
0x1480c0c7: pop edi ; ret  ;  (1 found)
0x1480c0e1: pop edi ; ret  ;  (1 found)
0x1480c155: pop edi ; ret  ;  (1 found)
0x1480c163: pop edi ; ret  ;  (1 found)
0x1480c179: pop edi ; ret  ;  (1 found)
0x1480c193: pop edi ; ret  ;  (1 found)
0x1480c279: pop edi ; ret  ;  (1 found)
0x1480c365: pop edi ; ret  ;  (1 found)
0x1480b64b: pop edi ; retn 0x0010 ;  (1 found)
0x14807517: pop edi ; xor eax, eax ; pop esi ; ret  ;  (1 found)
0x148041c8: pop edx ; and eax, dword [eax] ; add byte [ebx-0x7ECFBBF3], al ; adc al, 0xFF ; mov al, 0x01 ; ret  ;  (1 found)
0x148095de: pop edx ; ret  ;  (1 found)
0x1480a079: pop edx ; ret  ;  (1 found)
0x1480a0a3: pop edx ; ret  ;  (1 found)
0x1480a09e: pop edx ; ret  ;  (1 found)
0x1480a103: pop edx ; ret  ;  (1 found)
0x1480a108: pop edx ; ret  ;  (1 found)
0x1480a0fc: pop edx ; ret  ;  (1 found)
0x14804e3f: pop es ; add byte [eax], al ; pop ecx ; ret  ;  (1 found)
0x14809b0c: pop es ; fld qword [0x14810E78] ; ret  ;  (1 found)
0x14809f39: pop es ; mov byte [ebp-0x00000090], 0x00000000 ; faddp st1, st0 ; ret  ;  (1 found)
0x14809f78: pop es ; mov byte [ebp-0x00000090], 0x00000001 ; faddp st1, st0 ; ret  ;  (1 found)
0x14809f95: pop es ; mov byte [ebp-0x00000090], 0x00000001 ; or cl, cl ; ret  ;  (1 found)
0x14802839: pop es ; mov dword [esi+0x08], 0x0000008A ; push dword [esi+0x08] ; mov ecx, edi ; push 0x00000008 ; call dword [0x1480D144] ;  (1 found)
0x1480b9ff: pop es ; mov eax, dword [esp+0x0C] ; pop esi ; pop edi ; ret  ;  (1 found)
0x1480c0af: pop es ; mov eax, dword [esp+0x0C] ; pop esi ; pop edi ; ret  ;  (1 found)
0x14802008: pop es ; movdqu  [edi+0x10], xmm0 ; mov eax, dword [esp+0x04] ; mov edi, edx ; ret  ;  (1 found)
0x148033db: pop es ; or dword [0x14813690], 0xFFFFFFFF ; pop esi ; pop ebp ; ret  ;  (1 found)
0x1480a6b8: pop es ; push eax ; call dword [0x1480D00C] ;  (1 found)
0x148023aa: pop es ; push esi ; call dword [0x1480D098] ;  (1 found)
0x1480635e: pop es ; push esi ; call dword [0x1480D098] ;  (1 found)
0x148047ea: pop es ; push esi ; call dword [0x1480D0D4] ;  (1 found)
0x14805239: pop es ; push esi ; call dword [0x1480D0F0] ;  (1 found)
0x148039c3: pop es ; xor eax, eax ; inc eax ; ret  ;  (1 found)
0x148051c0: pop esi ; lea eax, dword [edx+0x02] ; pop edi ; pop ebp ; ret  ;  (1 found)
0x14807bdd: pop esi ; leave  ; ret  ;  (1 found)
0x148067b6: pop esi ; mov al, 0x01 ; pop ebp ; ret  ;  (1 found)
0x14804e95: pop esi ; mov al, 0x01 ; ret  ;  (1 found)
0x1480b16b: pop esi ; mov eax, dword [ebp+0x10] ; mov dword [eax], edi ; pop edi ; pop ebp ; ret  ;  (1 found)
0x14802d67: pop esi ; mov eax, ebx ; pop ebx ; mov esp, ebp ; pop ebp ; ret  ;  (1 found)
0x14805242: pop esi ; mov eax, ebx ; pop ebx ; mov esp, ebp ; pop ebp ; ret  ;  (1 found)
0x14801579: pop esi ; mov esp, ebp ; pop ebp ; ret  ;  (1 found)
0x148035ff: pop esi ; mov esp, ebp ; pop ebp ; ret  ;  (1 found)
0x148038b5: pop esi ; mov esp, ebp ; pop ebp ; ret  ;  (1 found)
0x14804653: pop esi ; mov esp, ebp ; pop ebp ; ret  ;  (1 found)
0x14805479: pop esi ; mov esp, ebp ; pop ebp ; ret  ;  (1 found)
0x14805681: pop esi ; mov esp, ebp ; pop ebp ; ret  ;  (1 found)
0x14807b2e: pop esi ; mov esp, ebp ; pop ebp ; ret  ;  (1 found)
0x14807c7f: pop esi ; mov esp, ebp ; pop ebp ; ret  ;  (1 found)
0x14808be9: pop esi ; mov esp, ebp ; pop ebp ; ret  ;  (1 found)
0x14808e90: pop esi ; mov esp, ebp ; pop ebp ; ret  ;  (1 found)
0x1480a590: pop esi ; mov esp, ebp ; pop ebp ; ret  ;  (1 found)
0x14809776: pop esi ; mov esp, ebp ; pop ebp ; ret  ;  (1 found)
0x14802481: pop esi ; pop ebp ; jmp dword [0x1480D088] ;  (1 found)
0x14801467: pop esi ; pop ebp ; ret  ;  (1 found)
0x14802184: pop esi ; pop ebp ; ret  ;  (1 found)
0x148024fd: pop esi ; pop ebp ; ret  ;  (1 found)
0x14802543: pop esi ; pop ebp ; ret  ;  (1 found)
0x148025af: pop esi ; pop ebp ; ret  ;  (1 found)
0x1480247e: pop esi ; pop ebp ; ret  ;  (1 found)
0x148024c0: pop esi ; pop ebp ; ret  ;  (1 found)
0x14802c18: pop esi ; pop ebp ; ret  ;  (1 found)
0x14802da8: pop esi ; pop ebp ; ret  ;  (1 found)
0x148037a1: pop esi ; pop ebp ; ret  ;  (1 found)
0x14803999: pop esi ; pop ebp ; ret  ;  (1 found)
0x14803a0f: pop esi ; pop ebp ; ret  ;  (1 found)
0x148033e3: pop esi ; pop ebp ; ret  ;  (1 found)
0x14803a8f: pop esi ; pop ebp ; ret  ;  (1 found)
0x14803a5d: pop esi ; pop ebp ; ret  ;  (1 found)
0x14803b92: pop esi ; pop ebp ; ret  ;  (1 found)
0x14803b58: pop esi ; pop ebp ; ret  ;  (1 found)
0x14804442: pop esi ; pop ebp ; ret  ;  (1 found)
0x1480511c: pop esi ; pop ebp ; ret  ;  (1 found)
0x14805732: pop esi ; pop ebp ; ret  ;  (1 found)
0x14805c17: pop esi ; pop ebp ; ret  ;  (1 found)
0x14805c80: pop esi ; pop ebp ; ret  ;  (1 found)
0x14805da0: pop esi ; pop ebp ; ret  ;  (1 found)
0x14805f56: pop esi ; pop ebp ; ret  ;  (1 found)
0x148073fe: pop esi ; pop ebp ; ret  ;  (1 found)
0x1480742b: pop esi ; pop ebp ; ret  ;  (1 found)
0x148060f9: pop esi ; pop ebp ; ret  ;  (1 found)
0x148061a3: pop esi ; pop ebp ; ret  ;  (1 found)
0x1480626a: pop esi ; pop ebp ; ret  ;  (1 found)
0x14806830: pop esi ; pop ebp ; ret  ;  (1 found)
0x1480841e: pop esi ; pop ebp ; ret  ;  (1 found)
0x14808465: pop esi ; pop ebp ; ret  ;  (1 found)
0x148086a7: pop esi ; pop ebp ; ret  ;  (1 found)
0x14808730: pop esi ; pop ebp ; ret  ;  (1 found)
0x1480a62e: pop esi ; pop ebp ; ret  ;  (1 found)
0x14809809: pop esi ; pop ebp ; ret  ;  (1 found)
0x1480a713: pop esi ; pop ebp ; ret  ;  (1 found)
0x148038e3: pop esi ; pop ebp ; retn 0x0004 ;  (1 found)
0x14803914: pop esi ; pop ebp ; retn 0x0004 ;  (1 found)
0x14801a33: pop esi ; pop ebx ; mov esp, ebp ; pop ebp ; push ecx ; ret  ;  (1 found)
0x14801e8e: pop esi ; pop ebx ; mov esp, ebp ; pop ebp ; ret  ;  (1 found)
0x148025eb: pop esi ; pop ebx ; mov esp, ebp ; pop ebp ; ret  ;  (1 found)
0x148023c5: pop esi ; pop ebx ; mov esp, ebp ; pop ebp ; ret  ;  (1 found)
0x14802a51: pop esi ; pop ebx ; mov esp, ebp ; pop ebp ; ret  ;  (1 found)
0x14804d1f: pop esi ; pop ebx ; mov esp, ebp ; pop ebp ; ret  ;  (1 found)
0x148059ba: pop esi ; pop ebx ; mov esp, ebp ; pop ebp ; ret  ;  (1 found)
0x1480609d: pop esi ; pop ebx ; mov esp, ebp ; pop ebp ; ret  ;  (1 found)
0x1480709b: pop esi ; pop ebx ; mov esp, ebp ; pop ebp ; ret  ;  (1 found)
0x148072eb: pop esi ; pop ebx ; mov esp, ebp ; pop ebp ; ret  ;  (1 found)
0x14806379: pop esi ; pop ebx ; mov esp, ebp ; pop ebp ; ret  ;  (1 found)
0x14807fdd: pop esi ; pop ebx ; mov esp, ebp ; pop ebp ; ret  ;  (1 found)
0x14808099: pop esi ; pop ebx ; mov esp, ebp ; pop ebp ; ret  ;  (1 found)
0x14808314: pop esi ; pop ebx ; mov esp, ebp ; pop ebp ; ret  ;  (1 found)
0x14808e19: pop esi ; pop ebx ; mov esp, ebp ; pop ebp ; ret  ;  (1 found)
0x1480a47e: pop esi ; pop ebx ; mov esp, ebp ; pop ebp ; ret  ;  (1 found)
0x1480b383: pop esi ; pop ebx ; mov esp, ebp ; pop ebp ; ret  ;  (1 found)
0x1480b3b4: pop esi ; pop ebx ; mov esp, ebp ; pop ebp ; ret  ;  (1 found)
0x1480103c: pop esi ; pop ebx ; pop ebp ; ret  ;  (1 found)
0x148021ba: pop esi ; pop ebx ; pop ebp ; ret  ;  (1 found)
0x14804b04: pop esi ; pop ebx ; pop ebp ; ret  ;  (1 found)
0x1480559d: pop esi ; pop ebx ; pop ebp ; ret  ;  (1 found)
0x1480589c: pop esi ; pop ebx ; pop ebp ; ret  ;  (1 found)
0x14805cbb: pop esi ; pop ebx ; pop ebp ; ret  ;  (1 found)
0x1480b2ef: pop esi ; pop ebx ; pop ebp ; ret  ;  (1 found)
0x14804702: pop esi ; pop ebx ; pop edi ; mov esp, ebp ; pop ebp ; ret  ;  (1 found)
0x14802e1a: pop esi ; pop ebx ; pop edi ; ret  ;  (1 found)
0x148019a0: pop esi ; pop ebx ; ret  ;  (1 found)
0x148019cb: pop esi ; pop ebx ; ret  ;  (1 found)
0x148020fd: pop esi ; pop ebx ; ret  ;  (1 found)
0x148026b7: pop esi ; pop ebx ; ret  ;  (1 found)
0x14804113: pop esi ; pop ebx ; ret  ;  (1 found)
0x14805a71: pop esi ; pop ebx ; ret  ;  (1 found)
0x14801033: pop esi ; pop ecx ; mov esp, ebp ; pop ebp ; retn 0x0008 ;  (1 found)
0x1480be0f: pop esi ; pop edi ; lea eax, dword [edx-0x01] ; pop ebx ; ret  ;  (1 found)
0x148098ed: pop esi ; pop edi ; leave  ; ret  ;  (1 found)
0x14805522: pop esi ; pop edi ; mov esp, ebp ; pop ebp ; ret  ;  (1 found)
0x14808144: pop esi ; pop edi ; pop ebp ; ret  ;  (1 found)
0x14807745: pop esi ; pop edi ; pop ebp ; ret  ;  (1 found)
0x1480244a: pop esi ; pop edi ; pop ebx ; pop ebp ; ret  ;  (1 found)
0x14806400: pop esi ; pop edi ; pop ebx ; pop ebp ; ret  ;  (1 found)
0x1480be27: pop esi ; pop edi ; pop ebx ; ret  ;  (1 found)
0x1480be20: pop esi ; pop edi ; pop ebx ; ret  ;  (1 found)
0x1480be19: pop esi ; pop edi ; pop ebx ; ret  ;  (1 found)
0x1480bddc: pop esi ; pop edi ; pop ebx ; xor eax, eax ; ret  ;  (1 found)
0x1480b9f8: pop esi ; pop edi ; ret  ;  (1 found)
0x1480ba04: pop esi ; pop edi ; ret  ;  (1 found)
0x1480ba30: pop esi ; pop edi ; ret  ;  (1 found)
0x1480ba16: pop esi ; pop edi ; ret  ;  (1 found)
0x1480bab2: pop esi ; pop edi ; ret  ;  (1 found)
0x1480baa4: pop esi ; pop edi ; ret  ;  (1 found)
0x1480bac8: pop esi ; pop edi ; ret  ;  (1 found)
0x1480bae2: pop esi ; pop edi ; ret  ;  (1 found)
0x1480bcb4: pop esi ; pop edi ; ret  ;  (1 found)
0x1480bbc8: pop esi ; pop edi ; ret  ;  (1 found)
0x1480be84: pop esi ; pop edi ; ret  ;  (1 found)
0x1480b7d4: pop esi ; pop edi ; ret  ;  (1 found)
0x1480c0a8: pop esi ; pop edi ; ret  ;  (1 found)
0x1480c0b4: pop esi ; pop edi ; ret  ;  (1 found)
0x1480c0c6: pop esi ; pop edi ; ret  ;  (1 found)
0x1480c0e0: pop esi ; pop edi ; ret  ;  (1 found)
0x1480c154: pop esi ; pop edi ; ret  ;  (1 found)
0x1480c178: pop esi ; pop edi ; ret  ;  (1 found)
0x1480c162: pop esi ; pop edi ; ret  ;  (1 found)
0x1480c278: pop esi ; pop edi ; ret  ;  (1 found)
0x1480c364: pop esi ; pop edi ; ret  ;  (1 found)
0x1480c192: pop esi ; pop edi ; ret  ;  (1 found)
0x1480b64a: pop esi ; pop edi ; retn 0x0010 ;  (1 found)
0x148014a1: pop esi ; ret  ;  (1 found)
0x1480149d: pop esi ; ret  ;  (1 found)
0x14801745: pop esi ; ret  ;  (1 found)
0x14802307: pop esi ; ret  ;  (1 found)
0x148022d8: pop esi ; ret  ;  (1 found)
0x1480257e: pop esi ; ret  ;  (1 found)
0x14802ca9: pop esi ; ret  ;  (1 found)
0x1480384b: pop esi ; ret  ;  (1 found)
0x148040d5: pop esi ; ret  ;  (1 found)
0x14804034: pop esi ; ret  ;  (1 found)
0x148043dd: pop esi ; ret  ;  (1 found)
0x148049f0: pop esi ; ret  ;  (1 found)
0x1480491f: pop esi ; ret  ;  (1 found)
0x148055f2: pop esi ; ret  ;  (1 found)
0x1480563a: pop esi ; ret  ;  (1 found)
0x14805af4: pop esi ; ret  ;  (1 found)
0x148074bc: pop esi ; ret  ;  (1 found)
0x1480751a: pop esi ; ret  ;  (1 found)
0x14807566: pop esi ; ret  ;  (1 found)
0x14806783: pop esi ; ret  ;  (1 found)
0x1480b491: pop esi ; retn 0x0010 ;  (1 found)
0x1480acb2: pop esi ; sete al ; pop ebx ; mov esp, ebp ; pop ebp ; ret  ;  (1 found)
0x148096f5: pop esp ; and al, 0x04 ; fld qword [esp+0x04] ; ret  ;  (1 found)
0x1480b73c: pop esp ; and al, 0x18 ; fstp dword [esp+0x18] ; leave  ; ret  ;  (1 found)
0x1480b740: pop esp ; and al, 0x18 ; leave  ; ret  ;  (1 found)
0x148037df: pop esp ; inc eax ; adc dword [eax+ebp*8], 0x00000100 ; mov al, 0x01 ; ret  ;  (1 found)
0x14804170: pop esp ; inc eax ; adc dword [edi+edx*2], 0xFFFC3FE8 ; call dword [ebx-0x18] ;  (1 found)
0x14802248: pop ss ; add byte [eax], al ; pop ecx ; pop ebp ; retn 0x0004 ;  (1 found)
0x14803ad5: pop ss ; call dword [0x1480D05C] ;  (1 found)
0x148043ac: pop ss ; call dword [0x1480D05C] ;  (1 found)
0x1480694d: pop ss ; push dword [ebp+0x08] ; mov ecx, esi ; call dword [0x1480D144] ;  (1 found)
0x1480180c: popfd  ; cmp ch, 0xFFFFFFFF ; dec dword [ecx-0x0002834B] ; dec dword [ecx-0x00028743] ; jmp dword [esi-0x74] ;  (1 found)
0x148035c6: psubd mm7, mm7 ; call dword [ebx-0x77] ;  (1 found)
0x14801bfa: push 0x00000000 ; call dword [0x1480D054] ;  (1 found)
0x148018df: push 0x00000000 ; call dword [0x1480D060] ;  (1 found)
0x148031ad: push 0x00000000 ; call dword [0x1480D0BC] ;  (1 found)
0x148010ec: push 0x00000000 ; call dword [0x1480D10C] ;  (1 found)
0x1480119f: push 0x00000000 ; call ebx ;  (1 found)
0x148011ce: push 0x00000000 ; call ebx ;  (1 found)
0x148068a7: push 0x00000000 ; mov ecx, ebx ; call dword [0x1480D144] ;  (1 found)
0x148068f4: push 0x00000000 ; mov ecx, edi ; call dword [0x1480D144] ;  (1 found)
0x148042d4: push 0x00000000 ; mov edi, eax ; call dword [0x1480D054] ;  (1 found)
0x1480119d: push 0x00000000 ; push 0x00000000 ; call ebx ;  (1 found)
0x148011cc: push 0x00000000 ; push 0x00000000 ; call ebx ;  (1 found)
0x14801194: push 0x00000000 ; push 0x00000000 ; push 0x148010E0 ; push 0x00000000 ; push 0x00000000 ; call ebx ;  (1 found)
0x148025d7: push 0x00000000 ; push 0x00000000 ; push 0x148025E9 ; push dword [ebp+0x08] ; call dword [0x1480D06C] ;  (1 found)
0x148011b7: push 0x00000000 ; push 0x00000000 ; push edi ; call dword [0x1480D138] ;  (1 found)
0x14801196: push 0x00000000 ; push 0x148010E0 ; push 0x00000000 ; push 0x00000000 ; call ebx ;  (1 found)
0x148025d9: push 0x00000000 ; push 0x148025E9 ; push dword [ebp+0x08] ; call dword [0x1480D06C] ;  (1 found)
0x148010e0: push 0x00000000 ; push 0x148119C8 ; push 0x148119D4 ; push 0x00000000 ; call dword [0x1480D10C] ;  (1 found)
0x1480815e: push 0x00000000 ; push dword [0x14814140] ; call dword [0x1480D024] ;  (1 found)
0x148080f9: push 0x00000000 ; push dword [0x14814140] ; call dword [0x1480D028] ;  (1 found)
0x148039e6: push 0x00000000 ; push dword [0x14814140] ; call dword [0x1480D0CC] ;  (1 found)
0x14803a3c: push 0x00000000 ; push dword [0x14814140] ; call dword [0x1480D0D0] ;  (1 found)
0x1480a6c7: push 0x00000000 ; push dword [ebp+0x10] ; push dword [ebp+0x0C] ; push dword [ebp+0x08] ; push dword [0x14813750] ; call dword [0x1480D004] ;  (1 found)
0x148011c4: push 0x00000000 ; push eax ; push 0x14801040 ; push 0x00000000 ; push 0x00000000 ; call ebx ;  (1 found)
0x14802341: push 0x00000000 ; push ebx ; call dword [0x1480D0A0] ;  (1 found)
0x148062f5: push 0x00000000 ; push ebx ; call dword [0x1480D0A0] ;  (1 found)
0x1480af08: push 0x00000000 ; push edi ; call dword [0x1480D104] ;  (1 found)
0x148011b9: push 0x00000000 ; push edi ; call dword [0x1480D138] ;  (1 found)
0x148021aa: push 0x00000000 ; push edx ; push 0x148021B9 ; push ecx ; call dword [0x1480D06C] ;  (1 found)
0x14808cf1: push 0x00000001 ; lea eax, dword [ebp-0x18] ; push eax ; push ecx ; push dword [ebp-0x38] ; call dword [0x1480D0B4] ;  (1 found)
0x14808d4c: push 0x00000001 ; lea eax, dword [ebp-0x1C] ; push eax ; push dword [ebp-0x30] ; call dword [0x1480D0A8] ;  (1 found)
0x1480af06: push 0x00000001 ; push 0x00000000 ; push edi ; call dword [0x1480D104] ;  (1 found)
0x14801132: push 0x00000001 ; push 0x00000002 ; call dword [0x1480D128] ;  (1 found)
0x14808a37: push 0x00000001 ; push dword [ebp+0x24] ; call dword [0x1480D0B0] ;  (1 found)
0x14805e72: push 0x00000001 ; push ebx ; call dword [0x1480D0B0] ;  (1 found)
0x14807d68: push 0x00000001 ; push edi ; call dword [0x1480D0B0] ;  (1 found)
0x148089a6: push 0x00000001 ; push esi ; call dword [0x1480D0B0] ;  (1 found)
0x14801134: push 0x00000002 ; call dword [0x1480D128] ;  (1 found)
0x1480b1c8: push 0x00000002 ; pop eax ; pop ebp ; ret  ;  (1 found)
0x1480a9f1: push 0x00000003 ; pop eax ; pop ebp ; ret  ;  (1 found)
0x1480a673: push 0x00000003 ; push 0x40000000 ; push 0x14810FE8 ; call dword [0x1480D008] ;  (1 found)
0x1480a670: push 0x00000003 ; push eax ; push 0x00000003 ; push 0x40000000 ; push 0x14810FE8 ; call dword [0x1480D008] ;  (1 found)
0x1480b241: push 0x00000004 ; pop eax ; pop ebp ; ret  ;  (1 found)
0x14801130: push 0x00000006 ; push 0x00000001 ; push 0x00000002 ; call dword [0x1480D128] ;  (1 found)
0x14802846: push 0x00000008 ; call dword [0x1480D144] ;  (1 found)
0x14803b37: push 0x00000008 ; push dword [0x14814140] ; call dword [0x1480D0D0] ;  (1 found)
0x14807385: push 0x00000009 ; push dword [eax+0x08] ; call dword [0x1480D0B0] ;  (1 found)
0x14808914: push 0x00000009 ; push dword [ebp+0x24] ; call dword [0x1480D0B0] ;  (1 found)
0x1480734f: push 0x00000009 ; push dword [edi+0x08] ; call dword [0x1480D0B0] ;  (1 found)
0x148089bd: push 0x00000009 ; push esi ; call dword [0x1480D0B0] ;  (1 found)
0x14809925: push 0x0000000A ; call dword [0x1480D05C] ;  (1 found)
0x14804400: push 0x0000000D ; pop eax ; pop ebp ; ret  ;  (1 found)
0x14802200: push 0x0000000D ; pop ecx ; int 0x29 ; pop ebp ; ret  ;  (1 found)
0x1480222d: push 0x0000000D ; pop ecx ; int 0x29 ; pop ebp ; ret  ;  (1 found)
0x14801181: push 0x00000010 ; push eax ; push edi ; call dword [0x1480D114] ;  (1 found)
0x148032b7: push 0x00000016 ; pop eax ; pop ebp ; ret  ;  (1 found)
0x14805118: push 0x00000016 ; pop eax ; pop edi ; pop esi ; pop ebp ; ret  ;  (1 found)
0x14803ad4: push 0x00000017 ; call dword [0x1480D05C] ;  (1 found)
0x148043ab: push 0x00000017 ; call dword [0x1480D05C] ;  (1 found)
0x1480295f: push 0x00000104 ; mov esi, 0x14813B88 ; xor edi, edi ; push esi ; push edi ; call dword [0x1480D0AC] ;  (1 found)
0x14801114: push 0x00000202 ; call dword [0x1480D12C] ;  (1 found)
0x1480233c: push 0x00000800 ; push 0x00000000 ; push ebx ; call dword [0x1480D0A0] ;  (1 found)
0x148062f0: push 0x00000800 ; push 0x00000000 ; push ebx ; call dword [0x1480D0A0] ;  (1 found)
0x14801094: push 0x00001000 ; lea edx, dword [ebp-0x00001110] ; push edx ; mov eax, dword [ebp+0x08] ; push eax ; call dword [0x1480D134] ;  (1 found)
0x1480115d: push 0x00001B59 ; mov word [esp+0x14], ax ; call dword [0x1480D11C] ;  (1 found)
0x14809110: push 0x0000FDE9 ; call dword [0x1480D0B4] ;  (1 found)
0x148011c7: push 0x14801040 ; push 0x00000000 ; push 0x00000000 ; call ebx ;  (1 found)
0x14801198: push 0x148010E0 ; push 0x00000000 ; push 0x00000000 ; call ebx ;  (1 found)
0x14801923: push 0x1480192F ; call dword [0x1480D054] ;  (1 found)
0x148021ad: push 0x148021B9 ; push ecx ; call dword [0x1480D06C] ;  (1 found)
0x148025db: push 0x148025E9 ; push dword [ebp+0x08] ; call dword [0x1480D06C] ;  (1 found)
0x148031a8: push 0x1480DACC ; push 0x00000000 ; call dword [0x1480D0BC] ;  (1 found)
0x148031ba: push 0x1480DAE4 ; push dword [ebp-0x08] ; call dword [0x1480D09C] ;  (1 found)
0x1480a67a: push 0x14810FE8 ; call dword [0x1480D008] ;  (1 found)
0x148010e2: push 0x148119C8 ; push 0x148119D4 ; push 0x00000000 ; call dword [0x1480D10C] ;  (1 found)
0x148010e7: push 0x148119D4 ; push 0x00000000 ; call dword [0x1480D10C] ;  (1 found)
0x1480113c: push 0x148119F3 ; mov edi, eax ; call dword [0x1480D13C] ;  (1 found)
0x14801751: push 0x14813798 ; call dword [0x1480D048] ;  (1 found)
0x1480a675: push 0x40000000 ; push 0x14810FE8 ; call dword [0x1480D008] ;  (1 found)
0x14801c19: push 0x5D1480D0 ; ret  ;  (1 found)
0x148043d9: push 0x5E1480D0 ; ret  ;  (1 found)
0x1480c148: push 0x7C1480C1 ; rol dword [eax+0x24448B14], 0x0C ; pop esi ; pop edi ; ret  ;  (1 found)
0x148011ab: push 0x7FFFFFFF ; push edi ; call dword [0x1480D124] ;  (1 found)
0x14803164: push 0xA808E8C1 ; add dword [ebp+0x10], esi ; push dword [ebp+0x08] ; call dword [0x1480D064] ;  (1 found)
0x14801c0b: push 0xC0000409 ; call dword [0x1480D064] ;  (1 found)
0x1480586d: push 0xFFFFFFF6 ; call dword [0x1480D0F8] ;  (1 found)
0x14805a08: push 0xFFFFFFF6 ; pop eax ; push eax ; call dword [0x1480D0A4] ;  (1 found)
0x1480643a: push 0xFFFFFFFA ; call dword [0x1480D144] ;  (1 found)
0x14802dc7: push 0xFFFFFFFF ; push dword [edi] ; push ebx ; push ebx ; call dword [0x1480D0B4] ;  (1 found)
0x14802def: push 0xFFFFFFFF ; push dword [edi] ; xor ebx, ebx ; push ebx ; push ebx ; call dword [0x1480D0B4] ;  (1 found)
0x14809c70: push cs ; adc dword [ebx+eax*8], 0x5375C90A ; ret  ;  (1 found)
0x14809d06: push cs ; adc dword [esi+eax*8], 0xFFFF7085 ; inc dword [ebx] ; ret  ;  (1 found)
0x14809c3f: push cs ; adc dword [esi+eax*8], 0xFFFF7085 ; inc dword [edx] ; ret  ;  (1 found)
0x14806874: push cs ; mov ecx, ebx ; call dword [0x1480D144] ;  (1 found)
0x14802f6d: push cs ; mov ecx, edi ; call dword [0x1480D144] ;  (1 found)
0x1480610f: push cs ; or eax, 0xFFFFFFFF ; lock xadd dword [ecx+0x000000B0], eax ; dec eax ; pop ebp ; ret  ;  (1 found)
0x148028ee: push cs ; push dword [ebp+0x08] ; mov ecx, esi ; call dword [0x1480D144] ;  (1 found)
0x1480571a: push cs ; push edi ; call dword [0x1480D080] ;  (1 found)
0x148039b3: push ds ; and dword [ebp-0x04], 0x00000000 ; mov ecx, esi ; call dword [0x1480D144] ;  (1 found)
0x1480a6d2: push dword [0x14813750] ; call dword [0x1480D004] ;  (1 found)
0x1480a703: push dword [0x14813750] ; call dword [0x1480D004] ;  (1 found)
0x14808160: push dword [0x14814140] ; call dword [0x1480D024] ;  (1 found)
0x148080fb: push dword [0x14814140] ; call dword [0x1480D028] ;  (1 found)
0x148039e8: push dword [0x14814140] ; call dword [0x1480D0CC] ;  (1 found)
0x14803a3e: push dword [0x14814140] ; call dword [0x1480D0D0] ;  (1 found)
0x14803b39: push dword [0x14814140] ; call dword [0x1480D0D0] ;  (1 found)
0x1480a1d0: push dword [0x14814184] ; call dword [0x1480D010] ;  (1 found)
0x14803809: push dword [eax+0x01B0C301] ; ret  ;  (1 found)
0x14807387: push dword [eax+0x08] ; call dword [0x1480D0B0] ;  (1 found)
0x14806c90: push dword [eax+0x08] ; push edi ; mov ecx, dword [ebp-0x24] ; call dword [0x1480D144] ;  (1 found)
0x14804184: push dword [eax+eax*4+0x56] ; call dword [0x1480D074] ;  (1 found)
0x14802596: push dword [eax+ecx-0x01] ; call dword [0x1480D098] ;  (1 found)
0x14802595: push dword [eax+ecx-0x01] ; call dword [0x1480D098] ;  (1 found)
0x1480679c: push dword [eax+ecx-0x01] ; call dword [0x1480D098] ;  (1 found)
0x1480679d: push dword [eax+ecx-0x01] ; call dword [0x1480D098] ;  (1 found)
0x14808e80: push dword [eax+esi+0x18] ; call dword [0x1480D018] ;  (1 found)
0x14802262: push dword [ebp+0x03] ; xor al, al ; ret  ;  (1 found)
0x148041a1: push dword [ebp+0x03] ; xor al, al ; ret  ;  (1 found)
0x14802db5: push dword [ebp+0x05] ; or eax, 0xFFFFFFFF ; pop edi ; ret  ;  (1 found)
0x14801c02: push dword [ebp+0x08] ; call dword [0x1480D050] ;  (1 found)
0x1480316c: push dword [ebp+0x08] ; call dword [0x1480D064] ;  (1 found)
0x148025e0: push dword [ebp+0x08] ; call dword [0x1480D06C] ;  (1 found)
0x1480253a: push dword [ebp+0x08] ; call dword [0x1480D084] ;  (1 found)
0x14806673: push dword [ebp+0x08] ; call dword [0x1480D084] ;  (1 found)
0x14803185: push dword [ebp+0x08] ; call dword [0x1480D0B8] ;  (1 found)
0x14806492: push dword [ebp+0x08] ; call dword [0x1480D144] ;  (1 found)
0x14806663: push dword [ebp+0x08] ; call dword [0x1480D144] ;  (1 found)
0x14806722: push dword [ebp+0x08] ; call dword [0x1480D144] ;  (1 found)
0x148066c3: push dword [ebp+0x08] ; call dword [0x1480D144] ;  (1 found)
0x148028ef: push dword [ebp+0x08] ; mov ecx, esi ; call dword [0x1480D144] ;  (1 found)
0x148031ce: push dword [ebp+0x08] ; mov ecx, esi ; call dword [0x1480D144] ;  (1 found)
0x14804350: push dword [ebp+0x08] ; mov ecx, esi ; call dword [0x1480D144] ;  (1 found)
0x14806500: push dword [ebp+0x08] ; mov ecx, esi ; call dword [0x1480D144] ;  (1 found)
0x1480694e: push dword [ebp+0x08] ; mov ecx, esi ; call dword [0x1480D144] ;  (1 found)
0x14806435: push dword [ebp+0x08] ; mov ecx, esi ; push 0xFFFFFFFA ; call dword [0x1480D144] ;  (1 found)
0x148080f6: push dword [ebp+0x08] ; push 0x00000000 ; push dword [0x14814140] ; call dword [0x1480D028] ;  (1 found)
0x148039e3: push dword [ebp+0x08] ; push 0x00000000 ; push dword [0x14814140] ; call dword [0x1480D0CC] ;  (1 found)
0x1480a6cf: push dword [ebp+0x08] ; push dword [0x14813750] ; call dword [0x1480D004] ;  (1 found)
0x1480a700: push dword [ebp+0x08] ; push dword [0x14813750] ; call dword [0x1480D004] ;  (1 found)
0x14807348: push dword [ebp+0x08] ; push dword [edi+0x04] ; push esi ; push 0x00000009 ; push dword [edi+0x08] ; call dword [0x1480D0B0] ;  (1 found)
0x14805e84: push dword [ebp+0x0C] ; call dword [0x1480D100] ;  (1 found)
0x1480671d: push dword [ebp+0x0C] ; mov ecx, esi ; push dword [ebp+0x08] ; call dword [0x1480D144] ;  (1 found)
0x14802537: push dword [ebp+0x0C] ; push dword [ebp+0x08] ; call dword [0x1480D084] ;  (1 found)
0x14806670: push dword [ebp+0x0C] ; push dword [ebp+0x08] ; call dword [0x1480D084] ;  (1 found)
0x1480648f: push dword [ebp+0x0C] ; push dword [ebp+0x08] ; call dword [0x1480D144] ;  (1 found)
0x14806660: push dword [ebp+0x0C] ; push dword [ebp+0x08] ; call dword [0x1480D144] ;  (1 found)
0x148066c0: push dword [ebp+0x0C] ; push dword [ebp+0x08] ; call dword [0x1480D144] ;  (1 found)
0x1480434d: push dword [ebp+0x0C] ; push dword [ebp+0x08] ; mov ecx, esi ; call dword [0x1480D144] ;  (1 found)
0x1480a6cc: push dword [ebp+0x0C] ; push dword [ebp+0x08] ; push dword [0x14813750] ; call dword [0x1480D004] ;  (1 found)
0x1480a6fd: push dword [ebp+0x0C] ; push dword [ebp+0x08] ; push dword [0x14813750] ; call dword [0x1480D004] ;  (1 found)
0x14809732: push dword [ebp+0x0C] ; push eax ; call dword [0x1480D014] ;  (1 found)
0x14802414: push dword [ebp+0x0C] ; push eax ; call dword [0x1480D09C] ;  (1 found)
0x148063ca: push dword [ebp+0x0C] ; push eax ; call dword [0x1480D09C] ;  (1 found)
0x14805ddf: push dword [ebp+0x10] ; lea eax, dword [0x00000001+eax*8] ; push eax ; push ebx ; call dword [0x1480D0B0] ;  (1 found)
0x1480665b: push dword [ebp+0x10] ; mov ecx, esi ; push dword [ebp+0x0C] ; push dword [ebp+0x08] ; call dword [0x1480D144] ;  (1 found)
0x14805e6f: push dword [ebp+0x10] ; push 0x00000001 ; push ebx ; call dword [0x1480D0B0] ;  (1 found)
0x1480648c: push dword [ebp+0x10] ; push dword [ebp+0x0C] ; push dword [ebp+0x08] ; call dword [0x1480D144] ;  (1 found)
0x148066bd: push dword [ebp+0x10] ; push dword [ebp+0x0C] ; push dword [ebp+0x08] ; call dword [0x1480D144] ;  (1 found)
0x1480434a: push dword [ebp+0x10] ; push dword [ebp+0x0C] ; push dword [ebp+0x08] ; mov ecx, esi ; call dword [0x1480D144] ;  (1 found)
0x1480a6c9: push dword [ebp+0x10] ; push dword [ebp+0x0C] ; push dword [ebp+0x08] ; push dword [0x14813750] ; call dword [0x1480D004] ;  (1 found)
0x1480a6fa: push dword [ebp+0x10] ; push dword [ebp+0x0C] ; push dword [ebp+0x08] ; push dword [0x14813750] ; call dword [0x1480D004] ;  (1 found)
0x1480972f: push dword [ebp+0x10] ; push dword [ebp+0x0C] ; push eax ; call dword [0x1480D014] ;  (1 found)
0x14807d65: push dword [ebp+0x14] ; push 0x00000001 ; push edi ; call dword [0x1480D0B0] ;  (1 found)
0x14805e6c: push dword [ebp+0x14] ; push dword [ebp+0x10] ; push 0x00000001 ; push ebx ; call dword [0x1480D0B0] ;  (1 found)
0x14806489: push dword [ebp+0x14] ; push dword [ebp+0x10] ; push dword [ebp+0x0C] ; push dword [ebp+0x08] ; call dword [0x1480D144] ;  (1 found)
0x148066ba: push dword [ebp+0x14] ; push dword [ebp+0x10] ; push dword [ebp+0x0C] ; push dword [ebp+0x08] ; call dword [0x1480D144] ;  (1 found)
0x14804347: push dword [ebp+0x14] ; push dword [ebp+0x10] ; push dword [ebp+0x0C] ; push dword [ebp+0x08] ; mov ecx, esi ; call dword [0x1480D144] ;  (1 found)
0x14807cde: push dword [ebp+0x14] ; setne al ; lea eax, dword [0x00000001+eax*8] ; push eax ; push edi ; call dword [0x1480D0B0] ;  (1 found)
0x14806486: push dword [ebp+0x18] ; push dword [ebp+0x14] ; push dword [ebp+0x10] ; push dword [ebp+0x0C] ; push dword [ebp+0x08] ; call dword [0x1480D144] ;  (1 found)
0x148066b7: push dword [ebp+0x18] ; push dword [ebp+0x14] ; push dword [ebp+0x10] ; push dword [ebp+0x0C] ; push dword [ebp+0x08] ; call dword [0x1480D144] ;  (1 found)
0x14805e7f: push dword [ebp+0x18] ; push eax ; push esi ; push dword [ebp+0x0C] ; call dword [0x1480D100] ;  (1 found)
0x14808916: push dword [ebp+0x24] ; call dword [0x1480D0B0] ;  (1 found)
0x14808a39: push dword [ebp+0x24] ; call dword [0x1480D0B0] ;  (1 found)
0x14807e5f: push dword [ebp+0x24] ; call dword [0x1480D0B4] ;  (1 found)
0x14804104: push dword [ebp+0x7C] ; push esi ; call dword [0x1480D074] ;  (1 found)
0x14807822: push dword [ebp-0x000000F8] ; mov ecx, ebx ; push dword [ebp-0x00000100] ; call dword [0x1480D144] ;  (1 found)
0x14807854: push dword [ebp-0x000000F8] ; mov ecx, ebx ; push edi ; call dword [0x1480D144] ;  (1 found)
0x1480782a: push dword [ebp-0x00000100] ; call dword [0x1480D144] ;  (1 found)
0x1480913d: push dword [ebp-0x00001410] ; call dword [0x1480D0A8] ;  (1 found)
0x148031e2: push dword [ebp-0x08] ; call dword [0x1480D098] ;  (1 found)
0x148031bf: push dword [ebp-0x08] ; call dword [0x1480D09C] ;  (1 found)
0x14802060: push dword [ebp-0x13] ; mov eax, dword [esp+0x04] ; mov edi, edx ; ret  ;  (1 found)
0x148093ed: push dword [ebp-0x14] ; push ebx ; push ecx ; call dword [0x1480D0A8] ;  (1 found)
0x148089a0: push dword [ebp-0x20] ; mov esi, dword [ebp+0x24] ; push 0x00000001 ; push esi ; call dword [0x1480D0B0] ;  (1 found)
0x14808911: push dword [ebp-0x20] ; push 0x00000009 ; push dword [ebp+0x24] ; call dword [0x1480D0B0] ;  (1 found)
0x14808a34: push dword [ebp-0x24] ; push 0x00000001 ; push dword [ebp+0x24] ; call dword [0x1480D0B0] ;  (1 found)
0x148089ba: push dword [ebp-0x24] ; push 0x00000009 ; push esi ; call dword [0x1480D0B0] ;  (1 found)
0x14808d18: push dword [ebp-0x30] ; call dword [0x1480D0A8] ;  (1 found)
0x14808d52: push dword [ebp-0x30] ; call dword [0x1480D0A8] ;  (1 found)
0x14808cf8: push dword [ebp-0x38] ; call dword [0x1480D0B4] ;  (1 found)
0x1480890b: push dword [ebx] ; call dword [edi+0x57] ;  (1 found)
0x14807c88: push dword [ebx] ; leave  ; test al, al ; sete cl ; mov eax, ecx ; ret  ;  (1 found)
0x148023c1: push dword [ebx] ; rcr byte [edi+0x5E], 0x0000005B ; mov esp, ebp ; pop ebp ; ret  ;  (1 found)
0x14806375: push dword [ebx] ; rcr byte [edi+0x5E], 0x0000005B ; mov esp, ebp ; pop ebp ; ret  ;  (1 found)
0x14802856: push dword [ecx+0x04] ; mov dword [ecx+0x08], ebx ; mov ecx, edi ; call dword [0x1480D144] ;  (1 found)
0x1480114e: push dword [ecx] ; call dword [0x1480D120] ;  (1 found)
0x1480734b: push dword [edi+0x04] ; push esi ; push 0x00000009 ; push dword [edi+0x08] ; call dword [0x1480D0B0] ;  (1 found)
0x14807351: push dword [edi+0x08] ; call dword [0x1480D0B0] ;  (1 found)
0x148047e8: push dword [edi+eax+0x56] ; call dword [0x1480D0D4] ;  (1 found)
0x14802dc9: push dword [edi] ; push ebx ; push ebx ; call dword [0x1480D0B4] ;  (1 found)
0x14802df1: push dword [edi] ; xor ebx, ebx ; push ebx ; push ebx ; call dword [0x1480D0B4] ;  (1 found)
0x14804b2a: push dword [esi+0x04] ; call dword [0x1480D0E8] ;  (1 found)
0x14802841: push dword [esi+0x08] ; mov ecx, edi ; push 0x00000008 ; call dword [0x1480D144] ;  (1 found)
0x14807a0d: push dword [esi+0x19] ; push edi ; push edx ; mov ecx, ebx ; call dword [0x1480D144] ;  (1 found)
0x14802599: push dword [esi] ; call dword [0x1480D098] ;  (1 found)
0x148067a0: push dword [esi] ; call dword [0x1480D098] ;  (1 found)
0x14804027: push dword [esp+ecx+0x56] ; call dword [0x1480D074] ;  (1 found)
0x1480a69d: push eax ; aaa  ; adc dword [ebx+esi], 0xFFF983C0 ; setne al ; ret  ;  (1 found)
0x14805610: push eax ; adc dword [0x6B2074F6+eax*4], 0x8D5718C6 ; mov eax, 0x14813CE8 ; push edi ; call dword [0x1480D080] ;  (1 found)
0x14804a9a: push eax ; add eax, dword [eax] ; add ch, bh ; mov esp, ebp ; pop ebp ; ret  ;  (1 found)
0x14807ee7: push eax ; add eax, dword [eax] ; add ch, bh ; mov esp, ebp ; pop ebp ; ret  ;  (1 found)
0x148085c3: push eax ; add eax, dword [eax] ; add ch, bh ; mov esp, ebp ; pop ebp ; ret  ;  (1 found)
0x14808ace: push eax ; add eax, dword [eax] ; add ch, bh ; mov esp, ebp ; pop ebp ; ret  ;  (1 found)
0x1480a5ea: push eax ; call dword [0x1480D00C] ;  (1 found)
0x1480a6b9: push eax ; call dword [0x1480D00C] ;  (1 found)
0x14809735: push eax ; call dword [0x1480D014] ;  (1 found)
0x14808b1f: push eax ; call dword [0x1480D020] ;  (1 found)
0x148066e9: push eax ; call dword [0x1480D030] ;  (1 found)
0x148064b8: push eax ; call dword [0x1480D034] ;  (1 found)
0x148016db: push eax ; call dword [0x1480D038] ;  (1 found)
0x148016b6: push eax ; call dword [0x1480D044] ;  (1 found)
0x148018c0: push eax ; call dword [0x1480D050] ;  (1 found)
0x148042e4: push eax ; call dword [0x1480D050] ;  (1 found)
0x14805915: push eax ; call dword [0x1480D058] ;  (1 found)
0x14801c16: push eax ; call dword [0x1480D068] ;  (1 found)
0x14803175: push eax ; call dword [0x1480D068] ;  (1 found)
0x148043d6: push eax ; call dword [0x1480D068] ;  (1 found)
0x1480234f: push eax ; call dword [0x1480D070] ;  (1 found)
0x14806303: push eax ; call dword [0x1480D070] ;  (1 found)
0x14805602: push eax ; call dword [0x1480D078] ;  (1 found)
0x148057e3: push eax ; call dword [0x1480D078] ;  (1 found)
0x14807573: push eax ; call dword [0x1480D078] ;  (1 found)
0x1480564a: push eax ; call dword [0x1480D07C] ;  (1 found)
0x14805806: push eax ; call dword [0x1480D07C] ;  (1 found)
0x14807587: push eax ; call dword [0x1480D07C] ;  (1 found)
0x14807544: push eax ; call dword [0x1480D080] ;  (1 found)
0x1480862d: push eax ; call dword [0x1480D080] ;  (1 found)
0x14802417: push eax ; call dword [0x1480D09C] ;  (1 found)
0x148063cd: push eax ; call dword [0x1480D09C] ;  (1 found)
0x14805a0b: push eax ; call dword [0x1480D0A4] ;  (1 found)
0x14805218: push eax ; call dword [0x1480D0B4] ;  (1 found)
0x14804f20: push eax ; call dword [0x1480D0E0] ;  (1 found)
0x14808895: push eax ; call dword [0x1480D0E8] ;  (1 found)
0x148010a3: push eax ; call dword [0x1480D134] ;  (1 found)
0x1480a39a: push eax ; fstp qword [ebp-0x0C] ; call dword [0x1480D144] ;  (1 found)
0x1480a248: push eax ; fstp qword [ebp-0x0C] ; call dword [0x1480D144] ;  (1 found)
0x1480a2e2: push eax ; fstp qword [ebp-0x0C] ; call dword [0x1480D144] ;  (1 found)
0x1480afc8: push eax ; fstp qword [ebx] ; pop edi ; pop ebx ; pop ebp ; ret  ;  (1 found)
0x1480773e: push eax ; inc dword [ebx-0x148AFE12] ; pop esi ; pop edi ; pop ebp ; ret  ;  (1 found)
0x14806a49: push eax ; inc ecx ; adc dword [0x414CB8C3+ebx*2], 0xC35D1481 ; mov eax, 0x14814154 ; pop ebp ; ret  ;  (1 found)
0x14809133: push eax ; lea eax, dword [ebp-0x00001408] ; add eax, ebx ; push eax ; push dword [ebp-0x00001410] ; call dword [0x1480D0A8] ;  (1 found)
0x14808d13: push eax ; lea eax, dword [ebp-0x14] ; push eax ; push dword [ebp-0x30] ; call dword [0x1480D0A8] ;  (1 found)
0x14808e78: push eax ; mov eax, dword [0x14813E58+edi*4] ; push dword [eax+esi+0x18] ; call dword [0x1480D018] ;  (1 found)
0x1480910b: push eax ; mov eax, ecx ; push eax ; push ebx ; push 0x0000FDE9 ; call dword [0x1480D0B4] ;  (1 found)
0x14803f88: push eax ; pop ds ; add byte [eax], al ; pop ecx ; pop ebp ; ret  ;  (1 found)
0x14808d4b: push eax ; push 0x00000001 ; lea eax, dword [ebp-0x1C] ; push eax ; push dword [ebp-0x30] ; call dword [0x1480D0A8] ;  (1 found)
0x1480af05: push eax ; push 0x00000001 ; push 0x00000000 ; push edi ; call dword [0x1480D104] ;  (1 found)
0x1480a672: push eax ; push 0x00000003 ; push 0x40000000 ; push 0x14810FE8 ; call dword [0x1480D008] ;  (1 found)
0x14801113: push eax ; push 0x00000202 ; call dword [0x1480D12C] ;  (1 found)
0x148011c6: push eax ; push 0x14801040 ; push 0x00000000 ; push 0x00000000 ; call ebx ;  (1 found)
0x148031a7: push eax ; push 0x1480DACC ; push 0x00000000 ; call dword [0x1480D0BC] ;  (1 found)
0x1480586c: push eax ; push 0xFFFFFFF6 ; call dword [0x1480D0F8] ;  (1 found)
0x14807e5e: push eax ; push dword [ebp+0x24] ; call dword [0x1480D0B4] ;  (1 found)
0x1480913c: push eax ; push dword [ebp-0x00001410] ; call dword [0x1480D0A8] ;  (1 found)
0x148093ec: push eax ; push dword [ebp-0x14] ; push ebx ; push ecx ; call dword [0x1480D0A8] ;  (1 found)
0x14808d51: push eax ; push dword [ebp-0x30] ; call dword [0x1480D0A8] ;  (1 found)
0x14808d17: push eax ; push dword [ebp-0x30] ; call dword [0x1480D0A8] ;  (1 found)
0x14804b29: push eax ; push dword [esi+0x04] ; call dword [0x1480D0E8] ;  (1 found)
0x14805217: push eax ; push eax ; call dword [0x1480D0B4] ;  (1 found)
0x14805de9: push eax ; push ebx ; call dword [0x1480D0B0] ;  (1 found)
0x14804f32: push eax ; push ebx ; call dword [0x1480D0E8] ;  (1 found)
0x1480910e: push eax ; push ebx ; push 0x0000FDE9 ; call dword [0x1480D0B4] ;  (1 found)
0x14808f2e: push eax ; push ecx ; call dword [0x1480D0A8] ;  (1 found)
0x1480901c: push eax ; push ecx ; call dword [0x1480D0A8] ;  (1 found)
0x14808cf6: push eax ; push ecx ; push dword [ebp-0x38] ; call dword [0x1480D0B4] ;  (1 found)
0x14807ceb: push eax ; push edi ; call dword [0x1480D0B0] ;  (1 found)
0x14801183: push eax ; push edi ; call dword [0x1480D114] ;  (1 found)
0x14808f26: push eax ; push edi ; lea eax, dword [ebp-0x00001404] ; push eax ; push ecx ; call dword [0x1480D0A8] ;  (1 found)
0x148047c2: push eax ; push edi ; push ebx ; call dword [0x1480D0D8] ;  (1 found)
0x14804855: push eax ; push esi ; call dword [0x1480D0DC] ;  (1 found)
0x1480543d: push eax ; push esi ; call dword [0x1480D0F4] ;  (1 found)
0x14805e82: push eax ; push esi ; push dword [ebp+0x0C] ; call dword [0x1480D100] ;  (1 found)
0x14807e5b: push eax ; push esi ; push edi ; push eax ; push dword [ebp+0x24] ; call dword [0x1480D0B4] ;  (1 found)
0x14801c07: push eax ; rol byte [eax+0x04096814], 1  ; add al, al ; call dword [0x1480D064] ;  (1 found)
0x14806112: push eax ; xadd dword [ecx+0x000000B0], eax ; dec eax ; pop ebp ; ret  ;  (1 found)
0x148055f6: push ebp ; mov ebp, esp ; imul eax, dword [ebp+0x08], 0x18 ; add eax, 0x14813D00 ; push eax ; call dword [0x1480D078] ;  (1 found)
0x1480563e: push ebp ; mov ebp, esp ; imul eax, dword [ebp+0x08], 0x18 ; add eax, 0x14813D00 ; push eax ; call dword [0x1480D07C] ;  (1 found)
0x1480756a: push ebp ; mov ebp, esp ; mov eax, dword [ebp+0x08] ; add eax, 0x20 ; push eax ; call dword [0x1480D078] ;  (1 found)
0x1480757e: push ebp ; mov ebp, esp ; mov eax, dword [ebp+0x08] ; add eax, 0x20 ; push eax ; call dword [0x1480D07C] ;  (1 found)
0x14802889: push ebp ; mov ebp, esp ; mov eax, dword [ebp+0x08] ; mov dword [0x14813B80], eax ; pop ebp ; ret  ;  (1 found)
0x148031fb: push ebp ; mov ebp, esp ; mov eax, dword [ebp+0x08] ; mov dword [0x14813CA4], eax ; pop ebp ; ret  ;  (1 found)
0x14804313: push ebp ; mov ebp, esp ; mov eax, dword [ebp+0x08] ; mov dword [0x14813CE8], eax ; pop ebp ; ret  ;  (1 found)
0x14801bf7: push ebp ; mov ebp, esp ; push 0x00000000 ; call dword [0x1480D054] ;  (1 found)
0x1480590c: push ebp ; mov ebp, esp ; sub esp, 0x48 ; lea eax, dword [ebp-0x48] ; push eax ; call dword [0x1480D058] ;  (1 found)
0x1480c3c8: push ebp ; or al, 0x8B ; retn 0xE2C1 ;  (1 found)
0x14805196: push ebp ; or byte [edi+0x33], dl ; jmp dword [esi+0x39] ;  (1 found)
0x148025d6: push ebp ; push 0x00000000 ; push 0x00000000 ; push 0x148025E9 ; push dword [ebp+0x08] ; call dword [0x1480D06C] ;  (1 found)
0x14802343: push ebx ; call dword [0x1480D0A0] ;  (1 found)
0x14802385: push ebx ; call dword [0x1480D0A0] ;  (1 found)
0x148062f7: push ebx ; call dword [0x1480D0A0] ;  (1 found)
0x14806339: push ebx ; call dword [0x1480D0A0] ;  (1 found)
0x14805e74: push ebx ; call dword [0x1480D0B0] ;  (1 found)
0x14805dea: push ebx ; call dword [0x1480D0B0] ;  (1 found)
0x14802dcc: push ebx ; call dword [0x1480D0B4] ;  (1 found)
0x14802df6: push ebx ; call dword [0x1480D0B4] ;  (1 found)
0x148047c4: push ebx ; call dword [0x1480D0D8] ;  (1 found)
0x14804f33: push ebx ; call dword [0x1480D0E8] ;  (1 found)
0x14805a1d: push ebx ; call dword [0x1480D0FC] ;  (1 found)
0x1480304c: push ebx ; mov ecx, edx ; ror edi, cl ; mov ecx, edi ; call dword [0x1480D144] ;  (1 found)
0x14807935: push ebx ; mov ecx, esi ; call dword [0x1480D144] ;  (1 found)
0x1480910f: push ebx ; push 0x0000FDE9 ; call dword [0x1480D0B4] ;  (1 found)
0x14802dc6: push ebx ; push 0xFFFFFFFF ; push dword [edi] ; push ebx ; push ebx ; call dword [0x1480D0B4] ;  (1 found)
0x14808a33: push ebx ; push dword [ebp-0x24] ; push 0x00000001 ; push dword [ebp+0x24] ; call dword [0x1480D0B0] ;  (1 found)
0x148089b9: push ebx ; push dword [ebp-0x24] ; push 0x00000009 ; push esi ; call dword [0x1480D0B0] ;  (1 found)
0x14802dcb: push ebx ; push ebx ; call dword [0x1480D0B4] ;  (1 found)
0x14802df5: push ebx ; push ebx ; call dword [0x1480D0B4] ;  (1 found)
0x1480304b: push ebx ; push ebx ; mov ecx, edx ; ror edi, cl ; mov ecx, edi ; call dword [0x1480D144] ;  (1 found)
0x148093f0: push ebx ; push ecx ; call dword [0x1480D0A8] ;  (1 found)
0x14807d63: push ebx ; push esi ; push dword [ebp+0x14] ; push 0x00000001 ; push edi ; call dword [0x1480D0B0] ;  (1 found)
0x14805215: push ebx ; push esi ; push eax ; push eax ; call dword [0x1480D0B4] ;  (1 found)
0x148040df: push ebx ; push esi ; push edi ; call dword [0x1480D070] ;  (1 found)
0x148051cd: push ebx ; push esi ; push edi ; call dword [0x1480D0EC] ;  (1 found)
0x148051ef: push ebx ; push esi ; push edi ; push edi ; call dword [0x1480D0B4] ;  (1 found)
0x14809c77: push ebx ; ret  ;  (1 found)
0x148021b2: push ecx ; call dword [0x1480D06C] ;  (1 found)
0x14808f2f: push ecx ; call dword [0x1480D0A8] ;  (1 found)
0x1480901d: push ecx ; call dword [0x1480D0A8] ;  (1 found)
0x148093f1: push ecx ; call dword [0x1480D0A8] ;  (1 found)
0x1480597e: push ecx ; call dword [0x1480D0FC] ;  (1 found)
0x148010b0: push ecx ; call dword [0x1480D130] ;  (1 found)
0x14807800: push ecx ; mov ecx, ebx ; call dword [0x1480D144] ;  (1 found)
0x148026d3: push ecx ; or byte [ebp+0x05], dh ; mov eax, 0x00000001 ; ret  ;  (1 found)
0x1480972e: push ecx ; push dword [ebp+0x10] ; push dword [ebp+0x0C] ; push eax ; call dword [0x1480D014] ;  (1 found)
0x14808cf7: push ecx ; push dword [ebp-0x38] ; call dword [0x1480D0B4] ;  (1 found)
0x14808894: push ecx ; push eax ; call dword [0x1480D0E8] ;  (1 found)
0x14808d12: push ecx ; push eax ; lea eax, dword [ebp-0x14] ; push eax ; push dword [ebp-0x30] ; call dword [0x1480D0A8] ;  (1 found)
0x148051cc: push ecx ; push ebx ; push esi ; push edi ; call dword [0x1480D0EC] ;  (1 found)
0x14801a38: push ecx ; ret  ;  (1 found)
0x14803f92: push edi ; call dword [0x1480D070] ;  (1 found)
0x148040e1: push edi ; call dword [0x1480D070] ;  (1 found)
0x148022ef: push edi ; call dword [0x1480D080] ;  (1 found)
0x14805622: push edi ; call dword [0x1480D080] ;  (1 found)
0x1480571b: push edi ; call dword [0x1480D080] ;  (1 found)
0x1480296c: push edi ; call dword [0x1480D0AC] ;  (1 found)
0x14807cec: push edi ; call dword [0x1480D0B0] ;  (1 found)
0x14807d6a: push edi ; call dword [0x1480D0B0] ;  (1 found)
0x148051f2: push edi ; call dword [0x1480D0B4] ;  (1 found)
0x148051cf: push edi ; call dword [0x1480D0EC] ;  (1 found)
0x1480af0a: push edi ; call dword [0x1480D104] ;  (1 found)
0x14801184: push edi ; call dword [0x1480D114] ;  (1 found)
0x148011b0: push edi ; call dword [0x1480D124] ;  (1 found)
0x148011bb: push edi ; call dword [0x1480D138] ;  (1 found)
0x1480785c: push edi ; call dword [0x1480D144] ;  (1 found)
0x1480169a: push edi ; fcomp dword [ecx+0x1B] ; sal bh, 0xFFFFFFD8 ; dec eax ; pop ebp ; ret  ;  (1 found)
0x1480394b: push edi ; jmp dword [ebx] ;  (1 found)
0x14808f27: push edi ; lea eax, dword [ebp-0x00001404] ; push eax ; push ecx ; call dword [0x1480D0A8] ;  (1 found)
0x1480110e: push edi ; lea eax, dword [esp+0x20] ; push eax ; push 0x00000202 ; call dword [0x1480D12C] ;  (1 found)
0x148022e8: push edi ; lea edi, dword [eax+0x14813AEC] ; push edi ; call dword [0x1480D080] ;  (1 found)
0x1480561b: push edi ; lea edi, dword [eax+0x14813CE8] ; push edi ; call dword [0x1480D080] ;  (1 found)
0x14806c93: push edi ; mov ecx, dword [ebp-0x24] ; call dword [0x1480D144] ;  (1 found)
0x1480815d: push edi ; push 0x00000000 ; push dword [0x14814140] ; call dword [0x1480D024] ;  (1 found)
0x148021a9: push edi ; push 0x00000000 ; push edx ; push 0x148021B9 ; push ecx ; call dword [0x1480D06C] ;  (1 found)
0x14807e5d: push edi ; push eax ; push dword [ebp+0x24] ; call dword [0x1480D0B4] ;  (1 found)
0x14804b28: push edi ; push eax ; push dword [esi+0x04] ; call dword [0x1480D0E8] ;  (1 found)
0x148047c1: push edi ; push eax ; push edi ; push ebx ; call dword [0x1480D0D8] ;  (1 found)
0x148047c3: push edi ; push ebx ; call dword [0x1480D0D8] ;  (1 found)
0x14807934: push edi ; push ebx ; mov ecx, esi ; call dword [0x1480D144] ;  (1 found)
0x148089b8: push edi ; push ebx ; push dword [ebp-0x24] ; push 0x00000009 ; push esi ; call dword [0x1480D0B0] ;  (1 found)
0x14805214: push edi ; push ebx ; push esi ; push eax ; push eax ; call dword [0x1480D0B4] ;  (1 found)
0x148077ff: push edi ; push ecx ; mov ecx, ebx ; call dword [0x1480D144] ;  (1 found)
0x148051f1: push edi ; push edi ; call dword [0x1480D0B4] ;  (1 found)
0x148047c0: push edi ; push edi ; push eax ; push edi ; push ebx ; call dword [0x1480D0D8] ;  (1 found)
0x14807a10: push edi ; push edx ; mov ecx, ebx ; call dword [0x1480D144] ;  (1 found)
0x148079cc: push edi ; push edx ; mov ecx, ebx ; call dword [0x1480D144] ;  (1 found)
0x148076a3: push edi ; push esi ; call dword [0x1480D144] ;  (1 found)
0x148078b8: push edi ; push esi ; call dword [0x1480D144] ;  (1 found)
0x148078e9: push edi ; push esi ; mov ecx, ebx ; call dword [0x1480D144] ;  (1 found)
0x14807383: push edi ; push esi ; push 0x00000009 ; push dword [eax+0x08] ; call dword [0x1480D0B0] ;  (1 found)
0x1480890f: push edi ; push esi ; push dword [ebp-0x20] ; push 0x00000009 ; push dword [ebp+0x24] ; call dword [0x1480D0B0] ;  (1 found)
0x1480109f: push edx ; mov eax, dword [ebp+0x08] ; push eax ; call dword [0x1480D134] ;  (1 found)
0x148079cd: push edx ; mov ecx, ebx ; call dword [0x1480D144] ;  (1 found)
0x14807a11: push edx ; mov ecx, ebx ; call dword [0x1480D144] ;  (1 found)
0x148026d0: push edx ; or al, 0x39 ; push ecx ; or byte [ebp+0x05], dh ; mov eax, 0x00000001 ; ret  ;  (1 found)
0x148021ac: push edx ; push 0x148021B9 ; push ecx ; call dword [0x1480D06C] ;  (1 found)
0x14808729: push es ; add byte [eax], al ; add byte [ebx+0x5D5E10C4], al ; ret  ;  (1 found)
0x1480134e: push es ; add byte [eax], al ; call esi ;  (1 found)
0x14809b8c: push es ; add byte [eax], al ; fld qword [esp+0x10] ; add esp, 0x1C ; ret  ;  (1 found)
0x14801f06: push es ; add byte [eax], al ; pop ecx ; mov al, 0x01 ; pop ebp ; ret  ;  (1 found)
0x14802916: push es ; add byte [eax], al ; pop ecx ; mov dword [0x14813B84], eax ; pop ebp ; ret  ;  (1 found)
0x148013ff: push es ; add byte [eax], al ; ret  ;  (1 found)
0x1480126d: push es ; add byte [eax], al ; xor eax, eax ; ret  ;  (1 found)
0x14807540: push es ; add eax, 0x20 ; push eax ; call dword [0x1480D080] ;  (1 found)
0x148096e9: push es ; andpd xmm3,  [0x14810D80] ; movq qword [esp+0x04], xmm3 ; fld qword [esp+0x04] ; ret  ;  (1 found)
0x1480650e: push es ; call dword [0x1480D088] ;  (1 found)
0x148065ba: push es ; call dword [0x1480D08C] ;  (1 found)
0x148024f6: push es ; call dword [0x1480D090] ;  (1 found)
0x14806613: push es ; call dword [0x1480D090] ;  (1 found)
0x148024b9: push es ; call dword [0x1480D094] ;  (1 found)
0x14806564: push es ; call dword [0x1480D094] ;  (1 found)
0x14809ff6: push es ; fldcw word [esp+0x06] ; ret  ;  (1 found)
0x148057d8: push es ; imul eax, eax, 0x30 ; add eax, dword [0x14813E58+ecx*4] ; push eax ; call dword [0x1480D078] ;  (1 found)
0x148057fb: push es ; imul eax, eax, 0x30 ; add eax, dword [0x14813E58+ecx*4] ; push eax ; call dword [0x1480D07C] ;  (1 found)
0x1480b9fd: push es ; mov byte [edi], al ; mov eax, dword [esp+0x0C] ; pop esi ; pop edi ; ret  ;  (1 found)
0x1480c0ad: push es ; mov byte [edi], al ; mov eax, dword [esp+0x0C] ; pop esi ; pop edi ; ret  ;  (1 found)
0x148086a2: push es ; mov dword [esi+0x08], eax ; pop edi ; pop esi ; pop ebp ; ret  ;  (1 found)
0x1480a002: push es ; mov eax, 0x00000000 ; ret  ;  (1 found)
0x14804460: push es ; mov eax, 0x14813048 ; ret  ;  (1 found)
0x1480444d: push es ; mov eax, 0x1481304C ; ret  ;  (1 found)
0x148058e6: push es ; mov eax, dword [eax+ecx+0x18] ; pop ebp ; ret  ;  (1 found)
0x148049e7: push es ; mov eax, dword [eax] ; mov eax, dword [eax+0x48] ; lock inc dword [eax] ; pop esi ; ret  ;  (1 found)
0x14803a0e: push es ; pop esi ; pop ebp ; ret  ;  (1 found)
0x148073fd: push es ; pop esi ; pop ebp ; ret  ;  (1 found)
0x1480742a: push es ; pop esi ; pop ebp ; ret  ;  (1 found)
0x14801131: push es ; push 0x00000001 ; push 0x00000002 ; call dword [0x1480D128] ;  (1 found)
0x1480a399: push es ; push eax ; fstp qword [ebp-0x0C] ; call dword [0x1480D144] ;  (1 found)
0x1480a2e1: push es ; push eax ; fstp qword [ebp-0x0C] ; call dword [0x1480D144] ;  (1 found)
0x1480a247: push es ; push eax ; fstp qword [ebp-0x0C] ; call dword [0x1480D144] ;  (1 found)
0x14809ffa: push es ; ret  ;  (1 found)
0x1480b679: push es ; shld edx, eax, cl ; shl eax, cl ; ret  ;  (1 found)
0x1480b659: push es ; shrd eax, edx, cl ; shr edx, cl ; ret  ;  (1 found)
0x14801963: push es ; xor eax, eax ; pop ebp ; retn 0x0004 ;  (1 found)
0x1480841a: push es ; xor eax, eax ; pop edi ; pop esi ; pop ebp ; ret  ;  (1 found)
0x148043cf: push esi ; call dword [0x1480D064] ;  (1 found)
0x14804036: push esi ; call dword [0x1480D074] ;  (1 found)
0x14804107: push esi ; call dword [0x1480D074] ;  (1 found)
0x1480402a: push esi ; call dword [0x1480D074] ;  (1 found)
0x14804187: push esi ; call dword [0x1480D074] ;  (1 found)
0x148023ab: push esi ; call dword [0x1480D098] ;  (1 found)
0x1480635f: push esi ; call dword [0x1480D098] ;  (1 found)
0x148089bf: push esi ; call dword [0x1480D0B0] ;  (1 found)
0x148089a8: push esi ; call dword [0x1480D0B0] ;  (1 found)
0x148047eb: push esi ; call dword [0x1480D0D4] ;  (1 found)
0x14804856: push esi ; call dword [0x1480D0DC] ;  (1 found)
0x1480523a: push esi ; call dword [0x1480D0F0] ;  (1 found)
0x1480543e: push esi ; call dword [0x1480D0F4] ;  (1 found)
0x14802e46: push esi ; call dword [0x1480D144] ;  (1 found)
0x148076a4: push esi ; call dword [0x1480D144] ;  (1 found)
0x148078b9: push esi ; call dword [0x1480D144] ;  (1 found)
0x14806cc1: push esi ; mov ecx, dword [ebp-0x24] ; call dword [0x1480D144] ;  (1 found)
0x148078ea: push esi ; mov ecx, ebx ; call dword [0x1480D144] ;  (1 found)
0x1480116d: push esi ; mov word [esp+0x16], ax ; call dword [0x1480D118] ;  (1 found)
0x14803a3b: push esi ; push 0x00000000 ; push dword [0x14814140] ; call dword [0x1480D0D0] ;  (1 found)
0x14803b36: push esi ; push 0x00000008 ; push dword [0x14814140] ; call dword [0x1480D0D0] ;  (1 found)
0x14807384: push esi ; push 0x00000009 ; push dword [eax+0x08] ; call dword [0x1480D0B0] ;  (1 found)
0x1480734e: push esi ; push 0x00000009 ; push dword [edi+0x08] ; call dword [0x1480D0B0] ;  (1 found)
0x148031b9: push esi ; push 0x1480DAE4 ; push dword [ebp-0x08] ; call dword [0x1480D09C] ;  (1 found)
0x14805e83: push esi ; push dword [ebp+0x0C] ; call dword [0x1480D100] ;  (1 found)
0x1480a6f9: push esi ; push dword [ebp+0x10] ; push dword [ebp+0x0C] ; push dword [ebp+0x08] ; push dword [0x14813750] ; call dword [0x1480D004] ;  (1 found)
0x14807d64: push esi ; push dword [ebp+0x14] ; push 0x00000001 ; push edi ; call dword [0x1480D0B0] ;  (1 found)
0x14805e6b: push esi ; push dword [ebp+0x14] ; push dword [ebp+0x10] ; push 0x00000001 ; push ebx ; call dword [0x1480D0B0] ;  (1 found)
0x1480899f: push esi ; push dword [ebp-0x20] ; mov esi, dword [ebp+0x24] ; push 0x00000001 ; push esi ; call dword [0x1480D0B0] ;  (1 found)
0x14808910: push esi ; push dword [ebp-0x20] ; push 0x00000009 ; push dword [ebp+0x24] ; call dword [0x1480D0B0] ;  (1 found)
0x14805216: push esi ; push eax ; push eax ; call dword [0x1480D0B4] ;  (1 found)
0x1480901b: push esi ; push eax ; push ecx ; call dword [0x1480D0A8] ;  (1 found)
0x14802384: push esi ; push ebx ; call dword [0x1480D0A0] ;  (1 found)
0x14806338: push esi ; push ebx ; call dword [0x1480D0A0] ;  (1 found)
0x14808a32: push esi ; push ebx ; push dword [ebp-0x24] ; push 0x00000001 ; push dword [ebp+0x24] ; call dword [0x1480D0B0] ;  (1 found)
0x14803f91: push esi ; push edi ; call dword [0x1480D070] ;  (1 found)
0x148040e0: push esi ; push edi ; call dword [0x1480D070] ;  (1 found)
0x1480296b: push esi ; push edi ; call dword [0x1480D0AC] ;  (1 found)
0x148051ce: push esi ; push edi ; call dword [0x1480D0EC] ;  (1 found)
0x1480110d: push esi ; push edi ; lea eax, dword [esp+0x20] ; push eax ; push 0x00000202 ; call dword [0x1480D12C] ;  (1 found)
0x1480815c: push esi ; push edi ; push 0x00000000 ; push dword [0x14814140] ; call dword [0x1480D024] ;  (1 found)
0x14807e5c: push esi ; push edi ; push eax ; push dword [ebp+0x24] ; call dword [0x1480D0B4] ;  (1 found)
0x148051f0: push esi ; push edi ; push edi ; call dword [0x1480D0B4] ;  (1 found)
0x14802383: push esi ; push esi ; push ebx ; call dword [0x1480D0A0] ;  (1 found)
0x14806337: push esi ; push esi ; push ebx ; call dword [0x1480D0A0] ;  (1 found)
0x148099a3: push esi ; ret  ;  (1 found)
0x14809afc: push esi ; retn 0x0FF2 ;  (1 found)
0x148032bd: push esp ; adc dword [edi+eax*4], 0x5DC03301 ; ret  ;  (1 found)
0x148096c5: push esp ; add eax, 0x14810D80 ; addsd xmm1, xmm0 ; movq qword [esp+0x04], xmm1 ; fld qword [esp+0x04] ; ret  ;  (1 found)
0x14809ff4: push esp ; and al, 0x06 ; fldcw word [esp+0x06] ; ret  ;  (1 found)
0x1480213b: push esp ; and al, 0x10 ; mov dword [edx], eax ; mov eax, 0x00000003 ; ret  ;  (1 found)
0x1480262b: push esp ; and al, 0x10 ; mov dword [edx], eax ; mov eax, 0x00000003 ; ret  ;  (1 found)
0x148097d6: push esp ; fdiv st7, st0 ; call dword [eax-0x18] ;  (1 found)
0x14806ae5: push esp ; inc ecx ; adc dword [eax+ebp*8], 0xFFFFCDFA ; pop ebp ; ret  ;  (1 found)
0x14801bfe: push esp ; rol byte [eax+0x0875FF14], 1  ; call dword [0x1480D050] ;  (1 found)
0x148018b9: push esp ; rol byte [eax-0x07BA72EC], 1  ; push eax ; call dword [0x1480D050] ;  (1 found)
0x148096ec: push esp ; sbb eax, 0x14810D80 ; movq qword [esp+0x04], xmm3 ; fld qword [esp+0x04] ; ret  ;  (1 found)
0x1480999f: push esp ; shl dword [esi+0x0F], 0x56 ; ret  ;  (1 found)
0x14809af8: push esp ; shl dword [esi+0x0F], 0x56 ; retn 0x0FF2 ;  (1 found)
0x148080e8: push ss ; add byte [eax], al ; add al, ch ; stosb  ; retn 0xFFFF ;  (1 found)
0x14801172: push ss ; call dword [0x1480D118] ;  (1 found)
0x14808b2b: push ss ; mov ecx, 0xF08BFFFF ; call dword [0x1480D070] ;  (1 found)
0x148032b8: push ss ; pop eax ; pop ebp ; ret  ;  (1 found)
0x14805119: push ss ; pop eax ; pop edi ; pop esi ; pop ebp ; ret  ;  (1 found)
0x148025c0: rcl bl, 0xFFFFFFC8 ; xor eax, dword [0x14813014] ; mov dword [0x14813B40], eax ; ret  ;  (1 found)
0x148030e4: rcr byte [ebp-0x3D], 0xFFFFFF8B ; call dword [ebp-0x75] ;  (1 found)
0x14806a89: rcr byte [ebp-0x3D], 0xFFFFFF8B ; call dword [ebp-0x75] ;  (1 found)
0x148080c8: rcr byte [ebp-0x3D], 0xFFFFFF8B ; call dword [ebp-0x75] ;  (1 found)
0x1480b1fe: rcr byte [ebp-0x3D], 0xFFFFFF8B ; call dword [ebp-0x75] ;  (1 found)
0x1480a8a8: rcr byte [ebp-0x3D], 0xFFFFFF8B ; call dword [ebx-0x75] ;  (1 found)
0x1480a9fd: rcr byte [ebp-0x3D], 0xFFFFFF8B ; call dword [ebx-0x75] ;  (1 found)
0x14804a11: rcr byte [ebp-0x3D], 0xFFFFFFA1 ; fcomp3 st4 ; adc byte [0xDCD8A1C3+ebx*2], 0xFFFFFF80 ; adc al, 0x5D ; ret  ;  (1 found)
0x148032c4: rcr byte [ebp-0x3D], 0xFFFFFFFF ; adc eax, 0x1480D0C0 ; mov dword [0x14813CB8], eax ; call dword [0x1480D0C4] ;  (1 found)
0x14801965: rcr byte [ebp-0x3E], 0x00000004 ; add al, ch ; sub eax, 0xCC000020 ; and dword [0x148137B0], 0x00000000 ; ret  ;  (1 found)
0x14801bd4: rcr byte [ebx-0x75], 0xFFFFFFE5 ; pop ebp ; ret  ;  (1 found)
0x1480acb5: rcr byte [ebx-0x75], 0xFFFFFFE5 ; pop ebp ; ret  ;  (1 found)
0x148035fc: rcr byte [edi+0x5B], 0x0000005E ; mov esp, ebp ; pop ebp ; ret  ;  (1 found)
0x148023c3: rcr byte [edi+0x5E], 0x0000005B ; mov esp, ebp ; pop ebp ; ret  ;  (1 found)
0x14806377: rcr byte [edi+0x5E], 0x0000005B ; mov esp, ebp ; pop ebp ; ret  ;  (1 found)
0x1480b2ed: rcr byte [edi+0x5E], 0x0000005B ; pop ebp ; ret  ;  (1 found)
0x14806268: rcr byte [edi+0x5E], 0x0000005D ; ret  ;  (1 found)
0x1480841c: rcr byte [edi+0x5E], 0x0000005D ; ret  ;  (1 found)
0x1480a62c: rcr byte [edi+0x5E], 0x0000005D ; ret  ;  (1 found)
0x14808e8e: rcr byte [edi+0x5E], 0xFFFFFF8B ; in eax, 0x5D ; ret  ;  (1 found)
0x14805738: rcr byte [edi], 0xFFFFFF81 ; adc al, 0xE8 ; lahf  ; retn 0xFFFF ;  (1 found)
0x14802e19: rcr byte [esi+0x5B], 0x0000005F ; ret  ;  (1 found)
0x148072ea: rcr byte [esi+0x5B], 0xFFFFFF8B ; in eax, 0x5D ; ret  ;  (1 found)
0x14802449: rcr byte [esi+0x5F], 0x0000005B ; pop ebp ; ret  ;  (1 found)
0x148063ff: rcr byte [esi+0x5F], 0x0000005B ; pop ebp ; ret  ;  (1 found)
0x14808143: rcr byte [esi+0x5F], 0x0000005D ; ret  ;  (1 found)
0x14807519: rcr byte [esi-0x3D], 0xFFFFFF8B ; call dword [esi-0x18] ;  (1 found)
0x14803c32: rcr byte [esi], 0x00000000 ; add byte [ebx-0x48F0F7B3], cl ; add al, 0x48 ; and eax, dword [ebp+0x0C] ; pop ebp ; ret  ;  (1 found)
0x14809c60: rcr cl, cl ; int1  ; ret  ;  (1 found)
0x148083bb: rcr dword [ebp-0x3D], 0xFFFFFF8B ; call dword [ebp-0x75] ;  (1 found)
0x148098eb: rcr dword [ebx+0x5E], 0x5F ; leave  ; ret  ;  (1 found)
0x14802181: rcr dword [ebx+0x5F], 1  ; pop esi ; pop ebp ; ret  ;  (1 found)
0x14809fdf: rcr ecx, 0xFFFFFFFD ; fstp st1 ; ret  ;  (1 found)
0x1480be7e: rep movsb  ; mov eax, dword [esp+0x0C] ; pop esi ; pop edi ; ret  ;  (1 found)
0x1480b7ce: rep movsb  ; mov eax, dword [esp+0x0C] ; pop esi ; pop edi ; ret  ;  (1 found)
0x1480b9d0: rep movsd  ; and edx, 0x03 ; jmp dword [0x1480B9E4+edx*4] ;  (1 found)
0x1480c080: rep movsd  ; and edx, 0x03 ; jmp dword [0x1480C094+edx*4] ;  (1 found)
0x1480ba85: rep movsd  ; cld  ; jmp dword [0x1480BA90+edx*4] ;  (1 found)
0x1480c135: rep movsd  ; cld  ; jmp dword [0x1480C140+edx*4] ;  (1 found)
0x14801f4c: rep stosb  ; mov eax, dword [esp+0x04] ; mov edi, edx ; ret  ;  (1 found)
0x1480103f: ret  ;  (1 found)
0x148010f4: ret  ;  (1 found)
0x148010de: ret  ;  (1 found)
0x148010d9: ret  ;  (1 found)
0x14801272: ret  ;  (1 found)
0x14801282: ret  ;  (1 found)
0x148013d3: ret  ;  (1 found)
0x14801429: ret  ;  (1 found)
0x14801294: ret  ;  (1 found)
0x14801402: ret  ;  (1 found)
0x148014db: ret  ;  (1 found)
0x14801469: ret  ;  (1 found)
0x148014c4: ret  ;  (1 found)
0x14801479: ret  ;  (1 found)
0x1480149e: ret  ;  (1 found)
0x148014a2: ret  ;  (1 found)
0x1480157d: ret  ;  (1 found)
0x148015fd: ret  ;  (1 found)
0x1480162c: ret  ;  (1 found)
0x1480160f: ret  ;  (1 found)
0x14801654: ret  ;  (1 found)
0x148016a4: ret  ;  (1 found)
0x1480168f: ret  ;  (1 found)
0x14801746: ret  ;  (1 found)
0x1480174a: ret  ;  (1 found)
0x14801750: ret  ;  (1 found)
0x148016f3: ret  ;  (1 found)
0x1480175c: ret  ;  (1 found)
0x14801775: ret  ;  (1 found)
0x1480178a: ret  ;  (1 found)
0x148017a7: ret  ;  (1 found)
0x14801784: ret  ;  (1 found)
0x1480177e: ret  ;  (1 found)
0x148017b9: ret  ;  (1 found)
0x148017bf: ret  ;  (1 found)
0x148017b3: ret  ;  (1 found)
0x148018ef: ret  ;  (1 found)
0x14801922: ret  ;  (1 found)
0x1480192e: ret  ;  (1 found)
0x148019a2: ret  ;  (1 found)
0x14801977: ret  ;  (1 found)
0x148018b6: ret  ;  (1 found)
0x148018de: ret  ;  (1 found)
0x148018db: ret  ;  (1 found)
0x14801bf0: ret  ;  (1 found)
0x14801b49: ret  ;  (1 found)
0x14801bbd: ret  ;  (1 found)
0x14801bd9: ret  ;  (1 found)
0x14801bef: ret  ;  (1 found)
0x14801be5: ret  ;  (1 found)
0x14801a39: ret  ;  (1 found)
0x148019cd: ret  ;  (1 found)
0x14801a24: ret  ;  (1 found)
0x14801a3a: ret  ;  (1 found)
0x14801a25: ret  ;  (1 found)
0x14801f54: ret  ;  (1 found)
0x14802069: ret  ;  (1 found)
0x14801f0d: ret  ;  (1 found)
0x14802014: ret  ;  (1 found)
0x14802886: ret  ;  (1 found)
0x14801edb: ret  ;  (1 found)
0x14801e93: ret  ;  (1 found)
0x14801eee: ret  ;  (1 found)
0x14801c1e: ret  ;  (1 found)
0x14801ec1: ret  ;  (1 found)
0x14802880: ret  ;  (1 found)
0x14801d19: ret  ;  (1 found)
0x14802267: ret  ;  (1 found)
0x1480229d: ret  ;  (1 found)
0x14802308: ret  ;  (1 found)
0x14802282: ret  ;  (1 found)
0x148022d9: ret  ;  (1 found)
0x148023ca: ret  ;  (1 found)
0x148020ff: ret  ;  (1 found)
0x14802145: ret  ;  (1 found)
0x14802186: ret  ;  (1 found)
0x148021bd: ret  ;  (1 found)
0x14802206: ret  ;  (1 found)
0x14802233: ret  ;  (1 found)
0x148025b1: ret  ;  (1 found)
0x148025ce: ret  ;  (1 found)
0x1480257f: ret  ;  (1 found)
0x148025f0: ret  ;  (1 found)
0x14802635: ret  ;  (1 found)
0x148026dc: ret  ;  (1 found)
0x148026b9: ret  ;  (1 found)
0x1480270d: ret  ;  (1 found)
0x14802480: ret  ;  (1 found)
0x1480244e: ret  ;  (1 found)
0x148024c2: ret  ;  (1 found)
0x148024ff: ret  ;  (1 found)
0x14802545: ret  ;  (1 found)
0x14802bcb: ret  ;  (1 found)
0x14802c39: ret  ;  (1 found)
0x14802c51: ret  ;  (1 found)
0x14802caa: ret  ;  (1 found)
0x14802c1a: ret  ;  (1 found)
0x14802c5d: ret  ;  (1 found)
0x14802d6e: ret  ;  (1 found)
0x14802daa: ret  ;  (1 found)
0x14802d69: ret  ;  (1 found)
0x14802dbc: ret  ;  (1 found)
0x14802e1d: ret  ;  (1 found)
0x148028ae: ret  ;  (1 found)
0x148028c2: ret  ;  (1 found)
0x14802895: ret  ;  (1 found)
0x14802920: ret  ;  (1 found)
0x1480290b: ret  ;  (1 found)
0x14802a4f: ret  ;  (1 found)
0x14802ab1: ret  ;  (1 found)
0x14802a56: ret  ;  (1 found)
0x14803207: ret  ;  (1 found)
0x148031f8: ret  ;  (1 found)
0x1480447c: ret  ;  (1 found)
0x14803216: ret  ;  (1 found)
0x14802e9f: ret  ;  (1 found)
0x14802eef: ret  ;  (1 found)
0x14802edb: ret  ;  (1 found)
0x14802e84: ret  ;  (1 found)
0x14802fd8: ret  ;  (1 found)
0x14802ff7: ret  ;  (1 found)
0x14802f95: ret  ;  (1 found)
0x14802f50: ret  ;  (1 found)
0x148030ba: ret  ;  (1 found)
0x148030ca: ret  ;  (1 found)
0x148030e6: ret  ;  (1 found)
0x14803143: ret  ;  (1 found)
0x14803721: ret  ;  (1 found)
0x14803766: ret  ;  (1 found)
0x148037d8: ret  ;  (1 found)
0x148037ea: ret  ;  (1 found)
0x148037a3: ret  ;  (1 found)
0x14803737: ret  ;  (1 found)
0x14803804: ret  ;  (1 found)
0x1480380c: ret  ;  (1 found)
0x1480384c: ret  ;  (1 found)
0x14803855: ret  ;  (1 found)
0x1480380f: ret  ;  (1 found)
0x148038b9: ret  ;  (1 found)
0x1480392a: ret  ;  (1 found)
0x1480393c: ret  ;  (1 found)
0x1480399b: ret  ;  (1 found)
0x14803a11: ret  ;  (1 found)
0x148039c7: ret  ;  (1 found)
0x1480446a: ret  ;  (1 found)
0x14803a5f: ret  ;  (1 found)
0x14803225: ret  ;  (1 found)
0x148032c6: ret  ;  (1 found)
0x14803289: ret  ;  (1 found)
0x14803273: ret  ;  (1 found)
0x148032bb: ret  ;  (1 found)
0x1480323b: ret  ;  (1 found)
0x1480334f: ret  ;  (1 found)
0x148032e5: ret  ;  (1 found)
0x148032df: ret  ;  (1 found)
0x148032eb: ret  ;  (1 found)
0x1480335a: ret  ;  (1 found)
0x14803383: ret  ;  (1 found)
0x148033e5: ret  ;  (1 found)
0x148033eb: ret  ;  (1 found)
0x1480341a: ret  ;  (1 found)
0x14803420: ret  ;  (1 found)
0x14803471: ret  ;  (1 found)
0x14803411: ret  ;  (1 found)
0x148034c2: ret  ;  (1 found)
0x14803603: ret  ;  (1 found)
0x14803a91: ret  ;  (1 found)
0x1480547d: ret  ;  (1 found)
0x14803b68: ret  ;  (1 found)
0x14803b5a: ret  ;  (1 found)
0x14803b94: ret  ;  (1 found)
0x14803c41: ret  ;  (1 found)
0x14803cbc: ret  ;  (1 found)
0x14803c74: ret  ;  (1 found)
0x14803d1d: ret  ;  (1 found)
0x14803e53: ret  ;  (1 found)
0x14803db8: ret  ;  (1 found)
0x14803f43: ret  ;  (1 found)
0x14803d68: ret  ;  (1 found)
0x14803f8e: ret  ;  (1 found)
0x14804035: ret  ;  (1 found)
0x14804115: ret  ;  (1 found)
0x148040d6: ret  ;  (1 found)
0x148041bb: ret  ;  (1 found)
0x148041d5: ret  ;  (1 found)
0x148041a6: ret  ;  (1 found)
0x14804310: ret  ;  (1 found)
0x1480436e: ret  ;  (1 found)
0x1480431f: ret  ;  (1 found)
0x148043aa: ret  ;  (1 found)
0x14804404: ret  ;  (1 found)
0x148043de: ret  ;  (1 found)
0x14804421: ret  ;  (1 found)
0x14804444: ret  ;  (1 found)
0x14804418: ret  ;  (1 found)
0x14804453: ret  ;  (1 found)
0x14804457: ret  ;  (1 found)
0x14804466: ret  ;  (1 found)
0x14804657: ret  ;  (1 found)
0x14805527: ret  ;  (1 found)
0x14804708: ret  ;  (1 found)
0x14804482: ret  ;  (1 found)
0x14804804: ret  ;  (1 found)
0x14804920: ret  ;  (1 found)
0x14804a13: ret  ;  (1 found)
0x148049f1: ret  ;  (1 found)
0x14804a1a: ret  ;  (1 found)
0x1480496e: ret  ;  (1 found)
0x14804a28: ret  ;  (1 found)
0x14804a2f: ret  ;  (1 found)
0x14804a21: ret  ;  (1 found)
0x14804b07: ret  ;  (1 found)
0x14804aa2: ret  ;  (1 found)
0x14804b43: ret  ;  (1 found)
0x14804e43: ret  ;  (1 found)
0x14804e4b: ret  ;  (1 found)
0x14804c9b: ret  ;  (1 found)
0x14804e7c: ret  ;  (1 found)
0x14804d24: ret  ;  (1 found)
0x14804eac: ret  ;  (1 found)
0x14804e98: ret  ;  (1 found)
0x14804f1f: ret  ;  (1 found)
0x1480509d: ret  ;  (1 found)
0x1480511e: ret  ;  (1 found)
0x14805177: ret  ;  (1 found)
0x1480518f: ret  ;  (1 found)
0x148051c6: ret  ;  (1 found)
0x14805249: ret  ;  (1 found)
0x14805244: ret  ;  (1 found)
0x14805477: ret  ;  (1 found)
0x1480560a: ret  ;  (1 found)
0x148055f3: ret  ;  (1 found)
0x148055a0: ret  ;  (1 found)
0x14805553: ret  ;  (1 found)
0x1480563b: ret  ;  (1 found)
0x14805685: ret  ;  (1 found)
0x14805652: ret  ;  (1 found)
0x148056ff: ret  ;  (1 found)
0x14805734: ret  ;  (1 found)
0x14805760: ret  ;  (1 found)
0x148057c8: ret  ;  (1 found)
0x1480580e: ret  ;  (1 found)
0x148057eb: ret  ;  (1 found)
0x1480589f: ret  ;  (1 found)
0x148058ec: ret  ;  (1 found)
0x14805909: ret  ;  (1 found)
0x148059bf: ret  ;  (1 found)
0x14805abd: ret  ;  (1 found)
0x14805ac9: ret  ;  (1 found)
0x14805a73: ret  ;  (1 found)
0x14805b1b: ret  ;  (1 found)
0x14805ab7: ret  ;  (1 found)
0x14805c19: ret  ;  (1 found)
0x14805af5: ret  ;  (1 found)
0x14805b0d: ret  ;  (1 found)
0x14805cbe: ret  ;  (1 found)
0x14805da2: ret  ;  (1 found)
0x14805c82: ret  ;  (1 found)
0x14805ebb: ret  ;  (1 found)
0x14805edb: ret  ;  (1 found)
0x14806088: ret  ;  (1 found)
0x148060c4: ret  ;  (1 found)
0x148060cb: ret  ;  (1 found)
0x14805f58: ret  ;  (1 found)
0x148060a2: ret  ;  (1 found)
0x148060fb: ret  ;  (1 found)
0x14806aef: ret  ;  (1 found)
0x14806af8: ret  ;  (1 found)
0x14806c29: ret  ;  (1 found)
0x14806ab4: ret  ;  (1 found)
0x14806d18: ret  ;  (1 found)
0x14806cc0: ret  ;  (1 found)
0x14806cf9: ret  ;  (1 found)
0x14806d99: ret  ;  (1 found)
0x14806d94: ret  ;  (1 found)
0x14806da0: ret  ;  (1 found)
0x148071a3: ret  ;  (1 found)
0x14806fa1: ret  ;  (1 found)
0x14806f96: ret  ;  (1 found)
0x148071bc: ret  ;  (1 found)
0x148070a0: ret  ;  (1 found)
0x14807068: ret  ;  (1 found)
0x1480705d: ret  ;  (1 found)
0x1480713e: ret  ;  (1 found)
0x148071cc: ret  ;  (1 found)
0x148072f0: ret  ;  (1 found)
0x14807288: ret  ;  (1 found)
0x148072a5: ret  ;  (1 found)
0x148072bf: ret  ;  (1 found)
0x148073d3: ret  ;  (1 found)
0x148074bd: ret  ;  (1 found)
0x1480742d: ret  ;  (1 found)
0x1480744e: ret  ;  (1 found)
0x1480751b: ret  ;  (1 found)
0x14807400: ret  ;  (1 found)
0x14807453: ret  ;  (1 found)
0x1480757b: ret  ;  (1 found)
0x14807567: ret  ;  (1 found)
0x148075c7: ret  ;  (1 found)
0x1480758f: ret  ;  (1 found)
0x14807661: ret  ;  (1 found)
0x14806214: ret  ;  (1 found)
0x1480611d: ret  ;  (1 found)
0x1480621c: ret  ;  (1 found)
0x14806124: ret  ;  (1 found)
0x148061a5: ret  ;  (1 found)
0x148062ba: ret  ;  (1 found)
0x1480626c: ret  ;  (1 found)
0x14806286: ret  ;  (1 found)
0x148062a0: ret  ;  (1 found)
0x1480637e: ret  ;  (1 found)
0x14806404: ret  ;  (1 found)
0x14806784: ret  ;  (1 found)
0x1480682e: ret  ;  (1 found)
0x14806843: ret  ;  (1 found)
0x1480684d: ret  ;  (1 found)
0x148067ba: ret  ;  (1 found)
0x14806832: ret  ;  (1 found)
0x148068d0: ret  ;  (1 found)
0x14806975: ret  ;  (1 found)
0x14806931: ret  ;  (1 found)
0x1480691d: ret  ;  (1 found)
0x14806a4e: ret  ;  (1 found)
0x14806a63: ret  ;  (1 found)
0x148069bb: ret  ;  (1 found)
0x14806a5c: ret  ;  (1 found)
0x14806a55: ret  ;  (1 found)
0x14806a47: ret  ;  (1 found)
0x14806a21: ret  ;  (1 found)
0x148069c7: ret  ;  (1 found)
0x14806a8b: ret  ;  (1 found)
0x14807b32: ret  ;  (1 found)
0x14807bf6: ret  ;  (1 found)
0x14807c85: ret  ;  (1 found)
0x14807c83: ret  ;  (1 found)
0x14807bdf: ret  ;  (1 found)
0x14807d0b: ret  ;  (1 found)
0x14807d16: ret  ;  (1 found)
0x14807c92: ret  ;  (1 found)
0x14807d51: ret  ;  (1 found)
0x14807eef: ret  ;  (1 found)
0x14807f18: ret  ;  (1 found)
0x14807e93: ret  ;  (1 found)
0x1480802c: ret  ;  (1 found)
0x14808043: ret  ;  (1 found)
0x14807fe2: ret  ;  (1 found)
0x148080ca: ret  ;  (1 found)
0x148080e3: ret  ;  (1 found)
0x148080c6: ret  ;  (1 found)
0x1480809e: ret  ;  (1 found)
0x148080f5: ret  ;  (1 found)
0x14808108: ret  ;  (1 found)
0x14808147: ret  ;  (1 found)
0x14808139: ret  ;  (1 found)
0x148081b3: ret  ;  (1 found)
0x148081c7: ret  ;  (1 found)
0x14808248: ret  ;  (1 found)
0x1480828b: ret  ;  (1 found)
0x14808319: ret  ;  (1 found)
0x14808368: ret  ;  (1 found)
0x1480839a: ret  ;  (1 found)
0x14808378: ret  ;  (1 found)
0x148083b3: ret  ;  (1 found)
0x148083bd: ret  ;  (1 found)
0x148084bb: ret  ;  (1 found)
0x14808420: ret  ;  (1 found)
0x14808467: ret  ;  (1 found)
0x14808470: ret  ;  (1 found)
0x148084b7: ret  ;  (1 found)
0x148084e6: ret  ;  (1 found)
0x14808580: ret  ;  (1 found)
0x14808525: ret  ;  (1 found)
0x148084f9: ret  ;  (1 found)
0x14808592: ret  ;  (1 found)
0x14808662: ret  ;  (1 found)
0x1480866b: ret  ;  (1 found)
0x148085cb: ret  ;  (1 found)
0x148086c5: ret  ;  (1 found)
0x14808732: ret  ;  (1 found)
0x148086a9: ret  ;  (1 found)
0x148087e9: ret  ;  (1 found)
0x14808a8e: ret  ;  (1 found)
0x14808ad6: ret  ;  (1 found)
0x14808b6e: ret  ;  (1 found)
0x14808bed: ret  ;  (1 found)
0x14808db1: ret  ;  (1 found)
0x14808de3: ret  ;  (1 found)
0x14808dfb: ret  ;  (1 found)
0x14808e1e: ret  ;  (1 found)
0x14808ed7: ret  ;  (1 found)
0x14808e94: ret  ;  (1 found)
0x14808fb3: ret  ;  (1 found)
0x14808fda: ret  ;  (1 found)
0x14808f73: ret  ;  (1 found)
0x148077ae: ret  ;  (1 found)
0x14807748: ret  ;  (1 found)
0x14807705: ret  ;  (1 found)
0x1480a461: ret  ;  (1 found)
0x1480a483: ret  ;  (1 found)
0x1480a505: ret  ;  (1 found)
0x1480a3ca: ret  ;  (1 found)
0x1480a630: ret  ;  (1 found)
0x1480a5d9: ret  ;  (1 found)
0x1480a594: ret  ;  (1 found)
0x1480a66b: ret  ;  (1 found)
0x1480a6a9: ret  ;  (1 found)
0x1480a68a: ret  ;  (1 found)
0x1480a6c0: ret  ;  (1 found)
0x14809061: ret  ;  (1 found)
0x1480913b: ret  ;  (1 found)
0x14809131: ret  ;  (1 found)
0x14809488: ret  ;  (1 found)
0x1480918e: ret  ;  (1 found)
0x14809276: ret  ;  (1 found)
0x1480951e: ret  ;  (1 found)
0x14809255: ret  ;  (1 found)
0x148095df: ret  ;  (1 found)
0x14809672: ret  ;  (1 found)
0x14809395: ret  ;  (1 found)
0x148096a1: ret  ;  (1 found)
0x148096d9: ret  ;  (1 found)
0x148096e0: ret  ;  (1 found)
0x148096fc: ret  ;  (1 found)
0x1480980b: ret  ;  (1 found)
0x14809877: ret  ;  (1 found)
0x14809884: ret  ;  (1 found)
0x14809795: ret  ;  (1 found)
0x1480977a: ret  ;  (1 found)
0x14809934: ret  ;  (1 found)
0x14809957: ret  ;  (1 found)
0x148099a4: ret  ;  (1 found)
0x148098cd: ret  ;  (1 found)
0x14809ab5: ret  ;  (1 found)
0x14809924: ret  ;  (1 found)
0x148098f0: ret  ;  (1 found)
0x14809b13: ret  ;  (1 found)
0x14809b96: ret  ;  (1 found)
0x14809c73: ret  ;  (1 found)
0x14809c49: ret  ;  (1 found)
0x14809c63: ret  ;  (1 found)
0x14809c78: ret  ;  (1 found)
0x14809c87: ret  ;  (1 found)
0x14809ca7: ret  ;  (1 found)
0x14809cf2: ret  ;  (1 found)
0x14809d1d: ret  ;  (1 found)
0x14809d60: ret  ;  (1 found)
0x14809d86: ret  ;  (1 found)
0x14809d5f: ret  ;  (1 found)
0x14809d10: ret  ;  (1 found)
0x14809dc6: ret  ;  (1 found)
0x14809e33: ret  ;  (1 found)
0x14809ebf: ret  ;  (1 found)
0x14809eee: ret  ;  (1 found)
0x14809ecc: ret  ;  (1 found)
0x14809ee7: ret  ;  (1 found)
0x14809f0b: ret  ;  (1 found)
0x14809eda: ret  ;  (1 found)
0x14809f43: ret  ;  (1 found)
0x14809f82: ret  ;  (1 found)
0x14809f9f: ret  ;  (1 found)
0x14809fbc: ret  ;  (1 found)
0x14809fc3: ret  ;  (1 found)
0x14809f19: ret  ;  (1 found)
0x1480a008: ret  ;  (1 found)
0x1480a014: ret  ;  (1 found)
0x14809ffb: ret  ;  (1 found)
0x1480a026: ret  ;  (1 found)
0x14809fe4: ret  ;  (1 found)
0x1480a057: ret  ;  (1 found)
0x1480a068: ret  ;  (1 found)
0x1480a07a: ret  ;  (1 found)
0x1480a09f: ret  ;  (1 found)
0x1480a0a4: ret  ;  (1 found)
0x1480a06d: ret  ;  (1 found)
0x1480a0fd: ret  ;  (1 found)
0x1480a1b2: ret  ;  (1 found)
0x1480a109: ret  ;  (1 found)
0x1480a104: ret  ;  (1 found)
0x1480a1e1: ret  ;  (1 found)
0x1480baa6: ret  ;  (1 found)
0x1480bae4: ret  ;  (1 found)
0x1480bab4: ret  ;  (1 found)
0x1480baca: ret  ;  (1 found)
0x1480bbca: ret  ;  (1 found)
0x1480bcb6: ret  ;  (1 found)
0x1480bd67: ret  ;  (1 found)
0x1480bdeb: ret  ;  (1 found)
0x1480bd99: ret  ;  (1 found)
0x1480be1c: ret  ;  (1 found)
0x1480be23: ret  ;  (1 found)
0x1480bde6: ret  ;  (1 found)
0x1480bdfe: ret  ;  (1 found)
0x1480be15: ret  ;  (1 found)
0x1480be2a: ret  ;  (1 found)
0x1480bde1: ret  ;  (1 found)
0x1480be86: ret  ;  (1 found)
0x1480a77f: ret  ;  (1 found)
0x1480a8aa: ret  ;  (1 found)
0x1480a715: ret  ;  (1 found)
0x1480a9e4: ret  ;  (1 found)
0x1480a9b5: ret  ;  (1 found)
0x1480a9cb: ret  ;  (1 found)
0x1480a9f5: ret  ;  (1 found)
0x1480ab15: ret  ;  (1 found)
0x1480aafc: ret  ;  (1 found)
0x1480aacd: ret  ;  (1 found)
0x1480aae1: ret  ;  (1 found)
0x1480a9ff: ret  ;  (1 found)
0x1480acba: ret  ;  (1 found)
0x1480abb8: ret  ;  (1 found)
0x1480ac99: ret  ;  (1 found)
0x1480acdd: ret  ;  (1 found)
0x1480adb4: ret  ;  (1 found)
0x1480ae37: ret  ;  (1 found)
0x1480afce: ret  ;  (1 found)
0x1480b09f: ret  ;  (1 found)
0x1480affd: ret  ;  (1 found)
0x1480aff0: ret  ;  (1 found)
0x1480b1ba: ret  ;  (1 found)
0x1480b173: ret  ;  (1 found)
0x1480b1a2: ret  ;  (1 found)
0x1480b1cc: ret  ;  (1 found)
0x1480b245: ret  ;  (1 found)
0x1480b24c: ret  ;  (1 found)
0x1480b278: ret  ;  (1 found)
0x1480b23c: ret  ;  (1 found)
0x1480b200: ret  ;  (1 found)
0x1480b292: ret  ;  (1 found)
0x1480b2a4: ret  ;  (1 found)
0x1480b2f2: ret  ;  (1 found)
0x1480b388: ret  ;  (1 found)
0x1480b3d3: ret  ;  (1 found)
0x1480b3f0: ret  ;  (1 found)
0x1480b39b: ret  ;  (1 found)
0x1480b3b9: ret  ;  (1 found)
0x1480b420: ret  ;  (1 found)
0x1480b4e7: ret  ;  (1 found)
0x1480b4e8: ret  ;  (1 found)
0x1480b65f: ret  ;  (1 found)
0x1480b5cb: ret  ;  (1 found)
0x1480b67f: ret  ;  (1 found)
0x1480b66e: ret  ;  (1 found)
0x1480b669: ret  ;  (1 found)
0x1480b689: ret  ;  (1 found)
0x1480b68e: ret  ;  (1 found)
0x1480b6ab: ret  ;  (1 found)
0x1480b744: ret  ;  (1 found)
0x1480b772: ret  ;  (1 found)
0x1480b773: ret  ;  (1 found)
0x1480b7d6: ret  ;  (1 found)
0x1480b9fa: ret  ;  (1 found)
0x1480ba06: ret  ;  (1 found)
0x1480ba18: ret  ;  (1 found)
0x1480ba32: ret  ;  (1 found)
0x1480c0c8: ret  ;  (1 found)
0x1480c0e2: ret  ;  (1 found)
0x1480c0aa: ret  ;  (1 found)
0x1480c0b6: ret  ;  (1 found)
0x1480c156: ret  ;  (1 found)
0x1480c17a: ret  ;  (1 found)
0x1480c164: ret  ;  (1 found)
0x1480c27a: ret  ;  (1 found)
0x1480c194: ret  ;  (1 found)
0x1480c366: ret  ;  (1 found)
0x1480c47d: ret  ;  (1 found)
0x1480c43c: ret  ;  (1 found)
0x1480c4e6: ret  ;  (1 found)
0x14802af0: retn 0x0000 ;  (1 found)
0x1480a2f0: retn 0x0000 ;  (1 found)
0x1480bd8e: retn 0x0003 ;  (1 found)
0x1480bd79: retn 0x0003 ;  (1 found)
0x14801967: retn 0x0004 ;  (1 found)
0x1480216d: retn 0x0004 ;  (1 found)
0x1480224d: retn 0x0004 ;  (1 found)
0x14802708: retn 0x0004 ;  (1 found)
0x14802e67: retn 0x0004 ;  (1 found)
0x148038e5: retn 0x0004 ;  (1 found)
0x14803916: retn 0x0004 ;  (1 found)
0x14803c15: retn 0x0004 ;  (1 found)
0x14803e72: retn 0x0004 ;  (1 found)
0x14806459: retn 0x0004 ;  (1 found)
0x14806523: retn 0x0004 ;  (1 found)
0x14806579: retn 0x0004 ;  (1 found)
0x148065cf: retn 0x0004 ;  (1 found)
0x14801614: retn 0x0005 ;  (1 found)
0x14807f00: retn 0x0007 ;  (1 found)
0x14801038: retn 0x0008 ;  (1 found)
0x148021d4: retn 0x0008 ;  (1 found)
0x14806628: retn 0x0008 ;  (1 found)
0x14806746: retn 0x0008 ;  (1 found)
0x14802fca: retn 0x000C ;  (1 found)
0x14803341: retn 0x000C ;  (1 found)
0x14803460: retn 0x000C ;  (1 found)
0x148034b1: retn 0x000C ;  (1 found)
0x14803cae: retn 0x000C ;  (1 found)
0x14803d0f: retn 0x000C ;  (1 found)
0x14803d5a: retn 0x000C ;  (1 found)
0x14803daa: retn 0x000C ;  (1 found)
0x14804960: retn 0x000C ;  (1 found)
0x1480668a: retn 0x000C ;  (1 found)
0x14806a10: retn 0x000C ;  (1 found)
0x1480823a: retn 0x000C ;  (1 found)
0x1480827d: retn 0x000C ;  (1 found)
0x14808b5d: retn 0x000C ;  (1 found)
0x1480a4f4: retn 0x000C ;  (1 found)
0x1480afa5: retn 0x000D ;  (1 found)
0x1480afb0: retn 0x000D ;  (1 found)
0x1480b492: retn 0x0010 ;  (1 found)
0x1480b516: retn 0x0010 ;  (1 found)
0x1480b531: retn 0x0010 ;  (1 found)
0x1480b64c: retn 0x0010 ;  (1 found)
0x148064cd: retn 0x0024 ;  (1 found)
0x148066fe: retn 0x0024 ;  (1 found)
0x14809ac6: retn 0x00C8 ;  (1 found)
0x14809b00: retn 0x00D0 ;  (1 found)
0x148083ce: retn 0x0324 ;  (1 found)
0x14806f45: retn 0x0374 ;  (1 found)
0x14806efb: retn 0x0674 ;  (1 found)
0x14806e3d: retn 0x0674 ;  (1 found)
0x148096b2: retn 0x06C1 ;  (1 found)
0x14803904: retn 0x0D74 ;  (1 found)
0x14807bbb: retn 0x0F01 ;  (1 found)
0x1480bd5b: retn 0x0F66 ;  (1 found)
0x14809afd: retn 0x0FF2 ;  (1 found)
0x14807a4c: retn 0x1873 ;  (1 found)
0x1480b217: retn 0x3375 ;  (1 found)
0x1480bd83: retn 0x3A01 ;  (1 found)
0x14802a1d: retn 0x3A39 ;  (1 found)
0x1480145f: retn 0x3B28 ;  (1 found)
0x1480b214: retn 0x3B66 ;  (1 found)
0x14802572: retn 0x4105 ;  (1 found)
0x14806775: retn 0x4122 ;  (1 found)
0x1480366c: retn 0x4589 ;  (1 found)
0x14806bd1: retn 0x4589 ;  (1 found)
0x148023ff: retn 0x49EB ;  (1 found)
0x148063b5: retn 0x49EB ;  (1 found)
0x1480805e: retn 0x4D8B ;  (1 found)
0x14806bdc: retn 0x5589 ;  (1 found)
0x148038f5: retn 0x5603 ;  (1 found)
0x148051b9: retn 0x6602 ;  (1 found)
0x1480b93e: retn 0x6604 ;  (1 found)
0x1480bfee: retn 0x6604 ;  (1 found)
0x1480b8e6: retn 0x6608 ;  (1 found)
0x1480bf96: retn 0x6608 ;  (1 found)
0x1480bf3a: retn 0x660C ;  (1 found)
0x1480b88a: retn 0x660C ;  (1 found)
0x14805975: retn 0x7401 ;  (1 found)
0x1480adc0: retn 0x7401 ;  (1 found)
0x1480adcc: retn 0x7404 ;  (1 found)
0x1480add8: retn 0x7408 ;  (1 found)
0x1480ade4: retn 0x7410 ;  (1 found)
0x1480adf0: retn 0x7420 ;  (1 found)
0x148083d6: retn 0x74C0 ;  (1 found)
0x1480597a: retn 0x7508 ;  (1 found)
0x14809c05: retn 0x7540 ;  (1 found)
0x148093b7: retn 0x75FF ;  (1 found)
0x1480bdbc: retn 0x8104 ;  (1 found)
0x14809b06: retn 0x8300 ;  (1 found)
0x14803b83: retn 0x8302 ;  (1 found)
0x14807a36: retn 0x852B ;  (1 found)
0x14804c3e: retn 0x8589 ;  (1 found)
0x14804c48: retn 0x8589 ;  (1 found)
0x14809b7a: retn 0x8910 ;  (1 found)
0x14809b81: retn 0x8910 ;  (1 found)
0x14809688: retn 0x8914 ;  (1 found)
0x14807283: retn 0x8B5B ;  (1 found)
0x148096e3: retn 0xA01D ;  (1 found)
0x1480c4bb: retn 0xBDEB ;  (1 found)
0x14805159: retn 0xC085 ;  (1 found)
0x148070b2: retn 0xC1F6 ;  (1 found)
0x148070bd: retn 0xC1F6 ;  (1 found)
0x14809756: retn 0xC73B ;  (1 found)
0x1480c467: retn 0xC783 ;  (1 found)
0x14808007: retn 0xC88B ;  (1 found)
0x1480bccb: retn 0xC88B ;  (1 found)
0x1480c37b: retn 0xC88B ;  (1 found)
0x148036a9: retn 0xC8D3 ;  (1 found)
0x1480c439: retn 0xC95F ;  (1 found)
0x1480b661: retn 0xD233 ;  (1 found)
0x1480b67c: retn 0xE0D3 ;  (1 found)
0x1480c3cb: retn 0xE2C1 ;  (1 found)
0x14805173: retn 0xE58B ;  (1 found)
0x1480bd53: retn 0xEB10 ;  (1 found)
0x14804b7c: retn 0xEF76 ;  (1 found)
0x148027a1: retn 0xF675 ;  (1 found)
0x14804873: retn 0xF8C1 ;  (1 found)
0x1480146b: retn 0xF9EB ;  (1 found)
0x1480abfe: retn 0xFA00 ;  (1 found)
0x14805c12: retn 0xFFDD ;  (1 found)
0x1480573e: retn 0xFFFF ;  (1 found)
0x1480575d: retn 0xFFFF ;  (1 found)
0x148080ee: retn 0xFFFF ;  (1 found)
0x14808181: retn 0xFFFF ;  (1 found)
0x148081b6: retn 0xFFFF ;  (1 found)
0x1480b734: retn 0xFFFF ;  (1 found)
0x14801c08: rol byte [eax+0x04096814], 1  ; add al, al ; call dword [0x1480D064] ;  (1 found)
0x14801bff: rol byte [eax+0x0875FF14], 1  ; call dword [0x1480D050] ;  (1 found)
0x14808e87: rol byte [eax+0x0FC08514], 1  ; xchg eax, ebp ; rcr byte [edi+0x5E], 0xFFFFFF8B ; in eax, 0x5D ; ret  ;  (1 found)
0x14801c13: rol byte [eax+0x15FF5014], 1  ; push 0x5D1480D0 ; ret  ;  (1 found)
0x148043d3: rol byte [eax+0x15FF5014], 1  ; push 0x5E1480D0 ; ret  ;  (1 found)
0x1480c0a1: rol byte [eax+0x24448B14], 0x0000000C ; pop esi ; pop edi ; ret  ;  (1 found)
0x148032d5: rol byte [eax+0x3CBCA314], 1  ; adc dword [eax+esi*4], 0xACB8C301 ; cmp al, 0x81 ; adc al, 0xC3 ; mov eax, 0x14813CB0 ; ret  ;  (1 found)
0x148021b6: rol byte [eax+0x5B5E5F14], 1  ; pop ebp ; ret  ;  (1 found)
0x148025e6: rol byte [eax+0x5E5F5D14], 1  ; pop ebx ; mov esp, ebp ; pop ebp ; ret  ;  (1 found)
0x1480402e: rol byte [eax+0x5FC78B14], 1  ; pop esi ; ret  ;  (1 found)
0x148031b2: rol byte [eax+0x74C08514], 1  ; and edx, dword [esi+0x68] ; in al, 0xDA ; adc byte [edi+edi*8], 0x00000075 ; clc  ; call dword [0x1480D09C] ;  (1 found)
0x148016c9: rol byte [eax-0x03BACEEC], 1  ; call dword [0x1480D03C] ;  (1 found)
0x148016d2: rol byte [eax-0x03BACEEC], 1  ; lea eax, dword [ebp-0x14] ; push eax ; call dword [0x1480D038] ;  (1 found)
0x148018ba: rol byte [eax-0x07BA72EC], 1  ; push eax ; call dword [0x1480D050] ;  (1 found)
0x148016ba: rol byte [eax-0x07BA74EC], 1  ; xor eax, dword [ebp-0x0C] ; mov dword [ebp-0x04], eax ; call dword [0x1480D040] ;  (1 found)
0x148060b8: rol byte [eax-0x10], 0x0000000F ; rol dword [ecx+0x000000B0], 0x40 ; pop ebp ; ret  ;  (1 found)
0x1480a774: rol byte [eax-0x15], 0x00000004 ; fstp st0 ; xor eax, eax ; mov esp, ebp ; pop ebp ; ret  ;  (1 found)
0x1480b663: rol byte [eax-0x172CE01F], cl ; ret  ;  (1 found)
0x1480b683: rol byte [eax-0x1D2CE01F], 0xFFFFFFC3 ; xor eax, eax ; xor edx, edx ; ret  ;  (1 found)
0x14801748: rol byte [eax-0x3D], 0xFFFFFFB8 ; add byte [eax+0x00], al ; add bl, al ; push 0x14813798 ; call dword [0x1480D048] ;  (1 found)
0x148043da: rol byte [eax-0x743CA1EC], 1  ; call dword [ebp-0x75] ;  (1 found)
0x1480564e: rol byte [eax-0x743CA2EC], 1  ; call dword [ebp-0x75] ;  (1 found)
0x148057e7: rol byte [eax-0x743CA2EC], 1  ; call dword [ebp-0x75] ;  (1 found)
0x1480580a: rol byte [eax-0x743CA2EC], 1  ; call dword [ebp-0x75] ;  (1 found)
0x14807577: rol byte [eax-0x743CA2EC], 1  ; call dword [ebp-0x75] ;  (1 found)
0x1480758b: rol byte [eax-0x743CA2EC], 1  ; call dword [ebp-0x75] ;  (1 found)
0x14808104: rol byte [eax-0x743CA2EC], 1  ; call dword [ebp-0x75] ;  (1 found)
0x14805606: rol byte [eax-0x743CA2EC], 1  ; call dword [esi-0x75] ;  (1 found)
0x1480523e: rol byte [eax-0x74A1A0EC], 1  ; ret  ;  (1 found)
0x1480523d: rol byte [eax-0x74A1A0EC], 1  ; ret  ;  (1 found)
0x148042d1: rol byte [eax-0x74FF95EC], 1  ; clc  ; call dword [0x1480D054] ;  (1 found)
0x1480a6db: rol byte [eax-0x7A0F74EC], 1  ; div byte [ebp+0x2D] ; call dword [0x1480D070] ;  (1 found)
0x14802347: rol byte [eax-0x7A0F74EC], 1  ; div byte [ebp+0x50] ; call dword [0x1480D070] ;  (1 found)
0x148062fb: rol byte [eax-0x7A0F74EC], 1  ; div byte [ebp+0x50] ; call dword [0x1480D070] ;  (1 found)
0x1480c09d: rol byte [eax-0x7F3F33EC], 0x00000014 ; mov eax, dword [esp+0x0C] ; pop esi ; pop edi ; ret  ;  (1 found)
0x1480c099: rol byte [eax-0x7F3F47EC], 0x00000014 ; int3  ; rol byte [eax+0x24448B14], 0x0000000C ; pop esi ; pop edi ; ret  ;  (1 found)
0x1480c095: rol byte [eax-0x7F3F53EC], 0x00000014 ; mov eax, 0xCC1480C0 ; rol byte [eax+0x24448B14], 0x0000000C ; pop esi ; pop edi ; ret  ;  (1 found)
0x1480acaf: rol byte [ebp-0x6BF0A10A], 0xFFFFFFC0 ; pop ebx ; mov esp, ebp ; pop ebp ; ret  ;  (1 found)
0x1480a9f8: rol byte [ebx-0x3FFCFD20], 0x0000005D ; ret  ;  (1 found)
0x1480a6a2: rol byte [ebx-0x6AF00007], 0xFFFFFFC0 ; ret  ;  (1 found)
0x14806bd6: rol byte [ebx-0x6BF0FE08], cl ; retn 0x5589 ;  (1 found)
0x14809e27: rol byte [ecx+0x000404E1], 0x00000000 ; mov ebx, edx ; add ebx, eax ; add ebx, 0x10 ; jmp dword [ebx] ;  (1 found)
0x14809eb3: rol byte [ecx+0x000404E1], 0x00000000 ; mov ebx, edx ; add ebx, eax ; add ebx, 0x10 ; jmp dword [ebx] ;  (1 found)
0x14809dc2: rol byte [ecx], 1  ; add byte [eax], al ; ret  ;  (1 found)
0x14801c12: rol byte [fs:eax+0x15FF5014], 1  ; push 0x5D1480D0 ; ret  ;  (1 found)
0x148043d2: rol byte [fs:eax+0x15FF5014], 1  ; push 0x5E1480D0 ; ret  ;  (1 found)
0x14802339: rol dword [eax+0x08006814], 1  ; add byte [eax], al ; push 0x00000000 ; push ebx ; call dword [0x1480D0A0] ;  (1 found)
0x14801146: rol dword [eax+0x0C488B14], 1  ; mov ecx, dword [ecx] ; push dword [ecx] ; call dword [0x1480D120] ;  (1 found)
0x14801139: rol dword [eax+0x19F36814], 1  ; adc dword [ebx+ecx*4], 0x3C15FFF8 ; rol dword [eax+0x0C488B14], 1  ; mov ecx, dword [ecx] ; push dword [ecx] ; call dword [0x1480D120] ;  (1 found)
0x1480c14d: rol dword [eax+0x24448B14], 0x0C ; pop esi ; pop edi ; ret  ;  (1 found)
0x148010a7: rol dword [eax-0x07BA76EC], 1  ; mov ecx, dword [ebp+0x08] ; push ecx ; call dword [0x1480D130] ;  (1 found)
0x148039bd: rol dword [eax-0x142900EC], 1  ; pop es ; xor eax, eax ; inc eax ; ret  ;  (1 found)
0x14806508: rol dword [eax-0x142900EC], 1  ; push es ; call dword [0x1480D088] ;  (1 found)
0x148065b4: rol dword [eax-0x142900EC], 1  ; push es ; call dword [0x1480D08C] ;  (1 found)
0x1480660d: rol dword [eax-0x142900EC], 1  ; push es ; call dword [0x1480D090] ;  (1 found)
0x1480655e: rol dword [eax-0x142900EC], 1  ; push es ; call dword [0x1480D094] ;  (1 found)
0x14801153: rol dword [eax-0x470F74EC], 1  ; add al, byte [eax] ; add byte [eax], al ; push 0x00001B59 ; mov word [esp+0x14], ax ; call dword [0x1480D11C] ;  (1 found)
0x1480116a: rol dword [eax-0x7699A9EC], 1  ; inc esp ; and al, 0x16 ; call dword [0x1480D118] ;  (1 found)
0x1480c149: rol dword [eax-0x7F3E83EC], 0x14 ; mov eax, dword [esp+0x0C] ; pop esi ; pop edi ; ret  ;  (1 found)
0x1480c141: rol dword [eax-0x7F3EA7EC], 0x14 ; push 0x7C1480C1 ; rol dword [eax+0x24448B14], 0x0C ; pop esi ; pop edi ; ret  ;  (1 found)
0x1480bd59: rol dword [ebx], 0xFFFFFFC2 ; movd edx, xmm3 ; xor ecx, ecx ; cmp dl, byte [eax] ; cmovne eax, ecx ; ret  ;  (1 found)
0x1480c432: rol dword [ebx], 0xFFFFFFC7 ; test ecx, ecx ; cmove eax, edx ; pop edi ; leave  ; ret  ;  (1 found)
0x14804c46: rol dword [ebx], 1  ; retn 0x8589 ;  (1 found)
0x148060bc: rol dword [ecx+0x000000B0], 0x40 ; pop ebp ; ret  ;  (1 found)
0x14806115: rol dword [ecx+0x000000B0], 0x48 ; pop ebp ; ret  ;  (1 found)
0x14807c91: rol ebx, 0xFFFFFF8B ; call dword [ebp-0x75] ;  (1 found)
0x148096dc: ror byte [0x66C31481], 0x0000000F ; retn 0xA01D ;  (1 found)
0x14804415: ror byte [eax], 0x0000005D ; ret  ;  (1 found)
0x14807ce3: ror byte [ebp+0x0001C504], 0x00000000 ; add byte [eax+0x57], dl ; call dword [0x1480D0B0] ;  (1 found)
0x14808c27: ror byte [ebx-0x38FCEBBB], 1  ; mov dword [ebp-0x28], eax ; call dword [0x1480D01C] ;  (1 found)
0x1480869d: ror byte [ecx+0x06890446], 0xFFFFFF89 ; inc esi ; or byte [edi+0x5E], bl ; pop ebp ; ret  ;  (1 found)
0x1480a666: ror byte [edi+eax*4], 0x00000008 ; pop ebp ; ret  ;  (1 found)
0x14804f28: ror byte [edi], 0xFFFFFF84 ; stosb  ; add byte [eax], al ; add byte [ebp+0x5350E845], cl ; call dword [0x1480D0E8] ;  (1 found)
0x14808e8b: ror byte [edi], 0xFFFFFF95 ; rcr byte [edi+0x5E], 0xFFFFFF8B ; in eax, 0x5D ; ret  ;  (1 found)
0x14809d05: ror byte [esi], 1  ; adc dword [esi+eax*8], 0xFFFF7085 ; inc dword [ebx] ; ret  ;  (1 found)
0x14809c3e: ror byte [esi], 1  ; adc dword [esi+eax*8], 0xFFFF7085 ; inc dword [edx] ; ret  ;  (1 found)
0x14806d13: ror dword [eax], 0x74 ; add cl, byte [ebx] ; ret  ;  (1 found)
0x1480173d: ror dword [ecx-0x7ECFE7F3], 1  ; adc al, 0x5F ; pop esi ; ret  ;  (1 found)
0x14809e1f: ror dword [edx-0x28F0DB3F], 0x0F ; mov esi, 0x04E181C0 ; add al, 0x00 ; add byte [ebx-0x7C27FC26], cl ; ret  ;  (1 found)
0x148028a6: ror eax, cl ; neg eax ; sbb eax, eax ; neg eax ; ret  ;  (1 found)
0x148025c1: ror eax, cl ; xor eax, dword [0x14813014] ; mov dword [0x14813B40], eax ; ret  ;  (1 found)
0x14801420: ror eax, cl ; xor eax, dword [0x14813014] ; pop ebp ; ret  ;  (1 found)
0x14802fee: ror eax, cl ; xor eax, dword [0x14813014] ; pop ebp ; ret  ;  (1 found)
0x1480304f: ror edi, cl ; mov ecx, edi ; call dword [0x1480D144] ;  (1 found)
0x14803681: ror esi, cl ; mov ecx, esi ; call dword [0x1480D144] ;  (1 found)
0x14801688: sal bh, 0xFFFFFFD0 ; and eax, dword [ebp+0x08] ; pop ebp ; ret  ;  (1 found)
0x1480169f: sal bh, 0xFFFFFFD8 ; dec eax ; pop ebp ; ret  ;  (1 found)
0x1480447e: sal bh, 0xFFFFFFD8 ; pop ebp ; ret  ;  (1 found)
0x148072a1: sal bh, 0xFFFFFFD8 ; pop ebp ; ret  ;  (1 found)
0x148028ab: sal bh, 0xFFFFFFD8 ; ret  ;  (1 found)
0x14805e7c: sal byte [eax+edx-0x01], 0x00000075 ; sbb byte [eax+0x56], dl ; push dword [ebp+0x0C] ; call dword [0x1480D100] ;  (1 found)
0x14803b64: sal byte [ebp+0x02], 0x0000005D ; ret  ;  (1 found)
0x1480b1c5: sal byte [ebp+0x05], 0x0000006A ; add bl, byte [eax+0x5D] ; ret  ;  (1 found)
0x1480838d: sal byte [ebp+0x07], 0xFFFFFF8B ; inc ebp ; or al, 0xFF ; add bl, ch ; fidiv word [eax-0x743CA2FF] ; call dword [ebp-0x75] ;  (1 found)
0x14801ee2: sal byte [ebp+0x07], 0xFFFFFFE8 ; add eax, dword [eax] ; add bl, ch ; in eax, dx ; mov al, 0x01 ; ret  ;  (1 found)
0x1480b1b5: sal byte [ebp+0x15], 0x00000040 ; pop ebp ; ret  ;  (1 found)
0x14808b27: sal byte [ebp+0x1D], 0xFFFFFFE8 ; push ss ; mov ecx, 0xF08BFFFF ; call dword [0x1480D070] ;  (1 found)
0x14802411: sal byte [ebp+ebx-0x01], 0x00000075 ; or al, 0x50 ; call dword [0x1480D09C] ;  (1 found)
0x148063c7: sal byte [ebp+ebx-0x01], 0x00000075 ; or al, 0x50 ; call dword [0x1480D09C] ;  (1 found)
0x14802380: sal byte [ebp+ecx+0x56], 0x00000056 ; push ebx ; call dword [0x1480D0A0] ;  (1 found)
0x14806334: sal byte [ebp+ecx+0x56], 0x00000056 ; push ebx ; call dword [0x1480D0A0] ;  (1 found)
0x14803a38: sal byte [ebp+edx+0x56], 0x0000006A ; add bh, bh ; xor eax, 0x14814140 ; call dword [0x1480D0D0] ;  (1 found)
0x14803b33: sal byte [ebp+edx+0x56], 0x0000006A ; or bh, bh ; xor eax, 0x14814140 ; call dword [0x1480D0D0] ;  (1 found)
0x1480484c: sal byte [ebp-0x6B], 0xFFFFFF8D ; test dword [esi+edi*8+0x5650FFFF], edi ; call dword [0x1480D0DC] ;  (1 found)
0x148031b6: sal byte [ebx+0x56], 0x00000068 ; in al, 0xDA ; adc byte [edi+edi*8], 0x00000075 ; clc  ; call dword [0x1480D09C] ;  (1 found)
0x148084b2: sal byte [ebx+eax+0x33], 0xFFFFFFC0 ; ret  ;  (1 found)
0x14808159: sal byte [ebx+ebx*8+0x56], 0x00000057 ; push 0x00000000 ; push dword [0x14814140] ; call dword [0x1480D024] ;  (1 found)
0x14802f2a: sal byte [ebx+ecx-0x75], 0xFFFFFFC8 ; call dword [0x1480D144] ;  (1 found)
0x1480b66b: sal byte [ebx], 0xFFFFFFD2 ; ret  ;  (1 found)
0x1480b68b: sal byte [ebx], 0xFFFFFFD2 ; ret  ;  (1 found)
0x14802196: sal byte [ebx], 0xFFFFFFDB ; xor ecx, ecx ; xor edx, edx ; xor edi, edi ; jmp esi ;  (1 found)
0x14802177: sal byte [ebx], 0xFFFFFFDB ; xor edx, edx ; xor esi, esi ; xor edi, edi ; call ecx ;  (1 found)
0x1480adaf: sal byte [ebx], 1  ; inc ecx ; or byte [ebx], ah ; ret  ;  (1 found)
0x1480b681: sal byte [ebx], 1  ; rol byte [eax-0x1D2CE01F], 0xFFFFFFC3 ; xor eax, eax ; xor edx, edx ; ret  ;  (1 found)
0x148083ad: sal byte [esp+eax-0x02], 0xFFFFFFC8 ; pop ebp ; ret  ;  (1 found)
0x148023fb: sal byte [esp+eax-0x75], cl ; retn 0x49EB ;  (1 found)
0x148063b1: sal byte [esp+eax-0x75], cl ; retn 0x49EB ;  (1 found)
0x1480adbe: sal dh, 1  ; retn 0x7401 ;  (1 found)
0x14806a85: sal dword [ebp-0x0C], 0x33 ; rcr byte [ebp-0x3D], 0xFFFFFF8B ; call dword [ebp-0x75] ;  (1 found)
0x1480c478: sal dword [ebp-0x13], 0x5F ; leave  ; ret  ;  (1 found)
0x14806621: sal dword [ebp-0x1A740001], 0x5D ; retn 0x0008 ;  (1 found)
0x14806266: sal dword [ebx], 1  ; rcr byte [edi+0x5E], 0x0000005D ; ret  ;  (1 found)
0x1480966a: salc  ; dec esp ; and al, 0x04 ; fld qword [esp+0x04] ; ret  ;  (1 found)
0x148096d1: salc  ; dec esp ; and al, 0x04 ; fld qword [esp+0x04] ; ret  ;  (1 found)
0x1480247d: salc  ; pop esi ; pop ebp ; ret  ;  (1 found)
0x148096f4: salc  ; pop esp ; and al, 0x04 ; fld qword [esp+0x04] ; ret  ;  (1 found)
0x14801c0f: sar bh, 0x00000015 ; rol byte [fs:eax+0x15FF5014], 1  ; push 0x5D1480D0 ; ret  ;  (1 found)
0x14805dde: sar bh, 0x00000075 ; adc byte [ebp+0x0001C504], cl ; add byte [eax], al ; push eax ; push ebx ; call dword [0x1480D0B0] ;  (1 found)
0x14803351: sar byte [ecx+0x14813CC4], 0x00000040 ; xchg dword [ecx], eax ; ret  ;  (1 found)
0x1480427c: sar ch, 0xFFFFFFFF ; jmp dword [esi-0x74] ;  (1 found)
0x148051ed: sar ebx, 1  ; push ebx ; push esi ; push edi ; push edi ; call dword [0x1480D0B4] ;  (1 found)
0x148057d6: sar ecx, 0x06 ; imul eax, eax, 0x30 ; add eax, dword [0x14813E58+ecx*4] ; push eax ; call dword [0x1480D078] ;  (1 found)
0x148057f9: sar ecx, 0x06 ; imul eax, eax, 0x30 ; add eax, dword [0x14813E58+ecx*4] ; push eax ; call dword [0x1480D07C] ;  (1 found)
0x148081c1: sar edi, 0xFFFFFFFF ; xor eax, eax ; pop ebp ; ret  ;  (1 found)
0x1480b6a3: sbb al, 0x24 ; cvttsd2si eax, qword [esp] ; leave  ; ret  ;  (1 found)
0x148022dd: sbb al, 0x3B ; adc dword [0x6B2074F6+eax*4], 0x8D5718C6 ; mov eax, 0x14813AEC ; push edi ; call dword [0x1480D080] ;  (1 found)
0x1480acdb: sbb al, 0x5D ; ret  ;  (1 found)
0x1480a47d: sbb al, 0x5E ; pop ebx ; mov esp, ebp ; pop ebp ; ret  ;  (1 found)
0x1480a661: sbb al, 0x8B ; inc ebp ; or byte [ebx+0x08870CC0], al ; pop ebp ; ret  ;  (1 found)
0x1480b9f0: sbb al, 0xBA ; adc byte [ebx+ecx*4], 0x00000044 ; and al, 0x0C ; pop esi ; pop edi ; ret  ;  (1 found)
0x14801169: sbb al, 0xD1 ; adc byte [esi+edx*2], 0x00000066 ; mov dword [esp+0x16], eax ; call dword [0x1480D118] ;  (1 found)
0x14808e86: sbb al, dl ; adc byte [0xC0950FC0+eax*4], 0x0000005F ; pop esi ; mov esp, ebp ; pop ebp ; ret  ;  (1 found)
0x148018b0: sbb bl, bl ; mov dword [ebp-0x04], eax ; inc bl ; call dword [0x1480D054] ;  (1 found)
0x148055fc: sbb byte [0x14813D00], al ; push eax ; call dword [0x1480D078] ;  (1 found)
0x14805644: sbb byte [0x14813D00], al ; push eax ; call dword [0x1480D07C] ;  (1 found)
0x14805e81: sbb byte [eax+0x56], dl ; push dword [ebp+0x0C] ; call dword [0x1480D100] ;  (1 found)
0x1480443c: sbb byte [eax], al ; add byte [eax], al ; mov dword [eax], esi ; pop esi ; pop ebp ; ret  ;  (1 found)
0x148066e5: sbb byte [eax], al ; add byte [eax], al ; push eax ; call dword [0x1480D030] ;  (1 found)
0x14805b0e: sbb byte [eax], al ; add byte [ebx+0x5959FC45], cl ; mov eax, dword [eax] ; mov esp, ebp ; pop ebp ; ret  ;  (1 found)
0x14808c23: sbb byte [eax], bl ; mov dword [ebp-0x30], eax ; mov eax, dword [ebp+0x14] ; add eax, edi ; mov dword [ebp-0x28], eax ; call dword [0x1480D01C] ;  (1 found)
0x14801740: sbb byte [eax], dh ; adc dword [edi+ebx*2], 0xC033C35E ; inc eax ; ret  ;  (1 found)
0x14808ecf: sbb byte [ebx+0x26831445], cl ; add byte [ebx], al ; ret  ;  (1 found)
0x1480a65b: sbb byte [ebx+0x48890845], cl ; sbb al, 0x8B ; inc ebp ; or byte [ebx+0x08870CC0], al ; pop ebp ; ret  ;  (1 found)
0x148022fe: sbb byte [ebx-0x148AFE12], al ; pop edi ; mov al, 0x01 ; pop esi ; ret  ;  (1 found)
0x14805631: sbb byte [ebx-0x148AFE12], al ; pop edi ; mov al, 0x01 ; pop esi ; ret  ;  (1 found)
0x1480a8a6: sbb byte [ebx], dh ; rcr byte [ebp-0x3D], 0xFFFFFF8B ; call dword [ebx-0x75] ;  (1 found)
0x148020fb: sbb byte [edi+0x5E], bl ; pop ebx ; ret  ;  (1 found)
0x148026b5: sbb byte [edi+0x5E], bl ; pop ebx ; ret  ;  (1 found)
0x148022e7: sbb byte [edi-0x73], dl ; mov eax, 0x14813AEC ; push edi ; call dword [0x1480D080] ;  (1 found)
0x1480561a: sbb byte [edi-0x73], dl ; mov eax, 0x14813CE8 ; push edi ; call dword [0x1480D080] ;  (1 found)
0x1480a8a4: sbb ch, bl ; sbb byte [ebx], dh ; rcr byte [ebp-0x3D], 0xFFFFFF8B ; call dword [ebx-0x75] ;  (1 found)
0x1480b73e: sbb cl, bl ; pop esp ; and al, 0x18 ; leave  ; ret  ;  (1 found)
0x1480b742: sbb cl, cl ; ret  ;  (1 found)
0x148065c8: sbb dh, byte [esi-0x1A740001] ; pop ebp ; retn 0x0004 ;  (1 found)
0x1480144b: sbb dword [ebx+0x4A3B0C4D], ecx ; or al, 0x72 ; or cl, byte [ebx+0x42030842] ; or al, 0x3B ; enter 0x0C72, 0x83 ; retn 0x3B28 ;  (1 found)
0x148068c9: sbb dword [ebx-0x1A740001], esi ; pop ebp ; ret  ;  (1 found)
0x1480abae: sbb dword [ebx-0x1E16011A], eax ; add byte [eax], al ; add dh, dh ; ret  ;  (1 found)
0x14809696: sbb dword [ebx], ecx ; add byte [eax], al ; add esp, 0x10 ; fld qword [esp+0x04] ; ret  ;  (1 found)
0x1480113d: sbb dword [ecx-0x000774EC], eax ; adc eax, 0x1480D13C ; mov ecx, dword [eax+0x0C] ; mov ecx, dword [ecx] ; push dword [ecx] ; call dword [0x1480D120] ;  (1 found)
0x1480113e: sbb dword [ecx-0x000774EC], eax ; adc eax, 0x1480D13C ; mov ecx, dword [eax+0x0C] ; mov ecx, dword [ecx] ; push dword [ecx] ; call dword [0x1480D120] ;  (1 found)
0x148010e9: sbb dword [ecx-0x00FF95EC], eax ; adc eax, 0x1480D10C ; ret  ;  (1 found)
0x1480aba8: sbb dword [ecx-0x221F26EC], eax ; sbb dword [ebx-0x1E16011A], eax ; add byte [eax], al ; add dh, dh ; ret  ;  (1 found)
0x14807a0f: sbb dword [edi+0x52], edx ; mov ecx, ebx ; call dword [0x1480D144] ;  (1 found)
0x148096ed: sbb eax, 0x14810D80 ; movq qword [esp+0x04], xmm3 ; fld qword [esp+0x04] ; ret  ;  (1 found)
0x148096e4: sbb eax, 0x14810DA0 ; push es ; andpd xmm3,  [0x14810D80] ; movq qword [esp+0x04], xmm3 ; fld qword [esp+0x04] ; ret  ;  (1 found)
0x14802413: sbb eax, 0x500C75FF ; call dword [0x1480D09C] ;  (1 found)
0x148063c9: sbb eax, 0x500C75FF ; call dword [0x1480D09C] ;  (1 found)
0x148055ea: sbb eax, 0x59000000 ; xor al, al ; pop edi ; pop esi ; ret  ;  (1 found)
0x1480115f: sbb eax, dword [eax] ; add byte [esi-0x77], ah ; inc esp ; and al, 0x14 ; call dword [0x1480D11C] ;  (1 found)
0x14804410: sbb eax, eax ; and eax, ecx ; add eax, 0x08 ; pop ebp ; ret  ;  (1 found)
0x14805436: sbb eax, eax ; and eax, ecx ; mov byte [ecx-0x01], bl ; push eax ; push esi ; call dword [0x1480D0F4] ;  (1 found)
0x1480169e: sbb eax, eax ; neg eax ; dec eax ; pop ebp ; ret  ;  (1 found)
0x1480447d: sbb eax, eax ; neg eax ; pop ebp ; ret  ;  (1 found)
0x148072a0: sbb eax, eax ; neg eax ; pop ebp ; ret  ;  (1 found)
0x148028aa: sbb eax, eax ; neg eax ; ret  ;  (1 found)
0x14801687: sbb eax, eax ; not eax ; and eax, dword [ebp+0x08] ; pop ebp ; ret  ;  (1 found)
0x1480afc3: sbb ebp, ebx ; add eax, 0xDD5041DD ; sbb ebx, dword [edi+0x5B] ; pop ebp ; ret  ;  (1 found)
0x1480afca: sbb ebx, dword [edi+0x5B] ; pop ebp ; ret  ;  (1 found)
0x1480b295: sbb ecx, ecx ; and ecx, 0xFFFFFF08 ; lea eax, dword [ecx+0x00000100] ; pop ebp ; ret  ;  (1 found)
0x1480b26c: sbb ecx, ecx ; and ecx, 0xFFFFFF90 ; lea eax, dword [ecx+0x00000080] ; pop ebp ; ret  ;  (1 found)
0x1480b289: sbb ecx, ecx ; and ecx, 0xFFFFFFE0 ; lea eax, dword [ecx+0x40] ; pop ebp ; ret  ;  (1 found)
0x1480b646: sbb edx, 0x00000000 ; pop ebp ; pop esi ; pop edi ; retn 0x0010 ;  (1 found)
0x14809c84: scasb  ; fyl2x  ; ret  ;  (1 found)
0x14809d14: scasd  ; fstp st0 ; fld tword [0x14810ED0] ; ret  ;  (1 found)
0x14807516: scasd  ; pop edi ; xor eax, eax ; pop esi ; ret  ;  (1 found)
0x148030e2: sete al ; pop ebp ; ret  ;  (1 found)
0x1480b3ec: sete al ; pop ebp ; ret  ;  (1 found)
0x1480acb3: sete al ; pop ebx ; mov esp, ebp ; pop ebp ; ret  ;  (1 found)
0x148017b0: sete al ; ret  ;  (1 found)
0x148015f8: sete cl ; mov eax, ecx ; ret  ;  (1 found)
0x14807c8d: sete cl ; mov eax, ecx ; ret  ;  (1 found)
0x1480b396: sete cl ; mov eax, ecx ; ret  ;  (1 found)
0x14807ce1: setne al ; lea eax, dword [0x00000001+eax*8] ; push eax ; push edi ; call dword [0x1480D0B0] ;  (1 found)
0x14808e8c: setne al ; pop edi ; pop esi ; mov esp, ebp ; pop ebp ; ret  ;  (1 found)
0x14805ddc: setne al ; push dword [ebp+0x10] ; lea eax, dword [0x00000001+eax*8] ; push eax ; push ebx ; call dword [0x1480D0B0] ;  (1 found)
0x1480191f: setne al ; ret  ;  (1 found)
0x14801be2: setne al ; ret  ;  (1 found)
0x14806840: setne al ; ret  ;  (1 found)
0x1480a6a6: setne al ; ret  ;  (1 found)
0x14807571: shl byte [eax], 0x00000050 ; call dword [0x1480D078] ;  (1 found)
0x14807585: shl byte [eax], 0x00000050 ; call dword [0x1480D07C] ;  (1 found)
0x14807542: shl byte [eax], 0x00000050 ; call dword [0x1480D080] ;  (1 found)
0x1480862b: shl byte [eax], 0x00000050 ; call dword [0x1480D080] ;  (1 found)
0x14804411: shl byte [ebx], 0xFFFFFFC1 ; add eax, 0x08 ; pop ebp ; ret  ;  (1 found)
0x14805437: shl byte [ebx], 0xFFFFFFC1 ; mov byte [ecx-0x01], bl ; push eax ; push esi ; call dword [0x1480D0F4] ;  (1 found)
0x14803902: shl byte [ebx], 1  ; retn 0x0D74 ;  (1 found)
0x148099a0: shl dword [esi+0x0F], 0x56 ; ret  ;  (1 found)
0x14809af9: shl dword [esi+0x0F], 0x56 ; retn 0x0FF2 ;  (1 found)
0x1480b67d: shl eax, cl ; ret  ;  (1 found)
0x1480b687: shl edx, cl ; ret  ;  (1 found)
0x1480b67a: shld edx, eax, cl ; shl eax, cl ; ret  ;  (1 found)
0x14806cf3: shr al, 0xFFFFFFF0 ; inc edi ; add byte [eax], al ; ret  ;  (1 found)
0x1480c4de: shr bl, 0x00000002 ; mov eax, edi ; cld  ; pop edi ; leave  ; ret  ;  (1 found)
0x148028ec: shr bl, 0x0000000E ; push dword [ebp+0x08] ; mov ecx, esi ; call dword [0x1480D144] ;  (1 found)
0x14808e72: shr bl, 0x0000001A ; lea eax, dword [ebp-0x04] ; push eax ; mov eax, dword [0x14813E58+edi*4] ; push dword [eax+esi+0x18] ; call dword [0x1480D018] ;  (1 found)
0x1480b667: shr eax, cl ; ret  ;  (1 found)
0x1480b9cd: shr ecx, 0x02 ; rep movsd  ; and edx, 0x03 ; jmp dword [0x1480B9E4+edx*4] ;  (1 found)
0x1480c07d: shr ecx, 0x02 ; rep movsd  ; and edx, 0x03 ; jmp dword [0x1480C094+edx*4] ;  (1 found)
0x148083b4: shr ecx, 0x0B ; and cl, 0x00000001 ; mov al, cl ; pop ebp ; ret  ;  (1 found)
0x1480b65d: shr edx, cl ; ret  ;  (1 found)
0x1480b65a: shrd eax, edx, cl ; shr edx, cl ; ret  ;  (1 found)
0x1480340a: sldt word [eax] ; or eax, 0xFFFFFFFF ; pop ebp ; ret  ;  (1 found)
0x1480b676: stc  ; and byte [ebx+0x06], dh ; shld edx, eax, cl ; shl eax, cl ; ret  ;  (1 found)
0x1480b656: stc  ; and byte [ebx+0x06], dh ; shrd eax, edx, cl ; shr edx, cl ; ret  ;  (1 found)
0x148077fe: stc  ; push edi ; push ecx ; mov ecx, ebx ; call dword [0x1480D144] ;  (1 found)
0x148057d7: stc  ; push es ; imul eax, eax, 0x30 ; add eax, dword [0x14813E58+ecx*4] ; push eax ; call dword [0x1480D078] ;  (1 found)
0x148057fa: stc  ; push es ; imul eax, eax, 0x30 ; add eax, dword [0x14813E58+ecx*4] ; push eax ; call dword [0x1480D07C] ;  (1 found)
0x14809112: std  ; add byte [eax], al ; call dword [0x1480D0B4] ;  (1 found)
0x14809fe1: std  ; fstp st1 ; ret  ;  (1 found)
0x14805171: std  ; mov eax, edx ; mov esp, ebp ; pop ebp ; ret  ;  (1 found)
0x14807281: std  ; mov eax, edx ; pop ebx ; mov esp, ebp ; pop ebp ; ret  ;  (1 found)
0x14807c7c: std  ; mov eax, esi ; pop esi ; mov esp, ebp ; pop ebp ; ret  ;  (1 found)
0x14804a9e: std  ; mov esp, ebp ; pop ebp ; ret  ;  (1 found)
0x14807eeb: std  ; mov esp, ebp ; pop ebp ; ret  ;  (1 found)
0x148085c7: std  ; mov esp, ebp ; pop ebp ; ret  ;  (1 found)
0x14808ad2: std  ; mov esp, ebp ; pop ebp ; ret  ;  (1 found)
0x14809774: std  ; pop edi ; pop esi ; mov esp, ebp ; pop ebp ; ret  ;  (1 found)
0x1480be1f: std  ; pop esi ; pop edi ; pop ebx ; ret  ;  (1 found)
0x1480ba84: std  ; rep movsd  ; cld  ; jmp dword [0x1480BA90+edx*4] ;  (1 found)
0x1480c134: std  ; rep movsd  ; cld  ; jmp dword [0x1480C140+edx*4] ;  (1 found)
0x1480410f: sti  ; mov eax, edi ; pop edi ; pop esi ; pop ebx ; ret  ;  (1 found)
0x148051ee: sti  ; push ebx ; push esi ; push edi ; push edi ; call dword [0x1480D0B4] ;  (1 found)
0x14804f2b: stosb  ; add byte [eax], al ; add byte [ebp+0x5350E845], cl ; call dword [0x1480D0E8] ;  (1 found)
0x14801f4d: stosb  ; mov eax, dword [esp+0x04] ; mov edi, edx ; ret  ;  (1 found)
0x148080ed: stosb  ; retn 0xFFFF ;  (1 found)
0x14802e17: stosd  ; xor eax, eax ; pop esi ; pop ebx ; pop edi ; ret  ;  (1 found)
0x1480b6a7: sub al, 0x04 ; and al, 0xC9 ; ret  ;  (1 found)
0x1480a04a: sub al, 0x24 ; add esp, 0x0A ; test eax, 0x00000000 ; mov eax, dword [edx+0x04] ; ret  ;  (1 found)
0x1480a0a1: sub al, 0x24 ; pop edx ; ret  ;  (1 found)
0x1480a106: sub al, 0x24 ; pop edx ; ret  ;  (1 found)
0x1480a077: sub al, 0x24 ; pop edx ; ret  ;  (1 found)
0x1480769a: sub bl, ch ; add ecx, dword [ebp+0x4D8B0049] ; adc al, 0x57 ; push esi ; call dword [0x1480D144] ;  (1 found)
0x14801bf3: sub byte [eax], al ; add byte [eax], al ; push ebp ; mov ebp, esp ; push 0x00000000 ; call dword [0x1480D054] ;  (1 found)
0x14805d9f: sub byte [esi+0x5D], bl ; ret  ;  (1 found)
0x1480b9c8: sub byte [esi-0x3EFFFFFE], 0xFFFFFFE9 ; add dh, bl ; movsd  ; and edx, 0x03 ; jmp dword [0x1480B9E4+edx*4] ;  (1 found)
0x1480c078: sub byte [esi-0x3EFFFFFE], 0xFFFFFFE9 ; add dh, bl ; movsd  ; and edx, 0x03 ; jmp dword [0x1480C094+edx*4] ;  (1 found)
0x14809773: sub ch, bh ; pop edi ; pop esi ; mov esp, ebp ; pop ebp ; ret  ;  (1 found)
0x14809c3d: sub eax, 0x14810ED0 ; mov byte [ebp-0x00000090], 0x00000002 ; ret  ;  (1 found)
0x14809d04: sub eax, 0x14810ED0 ; mov byte [ebp-0x00000090], 0x00000003 ; ret  ;  (1 found)
0x14809d18: sub eax, 0x14810ED0 ; ret  ;  (1 found)
0x14809c6e: sub eax, 0x14810EDA ; ret  ;  (1 found)
0x148039e2: sub eax, 0x6A0875FF ; add bh, bh ; xor eax, 0x14814140 ; call dword [0x1480D0CC] ;  (1 found)
0x1480196b: sub eax, 0xCC000020 ; and dword [0x148137B0], 0x00000000 ; ret  ;  (1 found)
0x14803b90: sub eax, ecx ; pop esi ; pop ebp ; ret  ;  (1 found)
0x1480b991: sub ecx, 0x08 ; lea esi, dword [esi+0x08] ; movq qword [edi], xmm1 ; lea edi, dword [edi+0x08] ; mov eax, dword [0x1480B9E4+ecx*4] ; jmp eax ;  (1 found)
0x1480c041: sub ecx, 0x08 ; lea esi, dword [esi+0x08] ; movq qword [edi], xmm1 ; lea edi, dword [edi+0x08] ; mov eax, dword [0x1480C094+ecx*4] ; jmp eax ;  (1 found)
0x1480141b: sub ecx, eax ; mov eax, dword [ebp+0x08] ; ror eax, cl ; xor eax, dword [0x14813014] ; pop ebp ; ret  ;  (1 found)
0x14802fe9: sub ecx, eax ; mov eax, dword [ebp+0x08] ; ror eax, cl ; xor eax, dword [0x14813014] ; pop ebp ; ret  ;  (1 found)
0x148025bd: sub ecx, eax ; xor eax, eax ; ror eax, cl ; xor eax, dword [0x14813014] ; mov dword [0x14813B40], eax ; ret  ;  (1 found)
0x1480ba81: sub edi, 0x04 ; std  ; rep movsd  ; cld  ; jmp dword [0x1480BA90+edx*4] ;  (1 found)
0x1480c131: sub edi, 0x04 ; std  ; rep movsd  ; cld  ; jmp dword [0x1480C140+edx*4] ;  (1 found)
0x1480ba7e: sub esi, 0x04 ; sub edi, 0x04 ; std  ; rep movsd  ; cld  ; jmp dword [0x1480BA90+edx*4] ;  (1 found)
0x1480c12e: sub esi, 0x04 ; sub edi, 0x04 ; std  ; rep movsd  ; cld  ; jmp dword [0x1480C140+edx*4] ;  (1 found)
0x1480b69c: sub esp, 0x08 ; and esp, 0xFFFFFFF8 ; fstp qword [esp] ; cvttsd2si eax, qword [esp] ; leave  ; ret  ;  (1 found)
0x148016a8: sub esp, 0x14 ; and dword [ebp-0x0C], 0x00000000 ; lea eax, dword [ebp-0x0C] ; and dword [ebp-0x08], 0x00000000 ; push eax ; call dword [0x1480D044] ;  (1 found)
0x1480590f: sub esp, 0x48 ; lea eax, dword [ebp-0x48] ; push eax ; call dword [0x1480D058] ;  (1 found)
0x14801888: test al, 0x15 ; add byte [eax], al ; inc eax ; mov dword [ebp-0x54], 0x00000001 ; mov dword [ebp-0x4C], eax ; call dword [0x1480D04C] ;  (1 found)
0x14807c8b: test al, al ; sete cl ; mov eax, ecx ; ret  ;  (1 found)
0x14804f0c: test al, cl ; add byte [eax], al ; add byte [ecx+0x00FDE9FB], al ; add byte [edi], cl ; test byte [eax+eax-0x48F10000], bh ; ret  ;  (1 found)
0x1480253f: test al, dl ; adc byte [esi+ebx*2], 0x0000005D ; ret  ;  (1 found)
0x14804b73: test byte [0xFFFFFEFC], al ; and byte [eax+0x3B], al ; retn 0xEF76 ;  (1 found)
0x14804f18: test byte [eax+eax-0x48F10000], bh ; ret  ;  (1 found)
0x148028b8: test byte [ebx], bh ; adc dword [eax+ebp*8], 0x00001027 ; pop ebp ; ret  ;  (1 found)
0x1480289f: test byte [ebx], bh ; adc dword [ebx+eax*4], 0xC8D31FE1 ; neg eax ; sbb eax, eax ; neg eax ; ret  ;  (1 found)
0x1480228f: test byte [ecx], 0x00000000 ; add byte [ebx-0x7ECFDFF3], al ; adc al, 0xFF ; pop ecx ; mov al, 0x01 ; ret  ;  (1 found)
0x1480567d: test byte [esi-0x75], 0xFFFFFFC6 ; pop esi ; mov esp, ebp ; pop ebp ; ret  ;  (1 found)
0x1480a477: test dword [0xC4830000], eax ; sbb al, 0x5E ; pop ebx ; mov esp, ebp ; pop ebp ; ret  ;  (1 found)
0x148081a5: test dword [eax+0x3E], ebx ; adc dword [edi+ecx], 0x280844B6 ; and eax, 0x40 ; pop ebp ; ret  ;  (1 found)
0x14803db3: test dword [eax], ebx ; add byte [eax], al ; pop ecx ; ret  ;  (1 found)
0x1480bca5: test dword [ebp+0x000024A4], 0x498D0000 ; add byte [ebx+0x5E0C2444], cl ; pop edi ; ret  ;  (1 found)
0x1480c355: test dword [ebp+0x000024A4], 0x498D0000 ; add byte [ebx+0x5E0C2444], cl ; pop edi ; ret  ;  (1 found)
0x14808a2c: test dword [ebp+0x513274F6], 0x75FF5356 ; fsubr qword [edx+0x01] ; push dword [ebp+0x24] ; call dword [0x1480D0B0] ;  (1 found)
0x1480681c: test dword [ebp+0x6A563B04], 0xE7E85000 ; mov dh, 0xFF ; inc dword [ebx-0x74A0F33C] ; ret  ;  (1 found)
0x1480a95d: test dword [edi+edi*8-0x01], edi ; call dword [eax-0x73] ;  (1 found)
0x14804850: test dword [esi+edi*8+0x5650FFFF], edi ; call dword [0x1480D0DC] ;  (1 found)
0x148047ba: test dword [esi+edi*8+0x5757FFFF], edi ; push edi ; push eax ; push edi ; push ebx ; call dword [0x1480D0D8] ;  (1 found)
0x1480a04f: test eax, 0x00000000 ; mov eax, dword [edx+0x04] ; ret  ;  (1 found)
0x1480572b: test eax, 0x59FFFFE2 ; pop edi ; pop ebx ; pop esi ; pop ebp ; ret  ;  (1 found)
0x14806839: test eax, eax ; mov dword [0x14814140], eax ; setne al ; ret  ;  (1 found)
0x1480c435: test ecx, ecx ; cmove eax, edx ; pop edi ; leave  ; ret  ;  (1 found)
0x14809d55: wait  ; fstsw word [ebp-0x000000A0] ; fabs  ; f2xm1  ; ret  ;  (1 found)
0x14808587: wait  ; fstsw word [ebp-0x04] ; movsx eax, word [ebp-0x04] ; mov esp, ebp ; pop ebp ; ret  ;  (1 found)
0x14803806: wait  ; idiv bh ; push dword [eax+0x01B0C301] ; ret  ;  (1 found)
0x1480857c: wait  ; mov esp, ebp ; pop ebp ; ret  ;  (1 found)
0x14806114: xadd dword [ecx+0x000000B0], eax ; dec eax ; pop ebp ; ret  ;  (1 found)
0x148060bb: xadd dword [ecx+0x000000B0], eax ; inc eax ; pop ebp ; ret  ;  (1 found)
0x1480a668: xchg dword [eax], ecx ; pop ebp ; ret  ;  (1 found)
0x14801629: xchg dword [ecx], eax ; pop ebp ; ret  ;  (1 found)
0x14803417: xchg dword [ecx], eax ; pop ebp ; ret  ;  (1 found)
0x14803358: xchg dword [ecx], eax ; ret  ;  (1 found)
0x148032c1: xchg dword [ecx], eax ; xor eax, eax ; pop ebp ; ret  ;  (1 found)
0x1480484e: xchg eax, ebp ; lea eax, dword [ebp-0x00000144] ; push eax ; push esi ; call dword [0x1480D0DC] ;  (1 found)
0x14808e8d: xchg eax, ebp ; rcr byte [edi+0x5E], 0xFFFFFF8B ; in eax, 0x5D ; ret  ;  (1 found)
0x14807ce2: xchg eax, ebp ; ror byte [ebp+0x0001C504], 0x00000000 ; add byte [eax+0x57], dl ; call dword [0x1480D0B0] ;  (1 found)
0x1480be0e: xchg eax, ecx ; pop esi ; pop edi ; lea eax, dword [edx-0x01] ; pop ebx ; ret  ;  (1 found)
0x14803936: xchg eax, edi ; das  ; add byte [eax], al ; pop ecx ; pop ecx ; ret  ;  (1 found)
0x14802b50: xchg eax, esp ; inc ebp ; call ecx ;  (1 found)
0x1480b76c: xchg eax, esp ; mov eax, dword [eax] ; mov dword [esp], eax ; ret  ;  (1 found)
0x148030e3: xchg eax, esp ; rcr byte [ebp-0x3D], 0xFFFFFF8B ; call dword [ebp-0x75] ;  (1 found)
0x1480acb4: xchg eax, esp ; rcr byte [ebx-0x75], 0xFFFFFFE5 ; pop ebp ; ret  ;  (1 found)
0x14806bdb: xchg eax, esp ; retn 0x5589 ;  (1 found)
0x148081c0: xlatb  ; sar edi, 0xFFFFFFFF ; xor eax, eax ; pop ebp ; ret  ;  (1 found)
0x14803992: xor al, 0x00 ; add byte [ecx+0x59], bl ; xor eax, eax ; pop esi ; pop ebp ; ret  ;  (1 found)
0x148010a6: xor al, 0xD1 ; adc byte [ecx+ecx*4], 0x00000045 ; clc  ; mov ecx, dword [ebp+0x08] ; push ecx ; call dword [0x1480D130] ;  (1 found)
0x14805978: xor al, 0xF6 ; retn 0x7508 ;  (1 found)
0x148014c1: xor al, al ; pop ebp ; ret  ;  (1 found)
0x14808375: xor al, al ; pop ebp ; ret  ;  (1 found)
0x148022d5: xor al, al ; pop edi ; pop esi ; ret  ;  (1 found)
0x148055ef: xor al, al ; pop edi ; pop esi ; ret  ;  (1 found)
0x1480149b: xor al, al ; pop esi ; ret  ;  (1 found)
0x1480149a: xor al, al ; pop esi ; ret  ;  (1 found)
0x14801477: xor al, al ; ret  ;  (1 found)
0x148018ed: xor al, al ; ret  ;  (1 found)
0x14801ed9: xor al, al ; ret  ;  (1 found)
0x14802265: xor al, al ; ret  ;  (1 found)
0x148041a4: xor al, al ; ret  ;  (1 found)
0x14803d61: xor al, ch ; aad 0x18 ; add byte [eax], al ; pop ecx ; ret  ;  (1 found)
0x14802fd1: xor al, ch ; add byte [eax], al ; pop ecx ; ret  ;  (1 found)
0x14803d16: xor al, ch ; and byte [ecx], bl ; add byte [eax], al ; pop ecx ; ret  ;  (1 found)
0x148035c4: xor al, ch ; psubd mm7, mm7 ; call dword [ebx-0x77] ;  (1 found)
0x14803db1: xor al, ch ; test dword [eax], ebx ; add byte [eax], al ; pop ecx ; ret  ;  (1 found)
0x14808241: xor al, ch ; xor eax, 0x59FFFFF3 ; ret  ;  (1 found)
0x14803ac7: xor byte [eax], al ; add byte [ecx-0x0A], bl ; add eax, 0x14813040 ; add dh, byte [edx+0x6A] ; pop ss ; call dword [0x1480D05C] ;  (1 found)
0x14808e82: xor byte [eax], bl ; call dword [0x1480D018] ;  (1 found)
0x1480bdd9: xor byte [ebp-0x3C], 0x0000005E ; pop edi ; pop ebx ; xor eax, eax ; ret  ;  (1 found)
0x148081a2: xor byte [ebx+0x3E588504], cl ; adc dword [edi+ecx], 0x280844B6 ; and eax, 0x40 ; pop ebp ; ret  ;  (1 found)
0x148041cf: xor byte [ecx+0x01B0FF14], al ; ret  ;  (1 found)
0x14801be9: xor byte [ecx+0x0275F214], al ; ret  ;  (1 found)
0x14803ace: xor byte [ecx+0x22740214], al ; push 0x00000017 ; call dword [0x1480D05C] ;  (1 found)
0x14802443: xor byte [ecx+0x333B8714], al ; rcr byte [esi+0x5F], 0x0000005B ; pop ebp ; ret  ;  (1 found)
0x148063f9: xor byte [ecx+0x333B8714], al ; rcr byte [esi+0x5F], 0x0000005B ; pop ebp ; ret  ;  (1 found)
0x14801bd0: xor byte [ecx+0x5BC03314], al ; mov esp, ebp ; pop ebp ; ret  ;  (1 found)
0x1480225c: xor byte [ecx-0x077CA6EC], al ; push dword [ebp+0x03] ; xor al, al ; ret  ;  (1 found)
0x14801741: xor byte [ecx-0x3CA1A0EC], al ; xor eax, eax ; inc eax ; ret  ;  (1 found)
0x148017ad: xor byte [ecx-0x3F6BF0EC], al ; ret  ;  (1 found)
0x14801739: xor byte [ecx-0x762E08EC], al ; or eax, 0x14813018 ; pop edi ; pop esi ; ret  ;  (1 found)
0x14804441: xor byte [esi+0x5D], bl ; ret  ;  (1 found)
0x14802da2: xor cl, byte [eax+eax] ; add byte [ecx+0x5F], bl ; pop esi ; pop ebp ; ret  ;  (1 found)
0x14809662: xor cl, byte [eax+eax] ; add byte [edi+0x0B], bh ; movq qword [esp+0x04], xmm1 ; fld qword [esp+0x04] ; ret  ;  (1 found)
0x14808a30: xor dl, byte [ecx+0x56] ; push ebx ; push dword [ebp-0x24] ; push 0x00000001 ; push dword [ebp+0x24] ; call dword [0x1480D0B0] ;  (1 found)
0x148016cc: xor dword [ebp-0x04], eax ; call dword [0x1480D03C] ;  (1 found)
0x148016d5: xor dword [ebp-0x04], eax ; lea eax, dword [ebp-0x14] ; push eax ; call dword [0x1480D038] ;  (1 found)
0x1480a6d3: xor eax, 0x14813750 ; call dword [0x1480D004] ;  (1 found)
0x1480a704: xor eax, 0x14813750 ; call dword [0x1480D004] ;  (1 found)
0x148038ae: xor eax, 0x14813CB4 ; mov al, 0x01 ; pop esi ; mov esp, ebp ; pop ebp ; ret  ;  (1 found)
0x14808161: xor eax, 0x14814140 ; call dword [0x1480D024] ;  (1 found)
0x148080fc: xor eax, 0x14814140 ; call dword [0x1480D028] ;  (1 found)
0x148039e9: xor eax, 0x14814140 ; call dword [0x1480D0CC] ;  (1 found)
0x14803a3f: xor eax, 0x14814140 ; call dword [0x1480D0D0] ;  (1 found)
0x14803b3a: xor eax, 0x14814140 ; call dword [0x1480D0D0] ;  (1 found)
0x1480a1d1: xor eax, 0x14814184 ; call dword [0x1480D010] ;  (1 found)
0x14808243: xor eax, 0x59FFFFF3 ; ret  ;  (1 found)
0x148037db: xor eax, 0x5CB91481 ; inc eax ; adc dword [eax+ebp*8], 0x00000100 ; mov al, 0x01 ; ret  ;  (1 found)
0x148025c3: xor eax, dword [0x14813014] ; mov dword [0x14813B40], eax ; ret  ;  (1 found)
0x14801422: xor eax, dword [0x14813014] ; pop ebp ; ret  ;  (1 found)
0x14802ff0: xor eax, dword [0x14813014] ; pop ebp ; ret  ;  (1 found)
0x148016eb: xor eax, dword [ebp-0x04] ; xor eax, ecx ; mov esp, ebp ; pop ebp ; ret  ;  (1 found)
0x148016c0: xor eax, dword [ebp-0x0C] ; mov dword [ebp-0x04], eax ; call dword [0x1480D040] ;  (1 found)
0x148016e8: xor eax, dword [ebp-0x14] ; xor eax, dword [ebp-0x04] ; xor eax, ecx ; mov esp, ebp ; pop ebp ; ret  ;  (1 found)
0x1480b682: xor eax, eax ; and cl, 0x0000001F ; shl edx, cl ; ret  ;  (1 found)
0x148017a8: xor eax, eax ; cmp dword [0x14813004], eax ; sete al ; ret  ;  (1 found)
0x14801bda: xor eax, eax ; cmp dword [0x14814174], eax ; setne al ; ret  ;  (1 found)
0x148030d9: xor eax, eax ; cmp dword [ebp+0x08], 0xE06D7363 ; sete al ; pop ebp ; ret  ;  (1 found)
0x1480a6a1: xor eax, eax ; cmp ecx, 0xFFFFFFFF ; setne al ; ret  ;  (1 found)
0x148060b7: xor eax, eax ; inc eax ; lock xadd dword [ecx+0x000000B0], eax ; inc eax ; pop ebp ; ret  ;  (1 found)
0x1480a9e0: xor eax, eax ; inc eax ; pop ebp ; ret  ;  (1 found)
0x1480b238: xor eax, eax ; inc eax ; pop ebp ; ret  ;  (1 found)
0x14801747: xor eax, eax ; inc eax ; ret  ;  (1 found)
0x148039c4: xor eax, eax ; inc eax ; ret  ;  (1 found)
0x148084b8: xor eax, eax ; inc eax ; ret  ;  (1 found)
0x14801622: xor eax, eax ; mov ecx, 0x14813774 ; xchg dword [ecx], eax ; pop ebp ; ret  ;  (1 found)
0x14803350: xor eax, eax ; mov ecx, 0x14813CC4 ; inc eax ; xchg dword [ecx], eax ; ret  ;  (1 found)
0x148087e4: xor eax, eax ; mov esp, ebp ; pop ebp ; ret  ;  (1 found)
0x1480a77a: xor eax, eax ; mov esp, ebp ; pop ebp ; ret  ;  (1 found)
0x148032c3: xor eax, eax ; pop ebp ; ret  ;  (1 found)
0x14804a10: xor eax, eax ; pop ebp ; ret  ;  (1 found)
0x14806a88: xor eax, eax ; pop ebp ; ret  ;  (1 found)
0x14806a44: xor eax, eax ; pop ebp ; ret  ;  (1 found)
0x148080c7: xor eax, eax ; pop ebp ; ret  ;  (1 found)
0x148081c4: xor eax, eax ; pop ebp ; ret  ;  (1 found)
0x1480a8a7: xor eax, eax ; pop ebp ; ret  ;  (1 found)
0x1480b1fd: xor eax, eax ; pop ebp ; ret  ;  (1 found)
0x1480b3d0: xor eax, eax ; pop ebp ; ret  ;  (1 found)
0x14801964: xor eax, eax ; pop ebp ; retn 0x0004 ;  (1 found)
0x14801bd3: xor eax, eax ; pop ebx ; mov esp, ebp ; pop ebp ; ret  ;  (1 found)
0x14806267: xor eax, eax ; pop edi ; pop esi ; pop ebp ; ret  ;  (1 found)
0x1480841b: xor eax, eax ; pop edi ; pop esi ; pop ebp ; ret  ;  (1 found)
0x1480a62b: xor eax, eax ; pop edi ; pop esi ; pop ebp ; ret  ;  (1 found)
0x1480b2ec: xor eax, eax ; pop edi ; pop esi ; pop ebx ; pop ebp ; ret  ;  (1 found)
0x14801465: xor eax, eax ; pop esi ; pop ebp ; ret  ;  (1 found)
0x1480379f: xor eax, eax ; pop esi ; pop ebp ; ret  ;  (1 found)
0x14803997: xor eax, eax ; pop esi ; pop ebp ; ret  ;  (1 found)
0x14803a5b: xor eax, eax ; pop esi ; pop ebp ; ret  ;  (1 found)
0x14803b56: xor eax, eax ; pop esi ; pop ebp ; ret  ;  (1 found)
0x14808463: xor eax, eax ; pop esi ; pop ebp ; ret  ;  (1 found)
0x148072e9: xor eax, eax ; pop esi ; pop ebx ; mov esp, ebp ; pop ebp ; ret  ;  (1 found)
0x14802e18: xor eax, eax ; pop esi ; pop ebx ; pop edi ; ret  ;  (1 found)
0x14808142: xor eax, eax ; pop esi ; pop edi ; pop ebp ; ret  ;  (1 found)
0x14802448: xor eax, eax ; pop esi ; pop edi ; pop ebx ; pop ebp ; ret  ;  (1 found)
0x148063fe: xor eax, eax ; pop esi ; pop edi ; pop ebx ; pop ebp ; ret  ;  (1 found)
0x14807518: xor eax, eax ; pop esi ; ret  ;  (1 found)
0x14801270: xor eax, eax ; ret  ;  (1 found)
0x14801280: xor eax, eax ; ret  ;  (1 found)
0x148018dc: xor eax, eax ; ret  ;  (1 found)
0x14802c37: xor eax, eax ; ret  ;  (1 found)
0x14802c5b: xor eax, eax ; ret  ;  (1 found)
0x148084b5: xor eax, eax ; ret  ;  (1 found)
0x14809932: xor eax, eax ; ret  ;  (1 found)
0x1480bddf: xor eax, eax ; ret  ;  (1 found)
0x148025bf: xor eax, eax ; ror eax, cl ; xor eax, dword [0x14813014] ; mov dword [0x14813B40], eax ; ret  ;  (1 found)
0x14802195: xor eax, eax ; xor ebx, ebx ; xor ecx, ecx ; xor edx, edx ; xor edi, edi ; jmp esi ;  (1 found)
0x14802176: xor eax, eax ; xor ebx, ebx ; xor edx, edx ; xor esi, esi ; xor edi, edi ; call ecx ;  (1 found)
0x1480b66a: xor eax, eax ; xor edx, edx ; ret  ;  (1 found)
0x1480b68a: xor eax, eax ; xor edx, edx ; ret  ;  (1 found)
0x148016ee: xor eax, ecx ; mov esp, ebp ; pop ebp ; ret  ;  (1 found)
0x14802df3: xor ebx, ebx ; push ebx ; push ebx ; call dword [0x1480D0B4] ;  (1 found)
0x14802197: xor ebx, ebx ; xor ecx, ecx ; xor edx, edx ; xor edi, edi ; jmp esi ;  (1 found)
0x14802178: xor ebx, ebx ; xor edx, edx ; xor esi, esi ; xor edi, edi ; call ecx ;  (1 found)
0x1480bd60: xor ecx, ecx ; cmp dl, byte [eax] ; cmovne eax, ecx ; ret  ;  (1 found)
0x148015f0: xor ecx, ecx ; cmp dword [eax], 0xC0000005 ; sete cl ; mov eax, ecx ; ret  ;  (1 found)
0x1480b38e: xor ecx, ecx ; cmp dword [eax], 0xC0000005 ; sete cl ; mov eax, ecx ; ret  ;  (1 found)
0x14807c89: xor ecx, ecx ; test al, al ; sete cl ; mov eax, ecx ; ret  ;  (1 found)
0x14802199: xor ecx, ecx ; xor edx, edx ; xor edi, edi ; jmp esi ;  (1 found)
0x1480217e: xor edi, edi ; call ecx ;  (1 found)
0x1480219d: xor edi, edi ; jmp esi ;  (1 found)
0x14802969: xor edi, edi ; push esi ; push edi ; call dword [0x1480D0AC] ;  (1 found)
0x1480b662: xor edx, edx ; and cl, 0x0000001F ; shr eax, cl ; ret  ;  (1 found)
0x1480b66c: xor edx, edx ; ret  ;  (1 found)
0x1480b68c: xor edx, edx ; ret  ;  (1 found)
0x1480219b: xor edx, edx ; xor edi, edi ; jmp esi ;  (1 found)
0x1480217a: xor edx, edx ; xor esi, esi ; xor edi, edi ; call ecx ;  (1 found)
0x1480367c: xor esi, dword [ebx] ; mov dword [ebx], eax ; ror esi, cl ; mov ecx, esi ; call dword [0x1480D144] ;  (1 found)
0x1480367d: xor esi, edx ; mov dword [ebx], eax ; ror esi, cl ; mov ecx, esi ; call dword [0x1480D144] ;  (1 found)
0x1480217c: xor esi, esi ; xor edi, edi ; call ecx ;  (1 found)
