Trying to open 'VulnApp2.exe'..
Loading PE information..
FileFormat: PE, Arch: Ia32
Using the Nasm syntax..

Wait a few seconds, rp++ is looking for gadgets..
in .text
6148 found.

A total of 6148 gadgets found.
0x1480a99e: aaa  ; adc dword [ebx+esi], 0xFFF983C0 ; setne al ; ret  ;  (1 found)
0x14803089: aaa  ; push ebx ; push ebx ; call dword [0x1480D0B4] ;  (1 found)
0x148030b1: aaa  ; xor ebx, ebx ; push ebx ; push ebx ; call dword [0x1480D0B4] ;  (1 found)
0x148040e8: aad 0x18 ; add byte [eax], al ; pop ecx ; ret  ;  (1 found)
0x14803467: aad 0x83 ; mov eax, 0x000000E8 ; add byte [edi], cl ; xchg eax, ebp ; rol bl, 0xFFFFFF8B ; call dword [ebp-0x75] ;  (1 found)
0x1480b1ff: aad 0xFF ; dec dword [ebp+0x6A500845] ; add dword [edx+0x00], ebp ; push edi ; call dword [0x1480D068] ;  (1 found)
0x148035a1: aam 0x3E ; adc dword [edi+eax*4], 0x5DC03301 ; ret  ;  (1 found)
0x14809e78: aam 0x83 ; retn 0x8910 ;  (1 found)
0x14809986: aam 0x83 ; retn 0x8914 ;  (1 found)
0x14805b5a: aas  ; sar ecx, 0x06 ; imul eax, eax, 0x30 ; add eax, dword [0x14813ED8+ecx*4] ; push eax ; call dword [0x1480D078] ;  (1 found)
0x14805b7d: aas  ; sar ecx, 0x06 ; imul eax, eax, 0x30 ; add eax, dword [0x14813ED8+ecx*4] ; push eax ; call dword [0x1480D07C] ;  (1 found)
0x14806bce: adc al, 0x00 ; mov al, 0x01 ; ret  ;  (1 found)
0x1480786f: adc al, 0x00 ; pop ecx ; pop esi ; ret  ;  (1 found)
0x148019bd: adc al, 0x00 ; ret  ;  (1 found)
0x14801601: adc al, 0x01 ; mov al, 0x01 ; pop esi ; mov esp, ebp ; pop ebp ; ret  ;  (1 found)
0x14805218: adc al, 0x01 ; pop esi ; mov al, 0x01 ; ret  ;  (1 found)
0x148092b1: adc al, 0x03 ; ret  ;  (1 found)
0x148099e8: adc al, 0x06 ; andpd xmm3,  [0x14810E10] ; movq qword [esp+0x04], xmm3 ; fld qword [esp+0x04] ; ret  ;  (1 found)
0x148084a9: adc al, 0x0F ; mov dh, 0x44 ; or byte [eax], ch ; and eax, 0x40 ; pop ebp ; ret  ;  (1 found)
0x14807fe0: adc al, 0x0F ; xchg eax, ebp ; ror byte [ebp+0x0001C504], 0x00000000 ; add byte [eax+0x57], dl ; call dword [0x1480D0B0] ;  (1 found)
0x1480bcef: adc al, 0x1C ; mov ebp, 0x448B1480 ; and al, 0x0C ; pop esi ; pop edi ; ret  ;  (1 found)
0x14802862: adc al, 0x30 ; adc dword [ebx], 0x14813BB8 ; ret  ;  (1 found)
0x148026df: adc al, 0x30 ; adc dword [edi+eax*4], 0x5EC0333B ; pop edi ; pop ebx ; pop ebp ; ret  ;  (1 found)
0x1480677d: adc al, 0x30 ; adc dword [edi+eax*4], 0x5EC0333B ; pop edi ; pop ebx ; pop ebp ; ret  ;  (1 found)
0x148017c4: adc al, 0x30 ; adc dword [edi+esi*8], 0x180D89D1 ; xor byte [ecx-0x3CA1A0EC], al ; xor eax, eax ; inc eax ; ret  ;  (1 found)
0x14801757: adc al, 0x31 ; inc ebp ; cld  ; call dword [0x1480D038] ;  (1 found)
0x14801760: adc al, 0x31 ; inc ebp ; cld  ; lea eax, dword [ebp-0x14] ; push eax ; call dword [0x1480D034] ;  (1 found)
0x14802c27: adc al, 0x33 ; call dword [esi+0x57] ;  (1 found)
0x14807a5f: adc al, 0x33 ; lds ecx,  [ecx+0x4D8BFC45] ; or byte [ecx-0x0000FF73], cl ; call dword [ebx-0x75] ;  (1 found)
0x14801d29: adc al, 0x33 ; rcr byte [ebx-0x75], 0xFFFFFFE5 ; pop ebp ; ret  ;  (1 found)
0x1480a9a0: adc al, 0x33 ; rol byte [ebx-0x6AF00007], 0xFFFFFFC0 ; ret  ;  (1 found)
0x148058c6: adc al, 0x3D ; adc dword [0x3CE8500C+esi*2], 0x59FFFFFF ; mov dword [0x14813D08], eax ; ret  ;  (1 found)
0x1480319c: adc al, 0x3D ; adc dword [0xE80A75C0+eax*4], 0xFFFFFD3C ; mov dword [0x14813D14], eax ; ret  ;  (1 found)
0x1480363d: adc al, 0x40 ; xchg dword [ecx], eax ; ret  ;  (1 found)
0x14801d9d: adc al, 0x50 ; call dword [0x1480D064] ;  (1 found)
0x14803414: adc al, 0x50 ; call dword [0x1480D064] ;  (1 found)
0x1480475a: adc al, 0x50 ; call dword [0x1480D064] ;  (1 found)
0x14805986: adc al, 0x50 ; call dword [0x1480D078] ;  (1 found)
0x14805b67: adc al, 0x50 ; call dword [0x1480D078] ;  (1 found)
0x148059ce: adc al, 0x50 ; call dword [0x1480D07C] ;  (1 found)
0x14805b8a: adc al, 0x50 ; call dword [0x1480D07C] ;  (1 found)
0x14802431: adc al, 0x51 ; call dword [0x1480D06C] ;  (1 found)
0x148011dc: adc al, 0x56 ; mov word [esp+0x16], ax ; call dword [0x1480D118] ;  (1 found)
0x1480256e: adc al, 0x57 ; call dword [0x1480D080] ;  (1 found)
0x148059a6: adc al, 0x57 ; call dword [0x1480D080] ;  (1 found)
0x148079a2: adc al, 0x57 ; push esi ; call dword [0x1480D144] ;  (1 found)
0x14807848: adc al, 0x59 ; mov eax, dword [esi+eax] ; add eax, 0x20 ; push eax ; call dword [0x1480D080] ;  (1 found)
0x14801da4: adc al, 0x5D ; ret  ;  (1 found)
0x148025a3: adc al, 0x5D ; ret  ;  (1 found)
0x14802b33: adc al, 0x5D ; ret  ;  (1 found)
0x14802b52: adc al, 0x5D ; ret  ;  (1 found)
0x14802bdd: adc al, 0x5D ; ret  ;  (1 found)
0x148034e9: adc al, 0x5D ; ret  ;  (1 found)
0x14803555: adc al, 0x5D ; ret  ;  (1 found)
0x148047a4: adc al, 0x5D ; ret  ;  (1 found)
0x14804da4: adc al, 0x5D ; ret  ;  (1 found)
0x14804dab: adc al, 0x5D ; ret  ;  (1 found)
0x14804d9d: adc al, 0x5D ; ret  ;  (1 found)
0x14804db2: adc al, 0x5D ; ret  ;  (1 found)
0x148046a2: adc al, 0x5D ; ret  ;  (1 found)
0x1480598d: adc al, 0x5D ; ret  ;  (1 found)
0x148059d5: adc al, 0x5D ; ret  ;  (1 found)
0x14805b91: adc al, 0x5D ; ret  ;  (1 found)
0x14805b6e: adc al, 0x5D ; ret  ;  (1 found)
0x14806d27: adc al, 0x5D ; ret  ;  (1 found)
0x14806d2e: adc al, 0x5D ; ret  ;  (1 found)
0x14806d3c: adc al, 0x5D ; ret  ;  (1 found)
0x14806d35: adc al, 0x5D ; ret  ;  (1 found)
0x14808406: adc al, 0x5D ; ret  ;  (1 found)
0x14807885: adc al, 0x5D ; ret  ;  (1 found)
0x14807899: adc al, 0x5D ; ret  ;  (1 found)
0x148083c4: adc al, 0x5D ; ret  ;  (1 found)
0x1480275c: adc al, 0x5E ; pop ebp ; ret  ;  (1 found)
0x14802799: adc al, 0x5E ; pop ebp ; ret  ;  (1 found)
0x148027df: adc al, 0x5E ; pop ebp ; ret  ;  (1 found)
0x14804761: adc al, 0x5E ; ret  ;  (1 found)
0x14808397: adc al, 0x5F ; pop esi ; pop ebx ; mov esp, ebp ; pop ebp ; ret  ;  (1 found)
0x148022e0: adc al, 0x5F ; pop esi ; pop ebx ; mov esp, ebp ; pop ebp ; retn 0x0008 ;  (1 found)
0x14802438: adc al, 0x5F ; pop esi ; pop ebx ; pop ebp ; ret  ;  (1 found)
0x148017cf: adc al, 0x5F ; pop esi ; ret  ;  (1 found)
0x148025d8: adc al, 0x68 ; add byte [eax], cl ; add byte [eax], al ; push 0x00000000 ; push ebx ; call dword [0x1480D0A0] ;  (1 found)
0x14806674: adc al, 0x68 ; add byte [eax], cl ; add byte [eax], al ; push 0x00000000 ; push ebx ; call dword [0x1480D0A0] ;  (1 found)
0x14801156: adc al, 0x68 ; sbb al, byte [fs:ecx-0x00FF95EC] ; adc eax, 0x1480D10C ; ret  ;  (1 found)
0x148011ab: adc al, 0x68 ; sbb dword [edx], 0xFFFFFF81 ; adc al, 0x8B ; clc  ; call dword [0x1480D13C] ;  (1 found)
0x1480661a: adc al, 0x6A ; adc al, 0xE8 ; out 0x00, al ; add byte [eax], al ; add esp, 0x10 ; ret  ;  (1 found)
0x1480115b: adc al, 0x6A ; add bh, bh ; adc eax, 0x1480D10C ; ret  ;  (1 found)
0x1480123b: adc al, 0x6A ; add byte [edx+0x00], ch ; call ebx ;  (1 found)
0x1480120c: adc al, 0x6A ; add byte [edx+0x00], ch ; call ebx ;  (1 found)
0x14801226: adc al, 0x6A ; add byte [edx+0x00], ch ; push edi ; call dword [0x1480D138] ;  (1 found)
0x14806600: adc al, 0x6A ; add eax, ebp ; add byte [ecx], al ; add byte [eax], al ; add esp, 0x10 ; ret  ;  (1 found)
0x148043ea: adc al, 0x6A ; call dword [eax-0x18] ;  (1 found)
0x14804341: adc al, 0x6A ; call dword [eax-0x18] ;  (1 found)
0x1480449f: adc al, 0x6A ; call dword [eax-0x18] ;  (1 found)
0x14807820: adc al, 0x75 ; scasd  ; pop edi ; xor eax, eax ; pop esi ; ret  ;  (1 found)
0x1480c44b: adc al, 0x7C ; les eax,  [eax+0x24448B14] ; or al, 0x5E ; pop edi ; ret  ;  (1 found)
0x1480a28c: adc al, 0x80 ; mov ebp, 0xFFFFFF70 ; add byte [edi+0x07], bh ; mov byte [ebp-0x00000090], 0x00000001 ; or cl, cl ; ret  ;  (1 found)
0x1480282b: adc al, 0x83 ; add byte [eax+edx-0x7D], dh ; push dword [eax+ecx-0x01] ; call dword [0x1480D098] ;  (1 found)
0x14806b1a: adc al, 0x83 ; add byte [eax+edx-0x7D], dh ; push dword [eax+ecx-0x01] ; call dword [0x1480D098] ;  (1 found)
0x1480283d: adc al, 0x83 ; add byte [ebx-0x017EFB3A], al ; movsb  ; cmp eax, dword [ecx+0x5EE07514] ; pop ebp ; ret  ;  (1 found)
0x148091d2: adc al, 0x83 ; add byte [ebx], al ; ret  ;  (1 found)
0x14804523: adc al, 0x83 ; clc  ; push dword [ebp+0x03] ; xor al, al ; ret  ;  (1 found)
0x14803072: adc al, 0x85 ; push dword [ebp+0x05] ; or eax, 0xFFFFFFFF ; pop edi ; ret  ;  (1 found)
0x148052ab: adc al, 0x85 ; ror byte [edi], 0xFFFFFF84 ; stosb  ; add byte [eax], al ; add byte [ebp+0x5350E845], cl ; call dword [0x1480D0E8] ;  (1 found)
0x14809189: adc al, 0x85 ; ror byte [edi], 0xFFFFFF95 ; rcr byte [edi+0x5E], 0xFFFFFF8B ; in eax, 0x5D ; ret  ;  (1 found)
0x148061ff: adc al, 0x85 ; sal byte [eax+edx-0x01], 0x00000075 ; sbb byte [eax+0x56], dl ; push dword [ebp+0x0C] ; call dword [0x1480D100] ;  (1 found)
0x14808e25: adc al, 0x85 ; sal byte [ebp+0x1D], 0xFFFFFFE8 ; wait  ; mov ecx, 0xF08BFFFF ; call dword [0x1480D070] ;  (1 found)
0x14803498: adc al, 0x85 ; sal byte [ebx+0x56], 0x00000068 ; insb  ; fild dword [eax-0x078A00EC] ; call dword [0x1480D09C] ;  (1 found)
0x148036fd: adc al, 0x87 ; add dword [ebp-0x3D], ebx ; mov eax, 0x14813D44 ; ret  ;  (1 found)
0x148035a4: adc al, 0x87 ; add dword [ebx], esi ; rcr byte [ebp-0x3D], 0xFFFFFFFF ; adc eax, 0x1480D0C0 ; mov dword [0x14813D30], eax ; call dword [0x1480D0C4] ;  (1 found)
0x148026e2: adc al, 0x87 ; cmp esi, dword [ebx] ; rcr byte [esi+0x5F], 0x0000005B ; pop ebp ; ret  ;  (1 found)
0x14806780: adc al, 0x87 ; cmp esi, dword [ebx] ; rcr byte [esi+0x5F], 0x0000005B ; pop ebp ; ret  ;  (1 found)
0x1480109d: adc al, 0x89 ; inc ebp ; in al, dx ; mov edx, dword [ebp+0x08] ; push edx ; call dword [0x1480D130] ;  (1 found)
0x14808926: adc al, 0x8B ; add al, 0xB0 ; add eax, 0x20 ; push eax ; call dword [0x1480D080] ;  (1 found)
0x148011b0: adc al, 0x8B ; clc  ; call dword [0x1480D13C] ;  (1 found)
0x14801748: adc al, 0x8B ; inc ebp ; clc  ; xor eax, dword [ebp-0x0C] ; mov dword [ebp-0x04], eax ; call dword [0x1480D03C] ;  (1 found)
0x1480bcf3: adc al, 0x8B ; inc esp ; and al, 0x0C ; pop esi ; pop edi ; ret  ;  (1 found)
0x1480bd9f: adc al, 0x8B ; inc esp ; and al, 0x0C ; pop esi ; pop edi ; ret  ;  (1 found)
0x1480c3a3: adc al, 0x8B ; inc esp ; and al, 0x0C ; pop esi ; pop edi ; ret  ;  (1 found)
0x1480c44f: adc al, 0x8B ; inc esp ; and al, 0x0C ; pop esi ; pop edi ; ret  ;  (1 found)
0x148011c5: adc al, 0x8B ; mov eax, 0x00000002 ; push 0x00001B5A ; mov word [esp+0x14], ax ; call dword [0x1480D11C] ;  (1 found)
0x1480aa0e: adc al, 0x8B ; mov eax, esi ; pop esi ; pop ebp ; ret  ;  (1 found)
0x1480194b: adc al, 0x8D ; inc ebp ; clc  ; push eax ; call dword [0x1480D04C] ;  (1 found)
0x1480c392: adc al, 0x90 ; movsb  ; ret  ;  (1 found)
0x148035bb: adc al, 0xA3 ; xor al, 0x3D ; adc dword [eax+esi*4], 0x01B0C301 ; ret  ;  (1 found)
0x148035b0: adc al, 0xA3 ; xor byte [0x15FF1481], bh ; les edx, eax ; adc byte [ebx], 0x00000034 ; cmp eax, 0x01B01481 ; ret  ;  (1 found)
0x1480c397: adc al, 0xAC ; ret  ;  (1 found)
0x14803c4b: adc al, 0xB0 ; add dword [esi-0x75], ebx ; in eax, 0x5D ; ret  ;  (1 found)
0x148035c0: adc al, 0xB0 ; add ebx, eax ; mov al, 0x01 ; ret  ;  (1 found)
0x1480a30e: adc al, 0xB8 ; add byte [eax], al ; add byte [eax], al ; ret  ;  (1 found)
0x1480c39b: adc al, 0xB8 ; ret  ;  (1 found)
0x148047ea: adc al, 0xC3 ; add eax, 0x10 ; ret  ;  (1 found)
0x148047d7: adc al, 0xC3 ; add eax, 0x14 ; ret  ;  (1 found)
0x148099df: adc al, 0xC3 ; cmppd xmm3,  [0x14810E30], 0x06 ; andpd xmm3,  [0x14810E10] ; movq qword [esp+0x04], xmm3 ; fld qword [esp+0x04] ; ret  ;  (1 found)
0x14801812: adc al, 0xC3 ; mov eax, 0x14813820 ; ret  ;  (1 found)
0x148035cb: adc al, 0xC3 ; mov eax, 0x14813D28 ; ret  ;  (1 found)
0x14801847: adc al, 0xC3 ; mov eax, 0x148141F4 ; ret  ;  (1 found)
0x1480472e: adc al, 0xC3 ; push 0x00000017 ; call dword [0x1480D058] ;  (1 found)
0x1480bd9b: adc al, 0xCC ; mov ebp, 0x448B1480 ; and al, 0x0C ; pop esi ; pop edi ; ret  ;  (1 found)
0x1480342d: adc al, 0xCC ; push 0x00000000 ; call dword [0x1480D05C] ;  (1 found)
0x1480c39f: adc al, 0xCC ; ret  ;  (1 found)
0x14809186: adc al, 0xD0 ; adc byte [0xC0950FC0+eax*4], 0x0000005F ; pop esi ; mov esp, ebp ; pop ebp ; ret  ;  (1 found)
0x1480a2b9: adc al, 0xDE ; leave  ; ret  ;  (1 found)
0x14803714: adc al, 0xE8 ; and eax, 0x5D000036 ; ret  ;  (1 found)
0x14803c9c: adc al, 0xE8 ; mov ah, 0x2F ; add byte [eax], al ; pop ecx ; pop ecx ; ret  ;  (1 found)
0x14803192: adc al, 0xE8 ; mov dword [0x59FFFFFE], eax ; pop ecx ; ret  ;  (1 found)
0x14802b7a: adc al, 0xE8 ; mov edi, 0x5D000041 ; ret  ;  (1 found)
0x1480661c: adc al, 0xE8 ; out 0x00, al ; add byte [eax], al ; add esp, 0x10 ; ret  ;  (1 found)
0x1480330b: adc al, 0xE8 ; ret  ;  (1 found)
0x148051ff: adc al, 0xE8 ; ret  ;  (1 found)
0x148099ca: adc al, 0xF2 ; addps xmm1, xmm0 ; movq qword [esp+0x04], xmm1 ; fld qword [esp+0x04] ; ret  ;  (1 found)
0x14801d12: adc al, 0xF6 ; ret  ;  (1 found)
0x1480ba32: adc al, 0xF7 ; retn 0xFFFF ;  (1 found)
0x148017c7: adc al, 0xF7 ; ror dword [ecx-0x7ECFE7F3], 1  ; adc al, 0x5F ; pop esi ; ret  ;  (1 found)
0x1480a97e: adc al, 0xFF ; adc eax, 0x1480D004 ; mov dword [0x14813750], eax ; ret  ;  (1 found)
0x14808400: adc al, 0xFF ; adc eax, 0x1480D024 ; pop ebp ; ret  ;  (1 found)
0x148017e4: adc al, 0xFF ; adc eax, 0x1480D044 ; ret  ;  (1 found)
0x1480196f: adc al, 0xFF ; adc eax, 0x1480D050 ; ret  ;  (1 found)
0x148035b5: adc al, 0xFF ; adc eax, 0x1480D0C4 ; mov dword [0x14813D34], eax ; mov al, 0x01 ; ret  ;  (1 found)
0x148011d6: adc al, 0xFF ; adc eax, 0x1480D11C ; push esi ; mov word [esp+0x16], ax ; call dword [0x1480D118] ;  (1 found)
0x14802e84: adc al, 0xFF ; add byte [ebx-0x743CA21B], cl ; call dword [ebp-0x75] ;  (1 found)
0x1480c38b: adc al, 0xFF ; and al, 0x8D ; movsb  ; ret  ;  (1 found)
0x14804556: adc al, 0xFF ; mov al, 0x01 ; ret  ;  (1 found)
0x14802518: adc al, 0xFF ; pop ecx ; mov al, 0x01 ; ret  ;  (1 found)
0x148036c8: adc al, 0xFF ; pop esi ; pop ebp ; ret  ;  (1 found)
0x14804dec: adc al, bh ; add eax, 0x14813D74 ; add dword [eax], eax ; add byte [eax], al ; call dword [0x1480D0C8] ;  (1 found)
0x14804dd5: adc al, bh ; add eax, 0x14813D74 ; add dword [eax], eax ; add byte [eax], al ; call dword [0x1480D0E4] ;  (1 found)
0x148040e4: adc bh, bh ; xor al, ch ; aad 0x18 ; add byte [eax], al ; pop ecx ; ret  ;  (1 found)
0x14804099: adc bh, bh ; xor al, ch ; and byte [ecx], bl ; add byte [eax], al ; pop ecx ; ret  ;  (1 found)
0x14803804: adc bh, bh ; xor al, ch ; mov ch, 0x21 ; add byte [eax], al ; pop ecx ; ret  ;  (1 found)
0x1480362d: adc bh, bh ; xor al, ch ; mov word [ebx], fs ; add byte [eax], al ; pop ecx ; ret  ;  (1 found)
0x1480328e: adc bh, bh ; xor al, ch ; sub esp, dword [edi] ; add byte [eax], al ; pop ecx ; ret  ;  (1 found)
0x14804134: adc bh, bh ; xor al, ch ; test dword [eax], ebx ; add byte [eax], al ; pop ecx ; ret  ;  (1 found)
0x1480a4cf: adc bh, bh ; xor eax, 0x14814200 ; call dword [0x1480D00C] ;  (1 found)
0x14807884: adc byte [0x55FF8BC3+ebx*2], 0xFFFFFF8B ; in al, dx ; mov eax, dword [ebp+0x08] ; add eax, 0x20 ; push eax ; call dword [0x1480D07C] ;  (1 found)
0x14803497: adc byte [0x562374C0+eax*4], 0x00000068 ; insb  ; fild dword [eax-0x078A00EC] ; call dword [0x1480D09C] ;  (1 found)
0x14802887: adc byte [0x8B5B5E5F+ebx*2], 0xFFFFFFE5 ; pop ebp ; ret  ;  (1 found)
0x148052aa: adc byte [0xAA840FC0+eax*4], 0x00000000 ; add byte [eax], al ; lea eax, dword [ebp-0x18] ; push eax ; push ebx ; call dword [0x1480D0E8] ;  (1 found)
0x14809188: adc byte [0xC0950FC0+eax*4], 0x0000005F ; pop esi ; mov esp, ebp ; pop ebp ; ret  ;  (1 found)
0x14804daa: adc byte [0xDD58A1C3+ebx*2], 0xFFFFFF80 ; adc al, 0x5D ; ret  ;  (1 found)
0x14804da3: adc byte [0xDD5CA1C3+ebx*2], 0xFFFFFF80 ; adc al, 0x5D ; ret  ;  (1 found)
0x14804d9c: adc byte [0xDD60A1C3+ebx*2], 0xFFFFFF80 ; adc al, 0x5D ; ret  ;  (1 found)
0x14808e24: adc byte [0xE81D75C0+eax*4], 0xFFFFFF9B ; mov ecx, 0xF08BFFFF ; call dword [0x1480D070] ;  (1 found)
0x148061fe: adc byte [0xFF1074C0+eax*4], 0x00000075 ; sbb byte [eax+0x56], dl ; push dword [ebp+0x0C] ; call dword [0x1480D100] ;  (1 found)
0x14804661: adc byte [0xFFFCD885+ecx*4], 0xFFFFFFFF ; push eax ; call dword [0x1480D04C] ;  (1 found)
0x148011f2: adc byte [eax+0x57], dl ; call dword [0x1480D114] ;  (1 found)
0x148025d7: adc byte [eax+ebp*2], 0x00000000 ; or byte [eax], al ; add byte [edx+0x00], ch ; push ebx ; call dword [0x1480D0A0] ;  (1 found)
0x14806673: adc byte [eax+ebp*2], 0x00000000 ; or byte [eax], al ; add byte [edx+0x00], ch ; push ebx ; call dword [0x1480D0A0] ;  (1 found)
0x14803c84: adc byte [eax+ebp*2], 0xFFFFFF80 ; fild dword [eax+0x2F43E814] ; add byte [eax], al ; pop ecx ; pop ecx ; ret  ;  (1 found)
0x14803c96: adc byte [eax+ebp*2], 0xFFFFFF80 ; fild dword [eax+0x2FB4E814] ; add byte [eax], al ; pop ecx ; pop ecx ; ret  ;  (1 found)
0x14803c89: adc byte [eax+ebp*8], 0x00000043 ; das  ; add byte [eax], al ; pop ecx ; pop ecx ; ret  ;  (1 found)
0x14803c9b: adc byte [eax+ebp*8], 0xFFFFFFB4 ; das  ; add byte [eax], al ; pop ecx ; pop ecx ; ret  ;  (1 found)
0x14801b14: adc byte [eax+edx*2], 0xFFFFFFE8 ; inc ecx ; pop es ; add byte [eax], al ; pop ecx ; ret  ;  (1 found)
0x14801d9c: adc byte [eax+edx*2], 0xFFFFFFFF ; adc eax, 0x1480D064 ; pop ebp ; ret  ;  (1 found)
0x14804759: adc byte [eax+edx*2], 0xFFFFFFFF ; adc eax, 0x1480D064 ; pop esi ; ret  ;  (1 found)
0x1480c391: adc byte [eax+edx*4], 0xFFFFFFA4 ; ret  ;  (1 found)
0x148036f1: adc byte [eax], al ; add byte [ebx-0x3CA20038], al ; mov ecx, 0x14813D40 ; xchg dword [ecx], eax ; pop ebp ; ret  ;  (1 found)
0x14802d09: adc byte [eax], al ; add byte [ecx-0x75], bl ; ret  ;  (1 found)
0x14807144: adc byte [eax], al ; add byte [esi-0x7B], ah ; retn 0x0674 ;  (1 found)
0x14807202: adc byte [eax], al ; add byte [esi-0x7B], ah ; retn 0x0674 ;  (1 found)
0x14801d26: adc byte [eax], dh ; adc dword [ebx+esi], 0xE58B5BC0 ; pop ebp ; ret  ;  (1 found)
0x14806166: adc byte [ebp+0x0001C504], cl ; add byte [eax], al ; push eax ; push ebx ; call dword [0x1480D0B0] ;  (1 found)
0x14803ee7: adc byte [ebp+0x5D0275C0], al ; ret  ;  (1 found)
0x14804bcf: adc byte [ebp-0x726A8A40], al ; test dword [esi+edi*8+0x5650FFFF], edi ; call dword [0x1480D0DC] ;  (1 found)
0x14804d8f: adc byte [ebx+0x047401E8], al ; xor eax, eax ; pop ebp ; ret  ;  (1 found)
0x14806d19: adc byte [ebx+0x047401E8], al ; xor eax, eax ; pop ebp ; ret  ;  (1 found)
0x14802830: adc byte [ebx+0x0874FF3E], al ; push dword [esi] ; call dword [0x1480D098] ;  (1 found)
0x14806b1f: adc byte [ebx+0x0874FF3E], al ; push dword [esi] ; call dword [0x1480D098] ;  (1 found)
0x148069e2: adc byte [ebx+0x0C75FFCE], cl ; push dword [ebp+0x08] ; call dword [0x1480D144] ;  (1 found)
0x1480296b: adc byte [ebx+0x528B0C51], cl ; or al, 0x39 ; push ecx ; or byte [ebp+0x05], dh ; mov eax, 0x00000001 ; ret  ;  (1 found)
0x1480283c: adc byte [ebx+eax*4], 0x00000026 ; add byte [ebx-0x017EFB3A], al ; movsb  ; cmp eax, dword [ecx+0x5EE07514] ; pop ebp ; ret  ;  (1 found)
0x1480a9be: adc byte [ebx+eax*8], 0xFFFFFF8B ; call dword [ebp-0x75] ;  (1 found)
0x1480bcf2: adc byte [ebx+ecx*4], 0x00000044 ; and al, 0x0C ; pop esi ; pop edi ; ret  ;  (1 found)
0x1480bd9e: adc byte [ebx+ecx*4], 0x00000044 ; and al, 0x0C ; pop esi ; pop edi ; ret  ;  (1 found)
0x1480c3a2: adc byte [ebx+ecx*4], 0x00000044 ; and al, 0x0C ; pop esi ; pop edi ; ret  ;  (1 found)
0x1480c44e: adc byte [ebx+ecx*4], 0x00000044 ; and al, 0x0C ; pop esi ; pop edi ; ret  ;  (1 found)
0x14801747: adc byte [ebx+ecx*4], 0x00000045 ; clc  ; xor eax, dword [ebp-0x0C] ; mov dword [ebp-0x04], eax ; call dword [0x1480D03C] ;  (1 found)
0x14801a8d: adc byte [ebx+ecx*4], 0xFFFFFFC6 ; pop esi ; pop ebp ; retn 0x0004 ;  (1 found)
0x14801ac0: adc byte [ebx+ecx*4], 0xFFFFFFC6 ; pop esi ; pop ebp ; retn 0x0004 ;  (1 found)
0x148043b4: adc byte [ebx+ecx*4], 0xFFFFFFC7 ; pop edi ; pop esi ; ret  ;  (1 found)
0x148011c4: adc byte [ebx+ecx*4], 0xFFFFFFF0 ; mov eax, 0x00000002 ; push 0x00001B5A ; mov word [esp+0x14], ax ; call dword [0x1480D11C] ;  (1 found)
0x1480aa0d: adc byte [ebx+ecx*4], 0xFFFFFFF0 ; mov eax, esi ; pop esi ; pop ebp ; ret  ;  (1 found)
0x14804491: adc byte [ebx+ecx*4], 0xFFFFFFFB ; mov eax, edi ; pop edi ; pop esi ; pop ebx ; ret  ;  (1 found)
0x1480219d: adc byte [ebx-0x74FBDBBC], cl ; cli  ; ret  ;  (1 found)
0x148035af: adc byte [ebx], 0x00000030 ; cmp eax, 0x15FF1481 ; les edx, eax ; adc byte [ebx], 0x00000034 ; cmp eax, 0x01B01481 ; ret  ;  (1 found)
0x148035ba: adc byte [ebx], 0x00000034 ; cmp eax, 0x01B01481 ; ret  ;  (1 found)
0x1480a30c: adc byte [ecx+0x0000B814], al ; add byte [eax], al ; ret  ;  (1 found)
0x148023bd: adc byte [ecx+0x0003B802], cl ; add byte [eax], al ; ret  ;  (1 found)
0x148028cd: adc byte [ecx+0x0003B802], cl ; add byte [eax], al ; ret  ;  (1 found)
0x1480109c: adc byte [ecx+ecx*4], 0x00000045 ; in al, dx ; mov edx, dword [ebp+0x08] ; push edx ; call dword [0x1480D130] ;  (1 found)
0x14801756: adc byte [ecx+esi], 0x00000045 ; cld  ; call dword [0x1480D038] ;  (1 found)
0x1480175f: adc byte [ecx+esi], 0x00000045 ; cld  ; lea eax, dword [ebp-0x14] ; push eax ; call dword [0x1480D034] ;  (1 found)
0x14807a7b: adc byte [ecx-0x0000FB4B], cl ; call dword [edi-0x75] ;  (1 found)
0x14809e72: adc byte [ecx-0x74F3DBAC], cl ; aam 0x83 ; retn 0x8910 ;  (1 found)
0x14809980: adc byte [ecx-0x74F3DBAC], cl ; aam 0x83 ; retn 0x8914 ;  (1 found)
0x14809e7b: adc byte [ecx-0x7CF7DBAC], cl ; retn 0x8910 ;  (1 found)
0x14803c45: adc byte [ecx-0x7EC2D3CB], cl ; adc al, 0xB0 ; add dword [esi-0x75], ebx ; in eax, 0x5D ; ret  ;  (1 found)
0x1480b0e5: adc byte [edi+eax-0x75], dh ; inc ebp ; or byte [ebx-0x09FDF3B8], al ; retn 0x7420 ;  (1 found)
0x148055c4: adc byte [edi+ebx*2], 0x0000005E ; mov eax, ebx ; pop ebx ; mov esp, ebp ; pop ebp ; ret  ;  (1 found)
0x14808396: adc byte [edi+ebx*2], 0x0000005E ; pop ebx ; mov esp, ebp ; pop ebp ; ret  ;  (1 found)
0x148022df: adc byte [edi+ebx*2], 0x0000005E ; pop ebx ; mov esp, ebp ; pop ebp ; retn 0x0008 ;  (1 found)
0x14802437: adc byte [edi+ebx*2], 0x0000005E ; pop ebx ; pop ebp ; ret  ;  (1 found)
0x1480c38a: adc byte [edi+edi*8], 0x00000024 ; lea esp, dword [ebx+eax*8-0x5B6FEB80] ; ret  ;  (1 found)
0x148034a1: adc byte [edi+edi*8], 0x00000075 ; clc  ; call dword [0x1480D09C] ;  (1 found)
0x14801d88: adc byte [edi+edi*8], 0x00000075 ; or bh, bh ; adc eax, 0x1480D04C ; push 0xC0000409 ; call dword [0x1480D060] ;  (1 found)
0x148061f6: adc byte [edx+0x01], ch ; push ebx ; call dword [0x1480D0B0] ;  (1 found)
0x148011f0: adc byte [edx+0x10], ch ; push eax ; push edi ; call dword [0x1480D114] ;  (1 found)
0x1480348f: adc byte [edx+ebp*2], 0x00000000 ; call dword [0x1480D0BC] ;  (1 found)
0x14804657: adc byte [edx+ebp*2], 0x00000000 ; mov edi, eax ; call dword [0x1480D050] ;  (1 found)
0x1480120b: adc byte [edx+ebp*2], 0x00000000 ; push 0x00000000 ; call ebx ;  (1 found)
0x1480123a: adc byte [edx+ebp*2], 0x00000000 ; push 0x00000000 ; call ebx ;  (1 found)
0x14801225: adc byte [edx+ebp*2], 0x00000000 ; push 0x00000000 ; push edi ; call dword [0x1480D138] ;  (1 found)
0x1480c0fc: adc byte [edx], bh ; ret  ;  (1 found)
0x14804aee: adc byte [esi+0x33], dl ; call dword [edi+0x57] ;  (1 found)
0x14808a2f: adc byte [esi+0x5D], bl ; ret  ;  (1 found)
0x1480275b: adc byte [esi+ebx*2], 0x0000005D ; ret  ;  (1 found)
0x14802798: adc byte [esi+ebx*2], 0x0000005D ; ret  ;  (1 found)
0x148027de: adc byte [esi+ebx*2], 0x0000005D ; ret  ;  (1 found)
0x148011db: adc byte [esi+edx*2], 0x00000066 ; mov dword [esp+0x16], eax ; call dword [0x1480D118] ;  (1 found)
0x148099ee: adc byte [esi], cl ; adc dword [esi], 0x245CD60F ; add al, 0xDD ; inc esp ; and al, 0x04 ; ret  ;  (1 found)
0x1480bcee: adc byte [esp+ebx], 0xFFFFFFBD ; adc byte [ebx+ecx*4], 0x00000044 ; and al, 0x0C ; pop esi ; pop edi ; ret  ;  (1 found)
0x1480bd9a: adc byte [esp+ecx*8], 0xFFFFFFBD ; adc byte [ebx+ecx*4], 0x00000044 ; and al, 0x0C ; pop esi ; pop edi ; ret  ;  (1 found)
0x1480c39e: adc byte [esp+ecx*8], 0xFFFFFFC3 ; adc byte [ebx+ecx*4], 0x00000044 ; and al, 0x0C ; pop esi ; pop edi ; ret  ;  (1 found)
0x1480c44a: adc byte [esp+edi*2], 0xFFFFFFC4 ; adc byte [ebx+ecx*4], 0x00000044 ; and al, 0x0C ; pop esi ; pop edi ; ret  ;  (1 found)
0x14806491: adc byte [esp+esi*2], 0x0000000E ; or eax, 0xFFFFFFFF ; lock xadd dword [ecx+0x000000B0], eax ; dec eax ; pop ebp ; ret  ;  (1 found)
0x1480999c: adc ch, bl ; inc esp ; and al, 0x04 ; ret  ;  (1 found)
0x1480b0ca: adc dh, dh ; retn 0x7404 ;  (1 found)
0x14807099: adc dword [0x00008000], ecx ; pop ebp ; ret  ;  (1 found)
0x148058c8: adc dword [0x3CE8500C+esi*2], 0x59FFFFFF ; mov dword [0x14813D08], eax ; ret  ;  (1 found)
0x14806d26: adc dword [0x41C8B8C3+ebx*2], 0xC35D1481 ; mov eax, 0x148141D0 ; pop ebp ; ret  ;  (1 found)
0x14806d2d: adc dword [0x41D0B8C3+ebx*2], 0xC35D1481 ; mov eax, 0x148141C4 ; pop ebp ; ret  ;  (1 found)
0x1480255f: adc dword [0x6B2074F6+eax*4], 0x8D5718C6 ; mov eax, 0x14813B64 ; push edi ; call dword [0x1480D080] ;  (1 found)
0x14805996: adc dword [0x6B2074F6+eax*4], 0x8D5718C6 ; mov eax, 0x14813D68 ; push edi ; call dword [0x1480D080] ;  (1 found)
0x14805997: adc dword [0x6B2074F6+eax*4], 0x8D5718C6 ; mov eax, 0x14813D68 ; push edi ; call dword [0x1480D080] ;  (1 found)
0x14801d1f: adc dword [0xA3000000+eax], 0x14813010 ; xor eax, eax ; pop ebx ; mov esp, ebp ; pop ebp ; ret  ;  (1 found)
0x1480319e: adc dword [0xE80A75C0+eax*4], 0xFFFFFD3C ; mov dword [0x14813D14], eax ; ret  ;  (1 found)
0x14803f8d: adc dword [eax+0x03], 0x47C60000 ; or al, 0x01 ; mov eax, edi ; pop edi ; pop ebp ; retn 0x0004 ;  (1 found)
0x1480363c: adc dword [eax+eax*2], 0x8BC30187 ; call dword [ebp-0x75] ;  (1 found)
0x14809a6e: adc dword [eax+eax*4], 0xFD283164 ; pop edi ; pop esi ; mov esp, ebp ; pop ebp ; ret  ;  (1 found)
0x14809a6d: adc dword [eax+eax*4], 0xFD283164 ; pop edi ; pop esi ; mov esp, ebp ; pop ebp ; ret  ;  (1 found)
0x1480a4c9: adc dword [eax+eax], 0x10745756 ; push dword [0x14814200] ; call dword [0x1480D00C] ;  (1 found)
0x14806bcd: adc dword [eax+eax], 0x8BC301B0 ; call dword [ebp-0x75] ;  (1 found)
0x1480786e: adc dword [eax+eax], 0x8BC35E59 ; call dword [ebp-0x75] ;  (1 found)
0x14802f15: adc dword [eax+eax], 0xC0330374 ; ret  ;  (1 found)
0x148081f9: adc dword [eax+eax], 0xE95D0675 ; retn 0x0007 ;  (1 found)
0x14801155: adc dword [eax+ebp*2], 0x14811A64 ; push 0x00000000 ; call dword [0x1480D10C] ;  (1 found)
0x14803ac9: adc dword [eax+ebp*8], 0x00000070 ; pop ecx ; pop ecx ; pop ebp ; ret  ;  (1 found)
0x14803b7d: adc dword [eax+ebp*8], 0x000031BB ; mov al, 0x01 ; ret  ;  (1 found)
0x14803713: adc dword [eax+ebp*8], 0x00003625 ; pop ebp ; ret  ;  (1 found)
0x14802b79: adc dword [eax+ebp*8], 0x000041BF ; pop ebp ; ret  ;  (1 found)
0x14807863: adc dword [eax+ebp*8], 0xFFFFC4F3 ; and dword [0x148141E0], 0x00000000 ; pop ecx ; pop esi ; ret  ;  (1 found)
0x14803191: adc dword [eax+ebp*8], 0xFFFFFEA3 ; pop ecx ; pop ecx ; ret  ;  (1 found)
0x14806df3: adc dword [eax+ebp*8], 0xFFFFFF45 ; pop ebp ; ret  ;  (1 found)
0x14803b96: adc dword [eax+ebp*8], 0xFFFFFF66 ; pop ecx ; mov al, 0x01 ; ret  ;  (1 found)
0x1480a30d: adc dword [eax+edi*4], 0x00000000 ; ret  ;  (1 found)
0x148051fa: adc dword [eax+esi*2], 0xE8148132 ; ret  ;  (1 found)
0x148035bf: adc dword [eax+esi*4], 0x01B0C301 ; ret  ;  (1 found)
0x14803c4a: adc dword [eax+esi*4], 0xE58B5E01 ; pop ebp ; ret  ;  (1 found)
0x14803598: adc dword [eax], eax ; add byte [edx+0x16], ch ; pop eax ; pop ebp ; ret  ;  (1 found)
0x14801079: adc dword [ebp-0x00081B6B], ecx ; call dword [edx-0x18] ;  (1 found)
0x14804522: adc dword [ebx+eax*4], 0x0375FFF8 ; xor al, al ; ret  ;  (1 found)
0x14802b60: adc dword [ebx+eax*4], 0xC8D31FE1 ; neg eax ; sbb eax, eax ; neg eax ; ret  ;  (1 found)
0x1480257a: adc dword [ebx+eax*4], 0xEE8318EF ; add dword [ebp-0x15], esi ; pop edi ; mov al, 0x01 ; pop esi ; ret  ;  (1 found)
0x148059b2: adc dword [ebx+eax*4], 0xEE8318EF ; add dword [ebp-0x15], esi ; pop edi ; mov al, 0x01 ; pop esi ; ret  ;  (1 found)
0x148059b1: adc dword [ebx+eax*4], 0xEE8318EF ; add dword [ebp-0x15], esi ; pop edi ; mov al, 0x01 ; pop esi ; ret  ;  (1 found)
0x14802f0e: adc dword [ebx+eax*8], 0x3D083D83 ; adc dword [eax+eax], 0xC0330374 ; ret  ;  (1 found)
0x14809f71: adc dword [ebx+eax*8], 0x5375C90A ; ret  ;  (1 found)
0x14802b24: adc dword [ebx+eax*8], 0x8B55FF8B ; in al, dx ; mov eax, dword [ebp+0x08] ; mov dword [0x14813BF8], eax ; pop ebp ; ret  ;  (1 found)
0x1480aea1: adc dword [ebx+ebp*8], 0x4005DD08 ; sbb al, byte [ecx-0x221F26EC] ; sbb dword [ebx-0x1E16011A], eax ; add byte [eax], al ; add dh, dh ; ret  ;  (1 found)
0x148011af: adc dword [ebx+ecx*4], 0x3C15FFF8 ; rol dword [eax+0x0C488B14], 1  ; mov ecx, dword [ecx] ; push dword [ecx] ; call dword [0x1480D120] ;  (1 found)
0x14801d28: adc dword [ebx+esi], 0xE58B5BC0 ; pop ebp ; ret  ;  (1 found)
0x1480a99f: adc dword [ebx+esi], 0xFFF983C0 ; setne al ; ret  ;  (1 found)
0x14803101: adc dword [ebx-0x00A9F7B3], ecx ; adc eax, 0x1480D144 ; call dword [ebp+0x08] ;  (1 found)
0x14802864: adc dword [ebx], 0x14813BB8 ; ret  ;  (1 found)
0x14806b9f: adc dword [ebx], ebp ; test dword [ebp+0x6A563B04], 0xF2E85000 ; mov ah, 0xFF ; inc dword [ebx-0x74A0F33C] ; ret  ;  (1 found)
0x14801600: adc dword [ecx+eax], 0x8B5E01B0 ; in eax, 0x5D ; ret  ;  (1 found)
0x1480bac9: adc dword [ecx+eax], 0xA4F30973 ; mov eax, dword [esp+0x0C] ; pop esi ; pop edi ; ret  ;  (1 found)
0x1480c179: adc dword [ecx+eax], 0xA4F30973 ; mov eax, dword [esp+0x0C] ; pop esi ; pop edi ; ret  ;  (1 found)
0x148020d7: adc dword [ecx+eax], 0xAAF30973 ; mov eax, dword [esp+0x04] ; mov edi, edx ; ret  ;  (1 found)
0x14807847: adc dword [ecx+ebx*2], 0x8306048B ; shl byte [eax], 0x00000050 ; call dword [0x1480D080] ;  (1 found)
0x14803b31: adc dword [ecx+ecx*4], 0x04468906 ; mov dword [esi+0x08], eax ; xor eax, eax ; pop esi ; pop ebp ; ret  ;  (1 found)
0x14804782: adc dword [edi+0x05], esi ; push 0x0000000D ; pop eax ; pop ebp ; ret  ;  (1 found)
0x148035a3: adc dword [edi+eax*4], 0x5DC03301 ; ret  ;  (1 found)
0x148035a2: adc dword [edi+eax*4], 0x5DC03301 ; ret  ;  (1 found)
0x148026e1: adc dword [edi+eax*4], 0x5EC0333B ; pop edi ; pop ebx ; pop ebp ; ret  ;  (1 found)
0x1480677f: adc dword [edi+eax*4], 0x5EC0333B ; pop edi ; pop ebx ; pop ebp ; ret  ;  (1 found)
0x148036fc: adc dword [edi+eax*4], 0xB8C35D01 ; inc esp ; cmp eax, 0x8BC31481 ; call dword [ebp-0x75] ;  (1 found)
0x148017ce: adc dword [edi+ebx*2], 0xC033C35E ; inc eax ; ret  ;  (1 found)
0x148084a7: adc dword [edi+ecx], 0x280844B6 ; and eax, 0x40 ; pop ebp ; ret  ;  (1 found)
0x148084a8: adc dword [edi+ecx], 0x280844B6 ; and eax, 0x40 ; pop ebp ; ret  ;  (1 found)
0x148083ff: adc dword [edi+edi*8], 0x80D02415 ; adc al, 0x5D ; ret  ;  (1 found)
0x148035b4: adc dword [edi+edi*8], 0x80D0C415 ; adc al, 0xA3 ; xor al, 0x3D ; adc dword [eax+esi*4], 0x01B0C301 ; ret  ;  (1 found)
0x1480aa07: adc dword [edi+edi*8], 0x80D10415 ; adc al, 0x8B ; mov eax, esi ; pop esi ; pop ebp ; ret  ;  (1 found)
0x14804555: adc dword [edi+edi*8], 0x8BC301B0 ; call dword [ebp-0x75] ;  (1 found)
0x148036c6: adc dword [edi+edi*8], 0xA1C35D5E ; inc eax ; cmp eax, 0x8BC31481 ; call dword [ebp-0x75] ;  (1 found)
0x148036c7: adc dword [edi+edi*8], 0xA1C35D5E ; inc eax ; cmp eax, 0x8BC31481 ; call dword [ebp-0x75] ;  (1 found)
0x148044f7: adc dword [edi+edx*2], 0xFFFC3FE8 ; call dword [ebx-0x18] ;  (1 found)
0x148017c6: adc dword [edi+esi*8], 0x180D89D1 ; xor byte [ecx-0x3CA1A0EC], al ; xor eax, eax ; inc eax ; ret  ;  (1 found)
0x14803e54: adc dword [edx+eax], 0x176A2274 ; call dword [0x1480D058] ;  (1 found)
0x148037ac: adc dword [edx], esp ; add byte [eax], al ; pop ecx ; ret  ;  (1 found)
0x1480a007: adc dword [esi+eax*8], 0xFFFF7085 ; inc dword [ebx] ; ret  ;  (1 found)
0x14809f40: adc dword [esi+eax*8], 0xFFFF7085 ; inc dword [edx] ; ret  ;  (1 found)
0x148099f0: adc dword [esi], 0x245CD60F ; add al, 0xDD ; inc esp ; and al, 0x04 ; ret  ;  (1 found)
0x148024c1: adc dword [esp+esi*2], 0x92E85007 ; sbb byte [eax], al ; add byte [ecx+0x5D], bl ; retn 0x0004 ;  (1 found)
0x1480a980: adc eax, 0x1480D004 ; mov dword [0x14813750], eax ; ret  ;  (1 found)
0x1480a9bb: adc eax, 0x1480D008 ; ret  ;  (1 found)
0x14808402: adc eax, 0x1480D024 ; pop ebp ; ret  ;  (1 found)
0x14806bb9: adc eax, 0x1480D028 ; test eax, eax ; mov dword [0x148141C0], eax ; setne al ; ret  ;  (1 found)
0x1480175c: adc eax, 0x1480D038 ; xor dword [ebp-0x04], eax ; lea eax, dword [ebp-0x14] ; push eax ; call dword [0x1480D034] ;  (1 found)
0x14801753: adc eax, 0x1480D03C ; xor dword [ebp-0x04], eax ; call dword [0x1480D038] ;  (1 found)
0x14801744: adc eax, 0x1480D040 ; mov eax, dword [ebp-0x08] ; xor eax, dword [ebp-0x0C] ; mov dword [ebp-0x04], eax ; call dword [0x1480D03C] ;  (1 found)
0x148017e6: adc eax, 0x1480D044 ; ret  ;  (1 found)
0x14804654: adc eax, 0x1480D048 ; push 0x00000000 ; mov edi, eax ; call dword [0x1480D050] ;  (1 found)
0x14801d8e: adc eax, 0x1480D04C ; push 0xC0000409 ; call dword [0x1480D060] ;  (1 found)
0x1480465e: adc eax, 0x1480D050 ; lea eax, dword [ebp-0x00000328] ; push eax ; call dword [0x1480D04C] ;  (1 found)
0x14801947: adc eax, 0x1480D050 ; lea eax, dword [ebp-0x08] ; push eax ; call dword [0x1480D04C] ;  (1 found)
0x14801d85: adc eax, 0x1480D050 ; push dword [ebp+0x08] ; call dword [0x1480D04C] ;  (1 found)
0x14801971: adc eax, 0x1480D050 ; ret  ;  (1 found)
0x14809c28: adc eax, 0x1480D058 ; mov dword [0x14814204], eax ; xor eax, eax ; ret  ;  (1 found)
0x14801d99: adc eax, 0x1480D060 ; push eax ; call dword [0x1480D064] ;  (1 found)
0x14803410: adc eax, 0x1480D060 ; push eax ; call dword [0x1480D064] ;  (1 found)
0x14804756: adc eax, 0x1480D060 ; push eax ; call dword [0x1480D064] ;  (1 found)
0x14801da0: adc eax, 0x1480D064 ; pop ebp ; ret  ;  (1 found)
0x1480475d: adc eax, 0x1480D064 ; pop esi ; ret  ;  (1 found)
0x14802434: adc eax, 0x1480D06C ; pop edi ; pop esi ; pop ebx ; pop ebp ; ret  ;  (1 found)
0x148043b1: adc eax, 0x1480D074 ; mov eax, edi ; pop edi ; pop esi ; ret  ;  (1 found)
0x14805989: adc eax, 0x1480D078 ; pop ebp ; ret  ;  (1 found)
0x14805b6a: adc eax, 0x1480D078 ; pop ebp ; ret  ;  (1 found)
0x14807881: adc eax, 0x1480D078 ; pop ebp ; ret  ;  (1 found)
0x148059d1: adc eax, 0x1480D07C ; pop ebp ; ret  ;  (1 found)
0x14805b8d: adc eax, 0x1480D07C ; pop ebp ; ret  ;  (1 found)
0x14807895: adc eax, 0x1480D07C ; pop ebp ; ret  ;  (1 found)
0x148027db: adc eax, 0x1480D084 ; pop esi ; pop ebp ; ret  ;  (1 found)
0x14802795: adc eax, 0x1480D090 ; pop esi ; pop ebp ; ret  ;  (1 found)
0x14802758: adc eax, 0x1480D094 ; pop esi ; pop ebp ; ret  ;  (1 found)
0x14803429: adc eax, 0x1480D0B8 ; int3  ; push 0x00000000 ; call dword [0x1480D05C] ;  (1 found)
0x148035ac: adc eax, 0x1480D0C0 ; mov dword [0x14813D30], eax ; call dword [0x1480D0C4] ;  (1 found)
0x148035b7: adc eax, 0x1480D0C4 ; mov dword [0x14813D34], eax ; mov al, 0x01 ; ret  ;  (1 found)
0x1480aa0a: adc eax, 0x1480D104 ; mov esi, eax ; mov eax, esi ; pop esi ; pop ebp ; ret  ;  (1 found)
0x1480115f: adc eax, 0x1480D10C ; ret  ;  (1 found)
0x148011d8: adc eax, 0x1480D11C ; push esi ; mov word [esp+0x16], ax ; call dword [0x1480D118] ;  (1 found)
0x148011c1: adc eax, 0x1480D120 ; mov esi, eax ; mov eax, 0x00000002 ; push 0x00001B5A ; mov word [esp+0x14], ax ; call dword [0x1480D11C] ;  (1 found)
0x14801222: adc eax, 0x1480D124 ; push 0x00000000 ; push 0x00000000 ; push edi ; call dword [0x1480D138] ;  (1 found)
0x148011a7: adc eax, 0x1480D128 ; push 0x14811A83 ; mov edi, eax ; call dword [0x1480D13C] ;  (1 found)
0x14801099: adc eax, 0x1480D134 ; mov dword [ebp-0x14], eax ; mov edx, dword [ebp+0x08] ; push edx ; call dword [0x1480D130] ;  (1 found)
0x148011b4: adc eax, 0x1480D13C ; mov ecx, dword [eax+0x0C] ; mov ecx, dword [ecx] ; push dword [ecx] ; call dword [0x1480D120] ;  (1 found)
0x14803107: adc eax, 0x1480D144 ; call dword [ebp+0x08] ;  (1 found)
0x148079a6: adc eax, 0x1480D144 ; call dword [ebp+0x14] ;  (1 found)
0x14807bbb: adc eax, 0x1480D144 ; call dword [ebp-0x00000108] ;  (1 found)
0x148031ef: adc eax, 0x1480D144 ; call dword [ebp-0x08] ;  (1 found)
0x14806fa4: adc eax, 0x1480D144 ; call dword [ebp-0x24] ;  (1 found)
0x14806fd2: adc eax, 0x1480D144 ; call dword [ebp-0x24] ;  (1 found)
0x14806c31: adc eax, 0x1480D144 ; call ebx ;  (1 found)
0x14806bfd: adc eax, 0x1480D144 ; call ebx ;  (1 found)
0x14807b04: adc eax, 0x1480D144 ; call ebx ;  (1 found)
0x14807bee: adc eax, 0x1480D144 ; call ebx ;  (1 found)
0x14807b5e: adc eax, 0x1480D144 ; call ebx ;  (1 found)
0x14807b31: adc eax, 0x1480D144 ; call ebx ;  (1 found)
0x14807d15: adc eax, 0x1480D144 ; call ebx ;  (1 found)
0x14807cd1: adc eax, 0x1480D144 ; call ebx ;  (1 found)
0x14802ae9: adc eax, 0x1480D144 ; call edi ;  (1 found)
0x14802aff: adc eax, 0x1480D144 ; call edi ;  (1 found)
0x14803230: adc eax, 0x1480D144 ; call edi ;  (1 found)
0x148032f4: adc eax, 0x1480D144 ; call edi ;  (1 found)
0x14806c7e: adc eax, 0x1480D144 ; call edi ;  (1 found)
0x1480a54d: adc eax, 0x1480D144 ; call edi ;  (1 found)
0x1480a69f: adc eax, 0x1480D144 ; call edi ;  (1 found)
0x1480a5e7: adc eax, 0x1480D144 ; call edi ;  (1 found)
0x14802bb4: adc eax, 0x1480D144 ; call esi ;  (1 found)
0x1480373e: adc eax, 0x1480D144 ; call esi ;  (1 found)
0x14803a22: adc eax, 0x1480D144 ; call esi ;  (1 found)
0x148034b8: adc eax, 0x1480D144 ; call esi ;  (1 found)
0x14803d23: adc eax, 0x1480D144 ; call esi ;  (1 found)
0x148046db: adc eax, 0x1480D144 ; call esi ;  (1 found)
0x1480681b: adc eax, 0x1480D144 ; call esi ;  (1 found)
0x148067c2: adc eax, 0x1480D144 ; call esi ;  (1 found)
0x148068e1: adc eax, 0x1480D144 ; call esi ;  (1 found)
0x1480688b: adc eax, 0x1480D144 ; call esi ;  (1 found)
0x14806990: adc eax, 0x1480D144 ; call esi ;  (1 found)
0x14806937: adc eax, 0x1480D144 ; call esi ;  (1 found)
0x148069ec: adc eax, 0x1480D144 ; call esi ;  (1 found)
0x14806a4c: adc eax, 0x1480D144 ; call esi ;  (1 found)
0x14806aab: adc eax, 0x1480D144 ; call esi ;  (1 found)
0x14807c39: adc eax, 0x1480D144 ; call esi ;  (1 found)
0x14801446: adc eax, 0x59590000 ; ret  ;  (1 found)
0x14801447: adc eax, 0x59590000 ; ret  ;  (1 found)
0x1480b974: adc eax, 0x7320F980 ; push es ; shld edx, eax, cl ; shl eax, cl ; ret  ;  (1 found)
0x1480b954: adc eax, 0x7320F980 ; push es ; shrd eax, edx, cl ; shr edx, cl ; ret  ;  (1 found)
0x148069df: adc eax, 0x8B1075FF ; into  ; push dword [ebp+0x0C] ; push dword [ebp+0x08] ; call dword [0x1480D144] ;  (1 found)
0x14803dbf: adc eax, 0xFF006A56 ; xor eax, 0x148141C0 ; call dword [0x1480D0D0] ;  (1 found)
0x14803eba: adc eax, 0xFF086A56 ; xor eax, 0x148141C0 ; call dword [0x1480D0D0] ;  (1 found)
0x1480250f: adc eax, dword [edx] ; add byte [eax], al ; or dword [0x14813020], 0xFFFFFFFF ; pop ecx ; mov al, 0x01 ; ret  ;  (1 found)
0x14809daa: adc eax, dword [esp+0x04] ; fld qword [esp+0x04] ; add esp, 0x10 ; ret  ;  (1 found)
0x14806c25: adc ecx, dword [ebx+0x74DB851E] ; or eax, 0xCB8B006A ; call dword [0x1480D144] ;  (1 found)
0x14805cf8: adc esi, esi ; retn 0x7401 ;  (1 found)
0x1480a212: add ah, bl ; add eax, 0x14810FDE ; ret  ;  (1 found)
0x148019b6: add ah, cl ; and dword [0x14813828], 0x00000000 ; ret  ;  (1 found)
0x1480180b: add ah, cl ; ret  ;  (1 found)
0x14802077: add al, 0x00 ; add bl, ch ; in eax, dx ; mov al, 0x01 ; ret  ;  (1 found)
0x14802062: add al, 0x00 ; add byte [eax+eax*8-0x3FCDFC8B], al ; ret  ;  (1 found)
0x1480aef4: add al, 0x00 ; add byte [ebx-0x3B7C03AB], cl ; or al, 0x81 ; retn 0xFA00 ;  (1 found)
0x1480a12b: add al, 0x00 ; add byte [ebx-0x7C27FC26], cl ; ret  ;  (1 found)
0x1480a1b7: add al, 0x00 ; add byte [ebx-0x7C27FC26], cl ; ret  ;  (1 found)
0x148029a9: add al, 0x00 ; call eax ;  (1 found)
0x14801a98: add al, 0x00 ; mov eax, ecx ; and dword [ecx+0x08], 0x00000000 ; mov dword [ecx+0x04], 0x1480D1BC ; mov dword [ecx], 0x1480D1B4 ; ret  ;  (1 found)
0x14801acb: add al, 0x00 ; mov eax, ecx ; and dword [ecx+0x08], 0x00000000 ; mov dword [ecx+0x04], 0x1480D1D8 ; mov dword [ecx], 0x1480D1D0 ; ret  ;  (1 found)
0x14802258: add al, 0x00 ; pop edi ; pop ebp ; ret  ;  (1 found)
0x14802277: add al, 0x00 ; pop esi ; pop ebp ; ret  ;  (1 found)
0x14801d7d: add al, 0x00 ; push ebp ; mov ebp, esp ; push 0x00000000 ; call dword [0x1480D050] ;  (1 found)
0x1480a12a: add al, 0x04 ; add byte [eax], al ; mov ebx, edx ; add ebx, eax ; add ebx, 0x10 ; jmp dword [ebx] ;  (1 found)
0x1480a1b6: add al, 0x04 ; add byte [eax], al ; mov ebx, edx ; add ebx, eax ; add ebx, 0x10 ; jmp dword [ebx] ;  (1 found)
0x1480784b: add al, 0x06 ; add eax, 0x20 ; push eax ; call dword [0x1480D080] ;  (1 found)
0x1480b9a8: add al, 0x24 ; leave  ; ret  ;  (1 found)
0x1480ba70: add al, 0x24 ; ret  ;  (1 found)
0x14802ba9: add al, 0x33 ; shr bl, 0x0000000E ; push dword [ebp+0x08] ; mov ecx, esi ; call dword [0x1480D144] ;  (1 found)
0x14803fc0: add al, 0x48 ; and eax, dword [ebp+0x0C] ; pop ebp ; ret  ;  (1 found)
0x14807659: add al, 0x56 ; push 0x00000009 ; push dword [edi+0x08] ; call dword [0x1480D0B0] ;  (1 found)
0x1480b542: add al, 0x58 ; pop ebp ; ret  ;  (1 found)
0x1480b4f8: add al, 0x6A ; add al, 0xEB ; int 0x33 ; rcr byte [ebp-0x3D], 0xFFFFFF8B ; call dword [ebp-0x75] ;  (1 found)
0x14805681: add al, 0x6A ; add eax, ebp ; cli  ; out 0xFF, eax ; call dword [ebx-0x5D] ;  (1 found)
0x14809db1: add al, 0x83 ; les edx,  [eax] ; ret  ;  (1 found)
0x1480182f: add al, 0x83 ; or byte [edx], al ; mov dword [eax+0x04], ecx ; ret  ;  (1 found)
0x1480bd80: add al, 0x83 ; out dx, eax ; add al, 0xFD ; rep movsd  ; cld  ; jmp dword [0x1480BD90+edx*4] ;  (1 found)
0x1480c430: add al, 0x83 ; out dx, eax ; add al, 0xFD ; rep movsd  ; cld  ; jmp dword [0x1480C440+edx*4] ;  (1 found)
0x148084a4: add al, 0x85 ; fdivr dword [esi] ; adc dword [edi+ecx], 0x280844B6 ; and eax, 0x40 ; pop ebp ; ret  ;  (1 found)
0x1480299c: add al, 0x89 ; imul ecx, dword [0x59585051+edx*2], 0x5D ; pop ecx ; pop ebx ; retn 0x0004 ;  (1 found)
0x148020e1: add al, 0x8B ; cli  ; ret  ;  (1 found)
0x148021f6: add al, 0x8B ; cli  ; ret  ;  (1 found)
0x148021a1: add al, 0x8B ; cli  ; ret  ;  (1 found)
0x148033df: add al, 0x8B ; in eax, 0x5D ; ret  ;  (1 found)
0x14804bf0: add al, 0x8B ; lea esi, dword [eax+0x2BFFFFFE] ; retn 0xF8C1 ;  (1 found)
0x1480269a: add al, 0x8B ; retn 0x49EB ;  (1 found)
0x14806738: add al, 0x8B ; retn 0x49EB ;  (1 found)
0x1480c34f: add al, 0x8D ; xchg eax, esp ; ret  ;  (1 found)
0x14808928: add al, 0xB0 ; add eax, 0x20 ; push eax ; call dword [0x1480D080] ;  (1 found)
0x148099d8: add al, 0xC3 ; fld qword [0x14810E50] ; ret  ;  (1 found)
0x14801835: add al, 0xC3 ; xor eax, eax ; cmp dword [0x14813004], eax ; sete al ; ret  ;  (1 found)
0x14806168: add al, 0xC5 ; add dword [eax], eax ; add byte [eax], al ; push eax ; push ebx ; call dword [0x1480D0B0] ;  (1 found)
0x14807fe5: add al, 0xC5 ; add dword [eax], eax ; add byte [eax], al ; push eax ; push edi ; call dword [0x1480D0B0] ;  (1 found)
0x1480479f: add al, 0xC5 ; cld  ; fild dword [eax-0x743CA2EC] ; call dword [ebp-0x75] ;  (1 found)
0x14808392: add al, 0xCD ; xchg eax, esp ; inc byte [eax+0x5B5E5F14] ; mov esp, ebp ; pop ebp ; ret  ;  (1 found)
0x1480aa0b: add al, 0xD1 ; adc byte [ebx+ecx*4], 0xFFFFFFF0 ; mov eax, esi ; pop esi ; pop ebp ; ret  ;  (1 found)
0x14809dad: add al, 0xDD ; inc esp ; and al, 0x04 ; add esp, 0x10 ; ret  ;  (1 found)
0x1480996d: add al, 0xDD ; inc esp ; and al, 0x04 ; ret  ;  (1 found)
0x148099d4: add al, 0xDD ; inc esp ; and al, 0x04 ; ret  ;  (1 found)
0x148099f7: add al, 0xDD ; inc esp ; and al, 0x04 ; ret  ;  (1 found)
0x148030ff: add al, 0xEB ; adc dword [ebx-0x00A9F7B3], ecx ; adc eax, 0x1480D144 ; call dword [ebp+0x08] ;  (1 found)
0x1480b4fa: add al, 0xEB ; int 0x33 ; rcr byte [ebp-0x3D], 0xFFFFFF8B ; call dword [ebp-0x75] ;  (1 found)
0x1480b0e2: add al, 0xF6 ; retn 0x7410 ;  (1 found)
0x1480bd83: add al, 0xFD ; rep movsd  ; cld  ; jmp dword [0x1480BD90+edx*4] ;  (1 found)
0x1480c433: add al, 0xFD ; rep movsd  ; cld  ; jmp dword [0x1480C440+edx*4] ;  (1 found)
0x14801d96: add al, al ; call dword [0x1480D060] ;  (1 found)
0x14801682: add al, al ; sete cl ; mov eax, ecx ; ret  ;  (1 found)
0x1480b694: add al, al ; sete cl ; mov eax, ecx ; ret  ;  (1 found)
0x148011c9: add al, byte [eax] ; add byte [eax], al ; push 0x00001B5A ; mov word [esp+0x14], ax ; call dword [0x1480D11C] ;  (1 found)
0x14802510: add al, byte [eax] ; add byte [ebx-0x7ECFDFF3], al ; adc al, 0xFF ; pop ecx ; mov al, 0x01 ; ret  ;  (1 found)
0x14801b3f: add al, byte [eax] ; add byte [ecx+0x59], bl ; mov eax, esi ; pop esi ; pop ebp ; retn 0x0004 ;  (1 found)
0x14805e72: add al, byte [eax] ; add byte [edx-0x23], dh ; mov al, 0x01 ; pop esi ; ret  ;  (1 found)
0x1480acfb: add al, byte [ebx] ; rcr byte [ebp-0x3D], 0xFFFFFF8B ; call dword [ebx-0x75] ;  (1 found)
0x14801185: add al, byte [edx] ; add byte [eax], al ; call dword [0x1480D12C] ;  (1 found)
0x148037aa: add al, ch ; adc dword [edx], esp ; add byte [eax], al ; pop ecx ; ret  ;  (1 found)
0x148083eb: add al, ch ; das  ; ret  ;  (1 found)
0x148019b1: add al, ch ; dec ebp ; and eax, dword [eax] ; add ah, cl ; and dword [0x14813828], 0x00000000 ; ret  ;  (1 found)
0x148062d4: add al, ch ; dec esi ; add dword [eax], eax ; add byte [ecx+0x5E], bl ; pop ebp ; ret  ;  (1 found)
0x1480a398: add al, ch ; fld dword [eax] ; add byte [eax], al ; pop edx ; ret  ;  (1 found)
0x148084be: add al, ch ; pop esp ; retn 0xFFFF ;  (1 found)
0x1480596d: add al, ch ; sbb eax, 0x59000000 ; xor al, al ; pop edi ; pop esi ; ret  ;  (1 found)
0x148036ee: add al, ch ; sub al, 0x10 ; add byte [eax], al ; or eax, 0xFFFFFFFF ; pop ebp ; ret  ;  (1 found)
0x14801d83: add bh, bh ; adc eax, 0x1480D050 ; push dword [ebp+0x08] ; call dword [0x1480D04C] ;  (1 found)
0x1480115d: add bh, bh ; adc eax, 0x1480D10C ; ret  ;  (1 found)
0x148011a5: add bh, bh ; adc eax, 0x1480D128 ; push 0x14811A83 ; mov edi, eax ; call dword [0x1480D13C] ;  (1 found)
0x1480845f: add bh, bh ; xor eax, 0x148141C0 ; call dword [0x1480D020] ;  (1 found)
0x148083fa: add bh, bh ; xor eax, 0x148141C0 ; call dword [0x1480D024] ;  (1 found)
0x14803d6c: add bh, bh ; xor eax, 0x148141C0 ; call dword [0x1480D0CC] ;  (1 found)
0x14803dc2: add bh, bh ; xor eax, 0x148141C0 ; call dword [0x1480D0D0] ;  (1 found)
0x148023bf: add bh, byte [eax+0x00000003] ; ret  ;  (1 found)
0x148028cf: add bh, byte [eax+0x00000003] ; ret  ;  (1 found)
0x1480a307: add bl, al ; fadd qword [0x14811000] ; mov eax, 0x00000000 ; ret  ;  (1 found)
0x1480a20a: add bl, al ; mov byte [ebp-0x00000090], 0x00000000 ; fadd qword [0x14810FDE] ; ret  ;  (1 found)
0x148017de: add bl, al ; push 0x14813810 ; call dword [0x1480D044] ;  (1 found)
0x1480b4c9: add bl, byte [eax+0x5D] ; ret  ;  (1 found)
0x14805548: add bl, byte [edi+0x5D] ; ret  ;  (1 found)
0x14809f6a: add bl, ch ; fcomp st0, st3 ; sub eax, 0x14810F6A ; ret  ;  (1 found)
0x14808694: add bl, ch ; fidiv word [eax-0x743CA2FF] ; call dword [ebp-0x75] ;  (1 found)
0x14802079: add bl, ch ; in eax, dx ; mov al, 0x01 ; ret  ;  (1 found)
0x1480a1d1: add bl, ch ; neg ch ; fcomp st0, st5 ; fcomp st0, st1 ; out dx, al ; ret  ;  (1 found)
0x1480a237: add bl, ch ; pop es ; mov byte [ebp-0x00000090], 0x00000000 ; faddp st1, st0 ; ret  ;  (1 found)
0x1480a276: add bl, ch ; pop es ; mov byte [ebp-0x00000090], 0x00000001 ; faddp st1, st0 ; ret  ;  (1 found)
0x148036c0: add bl, ch ; pop es ; or dword [0x14813690], 0xFFFFFFFF ; pop esi ; pop ebp ; ret  ;  (1 found)
0x148017db: add byte [eax+0x00], al ; add bl, al ; push 0x14813810 ; call dword [0x1480D044] ;  (1 found)
0x1480616d: add byte [eax+0x53], dl ; call dword [0x1480D0B0] ;  (1 found)
0x14807fea: add byte [eax+0x57], dl ; call dword [0x1480D0B0] ;  (1 found)
0x14809225: add byte [eax+0x57], dl ; lea eax, dword [ebp-0x00001404] ; push eax ; push ecx ; call dword [0x1480D0A8] ;  (1 found)
0x148011cc: add byte [eax+0x5A], ch ; sbb eax, dword [eax] ; add byte [esi-0x77], ah ; inc esp ; and al, 0x14 ; call dword [0x1480D11C] ;  (1 found)
0x14806446: add byte [eax+0x5D], al ; ret  ;  (1 found)
0x1480649f: add byte [eax+0x5D], cl ; ret  ;  (1 found)
0x1480c0d8: add byte [eax+0x5F5EC475], al ; pop ebx ; xor eax, eax ; ret  ;  (1 found)
0x14802070: add byte [eax+eax*8-0x1F17F88B], al ; add al, 0x00 ; add bl, ch ; in eax, dx ; mov al, 0x01 ; ret  ;  (1 found)
0x14801548: add byte [eax+eax*8-0x3FCDFB8B], al ; pop ebp ; ret  ;  (1 found)
0x14802064: add byte [eax+eax*8-0x3FCDFC8B], al ; ret  ;  (1 found)
0x14803ddb: add byte [eax+eax], cl ; add byte [eax], al ; xor eax, eax ; pop esi ; pop ebp ; ret  ;  (1 found)
0x14803ed6: add byte [eax+eax], cl ; add byte [eax], al ; xor eax, eax ; pop esi ; pop ebp ; ret  ;  (1 found)
0x1480282e: add byte [eax+edx-0x7D], dh ; push dword [eax+ecx-0x01] ; call dword [0x1480D098] ;  (1 found)
0x1480282d: add byte [eax+edx-0x7D], dh ; push dword [eax+ecx-0x01] ; call dword [0x1480D098] ;  (1 found)
0x14806b1d: add byte [eax+edx-0x7D], dh ; push dword [eax+ecx-0x01] ; call dword [0x1480D098] ;  (1 found)
0x14806b1c: add byte [eax+edx-0x7D], dh ; push dword [eax+ecx-0x01] ; call dword [0x1480D098] ;  (1 found)
0x14801741: add byte [eax-0x01], dl ; adc eax, 0x1480D040 ; mov eax, dword [ebp-0x08] ; xor eax, dword [ebp-0x0C] ; mov dword [ebp-0x04], eax ; call dword [0x1480D03C] ;  (1 found)
0x14806ba7: add byte [eax-0x18], dl ; mov ah, 0xFF ; inc dword [ebx-0x74A0F33C] ; ret  ;  (1 found)
0x1480709b: add byte [eax-0x3CA30000], al ; or eax, 0x40 ; pop ebp ; ret  ;  (1 found)
0x1480287a: add byte [eax-0x77], ch ; sub byte [eax+0x0875FF14], al ; call dword [0x1480D06C] ;  (1 found)
0x14802da9: add byte [eax-0x7BF0FFC2], al ; retn 0x0000 ;  (1 found)
0x1480709c: add byte [eax], 0x00000000 ; pop ebp ; ret  ;  (1 found)
0x148070a8: add byte [eax], 0x00000000 ; pop ebp ; ret  ;  (1 found)
0x14801809: add byte [eax], al ; add ah, cl ; ret  ;  (1 found)
0x148083e9: add byte [eax], al ; add al, ch ; das  ; ret  ;  (1 found)
0x1480a396: add byte [eax], al ; add al, ch ; fld dword [eax] ; add byte [eax], al ; pop edx ; ret  ;  (1 found)
0x148084bc: add byte [eax], al ; add al, ch ; pop esp ; retn 0xFFFF ;  (1 found)
0x1480a305: add byte [eax], al ; add bl, al ; fadd qword [0x14811000] ; mov eax, 0x00000000 ; ret  ;  (1 found)
0x1480616b: add byte [eax], al ; add byte [eax+0x53], dl ; call dword [0x1480D0B0] ;  (1 found)
0x14807fe8: add byte [eax], al ; add byte [eax+0x57], dl ; call dword [0x1480D0B0] ;  (1 found)
0x14806444: add byte [eax], al ; add byte [eax+0x5D], al ; ret  ;  (1 found)
0x1480649d: add byte [eax], al ; add byte [eax+0x5D], cl ; ret  ;  (1 found)
0x1480c0d6: add byte [eax], al ; add byte [eax+0x5F5EC475], al ; pop ebx ; xor eax, eax ; ret  ;  (1 found)
0x1480a350: add byte [eax], al ; add byte [eax], al ; mov eax, dword [edx+0x04] ; ret  ;  (1 found)
0x14801a60: add byte [eax], al ; add byte [eax], al ; ret  ;  (1 found)
0x1480a310: add byte [eax], al ; add byte [eax], al ; ret  ;  (1 found)
0x1480a304: add byte [eax], al ; add byte [eax], al ; ret  ;  (1 found)
0x1480b7e3: add byte [eax], al ; add byte [eax], al ; ret  ;  (1 found)
0x1480346b: add byte [eax], al ; add byte [eax], al ; setne al ; ret  ;  (1 found)
0x1480bfaa: add byte [eax], al ; add byte [ebp+0x448B0049], cl ; and al, 0x0C ; pop esi ; pop edi ; ret  ;  (1 found)
0x1480c65a: add byte [eax], al ; add byte [ebp+0x448B0049], cl ; and al, 0x0C ; pop esi ; pop edi ; ret  ;  (1 found)
0x148052b1: add byte [eax], al ; add byte [ebp+0x5350E845], cl ; call dword [0x1480D0E8] ;  (1 found)
0x14803d4d: add byte [eax], al ; add byte [ebx+0x05E8FC45], cl ; add byte [eax], al ; add byte [ecx-0x75], bl ; in eax, 0x5D ; ret  ;  (1 found)
0x148083b9: add byte [eax], al ; add byte [ebx+0x09], dh ; mov eax, dword [0x1480ED70+eax*8] ; pop ebp ; ret  ;  (1 found)
0x14808a2a: add byte [eax], al ; add byte [ebx+0x5D5E10C4], al ; ret  ;  (1 found)
0x14802376: add byte [eax], al ; add byte [ebx+0x5E5F18C4], al ; pop ebx ; ret  ;  (1 found)
0x14802950: add byte [eax], al ; add byte [ebx+0x5E5F18C4], al ; pop ebx ; ret  ;  (1 found)
0x1480372f: add byte [eax], al ; add byte [ebx+0x74F685F0], cl ; pop ss ; push dword [ebp+0x08] ; mov ecx, esi ; call dword [0x1480D144] ;  (1 found)
0x1480372e: add byte [eax], al ; add byte [ebx+0x74F685F0], cl ; pop ss ; push dword [ebp+0x08] ; mov ecx, esi ; call dword [0x1480D144] ;  (1 found)
0x14806639: add byte [eax], al ; add byte [ebx-0x743CEF3C], al ; call dword [ebp-0x75] ;  (1 found)
0x1480843f: add byte [eax], al ; add byte [ebx], dh ; rcr byte [esi+0x5F], 0x0000005D ; ret  ;  (1 found)
0x14805293: add byte [eax], al ; add byte [ecx+0x00FDE9FB], al ; add byte [edi], cl ; test byte [eax+eax-0x48F10000], bh ; ret  ;  (1 found)
0x14803acd: add byte [eax], al ; add byte [ecx+0x59], bl ; pop ebp ; ret  ;  (1 found)
0x14801962: add byte [eax], al ; add byte [ecx+0x5B], bl ; mov esp, ebp ; pop ebp ; ret  ;  (1 found)
0x14803d55: add byte [eax], al ; add byte [ecx-0x75], bl ; in eax, 0x5D ; ret  ;  (1 found)
0x14803c75: add byte [eax], al ; add byte [ecx-0x77], bl ; pop edi ; pop esi ; pop ebp ; retn 0x0004 ;  (1 found)
0x1480529f: add byte [eax], al ; add byte [edi], cl ; mov bh, 0xC3 ; push eax ; call dword [0x1480D0E0] ;  (1 found)
0x1480346c: add byte [eax], al ; add byte [edi], cl ; xchg eax, ebp ; rol bl, 0xFFFFFF8B ; call dword [ebp-0x75] ;  (1 found)
0x1480a400: add byte [eax], al ; add byte [edx-0x3D], bl ; fldcw word [esp] ; pop edx ; ret  ;  (1 found)
0x1480a39b: add byte [eax], al ; add byte [edx-0x3D], bl ; fldcw word [esp] ; pop edx ; ret  ;  (1 found)
0x1480a1c5: add byte [eax], al ; add cl, bl ; leave  ; fstp st0 ; ret  ;  (1 found)
0x14809c53: add byte [eax], al ; add cl, cl ; ret  ;  (1 found)
0x1480aeb4: add byte [eax], al ; add dh, dh ; ret  ;  (1 found)
0x14801a61: add byte [eax], al ; add dl, dh ; ret  ;  (1 found)
0x1480b7e4: add byte [eax], al ; add dl, dh ; ret  ;  (1 found)
0x14803365: add byte [eax], al ; add esp, 0x04 ; ret  ;  (1 found)
0x14802ed0: add byte [eax], al ; add esp, 0x0C ; mov eax, esi ; pop esi ; pop ebp ; ret  ;  (1 found)
0x14807ef0: add byte [eax], al ; add esp, 0x0C ; pop ebp ; ret  ;  (1 found)
0x14809819: add byte [eax], al ; add esp, 0x0C ; ret  ;  (1 found)
0x14809998: add byte [eax], al ; add esp, 0x10 ; fld qword [esp+0x04] ; ret  ;  (1 found)
0x14808212: add byte [eax], al ; add esp, 0x10 ; pop ebp ; ret  ;  (1 found)
0x14808a2b: add byte [eax], al ; add esp, 0x10 ; pop esi ; pop ebp ; ret  ;  (1 found)
0x14806606: add byte [eax], al ; add esp, 0x10 ; ret  ;  (1 found)
0x14806620: add byte [eax], al ; add esp, 0x10 ; ret  ;  (1 found)
0x1480663a: add byte [eax], al ; add esp, 0x10 ; ret  ;  (1 found)
0x14802377: add byte [eax], al ; add esp, 0x18 ; pop edi ; pop esi ; pop ebx ; ret  ;  (1 found)
0x14802951: add byte [eax], al ; add esp, 0x18 ; pop edi ; pop esi ; pop ebx ; ret  ;  (1 found)
0x1480afd7: add byte [eax], al ; add esp, 0x1C ; pop ebp ; ret  ;  (1 found)
0x14809413: add byte [eax], al ; call dword [0x1480D0B4] ;  (1 found)
0x14804df5: add byte [eax], al ; call dword [0x1480D0C8] ;  (1 found)
0x14804dde: add byte [eax], al ; call dword [0x1480D0E4] ;  (1 found)
0x14801187: add byte [eax], al ; call dword [0x1480D12C] ;  (1 found)
0x148019dc: add byte [eax], al ; call edi ;  (1 found)
0x14801a07: add byte [eax], al ; call edi ;  (1 found)
0x148013c8: add byte [eax], al ; call esi ;  (1 found)
0x1480b6e6: add byte [eax], al ; cmp word [ecx+0x18], dx ; sete al ; pop ebp ; ret  ;  (1 found)
0x1480649e: add byte [eax], al ; dec eax ; pop ebp ; ret  ;  (1 found)
0x14809e8d: add byte [eax], al ; fld qword [esp+0x10] ; add esp, 0x1C ; ret  ;  (1 found)
0x14809f36: add byte [eax], al ; fstp st0 ; fstp st0 ; fld tword [0x14810F60] ; mov byte [ebp-0x00000090], 0x00000002 ; ret  ;  (1 found)
0x14809ffd: add byte [eax], al ; fstp st0 ; fstp st0 ; fld tword [0x14810F60] ; mov byte [ebp-0x00000090], 0x00000003 ; ret  ;  (1 found)
0x1480a1c6: add byte [eax], al ; fxch st0, st1 ; fstp st0 ; ret  ;  (1 found)
0x14801919: add byte [eax], al ; inc eax ; mov dword [ebp-0x54], 0x00000001 ; mov dword [ebp-0x4C], eax ; call dword [0x1480D048] ;  (1 found)
0x14806445: add byte [eax], al ; inc eax ; pop ebp ; ret  ;  (1 found)
0x1480a977: add byte [eax], al ; inc eax ; push 0x14811078 ; call dword [0x1480D004] ;  (1 found)
0x148019b5: add byte [eax], al ; int3  ; and dword [0x14813828], 0x00000000 ; ret  ;  (1 found)
0x1480180a: add byte [eax], al ; int3  ; ret  ;  (1 found)
0x148052b2: add byte [eax], al ; lea eax, dword [ebp-0x18] ; push eax ; push ebx ; call dword [0x1480D0E8] ;  (1 found)
0x1480bfab: add byte [eax], al ; lea ecx, dword [ecx+0x00] ; mov eax, dword [esp+0x0C] ; pop esi ; pop edi ; ret  ;  (1 found)
0x1480c65b: add byte [eax], al ; lea ecx, dword [ecx+0x00] ; mov eax, dword [esp+0x0C] ; pop esi ; pop edi ; ret  ;  (1 found)
0x14809c54: add byte [eax], al ; leave  ; ret  ;  (1 found)
0x14803b82: add byte [eax], al ; mov al, 0x01 ; ret  ;  (1 found)
0x14803f90: add byte [eax], al ; mov byte [edi+0x0C], 0x00000001 ; mov eax, edi ; pop edi ; pop ebp ; retn 0x0004 ;  (1 found)
0x14803dd8: add byte [eax], al ; mov dword [eax], 0x0000000C ; xor eax, eax ; pop esi ; pop ebp ; ret  ;  (1 found)
0x14803ed3: add byte [eax], al ; mov dword [eax], 0x0000000C ; xor eax, eax ; pop esi ; pop ebp ; ret  ;  (1 found)
0x148047c3: add byte [eax], al ; mov dword [eax], esi ; pop esi ; pop ebp ; ret  ;  (1 found)
0x14801921: add byte [eax], al ; mov dword [ebp-0x4C], eax ; call dword [0x1480D048] ;  (1 found)
0x14801a87: add byte [eax], al ; mov dword [esi], 0x1480D1B4 ; mov eax, esi ; pop esi ; pop ebp ; retn 0x0004 ;  (1 found)
0x14801aba: add byte [eax], al ; mov dword [esi], 0x1480D1D0 ; mov eax, esi ; pop esi ; pop ebp ; retn 0x0004 ;  (1 found)
0x1480108e: add byte [eax], al ; mov eax, dword [ebp-0x08] ; push eax ; mov ecx, dword [ebp+0x08] ; push ecx ; call dword [0x1480D134] ;  (1 found)
0x1480a352: add byte [eax], al ; mov eax, dword [edx+0x04] ; ret  ;  (1 found)
0x14803e10: add byte [eax], al ; mov eax, esi ; pop esi ; pop ebp ; ret  ;  (1 found)
0x1480a12c: add byte [eax], al ; mov ebx, edx ; add ebx, eax ; add ebx, 0x10 ; jmp dword [ebx] ;  (1 found)
0x1480a1b8: add byte [eax], al ; mov ebx, edx ; add ebx, eax ; add ebx, 0x10 ; jmp dword [ebx] ;  (1 found)
0x14803fb9: add byte [eax], al ; mov ecx, dword [ebp+0x08] ; movzx eax, word [eax+ecx*2] ; and eax, dword [ebp+0x0C] ; pop ebp ; ret  ;  (1 found)
0x14802c21: add byte [eax], al ; mov esi, 0x14813C00 ; xor edi, edi ; push esi ; push edi ; call dword [0x1480D0AC] ;  (1 found)
0x14803d81: add byte [eax], al ; mov esi, eax ; call dword [0x1480D070] ;  (1 found)
0x148011d0: add byte [eax], al ; mov word [esp+0x14], ax ; call dword [0x1480D11C] ;  (1 found)
0x148052a0: add byte [eax], al ; movzx eax, bx ; push eax ; call dword [0x1480D0E0] ;  (1 found)
0x1480119b: add byte [eax], al ; nop dword [eax] ; push 0x00000006 ; push 0x00000001 ; push 0x00000002 ; call dword [0x1480D128] ;  (1 found)
0x14802511: add byte [eax], al ; or dword [0x14813020], 0xFFFFFFFF ; pop ecx ; mov al, 0x01 ; ret  ;  (1 found)
0x1480454f: add byte [eax], al ; or dword [0x14813044], 0xFFFFFFFF ; mov al, 0x01 ; ret  ;  (1 found)
0x148036f2: add byte [eax], al ; or eax, 0xFFFFFFFF ; pop ebp ; ret  ;  (1 found)
0x1480a2ed: add byte [eax], al ; or edx, 0x7F ; mov word [esp+0x06], dx ; fldcw word [esp+0x06] ; ret  ;  (1 found)
0x14802b7e: add byte [eax], al ; pop ebp ; ret  ;  (1 found)
0x14803717: add byte [eax], al ; pop ebp ; ret  ;  (1 found)
0x14803718: add byte [eax], al ; pop ebp ; ret  ;  (1 found)
0x1480709d: add byte [eax], al ; pop ebp ; ret  ;  (1 found)
0x148070a9: add byte [eax], al ; pop ebp ; ret  ;  (1 found)
0x14807447: add byte [eax], al ; pop ebp ; ret  ;  (1 found)
0x1480b2ed: add byte [eax], al ; pop ebp ; ret  ;  (1 found)
0x1480b2fa: add byte [eax], al ; pop ebp ; ret  ;  (1 found)
0x1480b575: add byte [eax], al ; pop ebp ; ret  ;  (1 found)
0x1480b549: add byte [eax], al ; pop ebp ; ret  ;  (1 found)
0x1480b5a1: add byte [eax], al ; pop ebp ; ret  ;  (1 found)
0x14802097: add byte [eax], al ; pop ecx ; mov al, 0x01 ; pop ebp ; ret  ;  (1 found)
0x14803d8f: add byte [eax], al ; pop ecx ; mov dword [esi], eax ; pop esi ; pop ebp ; ret  ;  (1 found)
0x14802f62: add byte [eax], al ; pop ecx ; mov eax, edi ; pop edi ; pop esi ; ret  ;  (1 found)
0x14803d56: add byte [eax], al ; pop ecx ; mov esp, ebp ; pop ebp ; ret  ;  (1 found)
0x14801d57: add byte [eax], al ; pop ecx ; pop ebp ; ret  ;  (1 found)
0x1480430f: add byte [eax], al ; pop ecx ; pop ebp ; ret  ;  (1 found)
0x148024c9: add byte [eax], al ; pop ecx ; pop ebp ; retn 0x0004 ;  (1 found)
0x14801963: add byte [eax], al ; pop ecx ; pop ebx ; mov esp, ebp ; pop ebp ; ret  ;  (1 found)
0x148016d9: add byte [eax], al ; pop ecx ; pop ecx ; mov al, 0x01 ; pop ebp ; ret  ;  (1 found)
0x14803ace: add byte [eax], al ; pop ecx ; pop ecx ; pop ebp ; ret  ;  (1 found)
0x14801448: add byte [eax], al ; pop ecx ; pop ecx ; ret  ;  (1 found)
0x14803c8e: add byte [eax], al ; pop ecx ; pop ecx ; ret  ;  (1 found)
0x14803ca0: add byte [eax], al ; pop ecx ; pop ecx ; ret  ;  (1 found)
0x14803063: add byte [eax], al ; pop ecx ; pop edi ; pop esi ; pop ebp ; ret  ;  (1 found)
0x148062d8: add byte [eax], al ; pop ecx ; pop esi ; pop ebp ; ret  ;  (1 found)
0x14803422: add byte [eax], al ; pop ecx ; push dword [ebp+0x08] ; call dword [0x1480D0B8] ;  (1 found)
0x1480130a: add byte [eax], al ; pop ecx ; ret  ;  (1 found)
0x14801b1a: add byte [eax], al ; pop ecx ; ret  ;  (1 found)
0x14803294: add byte [eax], al ; pop ecx ; ret  ;  (1 found)
0x148051c5: add byte [eax], al ; pop ecx ; ret  ;  (1 found)
0x148037ae: add byte [eax], al ; pop ecx ; ret  ;  (1 found)
0x1480385b: add byte [eax], al ; pop ecx ; ret  ;  (1 found)
0x1480380a: add byte [eax], al ; pop ecx ; ret  ;  (1 found)
0x14803633: add byte [eax], al ; pop ecx ; ret  ;  (1 found)
0x148040ea: add byte [eax], al ; pop ecx ; ret  ;  (1 found)
0x1480409f: add byte [eax], al ; pop ecx ; ret  ;  (1 found)
0x1480403e: add byte [eax], al ; pop ecx ; ret  ;  (1 found)
0x1480413a: add byte [eax], al ; pop ecx ; ret  ;  (1 found)
0x14804cf0: add byte [eax], al ; pop ecx ; ret  ;  (1 found)
0x14805971: add byte [eax], al ; pop ecx ; xor al, al ; pop edi ; pop esi ; ret  ;  (1 found)
0x1480a39c: add byte [eax], al ; pop edx ; ret  ;  (1 found)
0x1480a401: add byte [eax], al ; pop edx ; ret  ;  (1 found)
0x1480a3fa: add byte [eax], al ; pop edx ; ret  ;  (1 found)
0x148098dc: add byte [eax], al ; pop edx ; ret  ;  (1 found)
0x148025dc: add byte [eax], al ; push 0x00000000 ; push ebx ; call dword [0x1480D0A0] ;  (1 found)
0x14806678: add byte [eax], al ; push 0x00000000 ; push ebx ; call dword [0x1480D0A0] ;  (1 found)
0x14803599: add byte [eax], al ; push 0x00000016 ; pop eax ; pop ebp ; ret  ;  (1 found)
0x148011cb: add byte [eax], al ; push 0x00001B5A ; mov word [esp+0x14], ax ; call dword [0x1480D11C] ;  (1 found)
0x14801219: add byte [eax], al ; push 0x7FFFFFFF ; push edi ; call dword [0x1480D124] ;  (1 found)
0x14802adf: add byte [eax], al ; push dword [esi+0x08] ; mov ecx, edi ; push 0x00000008 ; call dword [0x1480D144] ;  (1 found)
0x14806a6c: add byte [eax], al ; push eax ; call dword [0x1480D02C] ;  (1 found)
0x1480683b: add byte [eax], al ; push eax ; call dword [0x1480D030] ;  (1 found)
0x1480616c: add byte [eax], al ; push eax ; push ebx ; call dword [0x1480D0B0] ;  (1 found)
0x14807fe9: add byte [eax], al ; push eax ; push edi ; call dword [0x1480D0B0] ;  (1 found)
0x14801699: add byte [eax], al ; ret  ;  (1 found)
0x14801479: add byte [eax], al ; ret  ;  (1 found)
0x148017dd: add byte [eax], al ; ret  ;  (1 found)
0x14801a62: add byte [eax], al ; ret  ;  (1 found)
0x148023c3: add byte [eax], al ; ret  ;  (1 found)
0x1480297a: add byte [eax], al ; ret  ;  (1 found)
0x148028d3: add byte [eax], al ; ret  ;  (1 found)
0x14803358: add byte [eax], al ; ret  ;  (1 found)
0x14807003: add byte [eax], al ; ret  ;  (1 found)
0x1480a084: add byte [eax], al ; ret  ;  (1 found)
0x1480a0c4: add byte [eax], al ; ret  ;  (1 found)
0x1480a306: add byte [eax], al ; ret  ;  (1 found)
0x1480a312: add byte [eax], al ; ret  ;  (1 found)
0x1480b7e5: add byte [eax], al ; ret  ;  (1 found)
0x148087b0: add byte [eax], al ; sal byte [ebx+eax+0x33], 0xFFFFFFC0 ; ret  ;  (1 found)
0x1480346d: add byte [eax], al ; setne al ; ret  ;  (1 found)
0x1480bccb: add byte [eax], al ; shr ecx, 0x02 ; rep movsd  ; and edx, 0x03 ; jmp dword [0x1480BCE4+edx*4] ;  (1 found)
0x1480c37b: add byte [eax], al ; shr ecx, 0x02 ; rep movsd  ; and edx, 0x03 ; jmp dword [0x1480C394+edx*4] ;  (1 found)
0x148054f4: add byte [eax], al ; std  ; mov eax, edx ; mov esp, ebp ; pop ebp ; ret  ;  (1 found)
0x14804e21: add byte [eax], al ; std  ; mov esp, ebp ; pop ebp ; ret  ;  (1 found)
0x148088c5: add byte [eax], al ; std  ; mov esp, ebp ; pop ebp ; ret  ;  (1 found)
0x14808dd0: add byte [eax], al ; std  ; mov esp, ebp ; pop ebp ; ret  ;  (1 found)
0x148081e9: add byte [eax], al ; std  ; mov esp, ebp ; pop ebp ; ret  ;  (1 found)
0x14802553: add byte [eax], al ; xor al, al ; pop edi ; pop esi ; ret  ;  (1 found)
0x1480c0d7: add byte [eax], al ; xor byte [ebp-0x3C], 0x0000005E ; pop edi ; pop ebx ; xor eax, eax ; ret  ;  (1 found)
0x14803dde: add byte [eax], al ; xor eax, eax ; pop esi ; pop ebp ; ret  ;  (1 found)
0x14803ed9: add byte [eax], al ; xor eax, eax ; pop esi ; pop ebp ; ret  ;  (1 found)
0x14808440: add byte [eax], al ; xor eax, eax ; pop esi ; pop edi ; pop ebp ; ret  ;  (1 found)
0x148012f7: add byte [eax], al ; xor eax, eax ; ret  ;  (1 found)
0x148012e7: add byte [eax], al ; xor eax, eax ; ret  ;  (1 found)
0x148025da: add byte [eax], cl ; add byte [eax], al ; push 0x00000000 ; push ebx ; call dword [0x1480D0A0] ;  (1 found)
0x14806676: add byte [eax], cl ; add byte [eax], al ; push 0x00000000 ; push ebx ; call dword [0x1480D0A0] ;  (1 found)
0x1480a2fe: add byte [eax], cl ; add byte [esi+eax-0x48], dh ; add byte [eax], al ; add byte [eax], al ; ret  ;  (1 found)
0x1480a30b: add byte [eax], dl ; adc dword [eax+edi*4], 0x00000000 ; ret  ;  (1 found)
0x14807445: add byte [eax], dl ; add byte [eax], al ; pop ebp ; ret  ;  (1 found)
0x14801142: add byte [ebp+0x03], dh ; pop eax ; pop ebx ; ret  ;  (1 found)
0x14801138: add byte [ebp+0x04], dh ; mov eax, esp ; jmp esp ;  (1 found)
0x148077c2: add byte [ebp+0x05], dh ; or eax, 0xFFFFFFFF ; pop esi ; ret  ;  (1 found)
0x148016ab: add byte [ebp+0x09], dh ; xor eax, eax ; mov ecx, 0x148137EC ; xchg dword [ecx], eax ; pop ebp ; ret  ;  (1 found)
0x1480b6e0: add byte [ebp+0x0C], dh ; mov edx, 0x0000010B ; cmp word [ecx+0x18], dx ; sete al ; pop ebp ; ret  ;  (1 found)
0x1480bfac: add byte [ebp+0x448B0049], cl ; and al, 0x0C ; pop esi ; pop edi ; ret  ;  (1 found)
0x1480c65c: add byte [ebp+0x448B0049], cl ; and al, 0x0C ; pop esi ; pop edi ; ret  ;  (1 found)
0x148052b3: add byte [ebp+0x5350E845], cl ; call dword [0x1480D0E8] ;  (1 found)
0x1480a5d9: add byte [ebp+0x5DDDDC45], cl ; in al, dx ; fld qword [esi] ; push eax ; fstp qword [ebp-0x0C] ; call dword [0x1480D144] ;  (1 found)
0x1480a53f: add byte [ebp+0x5DDDDC45], cl ; in al, dx ; fld qword [esi] ; push eax ; fstp qword [ebp-0x0C] ; call dword [0x1480D144] ;  (1 found)
0x1480a691: add byte [ebp+0x5DDDDC45], cl ; in al, dx ; fld qword [esi] ; push eax ; fstp qword [ebp-0x0C] ; call dword [0x1480D144] ;  (1 found)
0x1480b948: add byte [ebp+0x5E], bl ; pop edi ; retn 0x0010 ;  (1 found)
0x14807441: add byte [ebp+eax+0x0D], dh ; add byte [eax], dl ; add byte [eax], al ; pop ebp ; ret  ;  (1 found)
0x148093f9: add byte [ebp-0x00140773], cl ; call dword [ecx-0x73] ;  (1 found)
0x148089c1: add byte [ebp-0x0C], dh ; pop ebp ; ret  ;  (1 found)
0x1480b5a2: add byte [ebp-0x3D], bl ; jmp dword [0x1480D058] ;  (1 found)
0x1480709e: add byte [ebp-0x3D], bl ; or eax, 0x40 ; pop ebp ; ret  ;  (1 found)
0x14801d7e: add byte [ebp-0x75], dl ; in al, dx ; push 0x00000000 ; call dword [0x1480D050] ;  (1 found)
0x14802e81: add byte [ebx+0x00FF1445], cl ; mov esp, ebp ; pop ebp ; ret  ;  (1 found)
0x1480865c: add byte [ebx+0x0375F845], cl ; mov eax, dword [ebp-0x0C] ; mov esp, ebp ; pop ebp ; ret  ;  (1 found)
0x14803d4f: add byte [ebx+0x05E8FC45], cl ; add byte [eax], al ; add byte [ecx-0x75], bl ; in eax, 0x5D ; ret  ;  (1 found)
0x14809e07: add byte [ebx+0x077400F8], al ; fld qword [0x14810F08] ; ret  ;  (1 found)
0x148083bb: add byte [ebx+0x09], dh ; mov eax, dword [0x1480ED70+eax*8] ; pop ebp ; ret  ;  (1 found)
0x14801d24: add byte [ebx+0x14813010], ah ; xor eax, eax ; pop ebx ; mov esp, ebp ; pop ebp ; ret  ;  (1 found)
0x1480729f: add byte [ebx+0x2B], bl ; ret  ;  (1 found)
0x14803c42: add byte [ebx+0x358910C4], al ; sub al, 0x3D ; adc dword [eax+esi*4], 0xE58B5E01 ; pop ebp ; ret  ;  (1 found)
0x14803d1f: add byte [ebx+0x4415FFCE], cl ; rol dword [eax-0x142900EC], 1  ; pop es ; xor eax, eax ; inc eax ; ret  ;  (1 found)
0x14809999: add byte [ebx+0x44DD10C4], al ; and al, 0x04 ; ret  ;  (1 found)
0x1480799f: add byte [ebx+0x5657144D], cl ; call dword [0x1480D144] ;  (1 found)
0x1480117b: add byte [ebx+0x56], dl ; push edi ; lea eax, dword [esp+0x20] ; push eax ; push 0x00000202 ; call dword [0x1480D12C] ;  (1 found)
0x14805e95: add byte [ebx+0x5959FC45], cl ; mov eax, dword [eax] ; mov esp, ebp ; pop ebp ; ret  ;  (1 found)
0x1480a77a: add byte [ebx+0x5B5E1CC4], al ; mov esp, ebp ; pop ebp ; ret  ;  (1 found)
0x14808a2c: add byte [ebx+0x5D5E10C4], al ; ret  ;  (1 found)
0x1480bfaf: add byte [ebx+0x5E0C2444], cl ; pop edi ; ret  ;  (1 found)
0x1480c65f: add byte [ebx+0x5E0C2444], cl ; pop edi ; ret  ;  (1 found)
0x14802378: add byte [ebx+0x5E5F18C4], al ; pop ebx ; ret  ;  (1 found)
0x14802952: add byte [ebx+0x5E5F18C4], al ; pop ebx ; ret  ;  (1 found)
0x14805c1c: add byte [ebx+0x5E5FFFC8], al ; pop ebx ; pop ebp ; ret  ;  (1 found)
0x14803731: add byte [ebx+0x74F685F0], cl ; pop ss ; push dword [ebp+0x08] ; mov ecx, esi ; call dword [0x1480D144] ;  (1 found)
0x1480283f: add byte [ebx-0x017EFB3A], al ; movsb  ; cmp eax, dword [ecx+0x5EE07514] ; pop ebp ; ret  ;  (1 found)
0x14802840: add byte [ebx-0x017EFB3A], al ; movsb  ; cmp eax, dword [ecx+0x5EE07514] ; pop ebp ; ret  ;  (1 found)
0x14806239: add byte [ebx-0x1A740001], bh ; pop ebp ; ret  ;  (1 found)
0x148096e6: add byte [ebx-0x27BA7255], ch ; push eax ; push dword [ebp-0x14] ; push ebx ; push ecx ; call dword [0x1480D0A8] ;  (1 found)
0x14802ed1: add byte [ebx-0x3974F33C], al ; pop esi ; pop ebp ; ret  ;  (1 found)
0x1480aef6: add byte [ebx-0x3B7C03AB], cl ; or al, 0x81 ; retn 0xFA00 ;  (1 found)
0x148036f3: add byte [ebx-0x3CA20038], al ; mov ecx, 0x14813D40 ; xchg dword [ecx], eax ; pop ebp ; ret  ;  (1 found)
0x14803fba: add byte [ebx-0x48F0F7B3], cl ; add al, 0x48 ; and eax, dword [ebp+0x0C] ; pop ebp ; ret  ;  (1 found)
0x14802e86: add byte [ebx-0x743CA21B], cl ; call dword [ebp-0x75] ;  (1 found)
0x14805e9c: add byte [ebx-0x743CA21B], cl ; call dword [ebp-0x75] ;  (1 found)
0x1480663b: add byte [ebx-0x743CEF3C], al ; call dword [ebp-0x75] ;  (1 found)
0x1480a2ee: add byte [ebx-0x76998036], al ; push esp ; and al, 0x06 ; fldcw word [esp+0x06] ; ret  ;  (1 found)
0x1480a1b9: add byte [ebx-0x7C27FC26], cl ; ret  ;  (1 found)
0x1480a12d: add byte [ebx-0x7C27FC26], cl ; ret  ;  (1 found)
0x14804550: add byte [ebx-0x7ECFBBF3], al ; adc al, 0xFF ; mov al, 0x01 ; ret  ;  (1 found)
0x14802512: add byte [ebx-0x7ECFDFF3], al ; adc al, 0xFF ; pop ecx ; mov al, 0x01 ; ret  ;  (1 found)
0x1480a2eb: add byte [ebx], al ; add byte [eax], al ; or edx, 0x7F ; mov word [esp+0x06], dx ; fldcw word [esp+0x06] ; ret  ;  (1 found)
0x148091d4: add byte [ebx], al ; ret  ;  (1 found)
0x148091d5: add byte [ebx], al ; ret  ;  (1 found)
0x14807367: add byte [ebx], ch ; ret  ;  (1 found)
0x1480167b: add byte [ebx], dh ; leave  ; cmp dword [eax], 0xC0000005 ; sete cl ; mov eax, ecx ; ret  ;  (1 found)
0x1480b68d: add byte [ebx], dh ; leave  ; cmp dword [eax], 0xC0000005 ; sete cl ; mov eax, ecx ; ret  ;  (1 found)
0x14808441: add byte [ebx], dh ; rcr byte [esi+0x5F], 0x0000005D ; ret  ;  (1 found)
0x14802414: add byte [ebx], dh ; sal byte [ebx], 0xFFFFFFDB ; xor ecx, ecx ; xor edx, edx ; xor edi, edi ; jmp esi ;  (1 found)
0x14805295: add byte [ecx+0x00FDE9FB], al ; add byte [edi], cl ; test byte [eax+eax-0x48F10000], bh ; ret  ;  (1 found)
0x14807843: add byte [ecx+0x148141E0], ah ; pop ecx ; mov eax, dword [esi+eax] ; add eax, 0x20 ; push eax ; call dword [0x1480D080] ;  (1 found)
0x14808061: add byte [ecx+0x53], dl ; push esi ; push dword [ebp+0x14] ; push 0x00000001 ; push edi ; call dword [0x1480D0B0] ;  (1 found)
0x148016da: add byte [ecx+0x59], bl ; mov al, 0x01 ; pop ebp ; ret  ;  (1 found)
0x14801b03: add byte [ecx+0x59], bl ; mov eax, esi ; pop esi ; pop ebp ; retn 0x0004 ;  (1 found)
0x14801b41: add byte [ecx+0x59], bl ; mov eax, esi ; pop esi ; pop ebp ; retn 0x0004 ;  (1 found)
0x14803acf: add byte [ecx+0x59], bl ; pop ebp ; ret  ;  (1 found)
0x14801449: add byte [ecx+0x59], bl ; ret  ;  (1 found)
0x14803c8f: add byte [ecx+0x59], bl ; ret  ;  (1 found)
0x14803ca1: add byte [ecx+0x59], bl ; ret  ;  (1 found)
0x14803cfc: add byte [ecx+0x59], bl ; xor eax, eax ; pop esi ; pop ebp ; ret  ;  (1 found)
0x14801964: add byte [ecx+0x5B], bl ; mov esp, ebp ; pop ebp ; ret  ;  (1 found)
0x14801d58: add byte [ecx+0x5D], bl ; ret  ;  (1 found)
0x14804310: add byte [ecx+0x5D], bl ; ret  ;  (1 found)
0x148024ca: add byte [ecx+0x5D], bl ; retn 0x0004 ;  (1 found)
0x148062d9: add byte [ecx+0x5E], bl ; pop ebp ; ret  ;  (1 found)
0x14807870: add byte [ecx+0x5E], bl ; ret  ;  (1 found)
0x14803064: add byte [ecx+0x5F], bl ; pop esi ; pop ebp ; ret  ;  (1 found)
0x1480b680: add byte [ecx+0x5F], bl ; pop esi ; pop ebx ; mov esp, ebp ; pop ebp ; ret  ;  (1 found)
0x1480b6b1: add byte [ecx+0x5F], bl ; pop esi ; pop ebx ; mov esp, ebp ; pop ebp ; ret  ;  (1 found)
0x14802c24: add byte [ecx+eax*4], bh ; adc al, 0x33 ; call dword [esi+0x57] ;  (1 found)
0x1480170e: add byte [ecx-0x09], bl ; fcomp dword [ecx+0x1B] ; sal bh, 0xFFFFFFD0 ; and eax, dword [ebp+0x08] ; pop ebp ; ret  ;  (1 found)
0x14803e4e: add byte [ecx-0x0A], bl ; add eax, 0x14813040 ; add dh, byte [edx+0x6A] ; pop ss ; call dword [0x1480D058] ;  (1 found)
0x14803634: add byte [ecx-0x3D], bl ; xor eax, eax ; mov ecx, 0x14813D3C ; inc eax ; xchg dword [ecx], eax ; ret  ;  (1 found)
0x14803d57: add byte [ecx-0x75], bl ; in eax, 0x5D ; ret  ;  (1 found)
0x14802d0b: add byte [ecx-0x75], bl ; ret  ;  (1 found)
0x14803c77: add byte [ecx-0x77], bl ; pop edi ; pop esi ; pop ebp ; retn 0x0004 ;  (1 found)
0x14803d90: add byte [ecx-0x77], bl ; push es ; pop esi ; pop ebp ; ret  ;  (1 found)
0x14806604: add byte [ecx], al ; add byte [eax], al ; add esp, 0x10 ; ret  ;  (1 found)
0x1480b59f: add byte [ecx], al ; add byte [eax], al ; pop ebp ; ret  ;  (1 found)
0x148084ba: add byte [ecx], cl ; add byte [eax], al ; add al, ch ; pop esp ; retn 0xFFFF ;  (1 found)
0x1480a293: add byte [edi+0x07], bh ; mov byte [ebp-0x00000090], 0x00000001 ; or cl, cl ; ret  ;  (1 found)
0x14809965: add byte [edi+0x0B], bh ; movq qword [esp+0x04], xmm1 ; fld qword [esp+0x04] ; ret  ;  (1 found)
0x14808cb6: add byte [edi+0x57], dl ; push ebx ; push dword [ebp-0x24] ; push 0x00000009 ; push esi ; call dword [0x1480D0B0] ;  (1 found)
0x14802259: add byte [edi+0x5D], bl ; ret  ;  (1 found)
0x1480103a: add byte [edi+0x5E], bl ; pop ebx ; pop ebp ; ret  ;  (1 found)
0x14809e0a: add byte [edi+eax-0x23], dh ; add eax, 0x14810F08 ; ret  ;  (1 found)
0x148044f0: add byte [edi-0x15], dl ; fldcw word [eax-0x24] ; inc eax ; adc dword [edi+edx*2], 0xFFFC3FE8 ; call dword [ebx-0x18] ;  (1 found)
0x148099c0: add byte [edi-0x50], bh ; andpd xmm0,  [0x14810E10] ; addsd xmm1, xmm0 ; movq qword [esp+0x04], xmm1 ; fld qword [esp+0x04] ; ret  ;  (1 found)
0x148052a1: add byte [edi], cl ; mov bh, 0xC3 ; push eax ; call dword [0x1480D0E0] ;  (1 found)
0x1480119c: add byte [edi], cl ; pop ds ; add byte [edx+0x06], ch ; push 0x00000001 ; push 0x00000002 ; call dword [0x1480D128] ;  (1 found)
0x1480529b: add byte [edi], cl ; test byte [eax+eax-0x48F10000], bh ; ret  ;  (1 found)
0x1480346e: add byte [edi], cl ; xchg eax, ebp ; rol bl, 0xFFFFFF8B ; call dword [ebp-0x75] ;  (1 found)
0x1480123d: add byte [edx+0x00], ch ; call ebx ;  (1 found)
0x1480120e: add byte [edx+0x00], ch ; call ebx ;  (1 found)
0x14801203: add byte [edx+0x00], ch ; push 0x00000000 ; push 0x14801150 ; push 0x00000000 ; push 0x00000000 ; call ebx ;  (1 found)
0x14801205: add byte [edx+0x00], ch ; push 0x14801150 ; push 0x00000000 ; push 0x00000000 ; call ebx ;  (1 found)
0x14802878: add byte [edx+0x00], ch ; push 0x14802889 ; push dword [ebp+0x08] ; call dword [0x1480D06C] ;  (1 found)
0x14801233: add byte [edx+0x00], ch ; push eax ; push 0x14801040 ; push 0x00000000 ; push 0x00000000 ; call ebx ;  (1 found)
0x148025dd: add byte [edx+0x00], ch ; push ebx ; call dword [0x1480D0A0] ;  (1 found)
0x14806679: add byte [edx+0x00], ch ; push ebx ; call dword [0x1480D0A0] ;  (1 found)
0x14801228: add byte [edx+0x00], ch ; push edi ; call dword [0x1480D138] ;  (1 found)
0x1480119f: add byte [edx+0x06], ch ; push 0x00000001 ; push 0x00000002 ; call dword [0x1480D128] ;  (1 found)
0x1480359a: add byte [edx+0x16], ch ; pop eax ; pop ebp ; ret  ;  (1 found)
0x1480bdb7: add byte [edx+0x47880346], cl ; add ecx, dword [edx+0x47880246] ; add cl, byte [ebx+0x5E0C2444] ; pop edi ; ret  ;  (1 found)
0x1480c467: add byte [edx+0x47880346], cl ; add ecx, dword [edx+0x47880246] ; add cl, byte [ebx+0x5E0C2444] ; pop edi ; ret  ;  (1 found)
0x1480242b: add byte [edx+0x68], dl ; cmp dword [eax+eax*4], esp ; adc al, 0x51 ; call dword [0x1480D06C] ;  (1 found)
0x14804e17: add byte [edx+ecx-0x75], dh ; dec ebp ; lock and dword [ecx+0x00000350], 0xFFFFFFFD ; mov esp, ebp ; pop ebp ; ret  ;  (1 found)
0x148088bb: add byte [edx+ecx-0x75], dh ; dec ebp ; lock and dword [ecx+0x00000350], 0xFFFFFFFD ; mov esp, ebp ; pop ebp ; ret  ;  (1 found)
0x14808dc6: add byte [edx+ecx-0x75], dh ; dec ebp ; lock and dword [ecx+0x00000350], 0xFFFFFFFD ; mov esp, ebp ; pop ebp ; ret  ;  (1 found)
0x148081df: add byte [edx+ecx-0x75], dh ; dec ebp ; lock and dword [ecx+0x00000350], 0xFFFFFFFD ; mov esp, ebp ; pop ebp ; ret  ;  (1 found)
0x14805e74: add byte [edx-0x23], dh ; mov al, 0x01 ; pop esi ; ret  ;  (1 found)
0x1480a39d: add byte [edx-0x3D], bl ; fldcw word [esp] ; pop edx ; ret  ;  (1 found)
0x1480a402: add byte [edx-0x3D], bl ; fldcw word [esp] ; pop edx ; ret  ;  (1 found)
0x1480b547: add byte [edx], al ; add byte [eax], al ; pop ebp ; ret  ;  (1 found)
0x14809e02: add byte [esi+0x0F], ah ; lds eax, edx ; add byte [ebx+0x077400F8], al ; fld qword [0x14810F08] ; ret  ;  (1 found)
0x14802c22: add byte [esi+0x14813C00], bh ; xor edi, edi ; push esi ; push edi ; call dword [0x1480D0AC] ;  (1 found)
0x14802278: add byte [esi+0x5D], bl ; ret  ;  (1 found)
0x1480a300: add byte [esi+eax-0x48], dh ; add byte [eax], al ; add byte [eax], al ; ret  ;  (1 found)
0x148011d1: add byte [esi-0x77], ah ; inc esp ; and al, 0x14 ; call dword [0x1480D11C] ;  (1 found)
0x14807146: add byte [esi-0x7B], ah ; retn 0x0674 ;  (1 found)
0x14807204: add byte [esi-0x7B], ah ; retn 0x0674 ;  (1 found)
0x148083e7: add byte [esi], dl ; add byte [eax], al ; add al, ch ; das  ; ret  ;  (1 found)
0x148033dd: add byte [esp+eax-0x75], dh ; in eax, 0x5D ; ret  ;  (1 found)
0x14807370: add byte [esp+ecx+0x2B], dh ; ret  ;  (1 found)
0x148072a9: add byte [esp+ecx+0x2B], dh ; ret  ;  (1 found)
0x148054f5: add ch, bh ; mov eax, edx ; mov esp, ebp ; pop ebp ; ret  ;  (1 found)
0x1480758c: add ch, bh ; mov eax, edx ; pop ebx ; mov esp, ebp ; pop ebp ; ret  ;  (1 found)
0x14807f7b: add ch, bh ; mov eax, esi ; pop esi ; mov esp, ebp ; pop ebp ; ret  ;  (1 found)
0x14804e22: add ch, bh ; mov esp, ebp ; pop ebp ; ret  ;  (1 found)
0x148088c6: add ch, bh ; mov esp, ebp ; pop ebp ; ret  ;  (1 found)
0x14808dd1: add ch, bh ; mov esp, ebp ; pop ebp ; ret  ;  (1 found)
0x148081ea: add ch, bh ; mov esp, ebp ; pop ebp ; ret  ;  (1 found)
0x1480b53e: add ch, bl ; add ch, byte [edx+0x04] ; pop eax ; pop ebp ; ret  ;  (1 found)
0x14809f37: add ch, bl ; fcomp st0, st5 ; fcomp st0, st3 ; sub eax, 0x14810F60 ; mov byte [ebp-0x00000090], 0x00000002 ; ret  ;  (1 found)
0x14809ffe: add ch, bl ; fcomp st0, st5 ; fcomp st0, st3 ; sub eax, 0x14810F60 ; mov byte [ebp-0x00000090], 0x00000003 ; ret  ;  (1 found)
0x14809e8e: add ch, bl ; inc esp ; and al, 0x10 ; add esp, 0x1C ; ret  ;  (1 found)
0x1480b540: add ch, byte [edx+0x04] ; pop eax ; pop ebp ; ret  ;  (1 found)
0x14805d8c: add ch, byte [edx-0x0A] ; pop eax ; push eax ; call dword [0x1480D0A4] ;  (1 found)
0x1480a1c7: add cl, bl ; leave  ; fstp st0 ; ret  ;  (1 found)
0x1480bd28: add cl, byte [eax+0x448B0247] ; and al, 0x0C ; pop esi ; pop edi ; ret  ;  (1 found)
0x1480bdc0: add cl, byte [eax+0x448B0247] ; and al, 0x0C ; pop esi ; pop edi ; ret  ;  (1 found)
0x1480c3d8: add cl, byte [eax+0x448B0247] ; and al, 0x0C ; pop esi ; pop edi ; ret  ;  (1 found)
0x1480c470: add cl, byte [eax+0x448B0247] ; and al, 0x0C ; pop esi ; pop edi ; ret  ;  (1 found)
0x1480bdd4: add cl, byte [eax+0x468A0247] ; add dword [eax+0x448B0147], ecx ; and al, 0x0C ; pop esi ; pop edi ; ret  ;  (1 found)
0x1480c484: add cl, byte [eax+0x468A0247] ; add dword [eax+0x448B0147], ecx ; and al, 0x0C ; pop esi ; pop edi ; ret  ;  (1 found)
0x148073a3: add cl, byte [ebx+0x5B5E5FC6] ; mov esp, ebp ; pop ebp ; ret  ;  (1 found)
0x1480bd2b: add cl, byte [ebx+0x5E0C2444] ; pop edi ; ret  ;  (1 found)
0x1480bdc3: add cl, byte [ebx+0x5E0C2444] ; pop edi ; ret  ;  (1 found)
0x1480c3db: add cl, byte [ebx+0x5E0C2444] ; pop edi ; ret  ;  (1 found)
0x1480c473: add cl, byte [ebx+0x5E0C2444] ; pop edi ; ret  ;  (1 found)
0x148055b8: add cl, byte [ebx+0x74F685DF] ; pop es ; push esi ; call dword [0x1480D0F0] ;  (1 found)
0x1480c7e0: add cl, byte [ebx-0x36A00339] ; ret  ;  (1 found)
0x14806ed9: add cl, byte [ebx-0x763D74F0] ; inc ebp ; fdiv qword [ebx] ; rol byte [ebx-0x6BF0FE08], cl ; retn 0x5589 ;  (1 found)
0x14807022: add cl, byte [ebx] ; ret  ;  (1 found)
0x14803f11: add cl, byte [edi] ; mov bh, 0x09 ; sub eax, ecx ; pop esi ; pop ebp ; ret  ;  (1 found)
0x1480bdd7: add cl, byte [edx+0x47880146] ; add dword [ebx+0x5E0C2444], ecx ; pop edi ; ret  ;  (1 found)
0x1480c487: add cl, byte [edx+0x47880146] ; add dword [ebx+0x5E0C2444], ecx ; pop edi ; ret  ;  (1 found)
0x14809c55: add cl, cl ; ret  ;  (1 found)
0x14802274: add dh, al ; inc esi ; add al, 0x00 ; pop esi ; pop ebp ; ret  ;  (1 found)
0x14802273: add dh, al ; inc esi ; add al, 0x00 ; pop esi ; pop ebp ; ret  ;  (1 found)
0x1480bccf: add dh, bl ; movsd  ; and edx, 0x03 ; jmp dword [0x1480BCE4+edx*4] ;  (1 found)
0x1480c37f: add dh, bl ; movsd  ; and edx, 0x03 ; jmp dword [0x1480C394+edx*4] ;  (1 found)
0x1480a4ab: add dh, byte [ebx+eax-0x27] ; insd  ; or cl, cl ; ret  ;  (1 found)
0x1480a373: add dh, byte [ebx+eax-0x27] ; sub al, 0x24 ; pop edx ; ret  ;  (1 found)
0x1480a92a: add dh, byte [ebx] ; rcr byte [edi+0x5E], 0x0000005D ; ret  ;  (1 found)
0x14803e56: add dh, byte [edx+0x6A] ; pop ss ; call dword [0x1480D058] ;  (1 found)
0x1480aeb6: add dh, dh ; ret  ;  (1 found)
0x1480ae13: add dh, dh ; ret  ;  (1 found)
0x1480b0ee: add dh, dh ; retn 0x7420 ;  (1 found)
0x14801d45: add dh, dl ; ret  ;  (1 found)
0x14801a63: add dl, dh ; ret  ;  (1 found)
0x1480b7e6: add dl, dh ; ret  ;  (1 found)
0x1480bd0e: add dword [eax+0x448B0147], ecx ; and al, 0x0C ; pop esi ; pop edi ; ret  ;  (1 found)
0x1480bdda: add dword [eax+0x448B0147], ecx ; and al, 0x0C ; pop esi ; pop edi ; ret  ;  (1 found)
0x1480c3be: add dword [eax+0x448B0147], ecx ; and al, 0x0C ; pop esi ; pop edi ; ret  ;  (1 found)
0x1480c48a: add dword [eax+0x448B0147], ecx ; and al, 0x0C ; pop esi ; pop edi ; ret  ;  (1 found)
0x1480bd22: add dword [eax+0x468A0147], ecx ; add cl, byte [eax+0x448B0247] ; and al, 0x0C ; pop esi ; pop edi ; ret  ;  (1 found)
0x1480c3d2: add dword [eax+0x468A0147], ecx ; add cl, byte [eax+0x448B0247] ; and al, 0x0C ; pop esi ; pop edi ; ret  ;  (1 found)
0x14801602: add dword [eax-0x1A74A1FF], esi ; pop ebp ; ret  ;  (1 found)
0x1480b59e: add dword [eax], 0x5D000001 ; ret  ;  (1 found)
0x14804df3: add dword [eax], eax ; add byte [eax], al ; call dword [0x1480D0C8] ;  (1 found)
0x14804ddc: add dword [eax], eax ; add byte [eax], al ; call dword [0x1480D0E4] ;  (1 found)
0x1480191f: add dword [eax], eax ; add byte [eax], al ; mov dword [ebp-0x4C], eax ; call dword [0x1480D048] ;  (1 found)
0x14801217: add dword [eax], eax ; add byte [eax], al ; push 0x7FFFFFFF ; push edi ; call dword [0x1480D124] ;  (1 found)
0x1480616a: add dword [eax], eax ; add byte [eax], al ; push eax ; push ebx ; call dword [0x1480D0B0] ;  (1 found)
0x14807fe7: add dword [eax], eax ; add byte [eax], al ; push eax ; push edi ; call dword [0x1480D0B0] ;  (1 found)
0x14802978: add dword [eax], eax ; add byte [eax], al ; ret  ;  (1 found)
0x1480a082: add dword [eax], eax ; add byte [eax], al ; ret  ;  (1 found)
0x1480b5a0: add dword [eax], eax ; add byte [ebp-0x3D], bl ; jmp dword [0x1480D058] ;  (1 found)
0x14803c40: add dword [eax], eax ; add byte [ebx+0x358910C4], al ; sub al, 0x3D ; adc dword [eax+esi*4], 0xE58B5E01 ; pop ebp ; ret  ;  (1 found)
0x14801d56: add dword [eax], eax ; add byte [ecx+0x5D], bl ; ret  ;  (1 found)
0x148062d7: add dword [eax], eax ; add byte [ecx+0x5E], bl ; pop ebp ; ret  ;  (1 found)
0x14802c20: add dword [eax], eax ; add byte [esi+0x14813C00], bh ; xor edi, edi ; push esi ; push edi ; call dword [0x1480D0AC] ;  (1 found)
0x1480ae11: add dword [eax], eax ; add dh, dh ; ret  ;  (1 found)
0x14803409: add dword [ebp+0x10], esi ; push dword [ebp+0x08] ; call dword [0x1480D060] ;  (1 found)
0x14808ff2: add dword [ebp+0x5150E845], ecx ; push dword [ebp-0x38] ; call dword [0x1480D0B4] ;  (1 found)
0x14802643: add dword [ebp+0x560774C0], eax ; call dword [0x1480D098] ;  (1 found)
0x148066df: add dword [ebp+0x560774C0], eax ; call dword [0x1480D098] ;  (1 found)
0x1480acee: add dword [ebp+eax+0x6A], esi ; add ebx, dword [eax+0x5D] ; ret  ;  (1 found)
0x14804e85: add dword [ebp-0x0B], esi ; pop edi ; pop esi ; pop ebx ; pop ebp ; ret  ;  (1 found)
0x1480bec1: add dword [ebp-0x0F], esi ; mov eax, dword [esp+0x0C] ; pop esi ; pop edi ; ret  ;  (1 found)
0x1480c571: add dword [ebp-0x0F], esi ; mov eax, dword [esp+0x0C] ; pop esi ; pop edi ; ret  ;  (1 found)
0x14802581: add dword [ebp-0x15], esi ; pop edi ; mov al, 0x01 ; pop esi ; ret  ;  (1 found)
0x148059b9: add dword [ebp-0x15], esi ; pop edi ; mov al, 0x01 ; pop esi ; ret  ;  (1 found)
0x14807a42: add dword [ebp-0x15], esi ; pop esi ; pop edi ; pop ebp ; ret  ;  (1 found)
0x148036ff: add dword [ebp-0x3D], ebx ; mov eax, 0x14813D44 ; ret  ;  (1 found)
0x1480bacb: add dword [ebx+0x09], esi ; rep movsb  ; mov eax, dword [esp+0x0C] ; pop esi ; pop edi ; ret  ;  (1 found)
0x1480c17b: add dword [ebx+0x09], esi ; rep movsb  ; mov eax, dword [esp+0x0C] ; pop esi ; pop edi ; ret  ;  (1 found)
0x148020d9: add dword [ebx+0x09], esi ; rep stosb  ; mov eax, dword [esp+0x04] ; mov edi, edx ; ret  ;  (1 found)
0x1480bd11: add dword [ebx+0x5E0C2444], ecx ; pop edi ; ret  ;  (1 found)
0x1480bddd: add dword [ebx+0x5E0C2444], ecx ; pop edi ; ret  ;  (1 found)
0x1480c3c1: add dword [ebx+0x5E0C2444], ecx ; pop edi ; ret  ;  (1 found)
0x1480c48d: add dword [ebx+0x5E0C2444], ecx ; pop edi ; ret  ;  (1 found)
0x148059fe: add dword [ebx+eax+0x33], esi ; test byte [esi-0x75], 0xFFFFFFC6 ; pop esi ; mov esp, ebp ; pop ebp ; ret  ;  (1 found)
0x14804d6a: add dword [ebx-0x74FF74FA], ecx ; inc eax ; dec eax ; lock inc dword [eax] ; pop esi ; ret  ;  (1 found)
0x148035a6: add dword [ebx], esi ; rcr byte [ebp-0x3D], 0xFFFFFFFF ; adc eax, 0x1480D0C0 ; mov dword [0x14813D30], eax ; call dword [0x1480D0C4] ;  (1 found)
0x14801b11: add dword [ecx+edx*8-0x17AFEB80], edx ; inc ecx ; pop es ; add byte [eax], al ; pop ecx ; ret  ;  (1 found)
0x1480b0c1: add dword [edi+eax-0x75], esi ; dec ebp ; or byte [ebx-0x09EFF3B7], al ; retn 0x7404 ;  (1 found)
0x14806ee5: add dword [edi], ecx ; xchg eax, esp ; retn 0x5589 ;  (1 found)
0x1480b207: add dword [edx+0x00], ebp ; push edi ; call dword [0x1480D068] ;  (1 found)
0x148011a3: add dword [edx+0x02], ebp ; call dword [0x1480D128] ;  (1 found)
0x1480bd25: add dword [edx+0x47880246], ecx ; add cl, byte [ebx+0x5E0C2444] ; pop edi ; ret  ;  (1 found)
0x1480c3d5: add dword [edx+0x47880246], ecx ; add cl, byte [ebx+0x5E0C2444] ; pop edi ; ret  ;  (1 found)
0x148086b9: add dword [edx-0x743CA23F], ecx ; call dword [ebp-0x75] ;  (1 found)
0x1480a29c: add dword [edx], ecx ; leave  ; ret  ;  (1 found)
0x14805c69: add dword [esi+eax-0x75], esi ; inc esp ; or byte [eax], bl ; pop ebp ; ret  ;  (1 found)
0x14801604: add dword [esi-0x75], ebx ; in eax, 0x5D ; ret  ;  (1 found)
0x14803c4d: add dword [esi-0x75], ebx ; in eax, 0x5D ; ret  ;  (1 found)
0x14805cfb: add dword [esp+esi-0x0A], esi ; retn 0x7508 ;  (1 found)
0x14802374: add eax, 0x00000000 ; add esp, 0x18 ; pop edi ; pop esi ; pop ebx ; ret  ;  (1 found)
0x14803cf7: add eax, 0x0033B0E8 ; add byte [ecx+0x59], bl ; xor eax, eax ; pop esi ; pop ebp ; ret  ;  (1 found)
0x14804799: add eax, 0x08 ; pop ebp ; ret  ;  (1 found)
0x14806e01: add eax, 0x08 ; ret  ;  (1 found)
0x1480a965: add eax, 0x0C ; xchg dword [eax], ecx ; pop ebp ; ret  ;  (1 found)
0x148047ec: add eax, 0x10 ; ret  ;  (1 found)
0x148047d9: add eax, 0x14 ; ret  ;  (1 found)
0x148099c6: add eax, 0x14810E10 ; addsd xmm1, xmm0 ; movq qword [esp+0x04], xmm1 ; fld qword [esp+0x04] ; ret  ;  (1 found)
0x148099db: add eax, 0x14810E50 ; ret  ;  (1 found)
0x14809e0e: add eax, 0x14810F08 ; ret  ;  (1 found)
0x1480a214: add eax, 0x14810FDE ; ret  ;  (1 found)
0x1480a2b5: add eax, 0x14810FE6 ; fmulp st1, st0 ; ret  ;  (1 found)
0x1480a30a: add eax, 0x14811000 ; mov eax, 0x00000000 ; ret  ;  (1 found)
0x1480183a: add eax, 0x14813004 ; sete al ; ret  ;  (1 found)
0x14802861: add eax, 0x14813014 ; mov dword [0x14813BB8], eax ; ret  ;  (1 found)
0x1480259f: add eax, 0x14813014 ; pop ebp ; ret  ;  (1 found)
0x14802b4e: add eax, 0x14813014 ; pop ebp ; ret  ;  (1 found)
0x14803e51: add eax, 0x14813040 ; add dh, byte [edx+0x6A] ; pop ss ; call dword [0x1480D058] ;  (1 found)
0x148015fd: add eax, 0x14813808 ; add dword [eax-0x1A74A1FF], esi ; pop ebp ; ret  ;  (1 found)
0x14801d1c: add eax, 0x1481382C ; add eax, 0xA3000000 ; adc byte [eax], dh ; adc dword [ebx+esi], 0xE58B5BC0 ; pop ebp ; ret  ;  (1 found)
0x14804dee: add eax, 0x14813D74 ; add dword [eax], eax ; add byte [eax], al ; call dword [0x1480D0C8] ;  (1 found)
0x14804dd7: add eax, 0x14813D74 ; add dword [eax], eax ; add byte [eax], al ; call dword [0x1480D0E4] ;  (1 found)
0x14805982: add eax, 0x14813D80 ; push eax ; call dword [0x1480D078] ;  (1 found)
0x148059ca: add eax, 0x14813D80 ; push eax ; call dword [0x1480D07C] ;  (1 found)
0x14801d34: add eax, 0x148141F0 ; setne al ; ret  ;  (1 found)
0x1480787c: add eax, 0x20 ; push eax ; call dword [0x1480D078] ;  (1 found)
0x14807890: add eax, 0x20 ; push eax ; call dword [0x1480D07C] ;  (1 found)
0x1480892a: add eax, 0x20 ; push eax ; call dword [0x1480D080] ;  (1 found)
0x1480784d: add eax, 0x20 ; push eax ; call dword [0x1480D080] ;  (1 found)
0x1480b0ad: add eax, 0x4133D0F7 ; or byte [ebx], ah ; ret  ;  (1 found)
0x14803d54: add eax, 0x59000000 ; mov esp, ebp ; pop ebp ; ret  ;  (1 found)
0x14809b7f: add eax, 0x59FFFFDD ; ret  ;  (1 found)
0x1480acdf: add eax, 0x5D40C033 ; ret  ;  (1 found)
0x1480b537: add eax, 0x5D40C033 ; ret  ;  (1 found)
0x1480b4c7: add eax, 0x5D58026A ; ret  ;  (1 found)
0x1480acf0: add eax, 0x5D58036A ; ret  ;  (1 found)
0x14804784: add eax, 0x5D580D6A ; ret  ;  (1 found)
0x148047fc: add eax, 0x5DFFC883 ; ret  ;  (1 found)
0x148077c4: add eax, 0x5EFFC883 ; ret  ;  (1 found)
0x14803076: add eax, 0x5FFFC883 ; ret  ;  (1 found)
0x148087a7: add eax, 0x74C00000 ; or eax, dword [ecx+0x00001D38] ; sal byte [ebx+eax+0x33], 0xFFFFFFC0 ; ret  ;  (1 found)
0x14808359: add eax, 0x74D03B66 ; retn 0x4D8B ;  (1 found)
0x14808210: add eax, 0x83000000 ; les edx,  [eax] ; pop ebp ; ret  ;  (1 found)
0x148075ef: add eax, 0x8966C933 ; or byte [ebx], dh ; rcr byte [esi+0x5B], 0xFFFFFF8B ; in eax, 0x5D ; ret  ;  (1 found)
0x14801d21: add eax, 0xA3000000 ; adc byte [eax], dh ; adc dword [ebx+esi], 0xE58B5BC0 ; pop ebp ; ret  ;  (1 found)
0x148012f6: add eax, 0xC0330000 ; ret  ;  (1 found)
0x14802412: add eax, 0xC0330000 ; xor ebx, ebx ; xor ecx, ecx ; xor edx, edx ; xor edi, edi ; jmp esi ;  (1 found)
0x1480a778: add eax, 0xC4830000 ; sbb al, 0x5E ; pop ebx ; mov esp, ebp ; pop ebp ; ret  ;  (1 found)
0x1480b2c5: add eax, 0xDD5041DD ; sbb ebx, dword [edi+0x5B] ; pop ebp ; ret  ;  (1 found)
0x148012f0: add eax, 0xE8CC0000 ; and dword [0xC0330000], eax ; ret  ;  (1 found)
0x14804ef9: add eax, 0xFFFFFEFC ; and byte [eax+0x3B], al ; retn 0xEF76 ;  (1 found)
0x14805b61: add eax, dword [0x14813ED8+ecx*4] ; push eax ; call dword [0x1480D078] ;  (1 found)
0x14805b84: add eax, dword [0x14813ED8+ecx*4] ; push eax ; call dword [0x1480D07C] ;  (1 found)
0x148023c1: add eax, dword [eax] ; add byte [eax], al ; ret  ;  (1 found)
0x148028d1: add eax, dword [eax] ; add byte [eax], al ; ret  ;  (1 found)
0x1480a2ec: add eax, dword [eax] ; add byte [ebx-0x76998036], al ; push esp ; and al, 0x06 ; fldcw word [esp+0x06] ; ret  ;  (1 found)
0x148054f3: add eax, dword [eax] ; add ch, bh ; mov eax, edx ; mov esp, ebp ; pop ebp ; ret  ;  (1 found)
0x14804e20: add eax, dword [eax] ; add ch, bh ; mov esp, ebp ; pop ebp ; ret  ;  (1 found)
0x148088c4: add eax, dword [eax] ; add ch, bh ; mov esp, ebp ; pop ebp ; ret  ;  (1 found)
0x14808dcf: add eax, dword [eax] ; add ch, bh ; mov esp, ebp ; pop ebp ; ret  ;  (1 found)
0x148081e8: add eax, dword [eax] ; add ch, bh ; mov esp, ebp ; pop ebp ; ret  ;  (1 found)
0x14802e7e: add eax, dword [ebx+0x458B0021] ; adc al, 0xFF ; add byte [ebx-0x743CA21B], cl ; call dword [ebp-0x75] ;  (1 found)
0x1480bd7d: add eax, dword [ebx-0x107CFB12] ; add al, 0xFD ; rep movsd  ; cld  ; jmp dword [0x1480BD90+edx*4] ;  (1 found)
0x1480c42d: add eax, dword [ebx-0x107CFB12] ; add al, 0xFD ; rep movsd  ; cld  ; jmp dword [0x1480C440+edx*4] ;  (1 found)
0x1480acfc: add eax, eax ; pop ebp ; ret  ;  (1 found)
0x14806602: add eax, ebp ; add byte [ecx], al ; add byte [eax], al ; add esp, 0x10 ; ret  ;  (1 found)
0x14805683: add eax, ebp ; cli  ; out 0xFF, eax ; call dword [ebx-0x5D] ;  (1 found)
0x1480943a: add eax, ebx ; push eax ; push dword [ebp-0x00001410] ; call dword [0x1480D0A8] ;  (1 found)
0x14808f2b: add eax, edi ; mov dword [ebp-0x28], eax ; call dword [0x1480D018] ;  (1 found)
0x1480c733: add eax, edi ; test ecx, ecx ; cmove eax, edx ; pop edi ; leave  ; ret  ;  (1 found)
0x1480c05a: add eax, edx ; movd edx, xmm3 ; xor ecx, ecx ; cmp dl, byte [eax] ; cmovne eax, ecx ; ret  ;  (1 found)
0x1480a974: add ebp, dword [eax+0x00] ; add byte [eax], al ; inc eax ; push 0x14811078 ; call dword [0x1480D004] ;  (1 found)
0x1480549c: add ebp, dword [edx+0x16] ; pop eax ; pop edi ; pop esi ; pop ebp ; ret  ;  (1 found)
0x1480a132: add ebx, 0x10 ; jmp dword [ebx] ;  (1 found)
0x1480a1be: add ebx, 0x10 ; jmp dword [ebx] ;  (1 found)
0x14801144: add ebx, dword [eax+0x5B] ; ret  ;  (1 found)
0x1480acf2: add ebx, dword [eax+0x5D] ; ret  ;  (1 found)
0x1480a130: add ebx, eax ; add ebx, 0x10 ; jmp dword [ebx] ;  (1 found)
0x1480a1bc: add ebx, eax ; add ebx, 0x10 ; jmp dword [ebx] ;  (1 found)
0x148035c2: add ebx, eax ; mov al, 0x01 ; ret  ;  (1 found)
0x148035c5: add ebx, eax ; mov eax, 0x14813D24 ; ret  ;  (1 found)
0x1480b826: add ebx, eax ; mov eax, dword [esp+0x08] ; mul ecx ; add edx, ebx ; pop ebx ; retn 0x0010 ;  (1 found)
0x1480a367: add ebx, eax ; mov eax, dword [esp+0x08] ; ret  ;  (1 found)
0x1480a4ad: add ebx, ecx ; insd  ; or cl, cl ; ret  ;  (1 found)
0x1480a375: add ebx, ecx ; sub al, 0x24 ; pop edx ; ret  ;  (1 found)
0x1480bdaa: add ecx, dword [eax+0x448B0347] ; and al, 0x0C ; pop esi ; pop edi ; ret  ;  (1 found)
0x1480c45a: add ecx, dword [eax+0x448B0347] ; and al, 0x0C ; pop esi ; pop edi ; ret  ;  (1 found)
0x1480bdba: add ecx, dword [eax+0x468A0347] ; add cl, byte [eax+0x448B0247] ; and al, 0x0C ; pop esi ; pop edi ; ret  ;  (1 found)
0x1480c46a: add ecx, dword [eax+0x468A0347] ; add cl, byte [eax+0x448B0247] ; and al, 0x0C ; pop esi ; pop edi ; ret  ;  (1 found)
0x1480799c: add ecx, dword [ebp+0x4D8B0049] ; adc al, 0x57 ; push esi ; call dword [0x1480D144] ;  (1 found)
0x1480bdad: add ecx, dword [ebx+0x5E0C2444] ; pop edi ; ret  ;  (1 found)
0x1480c45d: add ecx, dword [ebx+0x5E0C2444] ; pop edi ; ret  ;  (1 found)
0x14808661: add ecx, dword [ebx-0x1A740BBB] ; pop ebp ; ret  ;  (1 found)
0x1480bdbd: add ecx, dword [edx+0x47880246] ; add cl, byte [ebx+0x5E0C2444] ; pop edi ; ret  ;  (1 found)
0x1480c46d: add ecx, dword [edx+0x47880246] ; add cl, byte [ebx+0x5E0C2444] ; pop edi ; ret  ;  (1 found)
0x1480bdd1: add ecx, dword [edx+0x47880246] ; add cl, byte [edx+0x47880146] ; add dword [ebx+0x5E0C2444], ecx ; pop edi ; ret  ;  (1 found)
0x1480c481: add ecx, dword [edx+0x47880246] ; add cl, byte [edx+0x47880146] ; add dword [ebx+0x5E0C2444], ecx ; pop edi ; ret  ;  (1 found)
0x14807afd: add edi, ecx ; push edi ; push ecx ; mov ecx, ebx ; call dword [0x1480D144] ;  (1 found)
0x1480c384: add edi, edi ; and al, 0x95 ; xchg eax, esp ; ret  ;  (1 found)
0x1480a971: add edx, dword [eax+0x6A] ; add ebp, dword [eax+0x00] ; add byte [eax], al ; inc eax ; push 0x14811078 ; call dword [0x1480D004] ;  (1 found)
0x1480701c: add edx, dword [edi-0x0A] ; ror dword [eax], 0x74 ; add cl, byte [ebx] ; ret  ;  (1 found)
0x14803a1c: add edx, ebx ; into  ; mov ecx, esi ; call dword [0x1480D144] ;  (1 found)
0x1480b82e: add edx, ebx ; pop ebx ; retn 0x0010 ;  (1 found)
0x14803a14: add esi, dword [ebp+esi*8-0x75] ; xor esi, dword [ebx] ; mov dword [ebx], eax ; ror esi, cl ; mov ecx, esi ; call dword [0x1480D144] ;  (1 found)
0x14805a00: add esi, dword [ebx] ; test byte [esi-0x75], 0xFFFFFFC6 ; pop esi ; mov esp, ebp ; pop ebp ; ret  ;  (1 found)
0x14802255: add esi, eax ; inc ecx ; add al, 0x00 ; pop edi ; pop ebp ; ret  ;  (1 found)
0x14803367: add esp, 0x04 ; ret  ;  (1 found)
0x1480a34c: add esp, 0x0A ; test eax, 0x00000000 ; mov eax, dword [edx+0x04] ; ret  ;  (1 found)
0x14801912: add esp, 0x0C ; mov dword [ebp-0x58], 0x40000015 ; mov dword [ebp-0x54], 0x00000001 ; mov dword [ebp-0x4C], eax ; call dword [0x1480D048] ;  (1 found)
0x14802ed2: add esp, 0x0C ; mov eax, esi ; pop esi ; pop ebp ; ret  ;  (1 found)
0x1480b399: add esp, 0x0C ; mov esp, ebp ; pop ebp ; ret  ;  (1 found)
0x148075a7: add esp, 0x0C ; neg eax ; sbb eax, eax ; neg eax ; pop ebp ; ret  ;  (1 found)
0x1480351b: add esp, 0x0C ; pop ebp ; ret  ;  (1 found)
0x14803569: add esp, 0x0C ; pop ebp ; ret  ;  (1 found)
0x14803ff5: add esp, 0x0C ; pop ebp ; ret  ;  (1 found)
0x148075c7: add esp, 0x0C ; pop ebp ; ret  ;  (1 found)
0x14807ef2: add esp, 0x0C ; pop ebp ; ret  ;  (1 found)
0x148023e9: add esp, 0x0C ; pop ebp ; retn 0x0004 ;  (1 found)
0x14802450: add esp, 0x0C ; pop ebp ; retn 0x0008 ;  (1 found)
0x14807b1f: add esp, 0x0C ; push dword [ebp-0x000000F8] ; mov ecx, ebx ; push dword [ebp-0x00000100] ; call dword [0x1480D144] ;  (1 found)
0x14807b51: add esp, 0x0C ; push dword [ebp-0x000000F8] ; mov ecx, ebx ; push edi ; call dword [0x1480D144] ;  (1 found)
0x14804751: add esp, 0x0C ; push esi ; call dword [0x1480D060] ;  (1 found)
0x148034f7: add esp, 0x0C ; ret  ;  (1 found)
0x14803506: add esp, 0x0C ; ret  ;  (1 found)
0x1480981b: add esp, 0x0C ; ret  ;  (1 found)
0x1480999a: add esp, 0x10 ; fld qword [esp+0x04] ; ret  ;  (1 found)
0x14805210: add esp, 0x10 ; mov byte [0x14813D78], 0x00000001 ; pop esi ; mov al, 0x01 ; ret  ;  (1 found)
0x14805510: add esp, 0x10 ; pop ebp ; ret  ;  (1 found)
0x148076db: add esp, 0x10 ; pop ebp ; ret  ;  (1 found)
0x14808214: add esp, 0x10 ; pop ebp ; ret  ;  (1 found)
0x14809a91: add esp, 0x10 ; pop ebp ; ret  ;  (1 found)
0x14808a2d: add esp, 0x10 ; pop esi ; pop ebp ; ret  ;  (1 found)
0x1480663c: add esp, 0x10 ; ret  ;  (1 found)
0x14806608: add esp, 0x10 ; ret  ;  (1 found)
0x14806622: add esp, 0x10 ; ret  ;  (1 found)
0x14809db2: add esp, 0x10 ; ret  ;  (1 found)
0x14803bdf: add esp, 0x14 ; mov al, 0x01 ; pop esi ; ret  ;  (1 found)
0x1480472c: add esp, 0x14 ; ret  ;  (1 found)
0x14802379: add esp, 0x18 ; pop edi ; pop esi ; pop ebx ; ret  ;  (1 found)
0x14802953: add esp, 0x18 ; pop edi ; pop esi ; pop ebx ; ret  ;  (1 found)
0x1480afd9: add esp, 0x1C ; pop ebp ; ret  ;  (1 found)
0x1480a77b: add esp, 0x1C ; pop esi ; pop ebx ; mov esp, ebp ; pop ebp ; ret  ;  (1 found)
0x14809e93: add esp, 0x1C ; ret  ;  (1 found)
0x14807eda: add esp, 0x20 ; pop esi ; leave  ; ret  ;  (1 found)
0x14806122: add esp, 0x28 ; pop esi ; pop ebp ; ret  ;  (1 found)
0x14809da1: addps xmm0, xmm6 ; addsd xmm0, xmm7 ; movlpd qword [esp+0x04], xmm0 ; fld qword [esp+0x04] ; add esp, 0x10 ; ret  ;  (1 found)
0x14809da5: addps xmm0, xmm7 ; movlpd qword [esp+0x04], xmm0 ; fld qword [esp+0x04] ; add esp, 0x10 ; ret  ;  (1 found)
0x148099cc: addps xmm1, xmm0 ; movq qword [esp+0x04], xmm1 ; fld qword [esp+0x04] ; ret  ;  (1 found)
0x14809da0: addsd xmm0, xmm6 ; addsd xmm0, xmm7 ; movlpd qword [esp+0x04], xmm0 ; fld qword [esp+0x04] ; add esp, 0x10 ; ret  ;  (1 found)
0x14809da4: addsd xmm0, xmm7 ; movlpd qword [esp+0x04], xmm0 ; fld qword [esp+0x04] ; add esp, 0x10 ; ret  ;  (1 found)
0x148099cb: addsd xmm1, xmm0 ; movq qword [esp+0x04], xmm1 ; fld qword [esp+0x04] ; ret  ;  (1 found)
0x148044ee: and al, 0x00 ; add byte [edi-0x15], dl ; fldcw word [eax-0x24] ; inc eax ; adc dword [edi+edx*2], 0xFFFC3FE8 ; call dword [ebx-0x18] ;  (1 found)
0x148044ed: and al, 0x00 ; add byte [edi-0x15], dl ; fldcw word [eax-0x24] ; inc eax ; adc dword [edi+edx*2], 0xFFFC3FE8 ; call dword [ebx-0x18] ;  (1 found)
0x14809db0: and al, 0x04 ; add esp, 0x10 ; ret  ;  (1 found)
0x1480a2e7: and al, 0x04 ; and edx, 0x00000300 ; or edx, 0x7F ; mov word [esp+0x06], dx ; fldcw word [esp+0x06] ; ret  ;  (1 found)
0x14809dac: and al, 0x04 ; fld qword [esp+0x04] ; add esp, 0x10 ; ret  ;  (1 found)
0x1480996c: and al, 0x04 ; fld qword [esp+0x04] ; ret  ;  (1 found)
0x148099d3: and al, 0x04 ; fld qword [esp+0x04] ; ret  ;  (1 found)
0x148099f6: and al, 0x04 ; fld qword [esp+0x04] ; ret  ;  (1 found)
0x148020e0: and al, 0x04 ; mov edi, edx ; ret  ;  (1 found)
0x148021f5: and al, 0x04 ; mov edi, edx ; ret  ;  (1 found)
0x148021a0: and al, 0x04 ; mov edi, edx ; ret  ;  (1 found)
0x1480b812: and al, 0x04 ; mul ecx ; retn 0x0010 ;  (1 found)
0x14809970: and al, 0x04 ; ret  ;  (1 found)
0x1480999f: and al, 0x04 ; ret  ;  (1 found)
0x148099d7: and al, 0x04 ; ret  ;  (1 found)
0x148099fa: and al, 0x04 ; ret  ;  (1 found)
0x14809e8b: and al, 0x06 ; add byte [eax], al ; fld qword [esp+0x10] ; add esp, 0x1C ; ret  ;  (1 found)
0x1480a2f5: and al, 0x06 ; fldcw word [esp+0x06] ; ret  ;  (1 found)
0x1480a2f9: and al, 0x06 ; ret  ;  (1 found)
0x148023b8: and al, 0x08 ; mov edx, dword [esp+0x10] ; mov dword [edx], eax ; mov eax, 0x00000003 ; ret  ;  (1 found)
0x148028c8: and al, 0x08 ; mov edx, dword [esp+0x10] ; mov dword [edx], eax ; mov eax, 0x00000003 ; ret  ;  (1 found)
0x1480b82a: and al, 0x08 ; mul ecx ; add edx, ebx ; pop ebx ; retn 0x0010 ;  (1 found)
0x1480a36b: and al, 0x08 ; ret  ;  (1 found)
0x14801215: and al, 0x0C ; add dword [eax], eax ; add byte [eax], al ; push 0x7FFFFFFF ; push edi ; call dword [0x1480D124] ;  (1 found)
0x1480bad2: and al, 0x0C ; pop esi ; pop edi ; ret  ;  (1 found)
0x1480bcf6: and al, 0x0C ; pop esi ; pop edi ; ret  ;  (1 found)
0x1480bd02: and al, 0x0C ; pop esi ; pop edi ; ret  ;  (1 found)
0x1480bd14: and al, 0x0C ; pop esi ; pop edi ; ret  ;  (1 found)
0x1480bd2e: and al, 0x0C ; pop esi ; pop edi ; ret  ;  (1 found)
0x1480bdb0: and al, 0x0C ; pop esi ; pop edi ; ret  ;  (1 found)
0x1480bda2: and al, 0x0C ; pop esi ; pop edi ; ret  ;  (1 found)
0x1480bdc6: and al, 0x0C ; pop esi ; pop edi ; ret  ;  (1 found)
0x1480bfb2: and al, 0x0C ; pop esi ; pop edi ; ret  ;  (1 found)
0x1480bec6: and al, 0x0C ; pop esi ; pop edi ; ret  ;  (1 found)
0x1480bde0: and al, 0x0C ; pop esi ; pop edi ; ret  ;  (1 found)
0x1480c182: and al, 0x0C ; pop esi ; pop edi ; ret  ;  (1 found)
0x1480c3a6: and al, 0x0C ; pop esi ; pop edi ; ret  ;  (1 found)
0x1480c3b2: and al, 0x0C ; pop esi ; pop edi ; ret  ;  (1 found)
0x1480c3de: and al, 0x0C ; pop esi ; pop edi ; ret  ;  (1 found)
0x1480c3c4: and al, 0x0C ; pop esi ; pop edi ; ret  ;  (1 found)
0x1480c460: and al, 0x0C ; pop esi ; pop edi ; ret  ;  (1 found)
0x1480c452: and al, 0x0C ; pop esi ; pop edi ; ret  ;  (1 found)
0x1480c476: and al, 0x0C ; pop esi ; pop edi ; ret  ;  (1 found)
0x1480c576: and al, 0x0C ; pop esi ; pop edi ; ret  ;  (1 found)
0x1480c490: and al, 0x0C ; pop esi ; pop edi ; ret  ;  (1 found)
0x1480c662: and al, 0x0C ; pop esi ; pop edi ; ret  ;  (1 found)
0x14809e91: and al, 0x10 ; add esp, 0x1C ; ret  ;  (1 found)
0x148023bc: and al, 0x10 ; mov dword [edx], eax ; mov eax, 0x00000003 ; ret  ;  (1 found)
0x148028cc: and al, 0x10 ; mov dword [edx], eax ; mov eax, 0x00000003 ; ret  ;  (1 found)
0x148011ef: and al, 0x10 ; push 0x00000010 ; push eax ; push edi ; call dword [0x1480D114] ;  (1 found)
0x148011d5: and al, 0x14 ; call dword [0x1480D11C] ;  (1 found)
0x148011eb: and al, 0x14 ; lea eax, dword [esp+0x10] ; push 0x00000010 ; push eax ; push edi ; call dword [0x1480D114] ;  (1 found)
0x148011e1: and al, 0x16 ; call dword [0x1480D118] ;  (1 found)
0x1480ba3d: and al, 0x18 ; fstp dword [esp+0x18] ; leave  ; ret  ;  (1 found)
0x1480ba41: and al, 0x18 ; leave  ; ret  ;  (1 found)
0x14801181: and al, 0x20 ; push eax ; push 0x00000202 ; call dword [0x1480D12C] ;  (1 found)
0x1480a378: and al, 0x5A ; ret  ;  (1 found)
0x1480a3a2: and al, 0x5A ; ret  ;  (1 found)
0x1480a407: and al, 0x5A ; ret  ;  (1 found)
0x1480a371: and al, 0x7F ; add dh, byte [ebx+eax-0x27] ; sub al, 0x24 ; pop edx ; ret  ;  (1 found)
0x1480242f: and al, 0x80 ; adc al, 0x51 ; call dword [0x1480D06C] ;  (1 found)
0x1480a34b: and al, 0x83 ; les ecx,  [edx] ; test eax, 0x00000000 ; mov eax, dword [edx+0x04] ; ret  ;  (1 found)
0x1480c38d: and al, 0x8D ; movsb  ; ret  ;  (1 found)
0x1480c386: and al, 0x95 ; xchg eax, esp ; ret  ;  (1 found)
0x1480b9a9: and al, 0xC9 ; ret  ;  (1 found)
0x14801223: and al, 0xD1 ; adc byte [edx+ebp*2], 0x00000000 ; push 0x00000000 ; push edi ; call dword [0x1480D138] ;  (1 found)
0x1480a348: and al, 0xDB ; sub al, 0x24 ; add esp, 0x0A ; test eax, 0x00000000 ; mov eax, dword [edx+0x04] ; ret  ;  (1 found)
0x14809e89: and al, 0xE8 ; and al, 0x06 ; add byte [eax], al ; fld qword [esp+0x10] ; add esp, 0x1C ; ret  ;  (1 found)
0x14809c50: and al, 0xE8 ; or byte [eax], al ; add byte [eax], al ; leave  ; ret  ;  (1 found)
0x14809994: and al, 0xE8 ; sbb dword [ebx], ecx ; add byte [eax], al ; add esp, 0x10 ; fld qword [esp+0x04] ; ret  ;  (1 found)
0x1480b9a4: and al, 0xF2 ; cvttps2pi mm0, qword [esp] ; leave  ; ret  ;  (1 found)
0x1480ba71: and al, 0xF2 ; ret  ;  (1 found)
0x1480b2eb: and al, byte [eax] ; add byte [eax], al ; pop ebp ; ret  ;  (1 found)
0x14804efe: and byte [eax+0x3B], al ; retn 0xEF76 ;  (1 found)
0x14801182: and byte [eax+0x68], dl ; add al, byte [edx] ; add byte [eax], al ; call dword [0x1480D12C] ;  (1 found)
0x1480787e: and byte [eax-0x01], dl ; adc eax, 0x1480D078 ; pop ebp ; ret  ;  (1 found)
0x14807892: and byte [eax-0x01], dl ; adc eax, 0x1480D07C ; pop ebp ; ret  ;  (1 found)
0x1480b977: and byte [ebx+0x06], dh ; shld edx, eax, cl ; shl eax, cl ; ret  ;  (1 found)
0x1480b957: and byte [ebx+0x06], dh ; shrd eax, edx, cl ; shr edx, cl ; ret  ;  (1 found)
0x1480b398: and byte [ebx-0x1A74F33C], al ; pop ebp ; ret  ;  (1 found)
0x14802564: and byte [ebx-0x3A], ch ; sbb byte [edi-0x73], dl ; mov eax, 0x14813B64 ; push edi ; call dword [0x1480D080] ;  (1 found)
0x1480599c: and byte [ebx-0x3A], ch ; sbb byte [edi-0x73], dl ; mov eax, 0x14813D68 ; push edi ; call dword [0x1480D080] ;  (1 found)
0x14802595: and byte [ecx+0x2B], bl ; enter 0x458B, 0x08 ; ror eax, cl ; xor eax, dword [0x14813014] ; pop ebp ; ret  ;  (1 found)
0x14802b44: and byte [ecx+0x2B], bl ; enter 0x458B, 0x08 ; ror eax, cl ; xor eax, dword [0x14813014] ; pop ebp ; ret  ;  (1 found)
0x14809a70: and byte [ecx+esi+0x28], 0xFFFFFFFD ; pop edi ; pop esi ; mov esp, ebp ; pop ebp ; ret  ;  (1 found)
0x1480409d: and byte [ecx], bl ; add byte [eax], al ; pop ecx ; ret  ;  (1 found)
0x1480bcc6: and byte [edi], cl ; sub byte [esi-0x3EFFFFFE], 0xFFFFFFE9 ; add dh, bl ; movsd  ; and edx, 0x03 ; jmp dword [0x1480BCE4+edx*4] ;  (1 found)
0x1480c376: and byte [edi], cl ; sub byte [esi-0x3EFFFFFE], 0xFFFFFFE9 ; add dh, bl ; movsd  ; and edx, 0x03 ; jmp dword [0x1480C394+edx*4] ;  (1 found)
0x14807edc: and byte [esi-0x37], bl ; ret  ;  (1 found)
0x14803e58: and ch, byte [edx+0x17] ; call dword [0x1480D058] ;  (1 found)
0x148086b7: and cl, 0x00000001 ; mov al, cl ; pop ebp ; ret  ;  (1 found)
0x1480b984: and cl, 0x0000001F ; shl edx, cl ; ret  ;  (1 found)
0x1480b964: and cl, 0x0000001F ; shr eax, cl ; ret  ;  (1 found)
0x148011c2: and cl, dl ; adc byte [ebx+ecx*4], 0xFFFFFFF0 ; mov eax, 0x00000002 ; push 0x00001B5A ; mov word [esp+0x14], ax ; call dword [0x1480D11C] ;  (1 found)
0x148025d5: and dl, dl ; adc byte [eax+ebp*2], 0x00000000 ; or byte [eax], al ; add byte [edx+0x00], ch ; push ebx ; call dword [0x1480D0A0] ;  (1 found)
0x148019b8: and dword [0x14813828], 0x00000000 ; ret  ;  (1 found)
0x14806bc9: and dword [0x148141C0], 0x00000000 ; mov al, 0x01 ; ret  ;  (1 found)
0x1480786a: and dword [0x148141E0], 0x00000000 ; pop ecx ; pop esi ; ret  ;  (1 found)
0x148012f5: and dword [0xC0330000], eax ; ret  ;  (1 found)
0x1480b2f8: and dword [eax], eax ; add byte [eax], al ; pop ebp ; ret  ;  (1 found)
0x14802e80: and dword [eax], eax ; mov eax, dword [ebp+0x14] ; inc dword [eax] ; mov esp, ebp ; pop ebp ; ret  ;  (1 found)
0x14803d1c: and dword [ebp-0x04], 0x00000000 ; mov ecx, esi ; call dword [0x1480D144] ;  (1 found)
0x14803484: and dword [ebp-0x08], 0x00000000 ; lea eax, dword [ebp-0x08] ; push eax ; push 0x1480DB54 ; push 0x00000000 ; call dword [0x1480D0BC] ;  (1 found)
0x1480173e: and dword [ebp-0x08], 0x00000000 ; push eax ; call dword [0x1480D040] ;  (1 found)
0x14801737: and dword [ebp-0x0C], 0x00000000 ; lea eax, dword [ebp-0x0C] ; and dword [ebp-0x08], 0x00000000 ; push eax ; call dword [0x1480D040] ;  (1 found)
0x148054f0: and dword [ecx+0x00000350], 0xFFFFFFFD ; mov eax, edx ; mov esp, ebp ; pop ebp ; ret  ;  (1 found)
0x14807587: and dword [ecx+0x00000350], 0xFFFFFFFD ; mov eax, edx ; pop ebx ; mov esp, ebp ; pop ebp ; ret  ;  (1 found)
0x14807f76: and dword [ecx+0x00000350], 0xFFFFFFFD ; mov eax, esi ; pop esi ; mov esp, ebp ; pop ebp ; ret  ;  (1 found)
0x14804e1d: and dword [ecx+0x00000350], 0xFFFFFFFD ; mov esp, ebp ; pop ebp ; ret  ;  (1 found)
0x148088c1: and dword [ecx+0x00000350], 0xFFFFFFFD ; mov esp, ebp ; pop ebp ; ret  ;  (1 found)
0x14808dcc: and dword [ecx+0x00000350], 0xFFFFFFFD ; mov esp, ebp ; pop ebp ; ret  ;  (1 found)
0x148081e5: and dword [ecx+0x00000350], 0xFFFFFFFD ; mov esp, ebp ; pop ebp ; ret  ;  (1 found)
0x14801a96: and dword [ecx+0x04], 0x00000000 ; mov eax, ecx ; and dword [ecx+0x08], 0x00000000 ; mov dword [ecx+0x04], 0x1480D1BC ; mov dword [ecx], 0x1480D1B4 ; ret  ;  (1 found)
0x14801ac9: and dword [ecx+0x04], 0x00000000 ; mov eax, ecx ; and dword [ecx+0x08], 0x00000000 ; mov dword [ecx+0x04], 0x1480D1D8 ; mov dword [ecx], 0x1480D1D0 ; ret  ;  (1 found)
0x14801a9c: and dword [ecx+0x08], 0x00000000 ; mov dword [ecx+0x04], 0x1480D1BC ; mov dword [ecx], 0x1480D1B4 ; ret  ;  (1 found)
0x14801acf: and dword [ecx+0x08], 0x00000000 ; mov dword [ecx+0x04], 0x1480D1D8 ; mov dword [ecx], 0x1480D1D0 ; ret  ;  (1 found)
0x14802e7f: and dword [ecx], 0x00000000 ; mov eax, dword [ebp+0x14] ; inc dword [eax] ; mov esp, ebp ; pop ebp ; ret  ;  (1 found)
0x14802272: and dword [esi], 0x00000000 ; mov byte [esi+0x04], 0x00000000 ; pop esi ; pop ebp ; ret  ;  (1 found)
0x14808719: and dword [esi], eax ; xor eax, eax ; pop edi ; pop esi ; pop ebp ; ret  ;  (1 found)
0x1480acf9: and eax, 0x02 ; add eax, eax ; pop ebp ; ret  ;  (1 found)
0x148020d4: and eax, 0x14813830 ; add dword [ebx+0x09], esi ; rep stosb  ; mov eax, dword [esp+0x04] ; mov edi, edx ; ret  ;  (1 found)
0x1480786b: and eax, 0x148141E0 ; add byte [ecx+0x5E], bl ; ret  ;  (1 found)
0x14805b58: and eax, 0x3F ; sar ecx, 0x06 ; imul eax, eax, 0x30 ; add eax, dword [0x14813ED8+ecx*4] ; push eax ; call dword [0x1480D078] ;  (1 found)
0x14805b7b: and eax, 0x3F ; sar ecx, 0x06 ; imul eax, eax, 0x30 ; add eax, dword [0x14813ED8+ecx*4] ; push eax ; call dword [0x1480D07C] ;  (1 found)
0x148084af: and eax, 0x40 ; pop ebp ; ret  ;  (1 found)
0x14803716: and eax, 0x5D000036 ; ret  ;  (1 found)
0x148019b4: and eax, dword [eax] ; add ah, cl ; and dword [0x14813828], 0x00000000 ; ret  ;  (1 found)
0x1480454e: and eax, dword [eax] ; add byte [ebx-0x7ECFBBF3], al ; adc al, 0xFF ; mov al, 0x01 ; ret  ;  (1 found)
0x14801717: and eax, dword [ebp+0x08] ; pop ebp ; ret  ;  (1 found)
0x14803fc2: and eax, dword [ebp+0x0C] ; pop ebp ; ret  ;  (1 found)
0x14804797: and eax, ecx ; add eax, 0x08 ; pop ebp ; ret  ;  (1 found)
0x148057bd: and eax, ecx ; mov byte [ecx-0x01], bl ; push eax ; push esi ; call dword [0x1480D0F4] ;  (1 found)
0x1480a128: and ecx, 0x00000404 ; mov ebx, edx ; add ebx, eax ; add ebx, 0x10 ; jmp dword [ebx] ;  (1 found)
0x1480a1b4: and ecx, 0x00000404 ; mov ebx, edx ; add ebx, eax ; add ebx, 0x10 ; jmp dword [ebx] ;  (1 found)
0x14802b62: and ecx, 0x1F ; ror eax, cl ; neg eax ; sbb eax, eax ; neg eax ; ret  ;  (1 found)
0x1480b597: and ecx, 0xFFFFFF08 ; lea eax, dword [ecx+0x00000100] ; pop ebp ; ret  ;  (1 found)
0x1480b56e: and ecx, 0xFFFFFF90 ; lea eax, dword [ecx+0x00000080] ; pop ebp ; ret  ;  (1 found)
0x1480b58b: and ecx, 0xFFFFFFE0 ; lea eax, dword [ecx+0x40] ; pop ebp ; ret  ;  (1 found)
0x1480a2e9: and edx, 0x00000300 ; or edx, 0x7F ; mov word [esp+0x06], dx ; fldcw word [esp+0x06] ; ret  ;  (1 found)
0x1480bcd2: and edx, 0x03 ; jmp dword [0x1480BCE4+edx*4] ;  (1 found)
0x1480c382: and edx, 0x03 ; jmp dword [0x1480C394+edx*4] ;  (1 found)
0x14803ab6: and edx, 0xFFFFFFFF ; dec dword [ebx-0x743CA21B] ; call dword [ebp-0x75] ;  (1 found)
0x14807ccb: and edx, dword [edi+0x52] ; mov ecx, ebx ; call dword [0x1480D144] ;  (1 found)
0x1480349c: and edx, dword [esi+0x68] ; insb  ; fild dword [eax-0x078A00EC] ; call dword [0x1480D09C] ;  (1 found)
0x14809312: and esi, 0xFFFFFFFE ; lea eax, dword [ebp-0x00001404] ; push esi ; push eax ; push ecx ; call dword [0x1480D0A8] ;  (1 found)
0x1480b99f: and esp, 0xFFFFFFF8 ; fstp qword [esp] ; cvttsd2si eax, qword [esp] ; leave  ; ret  ;  (1 found)
0x148099c3: andpd xmm0,  [0x14810E10] ; addsd xmm1, xmm0 ; movq qword [esp+0x04], xmm1 ; fld qword [esp+0x04] ; ret  ;  (1 found)
0x148099ea: andpd xmm3,  [0x14810E10] ; movq qword [esp+0x04], xmm3 ; fld qword [esp+0x04] ; ret  ;  (1 found)
0x148099c4: andps xmm0,  [0x14810E10] ; addsd xmm1, xmm0 ; movq qword [esp+0x04], xmm1 ; fld qword [esp+0x04] ; ret  ;  (1 found)
0x148099eb: andps xmm3,  [0x14810E10] ; movq qword [esp+0x04], xmm3 ; fld qword [esp+0x04] ; ret  ;  (1 found)
0x14802190: bound ecx, dword [ebp-0x0C1FC684] ; movq qword [edi], mm0 ; movdqu  [edi+0x10], xmm0 ; mov eax, dword [esp+0x04] ; mov edi, edx ; ret  ;  (1 found)
0x148067d7: bound esi, dword [ebp-0x1A740001] ; pop ebp ; retn 0x0004 ;  (1 found)
0x1480a97f: call dword [0x1480D004] ;  (1 found)
0x1480a8eb: call dword [0x1480D008] ;  (1 found)
0x1480a9ba: call dword [0x1480D008] ;  (1 found)
0x1480a4d6: call dword [0x1480D00C] ;  (1 found)
0x14809a36: call dword [0x1480D010] ;  (1 found)
0x14809184: call dword [0x1480D014] ;  (1 found)
0x14808f30: call dword [0x1480D018] ;  (1 found)
0x14808e20: call dword [0x1480D01C] ;  (1 found)
0x14808466: call dword [0x1480D020] ;  (1 found)
0x14808401: call dword [0x1480D024] ;  (1 found)
0x14806bb8: call dword [0x1480D028] ;  (1 found)
0x14806a6f: call dword [0x1480D02C] ;  (1 found)
0x1480683e: call dword [0x1480D030] ;  (1 found)
0x14801768: call dword [0x1480D034] ;  (1 found)
0x1480175b: call dword [0x1480D038] ;  (1 found)
0x14801752: call dword [0x1480D03C] ;  (1 found)
0x14801743: call dword [0x1480D040] ;  (1 found)
0x148017e5: call dword [0x1480D044] ;  (1 found)
0x14801926: call dword [0x1480D048] ;  (1 found)
0x14804653: call dword [0x1480D048] ;  (1 found)
0x14801950: call dword [0x1480D04C] ;  (1 found)
0x14801d8d: call dword [0x1480D04C] ;  (1 found)
0x1480466a: call dword [0x1480D04C] ;  (1 found)
0x14801946: call dword [0x1480D050] ;  (1 found)
0x14801970: call dword [0x1480D050] ;  (1 found)
0x14801d84: call dword [0x1480D050] ;  (1 found)
0x1480465d: call dword [0x1480D050] ;  (1 found)
0x14805c9b: call dword [0x1480D054] ;  (1 found)
0x14803e5b: call dword [0x1480D058] ;  (1 found)
0x14804732: call dword [0x1480D058] ;  (1 found)
0x14809c27: call dword [0x1480D058] ;  (1 found)
0x14803431: call dword [0x1480D05C] ;  (1 found)
0x14801d98: call dword [0x1480D060] ;  (1 found)
0x1480340f: call dword [0x1480D060] ;  (1 found)
0x14804755: call dword [0x1480D060] ;  (1 found)
0x14801d9f: call dword [0x1480D064] ;  (1 found)
0x14803416: call dword [0x1480D064] ;  (1 found)
0x1480475c: call dword [0x1480D064] ;  (1 found)
0x148022db: call dword [0x1480D068] ;  (1 found)
0x1480b20b: call dword [0x1480D068] ;  (1 found)
0x14802433: call dword [0x1480D06C] ;  (1 found)
0x14802883: call dword [0x1480D06C] ;  (1 found)
0x148025ed: call dword [0x1480D070] ;  (1 found)
0x14804318: call dword [0x1480D070] ;  (1 found)
0x14804467: call dword [0x1480D070] ;  (1 found)
0x14803d84: call dword [0x1480D070] ;  (1 found)
0x14803d85: call dword [0x1480D070] ;  (1 found)
0x14806689: call dword [0x1480D070] ;  (1 found)
0x14808e31: call dword [0x1480D070] ;  (1 found)
0x14808e30: call dword [0x1480D070] ;  (1 found)
0x14809097: call dword [0x1480D070] ;  (1 found)
0x1480910e: call dword [0x1480D070] ;  (1 found)
0x14809259: call dword [0x1480D070] ;  (1 found)
0x14809347: call dword [0x1480D070] ;  (1 found)
0x14809474: call dword [0x1480D070] ;  (1 found)
0x148096fc: call dword [0x1480D070] ;  (1 found)
0x14809a40: call dword [0x1480D070] ;  (1 found)
0x1480a8f5: call dword [0x1480D070] ;  (1 found)
0x1480a9e4: call dword [0x1480D070] ;  (1 found)
0x148043b0: call dword [0x1480D074] ;  (1 found)
0x1480448d: call dword [0x1480D074] ;  (1 found)
0x148043bc: call dword [0x1480D074] ;  (1 found)
0x1480450d: call dword [0x1480D074] ;  (1 found)
0x14805988: call dword [0x1480D078] ;  (1 found)
0x14805b69: call dword [0x1480D078] ;  (1 found)
0x14807880: call dword [0x1480D078] ;  (1 found)
0x148059d0: call dword [0x1480D07C] ;  (1 found)
0x14805b8c: call dword [0x1480D07C] ;  (1 found)
0x14807894: call dword [0x1480D07C] ;  (1 found)
0x14802570: call dword [0x1480D080] ;  (1 found)
0x148059a8: call dword [0x1480D080] ;  (1 found)
0x14805aa1: call dword [0x1480D080] ;  (1 found)
0x1480892e: call dword [0x1480D080] ;  (1 found)
0x14807851: call dword [0x1480D080] ;  (1 found)
0x148027da: call dword [0x1480D084] ;  (1 found)
0x148069fb: call dword [0x1480D084] ;  (1 found)
0x14806894: call dword [0x1480D088] ;  (1 found)
0x14806940: call dword [0x1480D08C] ;  (1 found)
0x14802794: call dword [0x1480D090] ;  (1 found)
0x14806999: call dword [0x1480D090] ;  (1 found)
0x14802757: call dword [0x1480D094] ;  (1 found)
0x148068ea: call dword [0x1480D094] ;  (1 found)
0x14802837: call dword [0x1480D098] ;  (1 found)
0x14802838: call dword [0x1480D098] ;  (1 found)
0x14802649: call dword [0x1480D098] ;  (1 found)
0x148034c9: call dword [0x1480D098] ;  (1 found)
0x148066e5: call dword [0x1480D098] ;  (1 found)
0x14806b26: call dword [0x1480D098] ;  (1 found)
0x14806b27: call dword [0x1480D098] ;  (1 found)
0x148026b5: call dword [0x1480D09C] ;  (1 found)
0x148034a6: call dword [0x1480D09C] ;  (1 found)
0x14806753: call dword [0x1480D09C] ;  (1 found)
0x148025e1: call dword [0x1480D0A0] ;  (1 found)
0x14802623: call dword [0x1480D0A0] ;  (1 found)
0x148066bf: call dword [0x1480D0A0] ;  (1 found)
0x1480667d: call dword [0x1480D0A0] ;  (1 found)
0x14805d91: call dword [0x1480D0A4] ;  (1 found)
0x14809055: call dword [0x1480D0A8] ;  (1 found)
0x1480901b: call dword [0x1480D0A8] ;  (1 found)
0x14809230: call dword [0x1480D0A8] ;  (1 found)
0x14809443: call dword [0x1480D0A8] ;  (1 found)
0x1480931e: call dword [0x1480D0A8] ;  (1 found)
0x148096f2: call dword [0x1480D0A8] ;  (1 found)
0x14802c2c: call dword [0x1480D0AC] ;  (1 found)
0x14807696: call dword [0x1480D0B0] ;  (1 found)
0x14807660: call dword [0x1480D0B0] ;  (1 found)
0x148061fa: call dword [0x1480D0B0] ;  (1 found)
0x14806170: call dword [0x1480D0B0] ;  (1 found)
0x14808cc0: call dword [0x1480D0B0] ;  (1 found)
0x14808d3c: call dword [0x1480D0B0] ;  (1 found)
0x14808ca9: call dword [0x1480D0B0] ;  (1 found)
0x14808c19: call dword [0x1480D0B0] ;  (1 found)
0x14807fed: call dword [0x1480D0B0] ;  (1 found)
0x1480806b: call dword [0x1480D0B0] ;  (1 found)
0x148030b6: call dword [0x1480D0B4] ;  (1 found)
0x1480308c: call dword [0x1480D0B4] ;  (1 found)
0x14805578: call dword [0x1480D0B4] ;  (1 found)
0x1480559e: call dword [0x1480D0B4] ;  (1 found)
0x14808162: call dword [0x1480D0B4] ;  (1 found)
0x14808ffb: call dword [0x1480D0B4] ;  (1 found)
0x14809415: call dword [0x1480D0B4] ;  (1 found)
0x14803428: call dword [0x1480D0B8] ;  (1 found)
0x14803493: call dword [0x1480D0BC] ;  (1 found)
0x148035ab: call dword [0x1480D0C0] ;  (1 found)
0x148035b6: call dword [0x1480D0C4] ;  (1 found)
0x14804df7: call dword [0x1480D0C8] ;  (1 found)
0x14803d73: call dword [0x1480D0CC] ;  (1 found)
0x14803dc9: call dword [0x1480D0D0] ;  (1 found)
0x14803ec4: call dword [0x1480D0D0] ;  (1 found)
0x14804b71: call dword [0x1480D0D4] ;  (1 found)
0x14804b4a: call dword [0x1480D0D8] ;  (1 found)
0x14804bdc: call dword [0x1480D0DC] ;  (1 found)
0x148052a6: call dword [0x1480D0E0] ;  (1 found)
0x14804de0: call dword [0x1480D0E4] ;  (1 found)
0x14804eb2: call dword [0x1480D0E8] ;  (1 found)
0x148052b9: call dword [0x1480D0E8] ;  (1 found)
0x14808b96: call dword [0x1480D0E8] ;  (1 found)
0x14805555: call dword [0x1480D0EC] ;  (1 found)
0x148055c0: call dword [0x1480D0F0] ;  (1 found)
0x148057c4: call dword [0x1480D0F4] ;  (1 found)
0x14805bf4: call dword [0x1480D0F8] ;  (1 found)
0x14805d04: call dword [0x1480D0FC] ;  (1 found)
0x14805da3: call dword [0x1480D0FC] ;  (1 found)
0x1480620c: call dword [0x1480D100] ;  (1 found)
0x1480aa09: call dword [0x1480D104] ;  (1 found)
0x1480a9d8: call dword [0x1480D104] ;  (1 found)
0x1480115e: call dword [0x1480D10C] ;  (1 found)
0x148011f5: call dword [0x1480D114] ;  (1 found)
0x148011e3: call dword [0x1480D118] ;  (1 found)
0x148011d7: call dword [0x1480D11C] ;  (1 found)
0x148011c0: call dword [0x1480D120] ;  (1 found)
0x14801221: call dword [0x1480D124] ;  (1 found)
0x148011a6: call dword [0x1480D128] ;  (1 found)
0x14801189: call dword [0x1480D12C] ;  (1 found)
0x148010a5: call dword [0x1480D130] ;  (1 found)
0x14801098: call dword [0x1480D134] ;  (1 found)
0x1480122c: call dword [0x1480D138] ;  (1 found)
0x148011b3: call dword [0x1480D13C] ;  (1 found)
0x14802ae8: call dword [0x1480D144] ;  (1 found)
0x14802afe: call dword [0x1480D144] ;  (1 found)
0x14802bb3: call dword [0x1480D144] ;  (1 found)
0x14803106: call dword [0x1480D144] ;  (1 found)
0x148031ee: call dword [0x1480D144] ;  (1 found)
0x1480322f: call dword [0x1480D144] ;  (1 found)
0x148032f3: call dword [0x1480D144] ;  (1 found)
0x14803a21: call dword [0x1480D144] ;  (1 found)
0x148034b7: call dword [0x1480D144] ;  (1 found)
0x1480373d: call dword [0x1480D144] ;  (1 found)
0x14803d22: call dword [0x1480D144] ;  (1 found)
0x148046da: call dword [0x1480D144] ;  (1 found)
0x14806c7d: call dword [0x1480D144] ;  (1 found)
0x14806c30: call dword [0x1480D144] ;  (1 found)
0x14806bfc: call dword [0x1480D144] ;  (1 found)
0x14806fd1: call dword [0x1480D144] ;  (1 found)
0x14806fa3: call dword [0x1480D144] ;  (1 found)
0x148067c1: call dword [0x1480D144] ;  (1 found)
0x1480688a: call dword [0x1480D144] ;  (1 found)
0x1480681a: call dword [0x1480D144] ;  (1 found)
0x14806936: call dword [0x1480D144] ;  (1 found)
0x148068e0: call dword [0x1480D144] ;  (1 found)
0x148069eb: call dword [0x1480D144] ;  (1 found)
0x1480698f: call dword [0x1480D144] ;  (1 found)
0x14806a4b: call dword [0x1480D144] ;  (1 found)
0x14806aaa: call dword [0x1480D144] ;  (1 found)
0x148079a5: call dword [0x1480D144] ;  (1 found)
0x14807b30: call dword [0x1480D144] ;  (1 found)
0x14807b5d: call dword [0x1480D144] ;  (1 found)
0x14807b03: call dword [0x1480D144] ;  (1 found)
0x14807bed: call dword [0x1480D144] ;  (1 found)
0x14807bba: call dword [0x1480D144] ;  (1 found)
0x14807c38: call dword [0x1480D144] ;  (1 found)
0x14807cd0: call dword [0x1480D144] ;  (1 found)
0x14807d14: call dword [0x1480D144] ;  (1 found)
0x1480a54c: call dword [0x1480D144] ;  (1 found)
0x1480a5e6: call dword [0x1480D144] ;  (1 found)
0x1480a69e: call dword [0x1480D144] ;  (1 found)
0x1480922d: call dword [eax+0x51] ;  (1 found)
0x14804bd9: call dword [eax+0x56] ;  (1 found)
0x148057c1: call dword [eax+0x56] ;  (1 found)
0x14804f3a: call dword [eax+0x57] ;  (1 found)
0x14804f16: call dword [eax+0x57] ;  (1 found)
0x14804f5e: call dword [eax+0x68] ;  (1 found)
0x14804f1e: call dword [eax+0x6A] ;  (1 found)
0x14804668: call dword [eax-0x01] ;  (1 found)
0x14807686: call dword [eax-0x01] ;  (1 found)
0x1480112e: call dword [eax-0x18] ;  (1 found)
0x14804343: call dword [eax-0x18] ;  (1 found)
0x148044a1: call dword [eax-0x18] ;  (1 found)
0x148043ec: call dword [eax-0x18] ;  (1 found)
0x14805228: call dword [eax-0x18] ;  (1 found)
0x14808756: call dword [eax-0x18] ;  (1 found)
0x14809ad9: call dword [eax-0x18] ;  (1 found)
0x1480365c: call dword [eax-0x73] ;  (1 found)
0x14806db2: call dword [eax-0x73] ;  (1 found)
0x1480ac61: call dword [eax-0x73] ;  (1 found)
0x14802005: call dword [eax-0x75] ;  (1 found)
0x148072de: call dword [eax-0x77] ;  (1 found)
0x1480310c: call dword [ebp+0x08] ;  (1 found)
0x148079ab: call dword [ebp+0x14] ;  (1 found)
0x14807bc0: call dword [ebp-0x00000108] ;  (1 found)
0x148023c7: call dword [ebp-0x01] ;  (1 found)
0x148031f4: call dword [ebp-0x08] ;  (1 found)
0x14806fa9: call dword [ebp-0x24] ;  (1 found)
0x14806fd7: call dword [ebp-0x24] ;  (1 found)
0x14801246: call dword [ebp-0x75] ;  (1 found)
0x14801485: call dword [ebp-0x75] ;  (1 found)
0x1480243f: call dword [ebp-0x75] ;  (1 found)
0x1480239f: call dword [ebp-0x75] ;  (1 found)
0x148029af: call dword [ebp-0x75] ;  (1 found)
0x14802b37: call dword [ebp-0x75] ;  (1 found)
0x14802b28: call dword [ebp-0x75] ;  (1 found)
0x14802b6f: call dword [ebp-0x75] ;  (1 found)
0x14802b83: call dword [ebp-0x75] ;  (1 found)
0x14802be1: call dword [ebp-0x75] ;  (1 found)
0x14802bcc: call dword [ebp-0x75] ;  (1 found)
0x148028b0: call dword [ebp-0x75] ;  (1 found)
0x14802edb: call dword [ebp-0x75] ;  (1 found)
0x14802d17: call dword [ebp-0x75] ;  (1 found)
0x14802e8c: call dword [ebp-0x75] ;  (1 found)
0x14802f6b: call dword [ebp-0x75] ;  (1 found)
0x1480303c: call dword [ebp-0x75] ;  (1 found)
0x148030ea: call dword [ebp-0x75] ;  (1 found)
0x1480312a: call dword [ebp-0x75] ;  (1 found)
0x14803145: call dword [ebp-0x75] ;  (1 found)
0x148031b5: call dword [ebp-0x75] ;  (1 found)
0x14803211: call dword [ebp-0x75] ;  (1 found)
0x148037b3: call dword [ebp-0x75] ;  (1 found)
0x14803860: call dword [ebp-0x75] ;  (1 found)
0x148039a1: call dword [ebp-0x75] ;  (1 found)
0x14803ad5: call dword [ebp-0x75] ;  (1 found)
0x14803abf: call dword [ebp-0x75] ;  (1 found)
0x14803375: call dword [ebp-0x75] ;  (1 found)
0x14803b04: call dword [ebp-0x75] ;  (1 found)
0x14803388: call dword [ebp-0x75] ;  (1 found)
0x148033ee: call dword [ebp-0x75] ;  (1 found)
0x14803474: call dword [ebp-0x75] ;  (1 found)
0x148034de: call dword [ebp-0x75] ;  (1 found)
0x1480350b: call dword [ebp-0x75] ;  (1 found)
0x14803559: call dword [ebp-0x75] ;  (1 found)
0x14803521: call dword [ebp-0x75] ;  (1 found)
0x1480356f: call dword [ebp-0x75] ;  (1 found)
0x14803643: call dword [ebp-0x75] ;  (1 found)
0x1480366c: call dword [ebp-0x75] ;  (1 found)
0x148036d4: call dword [ebp-0x75] ;  (1 found)
0x14803709: call dword [ebp-0x75] ;  (1 found)
0x1480371d: call dword [ebp-0x75] ;  (1 found)
0x148041da: call dword [ebp-0x75] ;  (1 found)
0x1480413f: call dword [ebp-0x75] ;  (1 found)
0x148041fb: call dword [ebp-0x75] ;  (1 found)
0x148042ca: call dword [ebp-0x75] ;  (1 found)
0x14803bf0: call dword [ebp-0x75] ;  (1 found)
0x14803b41: call dword [ebp-0x75] ;  (1 found)
0x14803ca6: call dword [ebp-0x75] ;  (1 found)
0x14803c54: call dword [ebp-0x75] ;  (1 found)
0x14803d41: call dword [ebp-0x75] ;  (1 found)
0x14803d5e: call dword [ebp-0x75] ;  (1 found)
0x14803de6: call dword [ebp-0x75] ;  (1 found)
0x14803d98: call dword [ebp-0x75] ;  (1 found)
0x14803e84: call dword [ebp-0x75] ;  (1 found)
0x14803ee1: call dword [ebp-0x75] ;  (1 found)
0x14803fc8: call dword [ebp-0x75] ;  (1 found)
0x14803f1b: call dword [ebp-0x75] ;  (1 found)
0x14803f9e: call dword [ebp-0x75] ;  (1 found)
0x148049e9: call dword [ebp-0x75] ;  (1 found)
0x14804809: call dword [ebp-0x75] ;  (1 found)
0x148047f1: call dword [ebp-0x75] ;  (1 found)
0x14804a9c: call dword [ebp-0x75] ;  (1 found)
0x14804ca7: call dword [ebp-0x75] ;  (1 found)
0x14804d78: call dword [ebp-0x75] ;  (1 found)
0x14804db6: call dword [ebp-0x75] ;  (1 found)
0x14804e29: call dword [ebp-0x75] ;  (1 found)
0x14804e8e: call dword [ebp-0x75] ;  (1 found)
0x14805022: call dword [ebp-0x75] ;  (1 found)
0x1480455c: call dword [ebp-0x75] ;  (1 found)
0x14804697: call dword [ebp-0x75] ;  (1 found)
0x148046a6: call dword [ebp-0x75] ;  (1 found)
0x14804765: call dword [ebp-0x75] ;  (1 found)
0x148047a8: call dword [ebp-0x75] ;  (1 found)
0x1480554d: call dword [ebp-0x75] ;  (1 found)
0x148055d0: call dword [ebp-0x75] ;  (1 found)
0x1480580f: call dword [ebp-0x75] ;  (1 found)
0x148058da: call dword [ebp-0x75] ;  (1 found)
0x1480592e: call dword [ebp-0x75] ;  (1 found)
0x1480597a: call dword [ebp-0x75] ;  (1 found)
0x148059c2: call dword [ebp-0x75] ;  (1 found)
0x148059d9: call dword [ebp-0x75] ;  (1 found)
0x14805a0c: call dword [ebp-0x75] ;  (1 found)
0x14805a86: call dword [ebp-0x75] ;  (1 found)
0x14805b4f: call dword [ebp-0x75] ;  (1 found)
0x14805b72: call dword [ebp-0x75] ;  (1 found)
0x14805b95: call dword [ebp-0x75] ;  (1 found)
0x14805c26: call dword [ebp-0x75] ;  (1 found)
0x14805c90: call dword [ebp-0x75] ;  (1 found)
0x14805233: call dword [ebp-0x75] ;  (1 found)
0x14805424: call dword [ebp-0x75] ;  (1 found)
0x148054fe: call dword [ebp-0x75] ;  (1 found)
0x148054a5: call dword [ebp-0x75] ;  (1 found)
0x14805516: call dword [ebp-0x75] ;  (1 found)
0x14806b4c: call dword [ebp-0x75] ;  (1 found)
0x14806c57: call dword [ebp-0x75] ;  (1 found)
0x14806bd4: call dword [ebp-0x75] ;  (1 found)
0x14806cfe: call dword [ebp-0x75] ;  (1 found)
0x14806d40: call dword [ebp-0x75] ;  (1 found)
0x14806d99: call dword [ebp-0x75] ;  (1 found)
0x14806d71: call dword [ebp-0x75] ;  (1 found)
0x14806dc2: call dword [ebp-0x75] ;  (1 found)
0x148070ae: call dword [ebp-0x75] ;  (1 found)
0x14807007: call dword [ebp-0x75] ;  (1 found)
0x148073ae: call dword [ebp-0x75] ;  (1 found)
0x14807596: call dword [ebp-0x75] ;  (1 found)
0x148075b3: call dword [ebp-0x75] ;  (1 found)
0x1480744c: call dword [ebp-0x75] ;  (1 found)
0x148075cd: call dword [ebp-0x75] ;  (1 found)
0x14805e7c: call dword [ebp-0x75] ;  (1 found)
0x14806129: call dword [ebp-0x75] ;  (1 found)
0x14806045: call dword [ebp-0x75] ;  (1 found)
0x14806009: call dword [ebp-0x75] ;  (1 found)
0x14805ea2: call dword [ebp-0x75] ;  (1 found)
0x14805fa0: call dword [ebp-0x75] ;  (1 found)
0x14806242: call dword [ebp-0x75] ;  (1 found)
0x148062df: call dword [ebp-0x75] ;  (1 found)
0x14806262: call dword [ebp-0x75] ;  (1 found)
0x14806452: call dword [ebp-0x75] ;  (1 found)
0x14806429: call dword [ebp-0x75] ;  (1 found)
0x148065a3: call dword [ebp-0x75] ;  (1 found)
0x14806482: call dword [ebp-0x75] ;  (1 found)
0x148064ab: call dword [ebp-0x75] ;  (1 found)
0x14806641: call dword [ebp-0x75] ;  (1 found)
0x14806709: call dword [ebp-0x75] ;  (1 found)
0x1480678b: call dword [ebp-0x75] ;  (1 found)
0x148067e2: call dword [ebp-0x75] ;  (1 found)
0x14806856: call dword [ebp-0x75] ;  (1 found)
0x148068ac: call dword [ebp-0x75] ;  (1 found)
0x14806902: call dword [ebp-0x75] ;  (1 found)
0x148069b1: call dword [ebp-0x75] ;  (1 found)
0x14806958: call dword [ebp-0x75] ;  (1 found)
0x14806a13: call dword [ebp-0x75] ;  (1 found)
0x14806b0b: call dword [ebp-0x75] ;  (1 found)
0x14806a87: call dword [ebp-0x75] ;  (1 found)
0x14806b41: call dword [ebp-0x75] ;  (1 found)
0x1480840a: call dword [ebp-0x75] ;  (1 found)
0x14808473: call dword [ebp-0x75] ;  (1 found)
0x1480869c: call dword [ebp-0x75] ;  (1 found)
0x1480861b: call dword [ebp-0x75] ;  (1 found)
0x1480866a: call dword [ebp-0x75] ;  (1 found)
0x1480858d: call dword [ebp-0x75] ;  (1 found)
0x14808722: call dword [ebp-0x75] ;  (1 found)
0x148086bf: call dword [ebp-0x75] ;  (1 found)
0x148087e8: call dword [ebp-0x75] ;  (1 found)
0x148087fb: call dword [ebp-0x75] ;  (1 found)
0x14808827: call dword [ebp-0x75] ;  (1 found)
0x14808882: call dword [ebp-0x75] ;  (1 found)
0x14808894: call dword [ebp-0x75] ;  (1 found)
0x1480896d: call dword [ebp-0x75] ;  (1 found)
0x14808aeb: call dword [ebp-0x75] ;  (1 found)
0x148089c7: call dword [ebp-0x75] ;  (1 found)
0x14808a34: call dword [ebp-0x75] ;  (1 found)
0x148089ab: call dword [ebp-0x75] ;  (1 found)
0x14808d90: call dword [ebp-0x75] ;  (1 found)
0x1480770e: call dword [ebp-0x75] ;  (1 found)
0x148076e1: call dword [ebp-0x75] ;  (1 found)
0x148076c7: call dword [ebp-0x75] ;  (1 found)
0x1480773b: call dword [ebp-0x75] ;  (1 found)
0x14807875: call dword [ebp-0x75] ;  (1 found)
0x14807889: call dword [ebp-0x75] ;  (1 found)
0x14807971: call dword [ebp-0x75] ;  (1 found)
0x1480789d: call dword [ebp-0x75] ;  (1 found)
0x14807a51: call dword [ebp-0x75] ;  (1 found)
0x14807a11: call dword [ebp-0x75] ;  (1 found)
0x14807de3: call dword [ebp-0x75] ;  (1 found)
0x14807ee1: call dword [ebp-0x75] ;  (1 found)
0x14807e94: call dword [ebp-0x75] ;  (1 found)
0x14807f94: call dword [ebp-0x75] ;  (1 found)
0x14807ef8: call dword [ebp-0x75] ;  (1 found)
0x148081a6: call dword [ebp-0x75] ;  (1 found)
0x1480821a: call dword [ebp-0x75] ;  (1 found)
0x148081f1: call dword [ebp-0x75] ;  (1 found)
0x148083a0: call dword [ebp-0x75] ;  (1 found)
0x148082e4: call dword [ebp-0x75] ;  (1 found)
0x148083cc: call dword [ebp-0x75] ;  (1 found)
0x148083d7: call dword [ebp-0x75] ;  (1 found)
0x1480a4b4: call dword [ebp-0x75] ;  (1 found)
0x14808eef: call dword [ebp-0x75] ;  (1 found)
0x14808e70: call dword [ebp-0x75] ;  (1 found)
0x148090b3: call dword [ebp-0x75] ;  (1 found)
0x14809120: call dword [ebp-0x75] ;  (1 found)
0x14809196: call dword [ebp-0x75] ;  (1 found)
0x14809275: call dword [ebp-0x75] ;  (1 found)
0x14809363: call dword [ebp-0x75] ;  (1 found)
0x14809578: call dword [ebp-0x75] ;  (1 found)
0x148099fe: call dword [ebp-0x75] ;  (1 found)
0x14809a7c: call dword [ebp-0x75] ;  (1 found)
0x14809a97: call dword [ebp-0x75] ;  (1 found)
0x14809bf2: call dword [ebp-0x75] ;  (1 found)
0x1480a6cc: call dword [ebp-0x75] ;  (1 found)
0x1480a807: call dword [ebp-0x75] ;  (1 found)
0x1480a932: call dword [ebp-0x75] ;  (1 found)
0x1480a896: call dword [ebp-0x75] ;  (1 found)
0x1480a9c2: call dword [ebp-0x75] ;  (1 found)
0x1480aa81: call dword [ebp-0x75] ;  (1 found)
0x1480aa17: call dword [ebp-0x75] ;  (1 found)
0x1480acb7: call dword [ebp-0x75] ;  (1 found)
0x1480accd: call dword [ebp-0x75] ;  (1 found)
0x1480adcf: call dword [ebp-0x75] ;  (1 found)
0x1480afdf: call dword [ebp-0x75] ;  (1 found)
0x1480afbc: call dword [ebp-0x75] ;  (1 found)
0x1480b3a1: call dword [ebp-0x75] ;  (1 found)
0x1480b2ff: call dword [ebp-0x75] ;  (1 found)
0x1480b2d0: call dword [ebp-0x75] ;  (1 found)
0x1480b4a4: call dword [ebp-0x75] ;  (1 found)
0x1480b475: call dword [ebp-0x75] ;  (1 found)
0x1480b502: call dword [ebp-0x75] ;  (1 found)
0x14804bc5: call dword [ebx+0x50] ;  (1 found)
0x14804463: call dword [ebx+0x56] ;  (1 found)
0x14805d46: call dword [ebx+0x56] ;  (1 found)
0x14804f51: call dword [ebx-0x01] ;  (1 found)
0x148044fe: call dword [ebx-0x18] ;  (1 found)
0x1480565d: call dword [ebx-0x5D] ;  (1 found)
0x14805688: call dword [ebx-0x5D] ;  (1 found)
0x14807a6d: call dword [ebx-0x75] ;  (1 found)
0x1480abac: call dword [ebx-0x75] ;  (1 found)
0x1480ad01: call dword [ebx-0x75] ;  (1 found)
0x14803965: call dword [ebx-0x77] ;  (1 found)
0x14807ae9: call dword [ecx-0x18] ;  (1 found)
0x148093ff: call dword [ecx-0x73] ;  (1 found)
0x14804b33: call dword [edi+0x50] ;  (1 found)
0x14804eac: call dword [edi+0x50] ;  (1 found)
0x14804f31: call dword [edi+0x50] ;  (1 found)
0x14807bb7: call dword [edi+0x56] ;  (1 found)
0x14804a8f: call dword [edi+0x57] ;  (1 found)
0x14804af1: call dword [edi+0x57] ;  (1 found)
0x14804b43: call dword [edi+0x57] ;  (1 found)
0x14808c0d: call dword [edi+0x57] ;  (1 found)
0x14804573: call dword [edi+0x74] ;  (1 found)
0x148057f2: call dword [edi-0x18] ;  (1 found)
0x14807b72: call dword [edi-0x18] ;  (1 found)
0x1480306b: call dword [edi-0x75] ;  (1 found)
0x14807a81: call dword [edi-0x75] ;  (1 found)
0x1480107f: call dword [edx-0x18] ;  (1 found)
0x14805e50: call dword [esi+0x33] ;  (1 found)
0x14805204: call dword [esi+0x50] ;  (1 found)
0x1480931a: call dword [esi+0x50] ;  (1 found)
0x14802c29: call dword [esi+0x57] ;  (1 found)
0x14804315: call dword [esi+0x57] ;  (1 found)
0x14805939: call dword [esi+0x57] ;  (1 found)
0x1480a9f8: call dword [esi-0x01] ;  (1 found)
0x14803bcc: call dword [esi-0x18] ;  (1 found)
0x14803bd8: call dword [esi-0x18] ;  (1 found)
0x14806475: call dword [esi-0x18] ;  (1 found)
0x14807829: call dword [esi-0x18] ;  (1 found)
0x14809ad3: call dword [esi-0x18] ;  (1 found)
0x14804c20: call dword [esi-0x75] ;  (1 found)
0x14804cf5: call dword [esi-0x75] ;  (1 found)
0x14805991: call dword [esi-0x75] ;  (1 found)
0x14807a77: call dword [esi-0x75] ;  (1 found)
0x14809acb: call dword [esi-0x75] ;  (1 found)
0x148029ab: call eax ;  (1 found)
0x1480a192: call eax ;  (1 found)
0x1480a119: call eax ;  (1 found)
0x14801240: call ebx ;  (1 found)
0x14801211: call ebx ;  (1 found)
0x148015d2: call ebx ;  (1 found)
0x14806c36: call ebx ;  (1 found)
0x14806c02: call ebx ;  (1 found)
0x14807b36: call ebx ;  (1 found)
0x14807b63: call ebx ;  (1 found)
0x14807b09: call ebx ;  (1 found)
0x14807bf3: call ebx ;  (1 found)
0x14807cd6: call ebx ;  (1 found)
0x14807d1a: call ebx ;  (1 found)
0x1480c6e6: call ebx ;  (1 found)
0x1480c798: call ebx ;  (1 found)
0x14802400: call ecx ;  (1 found)
0x14802e11: call ecx ;  (1 found)
0x148019de: call edi ;  (1 found)
0x14801a09: call edi ;  (1 found)
0x14802aee: call edi ;  (1 found)
0x14802b04: call edi ;  (1 found)
0x14803235: call edi ;  (1 found)
0x148032f9: call edi ;  (1 found)
0x14806c83: call edi ;  (1 found)
0x1480a5ec: call edi ;  (1 found)
0x1480a552: call edi ;  (1 found)
0x1480a6a4: call edi ;  (1 found)
0x148013ca: call esi ;  (1 found)
0x14801fb1: call esi ;  (1 found)
0x148022b6: call esi ;  (1 found)
0x14802790: call esi ;  (1 found)
0x148027d0: call esi ;  (1 found)
0x14802753: call esi ;  (1 found)
0x14802719: call esi ;  (1 found)
0x14802bb9: call esi ;  (1 found)
0x14803743: call esi ;  (1 found)
0x14803a27: call esi ;  (1 found)
0x148034bd: call esi ;  (1 found)
0x14803d28: call esi ;  (1 found)
0x148046e0: call esi ;  (1 found)
0x148067c7: call esi ;  (1 found)
0x14806820: call esi ;  (1 found)
0x14806890: call esi ;  (1 found)
0x148068e6: call esi ;  (1 found)
0x1480693c: call esi ;  (1 found)
0x14806995: call esi ;  (1 found)
0x14806a51: call esi ;  (1 found)
0x148069f1: call esi ;  (1 found)
0x14806ab0: call esi ;  (1 found)
0x14807c3e: call esi ;  (1 found)
0x14804781: clc  ; adc dword [edi+0x05], esi ; push 0x0000000D ; pop eax ; pop ebp ; ret  ;  (1 found)
0x14809e09: clc  ; add byte [edi+eax-0x23], dh ; add eax, 0x14810F08 ; ret  ;  (1 found)
0x14806ee4: clc  ; add dword [edi], ecx ; xchg eax, esp ; retn 0x5589 ;  (1 found)
0x1480465c: clc  ; call dword [0x1480D050] ;  (1 found)
0x148034c8: clc  ; call dword [0x1480D098] ;  (1 found)
0x148034a5: clc  ; call dword [0x1480D09C] ;  (1 found)
0x148011b2: clc  ; call dword [0x1480D13C] ;  (1 found)
0x14802b30: clc  ; cmp eax, dword [ecx-0x743CA2EC] ; call dword [ebp-0x75] ;  (1 found)
0x1480acc4: clc  ; fld qword [ebp-0x08] ; mov esp, ebp ; pop ebp ; ret  ;  (1 found)
0x1480881a: clc  ; fldcw word [ebp-0x08] ; movsx eax, word [ebp-0x04] ; mov esp, ebp ; pop ebp ; ret  ;  (1 found)
0x1480b9a1: clc  ; fstp qword [esp] ; cvttsd2si eax, qword [esp] ; leave  ; ret  ;  (1 found)
0x14801938: clc  ; lea eax, dword [ebp-0x00000324] ; sbb bl, bl ; mov dword [ebp-0x04], eax ; inc bl ; call dword [0x1480D050] ;  (1 found)
0x14801a5a: clc  ; lea eax, dword [ebp-0x10] ; mov dword [fs:0x00000000], eax ; ret  ;  (1 found)
0x1480b7dd: clc  ; lea eax, dword [ebp-0x10] ; mov dword [fs:0x00000000], eax ; ret  ;  (1 found)
0x1480acc7: clc  ; mov esp, ebp ; pop ebp ; ret  ;  (1 found)
0x1480b49e: clc  ; mov esp, ebp ; pop ebp ; ret  ;  (1 found)
0x1480881d: clc  ; movsx eax, word [ebp-0x04] ; mov esp, ebp ; pop ebp ; ret  ;  (1 found)
0x14803061: clc  ; or al, 0x00 ; add byte [ecx+0x5F], bl ; pop esi ; pop ebp ; ret  ;  (1 found)
0x148024e1: clc  ; push dword [ebp+0x03] ; xor al, al ; ret  ;  (1 found)
0x14804525: clc  ; push dword [ebp+0x03] ; xor al, al ; ret  ;  (1 found)
0x1480194e: clc  ; push eax ; call dword [0x1480D04C] ;  (1 found)
0x14801092: clc  ; push eax ; mov ecx, dword [ebp+0x08] ; push ecx ; call dword [0x1480D134] ;  (1 found)
0x1480348a: clc  ; push eax ; push 0x1480DB54 ; push 0x00000000 ; call dword [0x1480D0BC] ;  (1 found)
0x14809a2d: clc  ; push ecx ; push dword [ebp+0x10] ; push dword [ebp+0x0C] ; push eax ; call dword [0x1480D010] ;  (1 found)
0x1480174b: clc  ; xor eax, dword [ebp-0x0C] ; mov dword [ebp-0x04], eax ; call dword [0x1480D03C] ;  (1 found)
0x1480175a: cld  ; call dword [0x1480D038] ;  (1 found)
0x14801751: cld  ; call dword [0x1480D03C] ;  (1 found)
0x14802b77: cld  ; cmp eax, dword [ecx+0x41BFE814] ; add byte [eax], al ; pop ebp ; ret  ;  (1 found)
0x14802bda: cld  ; cmp eax, dword [ecx-0x743CA2EC] ; call dword [ebp-0x75] ;  (1 found)
0x148047a1: cld  ; fild dword [eax-0x743CA2EC] ; call dword [ebp-0x75] ;  (1 found)
0x148087ef: cld  ; fnclex  ; movsx eax, word [ebp-0x04] ; mov esp, ebp ; pop ebp ; ret  ;  (1 found)
0x1480acc1: cld  ; fstp qword [ebp-0x08] ; fld qword [ebp-0x08] ; mov esp, ebp ; pop ebp ; ret  ;  (1 found)
0x14801943: cld  ; inc bl ; call dword [0x1480D050] ;  (1 found)
0x1480bd87: cld  ; jmp dword [0x1480BD90+edx*4] ;  (1 found)
0x1480c437: cld  ; jmp dword [0x1480C440+edx*4] ;  (1 found)
0x14801763: cld  ; lea eax, dword [ebp-0x14] ; push eax ; call dword [0x1480D034] ;  (1 found)
0x14801a50: cld  ; mov dword [ebp-0x04], 0xFFFFFFFE ; mov dword [ebp-0x08], eax ; lea eax, dword [ebp-0x10] ; mov dword [fs:0x00000000], eax ; ret  ;  (1 found)
0x1480b7d3: cld  ; mov dword [ebp-0x04], 0xFFFFFFFE ; mov dword [ebp-0x08], eax ; lea eax, dword [ebp-0x10] ; mov dword [fs:0x00000000], eax ; ret  ;  (1 found)
0x148087f5: cld  ; mov esp, ebp ; pop ebp ; ret  ;  (1 found)
0x14808821: cld  ; mov esp, ebp ; pop ebp ; ret  ;  (1 found)
0x1480888e: cld  ; mov esp, ebp ; pop ebp ; ret  ;  (1 found)
0x1480888a: cld  ; movsx eax, word [ebp-0x04] ; mov esp, ebp ; pop ebp ; ret  ;  (1 found)
0x1480c7e3: cld  ; pop edi ; leave  ; ret  ;  (1 found)
0x1480c126: cld  ; pop esi ; pop edi ; pop ebx ; ret  ;  (1 found)
0x14809177: cld  ; push eax ; mov eax, dword [0x14813ED8+edi*4] ; push dword [eax+esi+0x18] ; call dword [0x1480D014] ;  (1 found)
0x14801779: cld  ; xor eax, ecx ; mov esp, ebp ; pop ebp ; ret  ;  (1 found)
0x148067c0: cli  ; call dword [0x1480D144] ;  (1 found)
0x14805685: cli  ; out 0xFF, eax ; call dword [ebx-0x5D] ;  (1 found)
0x148051c3: cli  ; pop es ; add byte [eax], al ; pop ecx ; ret  ;  (1 found)
0x148020e3: cli  ; ret  ;  (1 found)
0x148021f8: cli  ; ret  ;  (1 found)
0x148021a3: cli  ; ret  ;  (1 found)
0x14804e87: cmc  ; pop edi ; pop esi ; pop ebx ; pop ebp ; ret  ;  (1 found)
0x1480c737: cmove eax, edx ; pop edi ; leave  ; ret  ;  (1 found)
0x1480c064: cmovne eax, ecx ; ret  ;  (1 found)
0x148089bf: cmp al, 0x08 ; add byte [ebp-0x0C], dh ; pop ebp ; ret  ;  (1 found)
0x1480363a: cmp al, 0x3D ; adc dword [eax+eax*2], 0x8BC30187 ; call dword [ebp-0x75] ;  (1 found)
0x148081f7: cmp al, 0x3D ; adc dword [eax+eax], 0xE95D0675 ; retn 0x0007 ;  (1 found)
0x14802c25: cmp al, 0x81 ; adc al, 0x33 ; call dword [esi+0x57] ;  (1 found)
0x14801754: cmp al, 0xD0 ; adc byte [ecx+esi], 0x00000045 ; cld  ; call dword [0x1480D038] ;  (1 found)
0x1480175d: cmp al, dl ; adc byte [ecx+esi], 0x00000045 ; cld  ; lea eax, dword [ebp-0x14] ; push eax ; call dword [0x1480D034] ;  (1 found)
0x148087a6: cmp byte [0x74C00000], al ; or eax, dword [ecx+0x00001D38] ; sal byte [ebx+eax+0x33], 0xFFFFFFC0 ; ret  ;  (1 found)
0x148019da: cmp byte [eax], al ; add byte [eax], al ; call edi ;  (1 found)
0x148015ff: cmp byte [ecx+0x01B00114], al ; pop esi ; mov esp, ebp ; pop ebp ; ret  ;  (1 found)
0x1480bac8: cmp byte [ecx+0x09730114], al ; rep movsb  ; mov eax, dword [esp+0x0C] ; pop esi ; pop edi ; ret  ;  (1 found)
0x1480c178: cmp byte [ecx+0x09730114], al ; rep movsb  ; mov eax, dword [esp+0x0C] ; pop esi ; pop edi ; ret  ;  (1 found)
0x148020d6: cmp byte [ecx+0x09730114], al ; rep stosb  ; mov eax, dword [esp+0x04] ; mov edi, edx ; ret  ;  (1 found)
0x1480b470: cmp byte [edi+0x5D], bl ; ret  ;  (1 found)
0x1480189c: cmp ch, 0xFFFFFFFF ; dec dword [ecx-0x0002834B] ; dec dword [ecx-0x00028743] ; jmp dword [esi-0x74] ;  (1 found)
0x1480bc3c: cmp cl, byte [edi] ; retn 0x6604 ;  (1 found)
0x1480c2ec: cmp cl, byte [edi] ; retn 0x6604 ;  (1 found)
0x1480bbe4: cmp cl, byte [edi] ; retn 0x6608 ;  (1 found)
0x1480c294: cmp cl, byte [edi] ; retn 0x6608 ;  (1 found)
0x1480bb88: cmp cl, byte [edi] ; retn 0x660C ;  (1 found)
0x1480c238: cmp cl, byte [edi] ; retn 0x660C ;  (1 found)
0x14805542: cmp dh, byte [ebp-0x1F] ; pop esi ; lea eax, dword [edx+0x02] ; pop edi ; pop ebp ; ret  ;  (1 found)
0x14808159: cmp dl, byte [eax+0x50] ; push esi ; push edi ; push eax ; push dword [ebp+0x24] ; call dword [0x1480D0B4] ;  (1 found)
0x1480c062: cmp dl, byte [eax] ; cmovne eax, ecx ; ret  ;  (1 found)
0x14801839: cmp dword [0x14813004], eax ; sete al ; ret  ;  (1 found)
0x14801d33: cmp dword [0x148141F0], eax ; setne al ; ret  ;  (1 found)
0x14803468: cmp dword [eax+0x000000E8], 0x00000000 ; setne al ; ret  ;  (1 found)
0x1480242e: cmp dword [eax+eax*4], esp ; adc al, 0x51 ; call dword [0x1480D06C] ;  (1 found)
0x1480167e: cmp dword [eax], 0xC0000005 ; sete cl ; mov eax, ecx ; ret  ;  (1 found)
0x1480b690: cmp dword [eax], 0xC0000005 ; sete cl ; mov eax, ecx ; ret  ;  (1 found)
0x1480a4a7: cmp dword [ebp+0x08], 0x0374027F ; fldcw word [ebp+0x08] ; leave  ; ret  ;  (1 found)
0x1480337b: cmp dword [ebp+0x08], 0xE06D7363 ; sete al ; pop ebp ; ret  ;  (1 found)
0x1480b6e9: cmp dword [ecx+0x18], edx ; sete al ; pop ebp ; ret  ;  (1 found)
0x1480a36f: cmp dword [esp], 0x0374027F ; fldcw word [esp] ; pop edx ; ret  ;  (1 found)
0x14804df0: cmp eax, 0x00011481 ; add byte [eax], al ; call dword [0x1480D0C8] ;  (1 found)
0x14804dd9: cmp eax, 0x00011481 ; add byte [eax], al ; call dword [0x1480D0E4] ;  (1 found)
0x148036fb: cmp eax, 0x01871481 ; pop ebp ; ret  ;  (1 found)
0x14803c49: cmp eax, 0x01B01481 ; pop esi ; mov esp, ebp ; pop ebp ; ret  ;  (1 found)
0x148035be: cmp eax, 0x01B01481 ; ret  ;  (1 found)
0x14802ef1: cmp eax, 0x03751481 ; xor eax, eax ; ret  ;  (1 found)
0x148058c1: cmp eax, 0x053B1481 ; adc al, 0x3D ; adc dword [0x3CE8500C+esi*2], 0x59FFFFFF ; mov dword [0x14813D08], eax ; ret  ;  (1 found)
0x148077bd: cmp eax, 0x148141E0 ; add byte [ebp+0x05], dh ; or eax, 0xFFFFFFFF ; pop esi ; ret  ;  (1 found)
0x148035b3: cmp eax, 0x15FF1481 ; les edx, eax ; adc byte [ebx], 0x00000034 ; cmp eax, 0x01B01481 ; ret  ;  (1 found)
0x14803712: cmp eax, 0x25E81481 ; add byte [eax], al ; pop ebp ; ret  ;  (1 found)
0x14805216: cmp eax, 0x5E011481 ; mov al, 0x01 ; ret  ;  (1 found)
0x14803ac8: cmp eax, 0x70E81481 ; add byte [eax], al ; add byte [ecx+0x59], bl ; pop ebp ; ret  ;  (1 found)
0x14804dca: cmp eax, 0x8B001481 ; inc ebp ; or byte [ebx+0x1275FEF8], al ; mov dword [0x14813D74], 0x00000001 ; call dword [0x1480D0E4] ;  (1 found)
0x148036cf: cmp eax, 0x8BC31481 ; call dword [ebp-0x75] ;  (1 found)
0x14803704: cmp eax, 0x8BC31481 ; call dword [ebp-0x75] ;  (1 found)
0x148058d5: cmp eax, 0x8BC31481 ; call dword [ebp-0x75] ;  (1 found)
0x14805984: cmp eax, 0xFF501481 ; adc eax, 0x1480D078 ; pop ebp ; ret  ;  (1 found)
0x148059cc: cmp eax, 0xFF501481 ; adc eax, 0x1480D07C ; pop ebp ; ret  ;  (1 found)
0x14802b5f: cmp eax, dword [ecx+0x1FE18314] ; ror eax, cl ; neg eax ; sbb eax, eax ; neg eax ; ret  ;  (1 found)
0x14802b78: cmp eax, dword [ecx+0x41BFE814] ; add byte [eax], al ; pop ebp ; ret  ;  (1 found)
0x14802847: cmp eax, dword [ecx+0x5EE07514] ; pop ebp ; ret  ;  (1 found)
0x1480255e: cmp eax, dword [ecx+0x74F68514] ; and byte [ebx-0x3A], ch ; sbb byte [edi-0x73], dl ; mov eax, 0x14813B64 ; push edi ; call dword [0x1480D080] ;  (1 found)
0x14802b31: cmp eax, dword [ecx-0x743CA2EC] ; call dword [ebp-0x75] ;  (1 found)
0x14802bdb: cmp eax, dword [ecx-0x743CA2EC] ; call dword [ebp-0x75] ;  (1 found)
0x14802193: cmp eax, esp ; movdqu  [edi], xmm0 ; movdqu  [edi+0x10], xmm0 ; mov eax, dword [esp+0x04] ; mov edi, edx ; ret  ;  (1 found)
0x1480a9a3: cmp ecx, 0xFFFFFFFF ; setne al ; ret  ;  (1 found)
0x14804793: cmp ecx, eax ; sbb eax, eax ; and eax, ecx ; add eax, 0x08 ; pop ebp ; ret  ;  (1 found)
0x14806ba4: cmp edx, dword [esi+0x6A] ; add byte [eax-0x18], dl ; mov ah, 0xFF ; inc dword [ebx-0x74A0F33C] ; ret  ;  (1 found)
0x148026e4: cmp esi, dword [ebx] ; rcr byte [esi+0x5F], 0x0000005B ; pop ebp ; ret  ;  (1 found)
0x14806782: cmp esi, dword [ebx] ; rcr byte [esi+0x5F], 0x0000005B ; pop ebp ; ret  ;  (1 found)
0x148079fe: cmp esp, dword [ebx-0x1A740001] ; pop ebp ; ret  ;  (1 found)
0x1480b6e8: cmp word [ecx+0x18], dx ; sete al ; pop ebp ; ret  ;  (1 found)
0x148099e1: cmppd xmm3,  [0x14810E30], 0x06 ; andpd xmm3,  [0x14810E10] ; movq qword [esp+0x04], xmm3 ; fld qword [esp+0x04] ; ret  ;  (1 found)
0x148099e2: cmpps xmm3,  [0x14810E30], 0x06 ; andpd xmm3,  [0x14810E10] ; movq qword [esp+0x04], xmm3 ; fld qword [esp+0x04] ; ret  ;  (1 found)
0x1480b9a6: cvttps2pi mm0, qword [esp] ; leave  ; ret  ;  (1 found)
0x1480b9a5: cvttsd2si eax, qword [esp] ; leave  ; ret  ;  (1 found)
0x14803293: daa  ; add byte [eax], al ; pop ecx ; ret  ;  (1 found)
0x14803c8d: das  ; add byte [eax], al ; pop ecx ; pop ecx ; ret  ;  (1 found)
0x14803c9f: das  ; add byte [eax], al ; pop ecx ; pop ecx ; ret  ;  (1 found)
0x148083ed: das  ; ret  ;  (1 found)
0x148086b0: dec al ; pop ebp ; ret  ;  (1 found)
0x14809314: dec byte [ebp-0x0014037B] ; call dword [esi+0x50] ;  (1 found)
0x14807a3c: dec dword [eax-0x117C00B0] ; add dword [ebp-0x15], esi ; pop esi ; pop edi ; pop ebp ; ret  ;  (1 found)
0x1480b59c: dec dword [ebp+0x00010081] ; add byte [ebp-0x3D], bl ; jmp dword [0x1480D058] ;  (1 found)
0x1480b201: dec dword [ebp+0x6A500845] ; add dword [edx+0x00], ebp ; push edi ; call dword [0x1480D068] ;  (1 found)
0x14804bbf: dec dword [ebp-0x0001177B] ; call dword [ebx+0x50] ;  (1 found)
0x14804b2d: dec dword [ebp-0x0001437B] ; call dword [edi+0x50] ;  (1 found)
0x14806ff7: dec dword [ebx+0x4889C84D] ; or byte [ebx], dh ; shr al, 0xFFFFFFE4 ; inc edi ; add byte [eax], al ; ret  ;  (1 found)
0x14807e2b: dec dword [ebx-0x1A74A13A] ; pop ebp ; ret  ;  (1 found)
0x1480acae: dec dword [ebx-0x1C74A21B] ; pop ebx ; ret  ;  (1 found)
0x1480adc6: dec dword [ebx-0x1C74A21B] ; pop ebx ; ret  ;  (1 found)
0x14802bc6: dec dword [ebx-0x743CA21B] ; call dword [ebp-0x75] ;  (1 found)
0x14803afe: dec dword [ebx-0x743CA21B] ; call dword [ebp-0x75] ;  (1 found)
0x1480320b: dec dword [ebx-0x743CA21B] ; call dword [ebp-0x75] ;  (1 found)
0x14803ab9: dec dword [ebx-0x743CA21B] ; call dword [ebp-0x75] ;  (1 found)
0x148034d8: dec dword [ebx-0x743CA21B] ; call dword [ebp-0x75] ;  (1 found)
0x14803666: dec dword [ebx-0x743CA21B] ; call dword [ebp-0x75] ;  (1 found)
0x148042c4: dec dword [ebx-0x743CA21B] ; call dword [ebp-0x75] ;  (1 found)
0x148041d4: dec dword [ebx-0x743CA21B] ; call dword [ebp-0x75] ;  (1 found)
0x1480501c: dec dword [ebx-0x743CA21B] ; call dword [ebp-0x75] ;  (1 found)
0x14804691: dec dword [ebx-0x743CA21B] ; call dword [ebp-0x75] ;  (1 found)
0x1480541e: dec dword [ebx-0x743CA21B] ; call dword [ebp-0x75] ;  (1 found)
0x14806c51: dec dword [ebx-0x743CA21B] ; call dword [ebp-0x75] ;  (1 found)
0x14806dbc: dec dword [ebx-0x743CA21B] ; call dword [ebp-0x75] ;  (1 found)
0x1480623c: dec dword [ebx-0x743CA21B] ; call dword [ebp-0x75] ;  (1 found)
0x14808d8a: dec dword [ebx-0x743CA21B] ; call dword [ebp-0x75] ;  (1 found)
0x148090ad: dec dword [ebx-0x743CA21B] ; call dword [ebp-0x75] ;  (1 found)
0x1480935d: dec dword [ebx-0x743CA21B] ; call dword [ebp-0x75] ;  (1 found)
0x1480926f: dec dword [ebx-0x743CA21B] ; call dword [ebp-0x75] ;  (1 found)
0x1480a6c6: dec dword [ebx-0x743CA21B] ; call dword [ebp-0x75] ;  (1 found)
0x1480a99a: dec dword [ebx-0x7EC8AFF3] ; adc al, 0x33 ; rol byte [ebx-0x6AF00007], 0xFFFFFFC0 ; ret  ;  (1 found)
0x14801a57: dec dword [ecx+0x458DF845] ; mov dword [fs:0x00000000], eax ; ret  ;  (1 found)
0x1480b7da: dec dword [ecx+0x458DF845] ; mov dword [fs:0x00000000], eax ; ret  ;  (1 found)
0x148045c3: dec dword [ecx-0x00022373] ; dec dword [ecx-0x0002276B] ; dec dword [ecx-0x00022B63] ; dec dword [ecx-0x00022F4B] ; dec dword [ecx-0x00023343] ; jmp dword [esi-0x74] ;  (1 found)
0x148045c9: dec dword [ecx-0x0002276B] ; dec dword [ecx-0x00022B63] ; dec dword [ecx-0x00022F4B] ; dec dword [ecx-0x00023343] ; jmp dword [esi-0x74] ;  (1 found)
0x148045cf: dec dword [ecx-0x00022B63] ; dec dword [ecx-0x00022F4B] ; dec dword [ecx-0x00023343] ; jmp dword [esi-0x74] ;  (1 found)
0x148045d5: dec dword [ecx-0x00022F4B] ; dec dword [ecx-0x00023343] ; jmp dword [esi-0x74] ;  (1 found)
0x148045db: dec dword [ecx-0x00023343] ; jmp dword [esi-0x74] ;  (1 found)
0x1480188d: dec dword [ecx-0x00027773] ; dec dword [ecx-0x00027B6B] ; dec dword [ecx-0x00027F63] ; dec dword [ecx-0x0002834B] ; dec dword [ecx-0x00028743] ; jmp dword [esi-0x74] ;  (1 found)
0x14801893: dec dword [ecx-0x00027B6B] ; dec dword [ecx-0x00027F63] ; dec dword [ecx-0x0002834B] ; dec dword [ecx-0x00028743] ; jmp dword [esi-0x74] ;  (1 found)
0x14801899: dec dword [ecx-0x00027F63] ; dec dword [ecx-0x0002834B] ; dec dword [ecx-0x00028743] ; jmp dword [esi-0x74] ;  (1 found)
0x1480189f: dec dword [ecx-0x0002834B] ; dec dword [ecx-0x00028743] ; jmp dword [esi-0x74] ;  (1 found)
0x148018a5: dec dword [ecx-0x00028743] ; jmp dword [esi-0x74] ;  (1 found)
0x1480182e: dec eax ; add al, 0x83 ; or byte [edx], al ; mov dword [eax+0x04], ecx ; ret  ;  (1 found)
0x14801834: dec eax ; add al, 0xC3 ; xor eax, eax ; cmp dword [0x14813004], eax ; sete al ; ret  ;  (1 found)
0x14803fc1: dec eax ; and eax, dword [ebp+0x0C] ; pop ebp ; ret  ;  (1 found)
0x14803711: dec eax ; cmp eax, 0x25E81481 ; add byte [eax], al ; pop ebp ; ret  ;  (1 found)
0x14805c96: dec eax ; lea eax, dword [ebp-0x48] ; push eax ; call dword [0x1480D054] ;  (1 found)
0x14804d71: dec eax ; lock inc dword [eax] ; pop esi ; ret  ;  (1 found)
0x14806ffc: dec eax ; or byte [ebx], dh ; shr al, 0xFFFFFFE4 ; inc edi ; add byte [eax], al ; ret  ;  (1 found)
0x1480172e: dec eax ; pop ebp ; ret  ;  (1 found)
0x148064a0: dec eax ; pop ebp ; ret  ;  (1 found)
0x14804655: dec eax ; rol byte [eax-0x74FF95EC], 1  ; clc  ; call dword [0x1480D050] ;  (1 found)
0x1480a960: dec eax ; sbb al, 0x8B ; inc ebp ; or byte [ebx+0x08870CC0], al ; pop ebp ; ret  ;  (1 found)
0x148079a1: dec ebp ; adc al, 0x57 ; push esi ; call dword [0x1480D144] ;  (1 found)
0x148019b3: dec ebp ; and eax, dword [eax] ; add ah, cl ; and dword [0x14813828], 0x00000000 ; ret  ;  (1 found)
0x14809010: dec ebp ; fcom qword [ecx+0x50] ; lea eax, dword [ebp-0x14] ; push eax ; push dword [ebp-0x30] ; call dword [0x1480D0A8] ;  (1 found)
0x14806fa1: dec ebp ; fdiv st7, st0 ; adc eax, 0x1480D144 ; call dword [ebp-0x24] ;  (1 found)
0x14806fcf: dec ebp ; fdiv st7, st0 ; adc eax, 0x1480D144 ; call dword [ebp-0x24] ;  (1 found)
0x148054ee: dec ebp ; lock and dword [ecx+0x00000350], 0xFFFFFFFD ; mov eax, edx ; mov esp, ebp ; pop ebp ; ret  ;  (1 found)
0x14804e1b: dec ebp ; lock and dword [ecx+0x00000350], 0xFFFFFFFD ; mov esp, ebp ; pop ebp ; ret  ;  (1 found)
0x148088bf: dec ebp ; lock and dword [ecx+0x00000350], 0xFFFFFFFD ; mov esp, ebp ; pop ebp ; ret  ;  (1 found)
0x14808dca: dec ebp ; lock and dword [ecx+0x00000350], 0xFFFFFFFD ; mov esp, ebp ; pop ebp ; ret  ;  (1 found)
0x148081e3: dec ebp ; lock and dword [ecx+0x00000350], 0xFFFFFFFD ; mov esp, ebp ; pop ebp ; ret  ;  (1 found)
0x1480b0c5: dec ebp ; or byte [ebx-0x09EFF3B7], al ; retn 0x7404 ;  (1 found)
0x14807a66: dec ebp ; or byte [ecx-0x0000FF73], cl ; call dword [ebx-0x75] ;  (1 found)
0x14803103: dec ebp ; or byte [esi-0x01], dl ; adc eax, 0x1480D144 ; call dword [ebp+0x08] ;  (1 found)
0x1480799e: dec ecx ; add byte [ebx+0x5657144D], cl ; call dword [0x1480D144] ;  (1 found)
0x1480bfae: dec ecx ; add byte [ebx+0x5E0C2444], cl ; pop edi ; ret  ;  (1 found)
0x1480c65e: dec ecx ; add byte [ebx+0x5E0C2444], cl ; pop edi ; ret  ;  (1 found)
0x1480bdb6: dec ecx ; add byte [edx+0x47880346], cl ; add ecx, dword [edx+0x47880246] ; add cl, byte [ebx+0x5E0C2444] ; pop edi ; ret  ;  (1 found)
0x1480c466: dec ecx ; add byte [edx+0x47880346], cl ; add ecx, dword [edx+0x47880246] ; add cl, byte [ebx+0x5E0C2444] ; pop edi ; ret  ;  (1 found)
0x14801d55: dec ecx ; add dword [eax], eax ; add byte [ecx+0x5D], bl ; ret  ;  (1 found)
0x148014dc: dec edx ; or al, 0x72 ; or cl, byte [ebx+0x42030842] ; or al, 0x3B ; enter 0x0C72, 0x83 ; retn 0x3B28 ;  (1 found)
0x148062d6: dec esi ; add dword [eax], eax ; add byte [ecx+0x5E], bl ; pop ebp ; ret  ;  (1 found)
0x1480996b: dec esp ; and al, 0x04 ; fld qword [esp+0x04] ; ret  ;  (1 found)
0x148099d2: dec esp ; and al, 0x04 ; fld qword [esp+0x04] ; ret  ;  (1 found)
0x14803ac7: dec esp ; cmp eax, 0x70E81481 ; add byte [eax], al ; add byte [ecx+0x59], bl ; pop ebp ; ret  ;  (1 found)
0x14804460: dec esp ; mov edi, edi ; push ebx ; push esi ; push edi ; call dword [0x1480D070] ;  (1 found)
0x148013c6: dec esp ; push es ; add byte [eax], al ; call esi ;  (1 found)
0x14801d8f: dec esp ; rol byte [eax+0x04096814], 1  ; add al, al ; call dword [0x1480D060] ;  (1 found)
0x14806b05: div byte [eax-0x743CA1FF] ; call dword [ebp-0x75] ;  (1 found)
0x1480a9e1: div byte [ebp+0x2D] ; call dword [0x1480D070] ;  (1 found)
0x148025ea: div byte [ebp+0x50] ; call dword [0x1480D070] ;  (1 found)
0x14806686: div byte [ebp+0x50] ; call dword [0x1480D070] ;  (1 found)
0x148055bc: div byte [edi+eax+0x56] ; call dword [0x1480D0F0] ;  (1 found)
0x148068db: div byte [esp+ecx-0x75] ; into  ; call dword [0x1480D144] ;  (1 found)
0x1480698a: div byte [esp+ecx-0x75] ; into  ; call dword [0x1480D144] ;  (1 found)
0x14806931: div byte [esp+ecx-0x75] ; into  ; call dword [0x1480D144] ;  (1 found)
0x14807baf: div dword [ebx+0x25] ; mov ecx, dword [ebp-0x00000108] ; push edi ; push esi ; call dword [0x1480D144] ;  (1 found)
0x148014e7: enter 0x0C72, 0x83 ; retn 0x3B28 ;  (1 found)
0x148017c1: enter 0x0D89, 0x14 ; xor byte [ecx-0x762E08EC], al ; or eax, 0x14813018 ; pop edi ; pop esi ; ret  ;  (1 found)
0x148099ce: enter 0x0F66, 0xD6 ; dec esp ; and al, 0x04 ; fld qword [esp+0x04] ; ret  ;  (1 found)
0x14802598: enter 0x458B, 0x08 ; ror eax, cl ; xor eax, dword [0x14813014] ; pop ebp ; ret  ;  (1 found)
0x14802b47: enter 0x458B, 0x08 ; ror eax, cl ; xor eax, dword [0x14813014] ; pop ebp ; ret  ;  (1 found)
0x148070a2: enter 0x5D40, 0xC3 ; or eax, 0x00008040 ; pop ebp ; ret  ;  (1 found)
0x14807757: enter 0x5DFF, 0xC3 ; mov eax, dword [eax+0x10] ; pop ebp ; ret  ;  (1 found)
0x148036f5: enter 0x5DFF, 0xC3 ; mov ecx, 0x14813D40 ; xchg dword [ecx], eax ; pop ebp ; ret  ;  (1 found)
0x148083f2: enter 0x5DFF, 0xC3 ; push dword [ebp+0x08] ; push 0x00000000 ; push dword [0x148141C0] ; call dword [0x1480D024] ;  (1 found)
0x148047fe: enter 0x5DFF, 0xC3 ; sbb eax, eax ; neg eax ; pop ebp ; ret  ;  (1 found)
0x14808ee7: enter 0x5EFF, 0x8B ; in eax, 0x5D ; ret  ;  (1 found)
0x1480a88e: enter 0x5EFF, 0x8B ; in eax, 0x5D ; ret  ;  (1 found)
0x14805c1e: enter 0x5FFF, 0x5E ; pop ebx ; pop ebp ; ret  ;  (1 found)
0x14806d2b: enter 0x8141, 0x14 ; pop ebp ; ret  ;  (1 found)
0x14804794: enter 0xC01B, 0x23 ; rol dword [ebx-0x3CA2F740], 0xFFFFFF8B ; add al, 0xC5 ; cld  ; fild dword [eax-0x743CA2EC] ; call dword [ebp-0x75] ;  (1 found)
0x1480b78e: enter 0xC68B, 0x5E ; retn 0x0010 ;  (1 found)
0x14802b66: enter 0xD8F7, 0x1B ; sal bh, 0xFFFFFFD8 ; ret  ;  (1 found)
0x14805b57: enter 0xE083, 0x3F ; sar ecx, 0x06 ; imul eax, eax, 0x30 ; add eax, dword [0x14813ED8+ecx*4] ; push eax ; call dword [0x1480D078] ;  (1 found)
0x14805b7a: enter 0xE083, 0x3F ; sar ecx, 0x06 ; imul eax, eax, 0x30 ; add eax, dword [0x14813ED8+ecx*4] ; push eax ; call dword [0x1480D07C] ;  (1 found)
0x1480a927: enter 0xEBFF, 0x02 ; xor eax, eax ; pop edi ; pop esi ; pop ebp ; ret  ;  (1 found)
0x14806496: enter 0xF0FF, 0x0F ; rol dword [ecx+0x000000B0], 0x48 ; pop ebp ; ret  ;  (1 found)
0x1480a2da: f2xm1  ; fld1  ; faddp st1, st0 ; fscale  ; fstp st1 ; ret  ;  (1 found)
0x1480a05e: f2xm1  ; ret  ;  (1 found)
0x1480a05c: fabs  ; f2xm1  ; ret  ;  (1 found)
0x1480b945: fadd dword [ebx+0x5E5D00DA] ; pop edi ; retn 0x0010 ;  (1 found)
0x1480a213: fadd qword [0x14810FDE] ; ret  ;  (1 found)
0x1480a309: fadd qword [0x14811000] ; mov eax, 0x00000000 ; ret  ;  (1 found)
0x1480a2de: faddp st1, st0 ; fscale  ; fstp st1 ; ret  ;  (1 found)
0x1480a280: faddp st1, st0 ; ret  ;  (1 found)
0x1480a241: faddp st1, st0 ; ret  ;  (1 found)
0x14807c31: fbstp  [esi+0x1F] ; push edi ; push ebx ; mov ecx, esi ; call dword [0x1480D144] ;  (1 found)
0x1480a1e5: fchs  ; ret  ;  (1 found)
0x1480a2c1: fchs  ; ret  ;  (1 found)
0x14809fa5: fchs  ; ret  ;  (1 found)
0x14809ff0: fchs  ; ret  ;  (1 found)
0x14808c9d: fcom dword [eax+0x56] ; push dword [ebp-0x20] ; mov esi, dword [ebp+0x24] ; push 0x00000001 ; push esi ; call dword [0x1480D0B0] ;  (1 found)
0x1480c096: fcom dword [edi-0x75] ; ret  ;  (1 found)
0x14809011: fcom qword [ecx+0x50] ; lea eax, dword [ebp-0x14] ; push eax ; push dword [ebp-0x30] ; call dword [0x1480D0A8] ;  (1 found)
0x148075ab: fcomp dword [ebx] ; sal bh, 0xFFFFFFD8 ; pop ebp ; ret  ;  (1 found)
0x14802b68: fcomp dword [ebx] ; sal bh, 0xFFFFFFD8 ; ret  ;  (1 found)
0x148057ba: fcomp dword [ebx] ; shl byte [ebx], 0xFFFFFFC1 ; mov byte [ecx-0x01], bl ; push eax ; push esi ; call dword [0x1480D0F4] ;  (1 found)
0x14801711: fcomp dword [ecx+0x1B] ; sal bh, 0xFFFFFFD0 ; and eax, dword [ebp+0x08] ; pop ebp ; ret  ;  (1 found)
0x14801728: fcomp dword [ecx+0x1B] ; sal bh, 0xFFFFFFD8 ; dec eax ; pop ebp ; ret  ;  (1 found)
0x1480a1d7: fcomp st0, st1 ; out dx, al ; ret  ;  (1 found)
0x14809f3b: fcomp st0, st3 ; sub eax, 0x14810F60 ; mov byte [ebp-0x00000090], 0x00000002 ; ret  ;  (1 found)
0x1480a002: fcomp st0, st3 ; sub eax, 0x14810F60 ; mov byte [ebp-0x00000090], 0x00000003 ; ret  ;  (1 found)
0x1480a016: fcomp st0, st3 ; sub eax, 0x14810F60 ; ret  ;  (1 found)
0x14809f6c: fcomp st0, st3 ; sub eax, 0x14810F6A ; ret  ;  (1 found)
0x1480a1d5: fcomp st0, st5 ; fcomp st0, st1 ; out dx, al ; ret  ;  (1 found)
0x14809f39: fcomp st0, st5 ; fcomp st0, st3 ; sub eax, 0x14810F60 ; mov byte [ebp-0x00000090], 0x00000002 ; ret  ;  (1 found)
0x1480a000: fcomp st0, st5 ; fcomp st0, st3 ; sub eax, 0x14810F60 ; mov byte [ebp-0x00000090], 0x00000003 ; ret  ;  (1 found)
0x14806ee0: fdiv qword [ebx] ; rol byte [ebx-0x6BF0FE08], cl ; retn 0x5589 ;  (1 found)
0x14806fa2: fdiv st7, st0 ; adc eax, 0x1480D144 ; call dword [ebp-0x24] ;  (1 found)
0x14806fd0: fdiv st7, st0 ; adc eax, 0x1480D144 ; call dword [ebp-0x24] ;  (1 found)
0x14809ad7: fdiv st7, st0 ; call dword [eax-0x18] ;  (1 found)
0x1480611f: fdiv st7, st0 ; inc dword [ebx+0x5D5E28C4] ; ret  ;  (1 found)
0x148084a6: fdivr dword [esi] ; adc dword [edi+ecx], 0x280844B6 ; and eax, 0x40 ; pop ebp ; ret  ;  (1 found)
0x1480b947: fiadd dword [eax] ; pop ebp ; pop esi ; pop edi ; retn 0x0010 ;  (1 found)
0x1480c05f: fidiv dword [ebx] ; leave  ; cmp dl, byte [eax] ; cmovne eax, ecx ; ret  ;  (1 found)
0x14808696: fidiv word [eax-0x743CA2FF] ; call dword [ebp-0x75] ;  (1 found)
0x14803c88: fild dword [eax+0x2F43E814] ; add byte [eax], al ; pop ecx ; pop ecx ; ret  ;  (1 found)
0x14803c9a: fild dword [eax+0x2FB4E814] ; add byte [eax], al ; pop ecx ; pop ecx ; ret  ;  (1 found)
0x148034a0: fild dword [eax-0x078A00EC] ; call dword [0x1480D09C] ;  (1 found)
0x148047a2: fild dword [eax-0x743CA2EC] ; call dword [ebp-0x75] ;  (1 found)
0x148055ba: fild word [ebp+0x560774F6] ; call dword [0x1480D0F0] ;  (1 found)
0x148030b3: fist dword [ebx+0x53] ; call dword [0x1480D0B4] ;  (1 found)
0x1480845b: fist dword [esi+0x57] ; push 0x00000000 ; push dword [0x148141C0] ; call dword [0x1480D020] ;  (1 found)
0x14801940: fisttp dword [ecx-0x3C0103BB] ; call dword [0x1480D050] ;  (1 found)
0x1480935a: fisttp word [ecx-0x1A740001] ; pop ebp ; ret  ;  (1 found)
0x1480a39a: fld dword [eax] ; add byte [eax], al ; pop edx ; ret  ;  (1 found)
0x148099da: fld qword [0x14810E50] ; ret  ;  (1 found)
0x14809e0d: fld qword [0x14810F08] ; ret  ;  (1 found)
0x1480a2b4: fld qword [0x14810FE6] ; fmulp st1, st0 ; ret  ;  (1 found)
0x14804da9: fld qword [eax-0x5E3CA2EC] ; pop eax ; fld qword [eax-0x743CA2EC] ; call dword [ebp-0x75] ;  (1 found)
0x14804da2: fld qword [eax-0x5E3CA2EC] ; pop esp ; fld qword [eax-0x5E3CA2EC] ; pop eax ; fld qword [eax-0x743CA2EC] ; call dword [ebp-0x75] ;  (1 found)
0x14804db0: fld qword [eax-0x743CA2EC] ; call dword [ebp-0x75] ;  (1 found)
0x1480b396: fld qword [ebp+0x20] ; add esp, 0x0C ; mov esp, ebp ; pop ebp ; ret  ;  (1 found)
0x1480acc5: fld qword [ebp-0x08] ; mov esp, ebp ; pop ebp ; ret  ;  (1 found)
0x1480b49c: fld qword [ebp-0x08] ; mov esp, ebp ; pop ebp ; ret  ;  (1 found)
0x1480b2c6: fld qword [ecx+0x50] ; fstp qword [ebx] ; pop edi ; pop ebx ; pop ebp ; ret  ;  (1 found)
0x1480a324: fld qword [edx] ; ret  ;  (1 found)
0x1480a5e0: fld qword [esi] ; push eax ; fstp qword [ebp-0x0C] ; call dword [0x1480D144] ;  (1 found)
0x1480a546: fld qword [esi] ; push eax ; fstp qword [ebp-0x0C] ; call dword [0x1480D144] ;  (1 found)
0x1480a698: fld qword [esi] ; push eax ; fstp qword [ebp-0x0C] ; call dword [0x1480D144] ;  (1 found)
0x14809dae: fld qword [esp+0x04] ; add esp, 0x10 ; ret  ;  (1 found)
0x1480996e: fld qword [esp+0x04] ; ret  ;  (1 found)
0x1480999d: fld qword [esp+0x04] ; ret  ;  (1 found)
0x148099d5: fld qword [esp+0x04] ; ret  ;  (1 found)
0x148099f8: fld qword [esp+0x04] ; ret  ;  (1 found)
0x14809e8f: fld qword [esp+0x10] ; add esp, 0x1C ; ret  ;  (1 found)
0x14809f3c: fld tword [0x14810F60] ; mov byte [ebp-0x00000090], 0x00000002 ; ret  ;  (1 found)
0x1480a003: fld tword [0x14810F60] ; mov byte [ebp-0x00000090], 0x00000003 ; ret  ;  (1 found)
0x1480a017: fld tword [0x14810F60] ; ret  ;  (1 found)
0x14809f6d: fld tword [0x14810F6A] ; ret  ;  (1 found)
0x1480a349: fld tword [esp] ; add esp, 0x0A ; test eax, 0x00000000 ; mov eax, dword [edx+0x04] ; ret  ;  (1 found)
0x1480a2db: fld1  ; faddp st1, st0 ; fscale  ; fstp st1 ; ret  ;  (1 found)
0x1480a2dc: fld1  ; faddp st1, st0 ; fscale  ; fstp st1 ; ret  ;  (1 found)
0x1480aba0: fld1  ; mov eax, dword [ebp+0x18] ; fstp qword [eax] ; xor eax, eax ; pop ebp ; ret  ;  (1 found)
0x1480a1ec: fld1  ; ret  ;  (1 found)
0x148044f3: fldcw word [eax-0x24] ; inc eax ; adc dword [edi+edx*2], 0xFFFC3FE8 ; call dword [ebx-0x18] ;  (1 found)
0x1480a4ae: fldcw word [ebp+0x08] ; leave  ; ret  ;  (1 found)
0x1480881b: fldcw word [ebp-0x08] ; movsx eax, word [ebp-0x04] ; mov esp, ebp ; pop ebp ; ret  ;  (1 found)
0x1480a2f7: fldcw word [esp+0x06] ; ret  ;  (1 found)
0x1480a376: fldcw word [esp] ; pop edx ; ret  ;  (1 found)
0x1480a405: fldcw word [esp] ; pop edx ; ret  ;  (1 found)
0x1480a3a0: fldcw word [esp] ; pop edx ; ret  ;  (1 found)
0x14808877: fldpi  ; fstp qword [ebp-0x0C] ; wait  ; mov esp, ebp ; pop ebp ; ret  ;  (1 found)
0x1480a1d8: fldz  ; ret  ;  (1 found)
0x1480172d: fmul dword [eax+0x5D] ; ret  ;  (1 found)
0x1480a2ba: fmulp st1, st0 ; ret  ;  (1 found)
0x148087f0: fnclex  ; movsx eax, word [ebp-0x04] ; mov esp, ebp ; pop ebp ; ret  ;  (1 found)
0x1480acc0: frndint  ; fstp qword [ebp-0x08] ; fld qword [ebp-0x08] ; mov esp, ebp ; pop ebp ; ret  ;  (1 found)
0x14805e76: fsave  [eax-0x743CA1FF] ; call dword [ebp-0x75] ;  (1 found)
0x1480a2e0: fscale  ; fstp st1 ; ret  ;  (1 found)
0x1480b594: fstp dword [ebx] ; leave  ; and ecx, 0xFFFFFF08 ; lea eax, dword [ecx+0x00000100] ; pop ebp ; ret  ;  (1 found)
0x1480b56b: fstp dword [ebx] ; leave  ; and ecx, 0xFFFFFF90 ; lea eax, dword [ecx+0x00000080] ; pop ebp ; ret  ;  (1 found)
0x1480b588: fstp dword [ebx] ; leave  ; and ecx, 0xFFFFFFE0 ; lea eax, dword [ecx+0x40] ; pop ebp ; ret  ;  (1 found)
0x1480ba3b: fstp dword [esp+0x18] ; fstp dword [esp+0x18] ; leave  ; ret  ;  (1 found)
0x1480ba3f: fstp dword [esp+0x18] ; leave  ; ret  ;  (1 found)
0x1480aba5: fstp qword [eax] ; xor eax, eax ; pop ebp ; ret  ;  (1 found)
0x1480acc2: fstp qword [ebp-0x08] ; fld qword [ebp-0x08] ; mov esp, ebp ; pop ebp ; ret  ;  (1 found)
0x1480a5e3: fstp qword [ebp-0x0C] ; call dword [0x1480D144] ;  (1 found)
0x1480a549: fstp qword [ebp-0x0C] ; call dword [0x1480D144] ;  (1 found)
0x1480a69b: fstp qword [ebp-0x0C] ; call dword [0x1480D144] ;  (1 found)
0x14808879: fstp qword [ebp-0x0C] ; wait  ; mov esp, ebp ; pop ebp ; ret  ;  (1 found)
0x1480a5dd: fstp qword [ebp-0x14] ; fld qword [esi] ; push eax ; fstp qword [ebp-0x0C] ; call dword [0x1480D144] ;  (1 found)
0x1480a543: fstp qword [ebp-0x14] ; fld qword [esi] ; push eax ; fstp qword [ebp-0x0C] ; call dword [0x1480D144] ;  (1 found)
0x1480a695: fstp qword [ebp-0x14] ; fld qword [esi] ; push eax ; fstp qword [ebp-0x0C] ; call dword [0x1480D144] ;  (1 found)
0x1480b2c9: fstp qword [ebx] ; pop edi ; pop ebx ; pop ebp ; ret  ;  (1 found)
0x1480b9a2: fstp qword [esp] ; cvttsd2si eax, qword [esp] ; leave  ; ret  ;  (1 found)
0x14809f3a: fstp st0 ; fld tword [0x14810F60] ; mov byte [ebp-0x00000090], 0x00000002 ; ret  ;  (1 found)
0x1480a001: fstp st0 ; fld tword [0x14810F60] ; mov byte [ebp-0x00000090], 0x00000003 ; ret  ;  (1 found)
0x1480a015: fstp st0 ; fld tword [0x14810F60] ; ret  ;  (1 found)
0x14809f6b: fstp st0 ; fld tword [0x14810F6A] ; ret  ;  (1 found)
0x1480a1ea: fstp st0 ; fld1  ; ret  ;  (1 found)
0x1480a1d6: fstp st0 ; fldz  ; ret  ;  (1 found)
0x14809f38: fstp st0 ; fstp st0 ; fld tword [0x14810F60] ; mov byte [ebp-0x00000090], 0x00000002 ; ret  ;  (1 found)
0x14809fff: fstp st0 ; fstp st0 ; fld tword [0x14810F60] ; mov byte [ebp-0x00000090], 0x00000003 ; ret  ;  (1 found)
0x1480a1e8: fstp st0 ; fstp st0 ; fld1  ; ret  ;  (1 found)
0x1480a1d4: fstp st0 ; fstp st0 ; fldz  ; ret  ;  (1 found)
0x1480a1ca: fstp st0 ; ret  ;  (1 found)
0x1480aa78: fstp st0 ; xor eax, eax ; mov esp, ebp ; pop ebp ; ret  ;  (1 found)
0x1480a2e2: fstp st1 ; ret  ;  (1 found)
0x1480a056: fstsw word [ebp-0x000000A0] ; fabs  ; f2xm1  ; ret  ;  (1 found)
0x148087ed: fstsw word [ebp-0x04] ; fnclex  ; movsx eax, word [ebp-0x04] ; mov esp, ebp ; pop ebp ; ret  ;  (1 found)
0x14808888: fstsw word [ebp-0x04] ; movsx eax, word [ebp-0x04] ; mov esp, ebp ; pop ebp ; ret  ;  (1 found)
0x148099af: fsub dword [esi+0x0F] ; retn 0x06C1 ;  (1 found)
0x14808d36: fsubr qword [edx+0x01] ; push dword [ebp+0x24] ; call dword [0x1480D0B0] ;  (1 found)
0x14808cbc: fsubr qword [edx+0x09] ; push esi ; call dword [0x1480D0B0] ;  (1 found)
0x1480a053: ftst  ; wait  ; fstsw word [ebp-0x000000A0] ; fabs  ; f2xm1  ; ret  ;  (1 found)
0x1480a1c8: fxch st0, st1 ; fstp st0 ; ret  ;  (1 found)
0x14809f61: fyl2x  ; ret  ;  (1 found)
0x14809f85: fyl2x  ; ret  ;  (1 found)
0x1480173d: hlt  ; and dword [ebp-0x08], 0x00000000 ; push eax ; call dword [0x1480D040] ;  (1 found)
0x1480a5e5: hlt  ; call dword [0x1480D144] ;  (1 found)
0x1480a54b: hlt  ; call dword [0x1480D144] ;  (1 found)
0x1480a69d: hlt  ; call dword [0x1480D144] ;  (1 found)
0x1480174e: hlt  ; mov dword [ebp-0x04], eax ; call dword [0x1480D03C] ;  (1 found)
0x14808664: hlt  ; mov esp, ebp ; pop ebp ; ret  ;  (1 found)
0x148089c3: hlt  ; pop ebp ; ret  ;  (1 found)
0x148022d0: hlt  ; push eax ; push dword [ebp-0x10] ; push dword [ebp-0x1C] ; push dword [ebp-0x20] ; call dword [0x1480D068] ;  (1 found)
0x1480887b: hlt  ; wait  ; mov esp, ebp ; pop ebp ; ret  ;  (1 found)
0x14806d93: hlt  ; xor eax, eax ; pop ebp ; ret  ;  (1 found)
0x1480112c: idiv edi ; call dword [eax-0x18] ;  (1 found)
0x1480107d: idiv edi ; call dword [edx-0x18] ;  (1 found)
0x1480597e: imul eax, dword [ebp+0x08], 0x18 ; add eax, 0x14813D80 ; push eax ; call dword [0x1480D078] ;  (1 found)
0x148059c6: imul eax, dword [ebp+0x08], 0x18 ; add eax, 0x14813D80 ; push eax ; call dword [0x1480D07C] ;  (1 found)
0x14805b5e: imul eax, eax, 0x30 ; add eax, dword [0x14813ED8+ecx*4] ; push eax ; call dword [0x1480D078] ;  (1 found)
0x14805b81: imul eax, eax, 0x30 ; add eax, dword [0x14813ED8+ecx*4] ; push eax ; call dword [0x1480D07C] ;  (1 found)
0x14802565: imul eax, esi, 0x18 ; push edi ; lea edi, dword [eax+0x14813B64] ; push edi ; call dword [0x1480D080] ;  (1 found)
0x1480599d: imul eax, esi, 0x18 ; push edi ; lea edi, dword [eax+0x14813D68] ; push edi ; call dword [0x1480D080] ;  (1 found)
0x1480299e: imul ecx, dword [0x59585051+edx*2], 0x5D ; pop ecx ; pop ebx ; retn 0x0004 ;  (1 found)
0x148084a0: imul ecx, ecx, 0x30 ; mov eax, dword [0x14813ED8+eax*4] ; movzx eax, byte [eax+ecx+0x28] ; and eax, 0x40 ; pop ebp ; ret  ;  (1 found)
0x148041f0: imul edi, ebx, 0x5959FFFF ; pop ebp ; retn 0x0004 ;  (1 found)
0x14807afa: imul edi, esi ; add edi, ecx ; push edi ; push ecx ; mov ecx, ebx ; call dword [0x1480D144] ;  (1 found)
0x1480a1ae: in al, 0x0A ; les ecx,  [edi] ; mov esi, 0x04E181C0 ; add al, 0x00 ; add byte [ebx-0x7C27FC26], cl ; ret  ;  (1 found)
0x14807001: in al, 0x47 ; add byte [eax], al ; ret  ;  (1 found)
0x14809050: in al, 0x50 ; push dword [ebp-0x30] ; call dword [0x1480D0A8] ;  (1 found)
0x148037a8: in al, 0x6A ; add al, ch ; adc dword [edx], esp ; add byte [eax], al ; pop ecx ; ret  ;  (1 found)
0x1480a054: in al, 0x9B ; fstsw word [ebp-0x000000A0] ; fabs  ; f2xm1  ; ret  ;  (1 found)
0x1480b9a0: in al, 0xF8 ; fstp qword [esp] ; cvttsd2si eax, qword [esp] ; leave  ; ret  ;  (1 found)
0x1480997f: in al, dx ; adc byte [ecx-0x74F3DBAC], cl ; aam 0x83 ; retn 0x8914 ;  (1 found)
0x14801141: in al, dx ; add byte [ebp+0x03], dh ; pop eax ; pop ebx ; ret  ;  (1 found)
0x14801137: in al, dx ; add byte [ebp+0x04], dh ; mov eax, esp ; jmp esp ;  (1 found)
0x14805c95: in al, dx ; dec eax ; lea eax, dword [ebp-0x48] ; push eax ; call dword [0x1480D054] ;  (1 found)
0x1480a545: in al, dx ; fld qword [esi] ; push eax ; fstp qword [ebp-0x0C] ; call dword [0x1480D144] ;  (1 found)
0x1480a5df: in al, dx ; fld qword [esi] ; push eax ; fstp qword [ebp-0x0C] ; call dword [0x1480D144] ;  (1 found)
0x1480a697: in al, dx ; fld qword [esi] ; push eax ; fstp qword [ebp-0x0C] ; call dword [0x1480D144] ;  (1 found)
0x1480597d: in al, dx ; imul eax, dword [ebp+0x08], 0x18 ; add eax, 0x14813D80 ; push eax ; call dword [0x1480D078] ;  (1 found)
0x148059c5: in al, dx ; imul eax, dword [ebp+0x08], 0x18 ; add eax, 0x14813D80 ; push eax ; call dword [0x1480D07C] ;  (1 found)
0x14807878: in al, dx ; mov eax, dword [ebp+0x08] ; add eax, 0x20 ; push eax ; call dword [0x1480D078] ;  (1 found)
0x1480788c: in al, dx ; mov eax, dword [ebp+0x08] ; add eax, 0x20 ; push eax ; call dword [0x1480D07C] ;  (1 found)
0x14802b2b: in al, dx ; mov eax, dword [ebp+0x08] ; mov dword [0x14813BF8], eax ; pop ebp ; ret  ;  (1 found)
0x148034e1: in al, dx ; mov eax, dword [ebp+0x08] ; mov dword [0x14813D1C], eax ; pop ebp ; ret  ;  (1 found)
0x1480469a: in al, dx ; mov eax, dword [ebp+0x08] ; mov dword [0x14813D64], eax ; pop ebp ; ret  ;  (1 found)
0x148010a0: in al, dx ; mov edx, dword [ebp+0x08] ; push edx ; call dword [0x1480D130] ;  (1 found)
0x1480b99d: in al, dx ; or byte [ebx+0x1CDDF8E4], al ; and al, 0xF2 ; cvttps2pi mm0, qword [esp] ; leave  ; ret  ;  (1 found)
0x14801d81: in al, dx ; push 0x00000000 ; call dword [0x1480D050] ;  (1 found)
0x14801766: in al, dx ; push eax ; call dword [0x1480D034] ;  (1 found)
0x14809016: in al, dx ; push eax ; push dword [ebp-0x30] ; call dword [0x1480D0A8] ;  (1 found)
0x148096ef: in al, dx ; push ebx ; push ecx ; call dword [0x1480D0A8] ;  (1 found)
0x14805550: in al, dx ; push ecx ; push ebx ; push esi ; push edi ; call dword [0x1480D0EC] ;  (1 found)
0x14805c93: in al, dx ; sub esp, 0x48 ; lea eax, dword [ebp-0x48] ; push eax ; call dword [0x1480D054] ;  (1 found)
0x14801776: in al, dx ; xor eax, dword [ebp-0x04] ; xor eax, ecx ; mov esp, ebp ; pop ebp ; ret  ;  (1 found)
0x14803378: in al, dx ; xor eax, eax ; cmp dword [ebp+0x08], 0xE06D7363 ; sete al ; pop ebp ; ret  ;  (1 found)
0x1480acb0: in eax, 0x5D ; mov esp, ebx ; pop ebx ; ret  ;  (1 found)
0x1480adc8: in eax, 0x5D ; mov esp, ebx ; pop ebx ; ret  ;  (1 found)
0x14801a76: in eax, 0x5D ; push ecx ; ret  ;  (1 found)
0x14801607: in eax, 0x5D ; ret  ;  (1 found)
0x1480177d: in eax, 0x5D ; ret  ;  (1 found)
0x14801968: in eax, 0x5D ; ret  ;  (1 found)
0x14801d2e: in eax, 0x5D ; ret  ;  (1 found)
0x14802021: in eax, 0x5D ; ret  ;  (1 found)
0x14801e9f: in eax, 0x5D ; ret  ;  (1 found)
0x14802665: in eax, 0x5D ; ret  ;  (1 found)
0x14802b1e: in eax, 0x5D ; ret  ;  (1 found)
0x14802bc8: in eax, 0x5D ; ret  ;  (1 found)
0x1480288e: in eax, 0x5D ; ret  ;  (1 found)
0x14802d13: in eax, 0x5D ; ret  ;  (1 found)
0x14802e88: in eax, 0x5D ; ret  ;  (1 found)
0x1480302b: in eax, 0x5D ; ret  ;  (1 found)
0x1480320d: in eax, 0x5D ; ret  ;  (1 found)
0x14803252: in eax, 0x5D ; ret  ;  (1 found)
0x1480114a: in eax, 0x5D ; ret  ;  (1 found)
0x1480375d: in eax, 0x5D ; ret  ;  (1 found)
0x1480399d: in eax, 0x5D ; ret  ;  (1 found)
0x14803b00: in eax, 0x5D ; ret  ;  (1 found)
0x14803abb: in eax, 0x5D ; ret  ;  (1 found)
0x148033e1: in eax, 0x5D ; ret  ;  (1 found)
0x148034da: in eax, 0x5D ; ret  ;  (1 found)
0x14803668: in eax, 0x5D ; ret  ;  (1 found)
0x148042c6: in eax, 0x5D ; ret  ;  (1 found)
0x148041d6: in eax, 0x5D ; ret  ;  (1 found)
0x14803b72: in eax, 0x5D ; ret  ;  (1 found)
0x14803c50: in eax, 0x5D ; ret  ;  (1 found)
0x14803d5a: in eax, 0x5D ; ret  ;  (1 found)
0x148049da: in eax, 0x5D ; ret  ;  (1 found)
0x14804a8b: in eax, 0x5D ; ret  ;  (1 found)
0x14804b87: in eax, 0x5D ; ret  ;  (1 found)
0x14804e25: in eax, 0x5D ; ret  ;  (1 found)
0x148050a7: in eax, 0x5D ; ret  ;  (1 found)
0x1480501e: in eax, 0x5D ; ret  ;  (1 found)
0x14804693: in eax, 0x5D ; ret  ;  (1 found)
0x148046f1: in eax, 0x5D ; ret  ;  (1 found)
0x148055cc: in eax, 0x5D ; ret  ;  (1 found)
0x148058aa: in eax, 0x5D ; ret  ;  (1 found)
0x14805800: in eax, 0x5D ; ret  ;  (1 found)
0x14805a08: in eax, 0x5D ; ret  ;  (1 found)
0x14805a82: in eax, 0x5D ; ret  ;  (1 found)
0x14805420: in eax, 0x5D ; ret  ;  (1 found)
0x148054fa: in eax, 0x5D ; ret  ;  (1 found)
0x14806c53: in eax, 0x5D ; ret  ;  (1 found)
0x14806ca0: in eax, 0x5D ; ret  ;  (1 found)
0x14806dbe: in eax, 0x5D ; ret  ;  (1 found)
0x14807592: in eax, 0x5D ; ret  ;  (1 found)
0x148073aa: in eax, 0x5D ; ret  ;  (1 found)
0x148075fa: in eax, 0x5D ; ret  ;  (1 found)
0x14805d42: in eax, 0x5D ; ret  ;  (1 found)
0x14805e9e: in eax, 0x5D ; ret  ;  (1 found)
0x1480623e: in eax, 0x5D ; ret  ;  (1 found)
0x14806425: in eax, 0x5D ; ret  ;  (1 found)
0x14806701: in eax, 0x5D ; ret  ;  (1 found)
0x14808666: in eax, 0x5D ; ret  ;  (1 found)
0x14808617: in eax, 0x5D ; ret  ;  (1 found)
0x148087f7: in eax, 0x5D ; ret  ;  (1 found)
0x14808823: in eax, 0x5D ; ret  ;  (1 found)
0x1480887e: in eax, 0x5D ; ret  ;  (1 found)
0x14808890: in eax, 0x5D ; ret  ;  (1 found)
0x148088c9: in eax, 0x5D ; ret  ;  (1 found)
0x14808ae7: in eax, 0x5D ; ret  ;  (1 found)
0x14808d8c: in eax, 0x5D ; ret  ;  (1 found)
0x14808dd4: in eax, 0x5D ; ret  ;  (1 found)
0x1480796b: in eax, 0x5D ; ret  ;  (1 found)
0x14807a03: in eax, 0x5D ; ret  ;  (1 found)
0x14807aac: in eax, 0x5D ; ret  ;  (1 found)
0x14807e30: in eax, 0x5D ; ret  ;  (1 found)
0x14807f81: in eax, 0x5D ; ret  ;  (1 found)
0x14808191: in eax, 0x5D ; ret  ;  (1 found)
0x148081ed: in eax, 0x5D ; ret  ;  (1 found)
0x148082e0: in eax, 0x5D ; ret  ;  (1 found)
0x1480839c: in eax, 0x5D ; ret  ;  (1 found)
0x14808eeb: in eax, 0x5D ; ret  ;  (1 found)
0x14809192: in eax, 0x5D ; ret  ;  (1 found)
0x1480911c: in eax, 0x5D ; ret  ;  (1 found)
0x148090af: in eax, 0x5D ; ret  ;  (1 found)
0x14809271: in eax, 0x5D ; ret  ;  (1 found)
0x1480935f: in eax, 0x5D ; ret  ;  (1 found)
0x1480948c: in eax, 0x5D ; ret  ;  (1 found)
0x14809786: in eax, 0x5D ; ret  ;  (1 found)
0x14809a78: in eax, 0x5D ; ret  ;  (1 found)
0x14809c22: in eax, 0x5D ; ret  ;  (1 found)
0x1480a6c8: in eax, 0x5D ; ret  ;  (1 found)
0x1480a781: in eax, 0x5D ; ret  ;  (1 found)
0x1480a892: in eax, 0x5D ; ret  ;  (1 found)
0x1480aa7d: in eax, 0x5D ; ret  ;  (1 found)
0x1480acc9: in eax, 0x5D ; ret  ;  (1 found)
0x1480afb8: in eax, 0x5D ; ret  ;  (1 found)
0x1480b39d: in eax, 0x5D ; ret  ;  (1 found)
0x1480b4a0: in eax, 0x5D ; ret  ;  (1 found)
0x1480b686: in eax, 0x5D ; ret  ;  (1 found)
0x1480b6b7: in eax, 0x5D ; ret  ;  (1 found)
0x14803124: in eax, 0x5D ; retn 0x0004 ;  (1 found)
0x148067dc: in eax, 0x5D ; retn 0x0004 ;  (1 found)
0x148068a6: in eax, 0x5D ; retn 0x0004 ;  (1 found)
0x148068fc: in eax, 0x5D ; retn 0x0004 ;  (1 found)
0x14806952: in eax, 0x5D ; retn 0x0004 ;  (1 found)
0x148022e5: in eax, 0x5D ; retn 0x0008 ;  (1 found)
0x14801036: in eax, 0x5D ; retn 0x0008 ;  (1 found)
0x148069ab: in eax, 0x5D ; retn 0x0008 ;  (1 found)
0x14806ac9: in eax, 0x5D ; retn 0x0008 ;  (1 found)
0x14806a0d: in eax, 0x5D ; retn 0x000C ;  (1 found)
0x14806850: in eax, 0x5D ; retn 0x0024 ;  (1 found)
0x14806a81: in eax, 0x5D ; retn 0x0024 ;  (1 found)
0x1480207b: in eax, dx ; mov al, 0x01 ; ret  ;  (1 found)
0x148021f2: in eax, dx ; mov eax, dword [esp+0x04] ; mov edi, edx ; ret  ;  (1 found)
0x1480c77a: in eax, dx ; pop edi ; leave  ; ret  ;  (1 found)
0x14801944: inc bl ; call dword [0x1480D050] ;  (1 found)
0x14808395: inc byte [eax+0x5B5E5F14] ; mov esp, ebp ; pop ebp ; ret  ;  (1 found)
0x14805e70: inc byte [eax] ; add al, byte [eax] ; add byte [edx-0x23], dh ; mov al, 0x01 ; pop esi ; ret  ;  (1 found)
0x14807afc: inc byte [ebx] ; stc  ; push edi ; push ecx ; mov ecx, ebx ; call dword [0x1480D144] ;  (1 found)
0x1480a211: inc dword [eax] ; fadd qword [0x14810FDE] ; ret  ;  (1 found)
0x1480a23f: inc dword [eax] ; faddp st1, st0 ; ret  ;  (1 found)
0x14802e85: inc dword [eax] ; mov esp, ebp ; pop ebp ; ret  ;  (1 found)
0x14804d73: inc dword [eax] ; pop esi ; ret  ;  (1 found)
0x1480a209: inc dword [eax] ; ret  ;  (1 found)
0x1480891f: inc dword [ebp-0x1C] ; mov eax, dword [0x148141E0] ; mov eax, dword [eax+esi*4] ; add eax, 0x20 ; push eax ; call dword [0x1480D080] ;  (1 found)
0x14803bde: inc dword [ebx+0x01B014C4] ; pop esi ; ret  ;  (1 found)
0x14806121: inc dword [ebx+0x5D5E28C4] ; ret  ;  (1 found)
0x1480472b: inc dword [ebx+0x6AC314C4] ; pop ss ; call dword [0x1480D058] ;  (1 found)
0x148033d9: inc dword [ebx+0x7400107D] ; add al, 0x8B ; in eax, 0x5D ; ret  ;  (1 found)
0x14804750: inc dword [ebx-0x00A9F33C] ; adc eax, 0x1480D060 ; push eax ; call dword [0x1480D064] ;  (1 found)
0x14807a3f: inc dword [ebx-0x148AFE12] ; pop esi ; pop edi ; pop ebp ; ret  ;  (1 found)
0x148075a6: inc dword [ebx-0x2708F33C] ; sbb eax, eax ; neg eax ; pop ebp ; ret  ;  (1 found)
0x14807ed9: inc dword [ebx-0x36A1DF3C] ; ret  ;  (1 found)
0x14807755: inc dword [ebx-0x3CA20038] ; mov eax, dword [eax+0x10] ; pop ebp ; ret  ;  (1 found)
0x148083f0: inc dword [ebx-0x3CA20038] ; push dword [ebp+0x08] ; push 0x00000000 ; push dword [0x148141C0] ; call dword [0x1480D024] ;  (1 found)
0x14803505: inc dword [ebx-0x743CF33C] ; call dword [ebp-0x75] ;  (1 found)
0x14806bad: inc dword [ebx-0x74A0F33C] ; ret  ;  (1 found)
0x14808ee5: inc dword [ebx-0x74A10038] ; in eax, 0x5D ; ret  ;  (1 found)
0x1480a88c: inc dword [ebx-0x74A10038] ; in eax, 0x5D ; ret  ;  (1 found)
0x14807869: inc dword [ebx-0x7EBE1FDB] ; adc al, 0x00 ; pop ecx ; pop esi ; ret  ;  (1 found)
0x14809439: inc dword [ebx] ; ret  ;  (1 found)
0x1480a00e: inc dword [ebx] ; ret  ;  (1 found)
0x14804fc9: inc dword [ebx] ; rol dword [ebx], 1  ; retn 0x8589 ;  (1 found)
0x14809f5d: inc dword [ecx+0x75] ; rcr cl, cl ; int1  ; ret  ;  (1 found)
0x1480a27e: inc dword [ecx] ; faddp st1, st0 ; ret  ;  (1 found)
0x1480a29b: inc dword [ecx] ; or cl, cl ; ret  ;  (1 found)
0x14809f69: inc dword [edx] ; fstp st0 ; fld tword [0x14810F6A] ; ret  ;  (1 found)
0x14809f47: inc dword [edx] ; ret  ;  (1 found)
0x14803b7c: inc eax ; adc dword [eax+ebp*8], 0x000031BB ; mov al, 0x01 ; ret  ;  (1 found)
0x148044f6: inc eax ; adc dword [edi+edx*2], 0xFFFC3FE8 ; call dword [ebx-0x18] ;  (1 found)
0x14804bef: inc eax ; add al, 0x8B ; lea esi, dword [eax+0x2BFFFFFE] ; retn 0xF8C1 ;  (1 found)
0x148070a7: inc eax ; add byte [eax], 0x00000000 ; pop ebp ; ret  ;  (1 found)
0x148017dc: inc eax ; add byte [eax], al ; ret  ;  (1 found)
0x148036fa: inc eax ; cmp eax, 0x01871481 ; pop ebp ; ret  ;  (1 found)
0x148036ce: inc eax ; cmp eax, 0x8BC31481 ; call dword [ebp-0x75] ;  (1 found)
0x14804d70: inc eax ; dec eax ; lock inc dword [eax] ; pop esi ; ret  ;  (1 found)
0x1480643e: inc eax ; lock xadd dword [ecx+0x000000B0], eax ; inc eax ; pop ebp ; ret  ;  (1 found)
0x1480191b: inc eax ; mov dword [ebp-0x54], 0x00000001 ; mov dword [ebp-0x4C], eax ; call dword [0x1480D048] ;  (1 found)
0x148070a3: inc eax ; pop ebp ; ret  ;  (1 found)
0x14806447: inc eax ; pop ebp ; ret  ;  (1 found)
0x148084b1: inc eax ; pop ebp ; ret  ;  (1 found)
0x1480ace2: inc eax ; pop ebp ; ret  ;  (1 found)
0x1480b53a: inc eax ; pop ebp ; ret  ;  (1 found)
0x1480b4b8: inc eax ; pop ebp ; ret  ;  (1 found)
0x1480b590: inc eax ; pop ebp ; ret  ;  (1 found)
0x1480a979: inc eax ; push 0x14811078 ; call dword [0x1480D004] ;  (1 found)
0x14803403: inc eax ; push 0xA808E8C1 ; add dword [ebp+0x10], esi ; push dword [ebp+0x08] ; call dword [0x1480D060] ;  (1 found)
0x148017d5: inc eax ; ret  ;  (1 found)
0x14803d2e: inc eax ; ret  ;  (1 found)
0x148087ba: inc eax ; ret  ;  (1 found)
0x14801745: inc eax ; rol byte [eax-0x07BA74EC], 1  ; xor eax, dword [ebp-0x0C] ; mov dword [ebp-0x04], eax ; call dword [0x1480D03C] ;  (1 found)
0x1480aea7: inc eax ; sbb al, byte [ecx-0x221F26EC] ; sbb dword [ebx-0x1E16011A], eax ; add byte [eax], al ; add dh, dh ; ret  ;  (1 found)
0x1480363e: inc eax ; xchg dword [ecx], eax ; ret  ;  (1 found)
0x14803e52: inc eax ; xor byte [ecx+0x22740214], al ; push 0x00000017 ; call dword [0x1480D058] ;  (1 found)
0x148092b0: inc ebp ; adc al, 0x03 ; ret  ;  (1 found)
0x148091d1: inc ebp ; adc al, 0x83 ; add byte [ebx], al ; ret  ;  (1 found)
0x14802e83: inc ebp ; adc al, 0xFF ; add byte [ebx-0x743CA21B], cl ; call dword [ebp-0x75] ;  (1 found)
0x14803ee6: inc ebp ; adc byte [ebp+0x5D0275C0], al ; ret  ;  (1 found)
0x1480b397: inc ebp ; and byte [ebx-0x1A74F33C], al ; pop ebp ; ret  ;  (1 found)
0x1480365b: inc ebp ; call dword [eax-0x73] ;  (1 found)
0x14806db1: inc ebp ; call dword [eax-0x73] ;  (1 found)
0x14802e10: inc ebp ; call ecx ;  (1 found)
0x14801a59: inc ebp ; clc  ; lea eax, dword [ebp-0x10] ; mov dword [fs:0x00000000], eax ; ret  ;  (1 found)
0x1480b7dc: inc ebp ; clc  ; lea eax, dword [ebp-0x10] ; mov dword [fs:0x00000000], eax ; ret  ;  (1 found)
0x1480acc6: inc ebp ; clc  ; mov esp, ebp ; pop ebp ; ret  ;  (1 found)
0x1480b49d: inc ebp ; clc  ; mov esp, ebp ; pop ebp ; ret  ;  (1 found)
0x1480194d: inc ebp ; clc  ; push eax ; call dword [0x1480D04C] ;  (1 found)
0x14801091: inc ebp ; clc  ; push eax ; mov ecx, dword [ebp+0x08] ; push ecx ; call dword [0x1480D134] ;  (1 found)
0x14803489: inc ebp ; clc  ; push eax ; push 0x1480DB54 ; push 0x00000000 ; call dword [0x1480D0BC] ;  (1 found)
0x1480174a: inc ebp ; clc  ; xor eax, dword [ebp-0x0C] ; mov dword [ebp-0x04], eax ; call dword [0x1480D03C] ;  (1 found)
0x14801759: inc ebp ; cld  ; call dword [0x1480D038] ;  (1 found)
0x14801750: inc ebp ; cld  ; call dword [0x1480D03C] ;  (1 found)
0x14801942: inc ebp ; cld  ; inc bl ; call dword [0x1480D050] ;  (1 found)
0x14801762: inc ebp ; cld  ; lea eax, dword [ebp-0x14] ; push eax ; call dword [0x1480D034] ;  (1 found)
0x148087f4: inc ebp ; cld  ; mov esp, ebp ; pop ebp ; ret  ;  (1 found)
0x14808820: inc ebp ; cld  ; mov esp, ebp ; pop ebp ; ret  ;  (1 found)
0x1480888d: inc ebp ; cld  ; mov esp, ebp ; pop ebp ; ret  ;  (1 found)
0x14809176: inc ebp ; cld  ; push eax ; mov eax, dword [0x14813ED8+edi*4] ; push dword [eax+esi+0x18] ; call dword [0x1480D014] ;  (1 found)
0x14801778: inc ebp ; cld  ; xor eax, ecx ; mov esp, ebp ; pop ebp ; ret  ;  (1 found)
0x14806edf: inc ebp ; fdiv qword [ebx] ; rol byte [ebx-0x6BF0FE08], cl ; retn 0x5589 ;  (1 found)
0x1480173c: inc ebp ; hlt  ; and dword [ebp-0x08], 0x00000000 ; push eax ; call dword [0x1480D040] ;  (1 found)
0x1480174d: inc ebp ; hlt  ; mov dword [ebp-0x04], eax ; call dword [0x1480D03C] ;  (1 found)
0x14808663: inc ebp ; hlt  ; mov esp, ebp ; pop ebp ; ret  ;  (1 found)
0x1480904f: inc ebp ; in al, 0x50 ; push dword [ebp-0x30] ; call dword [0x1480D0A8] ;  (1 found)
0x1480109f: inc ebp ; in al, dx ; mov edx, dword [ebp+0x08] ; push edx ; call dword [0x1480D130] ;  (1 found)
0x14801765: inc ebp ; in al, dx ; push eax ; call dword [0x1480D034] ;  (1 found)
0x14809015: inc ebp ; in al, dx ; push eax ; push dword [ebp-0x30] ; call dword [0x1480D0A8] ;  (1 found)
0x1480191d: inc ebp ; lodsb  ; add dword [eax], eax ; add byte [eax], al ; mov dword [ebp-0x4C], eax ; call dword [0x1480D048] ;  (1 found)
0x14801a5c: inc ebp ; mov dword [fs:0x00000000], eax ; ret  ;  (1 found)
0x1480b7df: inc ebp ; mov dword [fs:0x00000000], eax ; ret  ;  (1 found)
0x14803fc3: inc ebp ; or al, 0x5D ; ret  ;  (1 found)
0x14808691: inc ebp ; or al, 0xFF ; add bl, ch ; fidiv word [eax-0x743CA2FF] ; call dword [ebp-0x75] ;  (1 found)
0x1480b203: inc ebp ; or byte [eax+0x6A], dl ; add dword [edx+0x00], ebp ; push edi ; call dword [0x1480D068] ;  (1 found)
0x1480597f: inc ebp ; or byte [eax], bl ; add eax, 0x14813D80 ; push eax ; call dword [0x1480D078] ;  (1 found)
0x148059c7: inc ebp ; or byte [eax], bl ; add eax, 0x14813D80 ; push eax ; call dword [0x1480D07C] ;  (1 found)
0x1480a963: inc ebp ; or byte [ebx+0x08870CC0], al ; pop ebp ; ret  ;  (1 found)
0x14804dcf: inc ebp ; or byte [ebx+0x1275FEF8], al ; mov dword [0x14813D74], 0x00000001 ; call dword [0x1480D0E4] ;  (1 found)
0x14802b2d: inc ebp ; or byte [ebx+0x14813BF8], ah ; pop ebp ; ret  ;  (1 found)
0x148034e3: inc ebp ; or byte [ebx+0x14813D1C], ah ; pop ebp ; ret  ;  (1 found)
0x1480469c: inc ebp ; or byte [ebx+0x14813D64], ah ; pop ebp ; ret  ;  (1 found)
0x1480787a: inc ebp ; or byte [ebx-0x00AFDF40], al ; adc eax, 0x1480D078 ; pop ebp ; ret  ;  (1 found)
0x1480788e: inc ebp ; or byte [ebx-0x00AFDF40], al ; adc eax, 0x1480D07C ; pop ebp ; ret  ;  (1 found)
0x1480b0d1: inc ebp ; or byte [ebx-0x09F7F3B8], al ; retn 0x7408 ;  (1 found)
0x1480b0dd: inc ebp ; or byte [ebx-0x09FBF3B8], al ; retn 0x7410 ;  (1 found)
0x1480b0e9: inc ebp ; or byte [ebx-0x09FDF3B8], al ; retn 0x7420 ;  (1 found)
0x1480a957: inc ebp ; or byte [ecx+0x458B1848], cl ; or byte [ecx+0x458B1C48], cl ; or byte [ebx+0x08870CC0], al ; pop ebp ; ret  ;  (1 found)
0x1480a95d: inc ebp ; or byte [ecx+0x458B1C48], cl ; or byte [ebx+0x08870CC0], al ; pop ebp ; ret  ;  (1 found)
0x148047f9: inc ebp ; or byte [esi+0x05], dh ; or eax, 0xFFFFFFFF ; pop ebp ; ret  ;  (1 found)
0x14808f26: inc ebp ; ror byte [ebx-0x38FCEBBB], 1  ; mov dword [ebp-0x28], eax ; call dword [0x1480D018] ;  (1 found)
0x1480aba3: inc ebp ; sbb ch, bl ; sbb byte [ebx], dh ; rcr byte [ebp-0x3D], 0xFFFFFF8B ; call dword [ebx-0x75] ;  (1 found)
0x1480299b: inc ebx ; add al, 0x89 ; imul ecx, dword [0x59585051+edx*2], 0x5D ; pop ecx ; pop ebx ; retn 0x0004 ;  (1 found)
0x14801808: inc ebx ; add byte [eax], al ; add ah, cl ; ret  ;  (1 found)
0x14803c8c: inc ebx ; das  ; add byte [eax], al ; pop ecx ; pop ecx ; ret  ;  (1 found)
0x14806d25: inc ecx ; adc dword [0x41C8B8C3+ebx*2], 0xC35D1481 ; mov eax, 0x148141D0 ; pop ebp ; ret  ;  (1 found)
0x14806d2c: inc ecx ; adc dword [0x41D0B8C3+ebx*2], 0xC35D1481 ; mov eax, 0x148141C4 ; pop ebp ; ret  ;  (1 found)
0x1480a4c8: inc ecx ; adc dword [eax+eax], 0x10745756 ; push dword [0x14814200] ; call dword [0x1480D00C] ;  (1 found)
0x14806bcc: inc ecx ; adc dword [eax+eax], 0x8BC301B0 ; call dword [ebp-0x75] ;  (1 found)
0x1480786d: inc ecx ; adc dword [eax+eax], 0x8BC35E59 ; call dword [ebp-0x75] ;  (1 found)
0x14807862: inc ecx ; adc dword [eax+ebp*8], 0xFFFFC4F3 ; and dword [0x148141E0], 0x00000000 ; pop ecx ; pop esi ; ret  ;  (1 found)
0x14806df2: inc ecx ; adc dword [eax+ebp*8], 0xFFFFFF45 ; pop ebp ; ret  ;  (1 found)
0x14807846: inc ecx ; adc dword [ecx+ebx*2], 0x8306048B ; shl byte [eax], 0x00000050 ; call dword [0x1480D080] ;  (1 found)
0x148083fe: inc ecx ; adc dword [edi+edi*8], 0x80D02415 ; adc al, 0x5D ; ret  ;  (1 found)
0x14802257: inc ecx ; add al, 0x00 ; pop edi ; pop ebp ; ret  ;  (1 found)
0x14802b7d: inc ecx ; add byte [eax], al ; pop ebp ; ret  ;  (1 found)
0x1480b58f: inc ecx ; inc eax ; pop ebp ; ret  ;  (1 found)
0x1480b0b1: inc ecx ; or byte [ebx], ah ; ret  ;  (1 found)
0x14803995: inc ecx ; or byte [ebx], dh ; rcr byte [edi+0x5B], 0x0000005E ; mov esp, ebp ; pop ebp ; ret  ;  (1 found)
0x14801b18: inc ecx ; pop es ; add byte [eax], al ; pop ecx ; ret  ;  (1 found)
0x1480219c: inc edi ; adc byte [ebx-0x74FBDBBC], cl ; cli  ; ret  ;  (1 found)
0x14807002: inc edi ; add byte [eax], al ; ret  ;  (1 found)
0x148084b8: inc edi ; add byte [ecx], cl ; add byte [eax], al ; add al, ch ; pop esp ; retn 0xFFFF ;  (1 found)
0x148083e5: inc edi ; add byte [esi], dl ; add byte [eax], al ; add al, ch ; das  ; ret  ;  (1 found)
0x1480bd2a: inc edi ; add cl, byte [ebx+0x5E0C2444] ; pop edi ; ret  ;  (1 found)
0x1480bdc2: inc edi ; add cl, byte [ebx+0x5E0C2444] ; pop edi ; ret  ;  (1 found)
0x1480c3da: inc edi ; add cl, byte [ebx+0x5E0C2444] ; pop edi ; ret  ;  (1 found)
0x1480c472: inc edi ; add cl, byte [ebx+0x5E0C2444] ; pop edi ; ret  ;  (1 found)
0x1480bdd6: inc edi ; add cl, byte [edx+0x47880146] ; add dword [ebx+0x5E0C2444], ecx ; pop edi ; ret  ;  (1 found)
0x1480c486: inc edi ; add cl, byte [edx+0x47880146] ; add dword [ebx+0x5E0C2444], ecx ; pop edi ; ret  ;  (1 found)
0x1480bd10: inc edi ; add dword [ebx+0x5E0C2444], ecx ; pop edi ; ret  ;  (1 found)
0x1480bddc: inc edi ; add dword [ebx+0x5E0C2444], ecx ; pop edi ; ret  ;  (1 found)
0x1480c3c0: inc edi ; add dword [ebx+0x5E0C2444], ecx ; pop edi ; ret  ;  (1 found)
0x1480c48c: inc edi ; add dword [ebx+0x5E0C2444], ecx ; pop edi ; ret  ;  (1 found)
0x1480bd24: inc edi ; add dword [edx+0x47880246], ecx ; add cl, byte [ebx+0x5E0C2444] ; pop edi ; ret  ;  (1 found)
0x1480c3d4: inc edi ; add dword [edx+0x47880246], ecx ; add cl, byte [ebx+0x5E0C2444] ; pop edi ; ret  ;  (1 found)
0x1480bdac: inc edi ; add ecx, dword [ebx+0x5E0C2444] ; pop edi ; ret  ;  (1 found)
0x1480c45c: inc edi ; add ecx, dword [ebx+0x5E0C2444] ; pop edi ; ret  ;  (1 found)
0x1480bdbc: inc edi ; add ecx, dword [edx+0x47880246] ; add cl, byte [ebx+0x5E0C2444] ; pop edi ; ret  ;  (1 found)
0x1480c46c: inc edi ; add ecx, dword [edx+0x47880246] ; add cl, byte [ebx+0x5E0C2444] ; pop edi ; ret  ;  (1 found)
0x1480bdd0: inc edi ; add ecx, dword [edx+0x47880246] ; add cl, byte [edx+0x47880146] ; add dword [ebx+0x5E0C2444], ecx ; pop edi ; ret  ;  (1 found)
0x1480c480: inc edi ; add ecx, dword [edx+0x47880246] ; add cl, byte [edx+0x47880146] ; add dword [ebx+0x5E0C2444], ecx ; pop edi ; ret  ;  (1 found)
0x14803f93: inc edi ; or al, 0x01 ; mov eax, edi ; pop edi ; pop ebp ; retn 0x0004 ;  (1 found)
0x1480768e: inc edi ; push edi ; push esi ; push 0x00000009 ; push dword [eax+0x08] ; call dword [0x1480D0B0] ;  (1 found)
0x14805547: inc edx ; add bl, byte [edi+0x5D] ; ret  ;  (1 found)
0x1480c125: inc edx ; cld  ; pop esi ; pop edi ; pop ebx ; ret  ;  (1 found)
0x148014e4: inc edx ; or al, 0x3B ; enter 0x0C72, 0x83 ; retn 0x3B28 ;  (1 found)
0x148014e1: inc edx ; or byte [ebx], al ; inc edx ; or al, 0x3B ; enter 0x0C72, 0x83 ; retn 0x3B28 ;  (1 found)
0x1480c777: inc edx ; sal dword [ebp-0x13], 0x5F ; leave  ; ret  ;  (1 found)
0x1480c11e: inc edx ; std  ; pop esi ; pop edi ; pop ebx ; ret  ;  (1 found)
0x14802276: inc esi ; add al, 0x00 ; pop esi ; pop ebp ; ret  ;  (1 found)
0x1480bd27: inc esi ; add cl, byte [eax+0x448B0247] ; and al, 0x0C ; pop esi ; pop edi ; ret  ;  (1 found)
0x1480bdbf: inc esi ; add cl, byte [eax+0x448B0247] ; and al, 0x0C ; pop esi ; pop edi ; ret  ;  (1 found)
0x1480c3d7: inc esi ; add cl, byte [eax+0x448B0247] ; and al, 0x0C ; pop esi ; pop edi ; ret  ;  (1 found)
0x1480c46f: inc esi ; add cl, byte [eax+0x448B0247] ; and al, 0x0C ; pop esi ; pop edi ; ret  ;  (1 found)
0x1480bd0d: inc esi ; add dword [eax+0x448B0147], ecx ; and al, 0x0C ; pop esi ; pop edi ; ret  ;  (1 found)
0x1480bdd9: inc esi ; add dword [eax+0x448B0147], ecx ; and al, 0x0C ; pop esi ; pop edi ; ret  ;  (1 found)
0x1480c3bd: inc esi ; add dword [eax+0x448B0147], ecx ; and al, 0x0C ; pop esi ; pop edi ; ret  ;  (1 found)
0x1480c489: inc esi ; add dword [eax+0x448B0147], ecx ; and al, 0x0C ; pop esi ; pop edi ; ret  ;  (1 found)
0x1480bda9: inc esi ; add ecx, dword [eax+0x448B0347] ; and al, 0x0C ; pop esi ; pop edi ; ret  ;  (1 found)
0x1480c459: inc esi ; add ecx, dword [eax+0x448B0347] ; and al, 0x0C ; pop esi ; pop edi ; ret  ;  (1 found)
0x14807ed8: inc esi ; inc dword [ebx-0x36A1DF3C] ; ret  ;  (1 found)
0x14805a03: inc esi ; mov eax, esi ; pop esi ; mov esp, ebp ; pop ebp ; ret  ;  (1 found)
0x148089a4: inc esi ; or byte [edi+0x5E], bl ; pop ebp ; ret  ;  (1 found)
0x14809daf: inc esp ; and al, 0x04 ; add esp, 0x10 ; ret  ;  (1 found)
0x14809dab: inc esp ; and al, 0x04 ; fld qword [esp+0x04] ; add esp, 0x10 ; ret  ;  (1 found)
0x148020df: inc esp ; and al, 0x04 ; mov edi, edx ; ret  ;  (1 found)
0x148021f4: inc esp ; and al, 0x04 ; mov edi, edx ; ret  ;  (1 found)
0x1480219f: inc esp ; and al, 0x04 ; mov edi, edx ; ret  ;  (1 found)
0x1480b811: inc esp ; and al, 0x04 ; mul ecx ; retn 0x0010 ;  (1 found)
0x1480996f: inc esp ; and al, 0x04 ; ret  ;  (1 found)
0x1480999e: inc esp ; and al, 0x04 ; ret  ;  (1 found)
0x148099d6: inc esp ; and al, 0x04 ; ret  ;  (1 found)
0x148099f9: inc esp ; and al, 0x04 ; ret  ;  (1 found)
0x148023b7: inc esp ; and al, 0x08 ; mov edx, dword [esp+0x10] ; mov dword [edx], eax ; mov eax, 0x00000003 ; ret  ;  (1 found)
0x148028c7: inc esp ; and al, 0x08 ; mov edx, dword [esp+0x10] ; mov dword [edx], eax ; mov eax, 0x00000003 ; ret  ;  (1 found)
0x1480b829: inc esp ; and al, 0x08 ; mul ecx ; add edx, ebx ; pop ebx ; retn 0x0010 ;  (1 found)
0x1480a36a: inc esp ; and al, 0x08 ; ret  ;  (1 found)
0x1480bad1: inc esp ; and al, 0x0C ; pop esi ; pop edi ; ret  ;  (1 found)
0x1480bcf5: inc esp ; and al, 0x0C ; pop esi ; pop edi ; ret  ;  (1 found)
0x1480bd01: inc esp ; and al, 0x0C ; pop esi ; pop edi ; ret  ;  (1 found)
0x1480bd13: inc esp ; and al, 0x0C ; pop esi ; pop edi ; ret  ;  (1 found)
0x1480bd2d: inc esp ; and al, 0x0C ; pop esi ; pop edi ; ret  ;  (1 found)
0x1480bdaf: inc esp ; and al, 0x0C ; pop esi ; pop edi ; ret  ;  (1 found)
0x1480bda1: inc esp ; and al, 0x0C ; pop esi ; pop edi ; ret  ;  (1 found)
0x1480bdc5: inc esp ; and al, 0x0C ; pop esi ; pop edi ; ret  ;  (1 found)
0x1480bfb1: inc esp ; and al, 0x0C ; pop esi ; pop edi ; ret  ;  (1 found)
0x1480bddf: inc esp ; and al, 0x0C ; pop esi ; pop edi ; ret  ;  (1 found)
0x1480bec5: inc esp ; and al, 0x0C ; pop esi ; pop edi ; ret  ;  (1 found)
0x1480c181: inc esp ; and al, 0x0C ; pop esi ; pop edi ; ret  ;  (1 found)
0x1480c3a5: inc esp ; and al, 0x0C ; pop esi ; pop edi ; ret  ;  (1 found)
0x1480c3b1: inc esp ; and al, 0x0C ; pop esi ; pop edi ; ret  ;  (1 found)
0x1480c3c3: inc esp ; and al, 0x0C ; pop esi ; pop edi ; ret  ;  (1 found)
0x1480c3dd: inc esp ; and al, 0x0C ; pop esi ; pop edi ; ret  ;  (1 found)
0x1480c45f: inc esp ; and al, 0x0C ; pop esi ; pop edi ; ret  ;  (1 found)
0x1480c451: inc esp ; and al, 0x0C ; pop esi ; pop edi ; ret  ;  (1 found)
0x1480c475: inc esp ; and al, 0x0C ; pop esi ; pop edi ; ret  ;  (1 found)
0x1480c575: inc esp ; and al, 0x0C ; pop esi ; pop edi ; ret  ;  (1 found)
0x1480c661: inc esp ; and al, 0x0C ; pop esi ; pop edi ; ret  ;  (1 found)
0x1480c48f: inc esp ; and al, 0x0C ; pop esi ; pop edi ; ret  ;  (1 found)
0x14809e90: inc esp ; and al, 0x10 ; add esp, 0x1C ; ret  ;  (1 found)
0x148011ee: inc esp ; and al, 0x10 ; push 0x00000010 ; push eax ; push edi ; call dword [0x1480D114] ;  (1 found)
0x148011d4: inc esp ; and al, 0x14 ; call dword [0x1480D11C] ;  (1 found)
0x148011e0: inc esp ; and al, 0x16 ; call dword [0x1480D118] ;  (1 found)
0x14801180: inc esp ; and al, 0x20 ; push eax ; push 0x00000202 ; call dword [0x1480D12C] ;  (1 found)
0x14803703: inc esp ; cmp eax, 0x8BC31481 ; call dword [ebp-0x75] ;  (1 found)
0x14805c6d: inc esp ; or byte [eax], bl ; pop ebp ; ret  ;  (1 found)
0x148084ac: inc esp ; or byte [eax], ch ; and eax, 0x40 ; pop ebp ; ret  ;  (1 found)
0x1480c738: inc esp ; retn 0xC95F ;  (1 found)
0x14803d24: inc esp ; rol dword [eax-0x142900EC], 1  ; pop es ; xor eax, eax ; inc eax ; ret  ;  (1 found)
0x1480688c: inc esp ; rol dword [eax-0x142900EC], 1  ; push es ; call dword [0x1480D088] ;  (1 found)
0x14806938: inc esp ; rol dword [eax-0x142900EC], 1  ; push es ; call dword [0x1480D08C] ;  (1 found)
0x14806991: inc esp ; rol dword [eax-0x142900EC], 1  ; push es ; call dword [0x1480D090] ;  (1 found)
0x148068e2: inc esp ; rol dword [eax-0x142900EC], 1  ; push es ; call dword [0x1480D094] ;  (1 found)
0x14804553: inc esp ; xor byte [ecx+0x01B0FF14], al ; ret  ;  (1 found)
0x1480a2f8: insb  ; and al, 0x06 ; ret  ;  (1 found)
0x1480349f: insb  ; fild dword [eax-0x078A00EC] ; call dword [0x1480D09C] ;  (1 found)
0x14802435: insb  ; rol byte [eax+0x5B5E5F14], 1  ; pop ebp ; ret  ;  (1 found)
0x14802885: insb  ; rol byte [eax+0x5E5F5D14], 1  ; pop ebx ; mov esp, ebp ; pop ebp ; ret  ;  (1 found)
0x1480881c: insd  ; clc  ; movsx eax, word [ebp-0x04] ; mov esp, ebp ; pop ebp ; ret  ;  (1 found)
0x1480a4af: insd  ; or cl, cl ; ret  ;  (1 found)
0x14802483: int 0x29 ; pop ebp ; ret  ;  (1 found)
0x148024b0: int 0x29 ; pop ebp ; ret  ;  (1 found)
0x1480b4fc: int 0x33 ; rcr byte [ebp-0x3D], 0xFFFFFF8B ; call dword [ebp-0x75] ;  (1 found)
0x14808393: int 0x94 ; inc byte [eax+0x5B5E5F14] ; mov esp, ebp ; pop ebp ; ret  ;  (1 found)
0x14806237: int 0xE8 ; add byte [ebx-0x1A740001], bh ; pop ebp ; ret  ;  (1 found)
0x1480501a: int 0xFF ; dec dword [ebx-0x743CA21B] ; call dword [ebp-0x75] ;  (1 found)
0x14807ed6: int1  ; lea eax, dword [esi-0x01] ; add esp, 0x20 ; pop esi ; leave  ; ret  ;  (1 found)
0x1480bec3: int1  ; mov eax, dword [esp+0x0C] ; pop esi ; pop edi ; ret  ;  (1 found)
0x1480c573: int1  ; mov eax, dword [esp+0x0C] ; pop esi ; pop edi ; ret  ;  (1 found)
0x14809f62: int1  ; ret  ;  (1 found)
0x14809f86: int1  ; ret  ;  (1 found)
0x14806638: int3  ; add byte [eax], al ; add byte [ebx-0x743CEF3C], al ; call dword [ebp-0x75] ;  (1 found)
0x148019b7: int3  ; and dword [0x14813828], 0x00000000 ; ret  ;  (1 found)
0x14806d24: int3  ; inc ecx ; adc dword [0x41C8B8C3+ebx*2], 0xC35D1481 ; mov eax, 0x148141D0 ; pop ebp ; ret  ;  (1 found)
0x1480bd9c: int3  ; mov ebp, 0x448B1480 ; and al, 0x0C ; pop esi ; pop edi ; ret  ;  (1 found)
0x14804461: int3  ; mov edi, edi ; push ebx ; push esi ; push edi ; call dword [0x1480D070] ;  (1 found)
0x1480342e: int3  ; push 0x00000000 ; call dword [0x1480D05C] ;  (1 found)
0x1480114f: int3  ; push 0x00000000 ; push 0x14811A58 ; push 0x14811A64 ; push 0x00000000 ; call dword [0x1480D10C] ;  (1 found)
0x1480180c: int3  ; ret  ;  (1 found)
0x1480c3a0: int3  ; ret  ;  (1 found)
0x1480a1c4: into  ; add byte [eax], al ; add cl, bl ; leave  ; fstp st0 ; ret  ;  (1 found)
0x14802bb2: into  ; call dword [0x1480D144] ;  (1 found)
0x1480373c: into  ; call dword [0x1480D144] ;  (1 found)
0x14803a20: into  ; call dword [0x1480D144] ;  (1 found)
0x148034b6: into  ; call dword [0x1480D144] ;  (1 found)
0x14803d21: into  ; call dword [0x1480D144] ;  (1 found)
0x148046d9: into  ; call dword [0x1480D144] ;  (1 found)
0x148068df: into  ; call dword [0x1480D144] ;  (1 found)
0x14806889: into  ; call dword [0x1480D144] ;  (1 found)
0x14806935: into  ; call dword [0x1480D144] ;  (1 found)
0x1480698e: into  ; call dword [0x1480D144] ;  (1 found)
0x14807c37: into  ; call dword [0x1480D144] ;  (1 found)
0x14803a1e: into  ; mov ecx, esi ; call dword [0x1480D144] ;  (1 found)
0x148067be: into  ; push 0xFFFFFFFA ; call dword [0x1480D144] ;  (1 found)
0x14806aa6: into  ; push dword [ebp+0x08] ; call dword [0x1480D144] ;  (1 found)
0x148069e4: into  ; push dword [ebp+0x0C] ; push dword [ebp+0x08] ; call dword [0x1480D144] ;  (1 found)
0x1480bcd5: jmp dword [0x1480BCE4+edx*4] ;  (1 found)
0x1480bcdc: jmp dword [0x1480BCF4+ecx*4] ;  (1 found)
0x1480bd88: jmp dword [0x1480BD90+edx*4] ;  (1 found)
0x1480c385: jmp dword [0x1480C394+edx*4] ;  (1 found)
0x1480c38c: jmp dword [0x1480C3A4+ecx*4] ;  (1 found)
0x1480c438: jmp dword [0x1480C440+edx*4] ;  (1 found)
0x1480b5a5: jmp dword [0x1480D058] ;  (1 found)
0x14802720: jmp dword [0x1480D088] ;  (1 found)
0x14801a16: jmp dword [0x1480D144] ;  (1 found)
0x14804ee6: jmp dword [eax] ;  (1 found)
0x14804efd: jmp dword [eax] ;  (1 found)
0x148031a8: jmp dword [ebx+0x14813D14] ;  (1 found)
0x14803cb5: jmp dword [ebx] ;  (1 found)
0x1480a135: jmp dword [ebx] ;  (1 found)
0x1480a1c1: jmp dword [ebx] ;  (1 found)
0x1480c02c: jmp dword [ebx] ;  (1 found)
0x1480c782: jmp dword [ebx] ;  (1 found)
0x14802ee4: jmp dword [ecx+0x14813D08] ;  (1 found)
0x14805cd4: jmp dword [ecx+0x148140D8] ;  (1 found)
0x14805dd7: jmp dword [ecx+0x148141E0] ;  (1 found)
0x148077e1: jmp dword [ecx+0x148141E0] ;  (1 found)
0x1480bb5b: jmp dword [esi+0x0F] ;  (1 found)
0x1480bc0f: jmp dword [esi+0x0F] ;  (1 found)
0x1480beef: jmp dword [esi+0x0F] ;  (1 found)
0x1480c20b: jmp dword [esi+0x0F] ;  (1 found)
0x1480c2bf: jmp dword [esi+0x0F] ;  (1 found)
0x1480c59f: jmp dword [esi+0x0F] ;  (1 found)
0x1480551f: jmp dword [esi+0x39] ;  (1 found)
0x148018b9: jmp dword [esi-0x74] ;  (1 found)
0x148018b2: jmp dword [esi-0x74] ;  (1 found)
0x148018c0: jmp dword [esi-0x74] ;  (1 found)
0x148018c7: jmp dword [esi-0x74] ;  (1 found)
0x148018ce: jmp dword [esi-0x74] ;  (1 found)
0x148018ab: jmp dword [esi-0x74] ;  (1 found)
0x148045fd: jmp dword [esi-0x74] ;  (1 found)
0x148045e8: jmp dword [esi-0x74] ;  (1 found)
0x148045ef: jmp dword [esi-0x74] ;  (1 found)
0x148045f6: jmp dword [esi-0x74] ;  (1 found)
0x14804604: jmp dword [esi-0x74] ;  (1 found)
0x148045e1: jmp dword [esi-0x74] ;  (1 found)
0x1480bca5: jmp eax ;  (1 found)
0x1480c355: jmp eax ;  (1 found)
0x1480241f: jmp esi ;  (1 found)
0x1480113d: jmp esp ;  (1 found)
0x14806169: lds eax,  [ecx] ; add byte [eax], al ; add byte [eax+0x53], dl ; call dword [0x1480D0B0] ;  (1 found)
0x14807fe6: lds eax,  [ecx] ; add byte [eax], al ; add byte [eax+0x57], dl ; call dword [0x1480D0B0] ;  (1 found)
0x14809e05: lds eax, edx ; add byte [ebx+0x077400F8], al ; fld qword [0x14810F08] ; ret  ;  (1 found)
0x14807a61: lds ecx,  [ecx+0x4D8BFC45] ; or byte [ecx-0x0000FF73], cl ; call dword [ebx-0x75] ;  (1 found)
0x148047a0: lds edi, esp ; fild dword [eax-0x743CA2EC] ; call dword [ebp-0x75] ;  (1 found)
0x14808453: lds esi,  [edx-0x7AA60001] ; sal byte [ebx+ebx*8+0x56], 0x00000057 ; push 0x00000000 ; push dword [0x148141C0] ; call dword [0x1480D020] ;  (1 found)
0x14806167: lea eax, dword [0x00000001+eax*8] ; push eax ; push ebx ; call dword [0x1480D0B0] ;  (1 found)
0x14807fe4: lea eax, dword [0x00000001+eax*8] ; push eax ; push edi ; call dword [0x1480D0B0] ;  (1 found)
0x1480b202: lea eax, dword [ebp+0x08] ; push eax ; push 0x00000001 ; push 0x00000000 ; push edi ; call dword [0x1480D068] ;  (1 found)
0x14804bd4: lea eax, dword [ebp-0x00000144] ; push eax ; push esi ; call dword [0x1480D0DC] ;  (1 found)
0x14801939: lea eax, dword [ebp-0x00000324] ; sbb bl, bl ; mov dword [ebp-0x04], eax ; inc bl ; call dword [0x1480D050] ;  (1 found)
0x14804663: lea eax, dword [ebp-0x00000328] ; push eax ; call dword [0x1480D04C] ;  (1 found)
0x14804ea7: lea eax, dword [ebp-0x00000718] ; push edi ; push eax ; push dword [esi+0x04] ; call dword [0x1480D0E8] ;  (1 found)
0x14809228: lea eax, dword [ebp-0x00001404] ; push eax ; push ecx ; call dword [0x1480D0A8] ;  (1 found)
0x14809315: lea eax, dword [ebp-0x00001404] ; push esi ; push eax ; push ecx ; call dword [0x1480D0A8] ;  (1 found)
0x14809434: lea eax, dword [ebp-0x00001408] ; add eax, ebx ; push eax ; push dword [ebp-0x00001410] ; call dword [0x1480D0A8] ;  (1 found)
0x14809175: lea eax, dword [ebp-0x04] ; push eax ; mov eax, dword [0x14813ED8+edi*4] ; push dword [eax+esi+0x18] ; call dword [0x1480D014] ;  (1 found)
0x1480194c: lea eax, dword [ebp-0x08] ; push eax ; call dword [0x1480D04C] ;  (1 found)
0x14803488: lea eax, dword [ebp-0x08] ; push eax ; push 0x1480DB54 ; push 0x00000000 ; call dword [0x1480D0BC] ;  (1 found)
0x1480173b: lea eax, dword [ebp-0x0C] ; and dword [ebp-0x08], 0x00000000 ; push eax ; call dword [0x1480D040] ;  (1 found)
0x148022ce: lea eax, dword [ebp-0x0C] ; push eax ; push dword [ebp-0x10] ; push dword [ebp-0x1C] ; push dword [ebp-0x20] ; call dword [0x1480D068] ;  (1 found)
0x14801a5b: lea eax, dword [ebp-0x10] ; mov dword [fs:0x00000000], eax ; ret  ;  (1 found)
0x1480b7de: lea eax, dword [ebp-0x10] ; mov dword [fs:0x00000000], eax ; ret  ;  (1 found)
0x14801764: lea eax, dword [ebp-0x14] ; push eax ; call dword [0x1480D034] ;  (1 found)
0x14809014: lea eax, dword [ebp-0x14] ; push eax ; push dword [ebp-0x30] ; call dword [0x1480D0A8] ;  (1 found)
0x148052b4: lea eax, dword [ebp-0x18] ; push eax ; push ebx ; call dword [0x1480D0E8] ;  (1 found)
0x14808ff3: lea eax, dword [ebp-0x18] ; push eax ; push ecx ; push dword [ebp-0x38] ; call dword [0x1480D0B4] ;  (1 found)
0x1480904e: lea eax, dword [ebp-0x1C] ; push eax ; push dword [ebp-0x30] ; call dword [0x1480D0A8] ;  (1 found)
0x1480a540: lea eax, dword [ebp-0x24] ; fstp qword [ebp-0x14] ; fld qword [esi] ; push eax ; fstp qword [ebp-0x0C] ; call dword [0x1480D144] ;  (1 found)
0x1480a5da: lea eax, dword [ebp-0x24] ; fstp qword [ebp-0x14] ; fld qword [esi] ; push eax ; fstp qword [ebp-0x0C] ; call dword [0x1480D144] ;  (1 found)
0x1480a692: lea eax, dword [ebp-0x24] ; fstp qword [ebp-0x14] ; fld qword [esi] ; push eax ; fstp qword [ebp-0x0C] ; call dword [0x1480D144] ;  (1 found)
0x148096e9: lea eax, dword [ebp-0x28] ; push eax ; push dword [ebp-0x14] ; push ebx ; push ecx ; call dword [0x1480D0A8] ;  (1 found)
0x14805c97: lea eax, dword [ebp-0x48] ; push eax ; call dword [0x1480D054] ;  (1 found)
0x1480b571: lea eax, dword [ecx+0x00000080] ; pop ebp ; ret  ;  (1 found)
0x1480b59d: lea eax, dword [ecx+0x00000100] ; pop ebp ; ret  ;  (1 found)
0x1480b58e: lea eax, dword [ecx+0x40] ; pop ebp ; ret  ;  (1 found)
0x14805546: lea eax, dword [edx+0x02] ; pop edi ; pop ebp ; ret  ;  (1 found)
0x1480c0e2: lea eax, dword [edx-0x01] ; pop ebx ; ret  ;  (1 found)
0x1480c111: lea eax, dword [edx-0x01] ; pop ebx ; ret  ;  (1 found)
0x1480c116: lea eax, dword [edx-0x02] ; pop esi ; pop edi ; pop ebx ; ret  ;  (1 found)
0x1480c11d: lea eax, dword [edx-0x03] ; pop esi ; pop edi ; pop ebx ; ret  ;  (1 found)
0x1480c124: lea eax, dword [edx-0x04] ; pop esi ; pop edi ; pop ebx ; ret  ;  (1 found)
0x14807ed7: lea eax, dword [esi-0x01] ; add esp, 0x20 ; pop esi ; leave  ; ret  ;  (1 found)
0x148011ed: lea eax, dword [esp+0x10] ; push 0x00000010 ; push eax ; push edi ; call dword [0x1480D114] ;  (1 found)
0x1480117f: lea eax, dword [esp+0x20] ; push eax ; push 0x00000202 ; call dword [0x1480D12C] ;  (1 found)
0x14809a2b: lea ecx, dword [ebp-0x08] ; push ecx ; push dword [ebp+0x10] ; push dword [ebp+0x0C] ; push eax ; call dword [0x1480D010] ;  (1 found)
0x14808b91: lea ecx, dword [ebp-0x18] ; push ecx ; push eax ; call dword [0x1480D0E8] ;  (1 found)
0x1480bfad: lea ecx, dword [ecx+0x00] ; mov eax, dword [esp+0x0C] ; pop esi ; pop edi ; ret  ;  (1 found)
0x1480c65d: lea ecx, dword [ecx+0x00] ; mov eax, dword [esp+0x0C] ; pop esi ; pop edi ; ret  ;  (1 found)
0x1480799d: lea ecx, dword [ecx+0x00] ; mov ecx, dword [ebp+0x14] ; push edi ; push esi ; call dword [0x1480D144] ;  (1 found)
0x14802569: lea edi, dword [eax+0x14813B64] ; push edi ; call dword [0x1480D080] ;  (1 found)
0x148059a1: lea edi, dword [eax+0x14813D68] ; push edi ; call dword [0x1480D080] ;  (1 found)
0x14802191: lea edi, dword [ecx+edi-0x20] ; movdqu  [edi], xmm0 ; movdqu  [edi+0x10], xmm0 ; mov eax, dword [esp+0x04] ; mov edi, edx ; ret  ;  (1 found)
0x1480bc9b: lea edi, dword [edi+0x08] ; mov eax, dword [0x1480BCE4+ecx*4] ; jmp eax ;  (1 found)
0x1480c34b: lea edi, dword [edi+0x08] ; mov eax, dword [0x1480C394+ecx*4] ; jmp eax ;  (1 found)
0x14804bf2: lea esi, dword [eax+0x2BFFFFFE] ; retn 0xF8C1 ;  (1 found)
0x1480bc94: lea esi, dword [esi+0x08] ; movq qword [edi], xmm1 ; lea edi, dword [edi+0x08] ; mov eax, dword [0x1480BCE4+ecx*4] ; jmp eax ;  (1 found)
0x1480c344: lea esi, dword [esi+0x08] ; movq qword [edi], xmm1 ; lea edi, dword [edi+0x08] ; mov eax, dword [0x1480C394+ecx*4] ; jmp eax ;  (1 found)
0x1480c38e: lea esp, dword [ebx+eax*8-0x5B6FEB80] ; ret  ;  (1 found)
0x1480bfa6: lea esp, dword [esp+0x00000000] ; lea ecx, dword [ecx+0x00] ; mov eax, dword [esp+0x0C] ; pop esi ; pop edi ; ret  ;  (1 found)
0x1480c656: lea esp, dword [esp+0x00000000] ; lea ecx, dword [ecx+0x00] ; mov eax, dword [esp+0x0C] ; pop esi ; pop edi ; ret  ;  (1 found)
0x1480b596: leave  ; and ecx, 0xFFFFFF08 ; lea eax, dword [ecx+0x00000100] ; pop ebp ; ret  ;  (1 found)
0x1480b56d: leave  ; and ecx, 0xFFFFFF90 ; lea eax, dword [ecx+0x00000080] ; pop ebp ; ret  ;  (1 found)
0x1480b58a: leave  ; and ecx, 0xFFFFFFE0 ; lea eax, dword [ecx+0x40] ; pop ebp ; ret  ;  (1 found)
0x1480c736: leave  ; cmove eax, edx ; pop edi ; leave  ; ret  ;  (1 found)
0x1480c061: leave  ; cmp dl, byte [eax] ; cmovne eax, ecx ; ret  ;  (1 found)
0x1480167d: leave  ; cmp dword [eax], 0xC0000005 ; sete cl ; mov eax, ecx ; ret  ;  (1 found)
0x1480b68f: leave  ; cmp dword [eax], 0xC0000005 ; sete cl ; mov eax, ecx ; ret  ;  (1 found)
0x1480a1c9: leave  ; fstp st0 ; ret  ;  (1 found)
0x14807ede: leave  ; ret  ;  (1 found)
0x1480a29e: leave  ; ret  ;  (1 found)
0x1480a2bb: leave  ; ret  ;  (1 found)
0x1480a4b1: leave  ; ret  ;  (1 found)
0x14809bef: leave  ; ret  ;  (1 found)
0x14809c56: leave  ; ret  ;  (1 found)
0x1480b9aa: leave  ; ret  ;  (1 found)
0x1480ba43: leave  ; ret  ;  (1 found)
0x1480c77c: leave  ; ret  ;  (1 found)
0x1480c7e5: leave  ; ret  ;  (1 found)
0x1480c73b: leave  ; ret  ;  (1 found)
0x14807f8a: leave  ; test al, al ; sete cl ; mov eax, ecx ; ret  ;  (1 found)
0x148084a1: leave  ; xor byte [ebx+0x3ED88504], cl ; adc dword [edi+ecx], 0x280844B6 ; and eax, 0x40 ; pop ebp ; ret  ;  (1 found)
0x1480241a: leave  ; xor edx, edx ; xor edi, edi ; jmp esi ;  (1 found)
0x1480c44d: les eax,  [eax+0x24448B14] ; or al, 0x5E ; pop edi ; ret  ;  (1 found)
0x1480c445: les eax,  [eax-0x7F3B97EC] ; adc al, 0x7C ; les eax,  [eax+0x24448B14] ; or al, 0x5E ; pop edi ; ret  ;  (1 found)
0x14806d39: les eax,  [ecx-0x7F] ; adc al, 0x5D ; ret  ;  (1 found)
0x14806123: les ebp,  [eax] ; pop esi ; pop ebp ; ret  ;  (1 found)
0x1480237a: les ebx,  [eax] ; pop edi ; pop esi ; pop ebx ; ret  ;  (1 found)
0x14802954: les ebx,  [eax] ; pop edi ; pop esi ; pop ebx ; ret  ;  (1 found)
0x1480c0db: les ebx,  [esi+0x5F] ; pop ebx ; xor eax, eax ; ret  ;  (1 found)
0x1480a77c: les ebx,  [esi+ebx*2] ; pop ebx ; mov esp, ebp ; pop ebp ; ret  ;  (1 found)
0x148023b3: les ecx,  [0x0824448B+ebx*2] ; mov edx, dword [esp+0x10] ; mov dword [edx], eax ; mov eax, 0x00000003 ; ret  ;  (1 found)
0x148043a9: les ecx,  [0x560C74FF+eax*4] ; call dword [0x1480D074] ;  (1 found)
0x1480261a: les ecx,  [0x560D74C0+eax*4] ; push esi ; push ebx ; call dword [0x1480D0A0] ;  (1 found)
0x148066b6: les ecx,  [0x560D74C0+eax*4] ; push esi ; push ebx ; call dword [0x1480D0A0] ;  (1 found)
0x14804506: les ecx,  [0x568074FF+eax*4] ; call dword [0x1480D074] ;  (1 found)
0x14809c17: les ecx,  [0x66E374C0+eax*4] ; mov eax, dword [ebp+0x08] ; mov esp, ebp ; pop ebp ; ret  ;  (1 found)
0x14804b3c: les ecx,  [0xFFFEBC85+ecx*4] ; call dword [edi+0x57] ;  (1 found)
0x148077ba: les ecx,  [ebx+eax*4] ; cmp eax, 0x148141E0 ; add byte [ebp+0x05], dh ; or eax, 0xFFFFFFFF ; pop esi ; ret  ;  (1 found)
0x148030ce: les ecx,  [ebx+eax*4] ; mov dword [ecx+edi], 0x33AB751F ; rcr byte [esi+0x5B], 0x0000005F ; ret  ;  (1 found)
0x1480b39a: les ecx,  [ebx+ecx*4] ; in eax, 0x5D ; ret  ;  (1 found)
0x1480aefb: les ecx,  [ecx+eax*4] ; retn 0xFA00 ;  (1 found)
0x14806baf: les ecx,  [edi+ebx*2] ; mov eax, ebx ; pop ebx ; pop esi ; pop ebp ; ret  ;  (1 found)
0x148075a8: les ecx,  [edi+esi*8] ; fcomp dword [ebx] ; sal bh, 0xFFFFFFD8 ; pop ebp ; ret  ;  (1 found)
0x1480a1b0: les ecx,  [edi] ; mov esi, 0x04E181C0 ; add al, 0x00 ; add byte [ebx-0x7C27FC26], cl ; ret  ;  (1 found)
0x1480a34d: les ecx,  [edx] ; test eax, 0x00000000 ; mov eax, dword [edx+0x04] ; ret  ;  (1 found)
0x14804752: les ecx,  [esi+edx*2] ; call dword [0x1480D060] ;  (1 found)
0x14807866: les edi, edi ; inc dword [ebx-0x7EBE1FDB] ; adc al, 0x00 ; pop ecx ; pop esi ; ret  ;  (1 found)
0x14807867: les edi, edi ; inc dword [ebx-0x7EBE1FDB] ; adc al, 0x00 ; pop ecx ; pop esi ; ret  ;  (1 found)
0x1480999b: les edx,  [eax] ; fld qword [esp+0x04] ; ret  ;  (1 found)
0x14805211: les edx,  [eax] ; mov byte [0x14813D78], 0x00000001 ; pop esi ; mov al, 0x01 ; ret  ;  (1 found)
0x14805511: les edx,  [eax] ; pop ebp ; ret  ;  (1 found)
0x148076dc: les edx,  [eax] ; pop ebp ; ret  ;  (1 found)
0x14808215: les edx,  [eax] ; pop ebp ; ret  ;  (1 found)
0x14809a92: les edx,  [eax] ; pop ebp ; ret  ;  (1 found)
0x14808a2e: les edx,  [eax] ; pop esi ; pop ebp ; ret  ;  (1 found)
0x14806609: les edx,  [eax] ; ret  ;  (1 found)
0x14806623: les edx,  [eax] ; ret  ;  (1 found)
0x1480663d: les edx,  [eax] ; ret  ;  (1 found)
0x14809db3: les edx,  [eax] ; ret  ;  (1 found)
0x1480472d: les edx,  [ebx+eax*8] ; push 0x00000017 ; call dword [0x1480D058] ;  (1 found)
0x148035b8: les edx, eax ; adc byte [ebx], 0x00000034 ; cmp eax, 0x01B01481 ; ret  ;  (1 found)
0x14807edb: les esp,  [eax] ; pop esi ; leave  ; ret  ;  (1 found)
0x148054ef: lock and dword [ecx+0x00000350], 0xFFFFFFFD ; mov eax, edx ; mov esp, ebp ; pop ebp ; ret  ;  (1 found)
0x14807f75: lock and dword [ecx+0x00000350], 0xFFFFFFFD ; mov eax, esi ; pop esi ; mov esp, ebp ; pop ebp ; ret  ;  (1 found)
0x14804e1c: lock and dword [ecx+0x00000350], 0xFFFFFFFD ; mov esp, ebp ; pop ebp ; ret  ;  (1 found)
0x148088c0: lock and dword [ecx+0x00000350], 0xFFFFFFFD ; mov esp, ebp ; pop ebp ; ret  ;  (1 found)
0x14808dcb: lock and dword [ecx+0x00000350], 0xFFFFFFFD ; mov esp, ebp ; pop ebp ; ret  ;  (1 found)
0x148081e4: lock and dword [ecx+0x00000350], 0xFFFFFFFD ; mov esp, ebp ; pop ebp ; ret  ;  (1 found)
0x14808718: lock and dword [esi], eax ; xor eax, eax ; pop edi ; pop esi ; pop ebp ; ret  ;  (1 found)
0x14804d72: lock inc dword [eax] ; pop esi ; ret  ;  (1 found)
0x14806498: lock xadd dword [ecx+0x000000B0], eax ; dec eax ; pop ebp ; ret  ;  (1 found)
0x1480643f: lock xadd dword [ecx+0x000000B0], eax ; inc eax ; pop ebp ; ret  ;  (1 found)
0x1480191e: lodsb  ; add dword [eax], eax ; add byte [eax], al ; mov dword [ebp-0x4C], eax ; call dword [0x1480D048] ;  (1 found)
0x1480c398: lodsb  ; ret  ;  (1 found)
0x1480b569: maskmovq mm3, mm1 ; sbb ecx, ecx ; and ecx, 0xFFFFFF90 ; lea eax, dword [ecx+0x00000080] ; pop ebp ; ret  ;  (1 found)
0x14803c9e: mov ah, 0x2F ; add byte [eax], al ; pop ecx ; pop ecx ; ret  ;  (1 found)
0x14801a8b: mov ah, 0xD1 ; adc byte [ebx+ecx*4], 0xFFFFFFC6 ; pop esi ; pop ebp ; retn 0x0004 ;  (1 found)
0x14806bab: mov ah, 0xFF ; inc dword [ebx-0x74A0F33C] ; ret  ;  (1 found)
0x14806baa: mov ah, 0xFF ; inc dword [ebx-0x74A0F33C] ; ret  ;  (1 found)
0x1480649c: mov al, 0x00 ; add byte [eax], al ; dec eax ; pop ebp ; ret  ;  (1 found)
0x14806443: mov al, 0x00 ; add byte [eax], al ; inc eax ; pop ebp ; ret  ;  (1 found)
0x14801564: mov al, 0x01 ; pop ebp ; ret  ;  (1 found)
0x148016dd: mov al, 0x01 ; pop ebp ; ret  ;  (1 found)
0x1480209a: mov al, 0x01 ; pop ebp ; ret  ;  (1 found)
0x14806b3c: mov al, 0x01 ; pop ebp ; ret  ;  (1 found)
0x14808697: mov al, 0x01 ; pop ebp ; ret  ;  (1 found)
0x14801603: mov al, 0x01 ; pop esi ; mov esp, ebp ; pop ebp ; ret  ;  (1 found)
0x14803c4c: mov al, 0x01 ; pop esi ; mov esp, ebp ; pop ebp ; ret  ;  (1 found)
0x1480152b: mov al, 0x01 ; pop esi ; ret  ;  (1 found)
0x14802585: mov al, 0x01 ; pop esi ; ret  ;  (1 found)
0x14803be2: mov al, 0x01 ; pop esi ; ret  ;  (1 found)
0x148059bd: mov al, 0x01 ; pop esi ; ret  ;  (1 found)
0x14805e77: mov al, 0x01 ; pop esi ; ret  ;  (1 found)
0x14806b06: mov al, 0x01 ; pop esi ; ret  ;  (1 found)
0x1480207c: mov al, 0x01 ; ret  ;  (1 found)
0x1480251b: mov al, 0x01 ; ret  ;  (1 found)
0x14802500: mov al, 0x01 ; ret  ;  (1 found)
0x148035c1: mov al, 0x01 ; ret  ;  (1 found)
0x148035c4: mov al, 0x01 ; ret  ;  (1 found)
0x1480453e: mov al, 0x01 ; ret  ;  (1 found)
0x14803b9e: mov al, 0x01 ; ret  ;  (1 found)
0x14803ba6: mov al, 0x01 ; ret  ;  (1 found)
0x14803b84: mov al, 0x01 ; ret  ;  (1 found)
0x14804558: mov al, 0x01 ; ret  ;  (1 found)
0x1480521b: mov al, 0x01 ; ret  ;  (1 found)
0x14806bd0: mov al, 0x01 ; ret  ;  (1 found)
0x148099c2: mov al, 0x66 ; andps xmm0,  [0x14810E10] ; addsd xmm1, xmm0 ; movq qword [esp+0x04], xmm1 ; fld qword [esp+0x04] ; ret  ;  (1 found)
0x14808929: mov al, 0x83 ; shl byte [eax], 0x00000050 ; call dword [0x1480D080] ;  (1 found)
0x148061fc: mov al, 0xD0 ; adc byte [0xFF1074C0+eax*4], 0x00000075 ; sbb byte [eax+0x56], dl ; push dword [ebp+0x0C] ; call dword [0x1480D100] ;  (1 found)
0x14806c4f: mov al, 0xFF ; dec dword [ebx-0x743CA21B] ; call dword [ebp-0x75] ;  (1 found)
0x14802add: mov al, byte [eax] ; add byte [eax], al ; push dword [esi+0x08] ; mov ecx, edi ; push 0x00000008 ; call dword [0x1480D144] ;  (1 found)
0x1480bd0c: mov al, byte [esi+0x01] ; mov byte [edi+0x01], al ; mov eax, dword [esp+0x0C] ; pop esi ; pop edi ; ret  ;  (1 found)
0x1480bdd8: mov al, byte [esi+0x01] ; mov byte [edi+0x01], al ; mov eax, dword [esp+0x0C] ; pop esi ; pop edi ; ret  ;  (1 found)
0x1480c3bc: mov al, byte [esi+0x01] ; mov byte [edi+0x01], al ; mov eax, dword [esp+0x0C] ; pop esi ; pop edi ; ret  ;  (1 found)
0x1480c488: mov al, byte [esi+0x01] ; mov byte [edi+0x01], al ; mov eax, dword [esp+0x0C] ; pop esi ; pop edi ; ret  ;  (1 found)
0x1480bd26: mov al, byte [esi+0x02] ; mov byte [edi+0x02], al ; mov eax, dword [esp+0x0C] ; pop esi ; pop edi ; ret  ;  (1 found)
0x1480bdbe: mov al, byte [esi+0x02] ; mov byte [edi+0x02], al ; mov eax, dword [esp+0x0C] ; pop esi ; pop edi ; ret  ;  (1 found)
0x1480c3d6: mov al, byte [esi+0x02] ; mov byte [edi+0x02], al ; mov eax, dword [esp+0x0C] ; pop esi ; pop edi ; ret  ;  (1 found)
0x1480c46e: mov al, byte [esi+0x02] ; mov byte [edi+0x02], al ; mov eax, dword [esp+0x0C] ; pop esi ; pop edi ; ret  ;  (1 found)
0x1480bda8: mov al, byte [esi+0x03] ; mov byte [edi+0x03], al ; mov eax, dword [esp+0x0C] ; pop esi ; pop edi ; ret  ;  (1 found)
0x1480c458: mov al, byte [esi+0x03] ; mov byte [edi+0x03], al ; mov eax, dword [esp+0x0C] ; pop esi ; pop edi ; ret  ;  (1 found)
0x1480bcfc: mov al, byte [esi] ; mov byte [edi], al ; mov eax, dword [esp+0x0C] ; pop esi ; pop edi ; ret  ;  (1 found)
0x1480c3ac: mov al, byte [esi] ; mov byte [edi], al ; mov eax, dword [esp+0x0C] ; pop esi ; pop edi ; ret  ;  (1 found)
0x148086ba: mov al, cl ; pop ebp ; ret  ;  (1 found)
0x14809c1d: mov ax, word [ebp+0x08] ; mov esp, ebp ; pop ebp ; ret  ;  (1 found)
0x14803f10: mov bh, 0x02 ; movzx ecx, word [ecx] ; sub eax, ecx ; pop esi ; pop ebp ; ret  ;  (1 found)
0x14803fbf: mov bh, 0x04 ; dec eax ; and eax, dword [ebp+0x0C] ; pop ebp ; ret  ;  (1 found)
0x14803f13: mov bh, 0x09 ; sub eax, ecx ; pop esi ; pop ebp ; ret  ;  (1 found)
0x148052a3: mov bh, 0xC3 ; push eax ; call dword [0x1480D0E0] ;  (1 found)
0x1480926d: mov bh, bh ; dec dword [ebx-0x743CA21B] ; call dword [ebp-0x75] ;  (1 found)
0x148015fc: mov byte [0x14813808], 0x00000001 ; mov al, 0x01 ; pop esi ; mov esp, ebp ; pop ebp ; ret  ;  (1 found)
0x14805213: mov byte [0x14813D78], 0x00000001 ; pop esi ; mov al, 0x01 ; ret  ;  (1 found)
0x14807aa8: mov byte [0xE58BFFFF], al ; pop ebp ; ret  ;  (1 found)
0x1480a20c: mov byte [ebp-0x00000090], 0x00000000 ; fadd qword [0x14810FDE] ; ret  ;  (1 found)
0x1480a23a: mov byte [ebp-0x00000090], 0x00000000 ; faddp st1, st0 ; ret  ;  (1 found)
0x1480a204: mov byte [ebp-0x00000090], 0x00000000 ; ret  ;  (1 found)
0x1480a279: mov byte [ebp-0x00000090], 0x00000001 ; faddp st1, st0 ; ret  ;  (1 found)
0x1480a296: mov byte [ebp-0x00000090], 0x00000001 ; or cl, cl ; ret  ;  (1 found)
0x14809f64: mov byte [ebp-0x00000090], 0x00000002 ; fstp st0 ; fld tword [0x14810F6A] ; ret  ;  (1 found)
0x14809f42: mov byte [ebp-0x00000090], 0x00000002 ; ret  ;  (1 found)
0x1480a009: mov byte [ebp-0x00000090], 0x00000003 ; ret  ;  (1 found)
0x14802256: mov byte [ecx+0x04], 0x00000000 ; pop edi ; pop ebp ; ret  ;  (1 found)
0x14802842: mov byte [ecx+eax*4], 0xFFFFFFFE ; movsb  ; cmp eax, dword [ecx+0x5EE07514] ; pop ebp ; ret  ;  (1 found)
0x148057bf: mov byte [ecx-0x01], bl ; push eax ; push esi ; call dword [0x1480D0F4] ;  (1 found)
0x1480bd0f: mov byte [edi+0x01], al ; mov eax, dword [esp+0x0C] ; pop esi ; pop edi ; ret  ;  (1 found)
0x1480bddb: mov byte [edi+0x01], al ; mov eax, dword [esp+0x0C] ; pop esi ; pop edi ; ret  ;  (1 found)
0x1480c3bf: mov byte [edi+0x01], al ; mov eax, dword [esp+0x0C] ; pop esi ; pop edi ; ret  ;  (1 found)
0x1480c48b: mov byte [edi+0x01], al ; mov eax, dword [esp+0x0C] ; pop esi ; pop edi ; ret  ;  (1 found)
0x1480bd29: mov byte [edi+0x02], al ; mov eax, dword [esp+0x0C] ; pop esi ; pop edi ; ret  ;  (1 found)
0x1480bdc1: mov byte [edi+0x02], al ; mov eax, dword [esp+0x0C] ; pop esi ; pop edi ; ret  ;  (1 found)
0x1480c3d9: mov byte [edi+0x02], al ; mov eax, dword [esp+0x0C] ; pop esi ; pop edi ; ret  ;  (1 found)
0x1480c471: mov byte [edi+0x02], al ; mov eax, dword [esp+0x0C] ; pop esi ; pop edi ; ret  ;  (1 found)
0x1480bdab: mov byte [edi+0x03], al ; mov eax, dword [esp+0x0C] ; pop esi ; pop edi ; ret  ;  (1 found)
0x1480c45b: mov byte [edi+0x03], al ; mov eax, dword [esp+0x0C] ; pop esi ; pop edi ; ret  ;  (1 found)
0x14803f92: mov byte [edi+0x0C], 0x00000001 ; mov eax, edi ; pop edi ; pop ebp ; retn 0x0004 ;  (1 found)
0x14802641: mov byte [edi+0x74C08501], 0x00000007 ; push esi ; call dword [0x1480D098] ;  (1 found)
0x148066dd: mov byte [edi+0x74C08501], 0x00000007 ; push esi ; call dword [0x1480D098] ;  (1 found)
0x1480bcfe: mov byte [edi], al ; mov eax, dword [esp+0x0C] ; pop esi ; pop edi ; ret  ;  (1 found)
0x1480c3ae: mov byte [edi], al ; mov eax, dword [esp+0x0C] ; pop esi ; pop edi ; ret  ;  (1 found)
0x14802275: mov byte [esi+0x04], 0x00000000 ; pop esi ; pop ebp ; ret  ;  (1 found)
0x14803808: mov ch, 0x21 ; add byte [eax], al ; pop ecx ; ret  ;  (1 found)
0x148084ab: mov dh, 0x44 ; or byte [eax], ch ; and eax, 0x40 ; pop ebp ; ret  ;  (1 found)
0x1480c6c7: mov dh, 0x55 ; or al, 0x8B ; retn 0xE2C1 ;  (1 found)
0x1480acf7: mov dh, 0xC0 ; and eax, 0x02 ; add eax, eax ; pop ebp ; ret  ;  (1 found)
0x148090ab: mov di, seg? ; dec dword [ebx-0x743CA21B] ; call dword [ebp-0x75] ;  (1 found)
0x14801a5f: mov dword [0x00000000], eax ; ret  ;  (1 found)
0x1480b7e2: mov dword [0x00000000], eax ; ret  ;  (1 found)
0x1480294d: mov dword [0x00000000], ecx ; add esp, 0x18 ; pop edi ; pop esi ; pop ebx ; ret  ;  (1 found)
0x14801d25: mov dword [0x14813010], eax ; xor eax, eax ; pop ebx ; mov esp, ebp ; pop ebp ; ret  ;  (1 found)
0x148017c2: mov dword [0x14813014], ecx ; not ecx ; mov dword [0x14813018], ecx ; pop edi ; pop esi ; ret  ;  (1 found)
0x148017ca: mov dword [0x14813018], ecx ; pop edi ; pop esi ; ret  ;  (1 found)
0x1480a985: mov dword [0x14813750], eax ; ret  ;  (1 found)
0x14802866: mov dword [0x14813BB8], eax ; ret  ;  (1 found)
0x14802b2f: mov dword [0x14813BF8], eax ; pop ebp ; ret  ;  (1 found)
0x14802bd9: mov dword [0x14813BFC], eax ; pop ebp ; ret  ;  (1 found)
0x148058d3: mov dword [0x14813D08], eax ; ret  ;  (1 found)
0x148031a9: mov dword [0x14813D14], eax ; ret  ;  (1 found)
0x148034e5: mov dword [0x14813D1C], eax ; pop ebp ; ret  ;  (1 found)
0x14803551: mov dword [0x14813D1C], eax ; pop ebp ; ret  ;  (1 found)
0x14803c46: mov dword [0x14813D2C], esi ; mov al, 0x01 ; pop esi ; mov esp, ebp ; pop ebp ; ret  ;  (1 found)
0x148035b1: mov dword [0x14813D30], eax ; call dword [0x1480D0C4] ;  (1 found)
0x148035bc: mov dword [0x14813D34], eax ; mov al, 0x01 ; ret  ;  (1 found)
0x1480469e: mov dword [0x14813D64], eax ; pop ebp ; ret  ;  (1 found)
0x14804ded: mov dword [0x14813D74], 0x00000001 ; call dword [0x1480D0C8] ;  (1 found)
0x14804dd6: mov dword [0x14813D74], 0x00000001 ; call dword [0x1480D0E4] ;  (1 found)
0x14806bc0: mov dword [0x148141C0], eax ; setne al ; ret  ;  (1 found)
0x14809c2d: mov dword [0x14814204], eax ; xor eax, eax ; ret  ;  (1 found)
0x14803194: mov dword [0x59FFFFFE], eax ; pop ecx ; ret  ;  (1 found)
0x14807967: mov dword [0xE58BFFFF], eax ; pop ebp ; ret  ;  (1 found)
0x148079ff: mov dword [0xE58BFFFF], eax ; pop ebp ; ret  ;  (1 found)
0x14807ed2: mov dword [0xF1732404], eax ; lea eax, dword [esi-0x01] ; add esp, 0x20 ; pop esi ; leave  ; ret  ;  (1 found)
0x14801833: mov dword [eax+0x04], ecx ; ret  ;  (1 found)
0x1480a95f: mov dword [eax+0x1C], ecx ; mov eax, dword [ebp+0x08] ; add eax, 0x0C ; xchg dword [eax], ecx ; pop ebp ; ret  ;  (1 found)
0x14803dda: mov dword [eax], 0x0000000C ; xor eax, eax ; pop esi ; pop ebp ; ret  ;  (1 found)
0x14803ed5: mov dword [eax], 0x0000000C ; xor eax, eax ; pop esi ; pop ebp ; ret  ;  (1 found)
0x1480843c: mov dword [eax], 0x0000000C ; xor eax, eax ; pop esi ; pop edi ; pop ebp ; ret  ;  (1 found)
0x1480b2f6: mov dword [eax], 0x00000021 ; pop ebp ; ret  ;  (1 found)
0x1480b2e9: mov dword [eax], 0x00000022 ; pop ebp ; ret  ;  (1 found)
0x1480b46f: mov dword [eax], edi ; pop edi ; pop ebp ; ret  ;  (1 found)
0x148047c5: mov dword [eax], esi ; pop esi ; pop ebp ; ret  ;  (1 found)
0x1480464d: mov dword [ebp-0x00000314], eax ; call dword [0x1480D048] ;  (1 found)
0x14804644: mov dword [ebp-0x0000031C], eax ; mov eax, dword [ebp+0x04] ; mov dword [ebp-0x00000314], eax ; call dword [0x1480D048] ;  (1 found)
0x1480463b: mov dword [ebp-0x00000320], eax ; mov eax, dword [ebp+0x10] ; mov dword [ebp-0x0000031C], eax ; mov eax, dword [ebp+0x04] ; mov dword [ebp-0x00000314], eax ; call dword [0x1480D048] ;  (1 found)
0x1480b499: mov dword [ebp-0x02], ecx ; fld qword [ebp-0x08] ; mov esp, ebp ; pop ebp ; ret  ;  (1 found)
0x14801a51: mov dword [ebp-0x04], 0xFFFFFFFE ; mov dword [ebp-0x08], eax ; lea eax, dword [ebp-0x10] ; mov dword [fs:0x00000000], eax ; ret  ;  (1 found)
0x1480b7d4: mov dword [ebp-0x04], 0xFFFFFFFE ; mov dword [ebp-0x08], eax ; lea eax, dword [ebp-0x10] ; mov dword [fs:0x00000000], eax ; ret  ;  (1 found)
0x1480174f: mov dword [ebp-0x04], eax ; call dword [0x1480D03C] ;  (1 found)
0x14801941: mov dword [ebp-0x04], eax ; inc bl ; call dword [0x1480D050] ;  (1 found)
0x14801936: mov dword [ebp-0x08], eax ; lea eax, dword [ebp-0x00000324] ; sbb bl, bl ; mov dword [ebp-0x04], eax ; inc bl ; call dword [0x1480D050] ;  (1 found)
0x14801a58: mov dword [ebp-0x08], eax ; lea eax, dword [ebp-0x10] ; mov dword [fs:0x00000000], eax ; ret  ;  (1 found)
0x1480b7db: mov dword [ebp-0x08], eax ; lea eax, dword [ebp-0x10] ; mov dword [fs:0x00000000], eax ; ret  ;  (1 found)
0x14808818: mov dword [ebp-0x08], ecx ; fldcw word [ebp-0x08] ; movsx eax, word [ebp-0x04] ; mov esp, ebp ; pop ebp ; ret  ;  (1 found)
0x1480109e: mov dword [ebp-0x14], eax ; mov edx, dword [ebp+0x08] ; push edx ; call dword [0x1480D130] ;  (1 found)
0x14808f2d: mov dword [ebp-0x28], eax ; call dword [0x1480D018] ;  (1 found)
0x14808f25: mov dword [ebp-0x30], eax ; mov eax, dword [ebp+0x14] ; add eax, edi ; mov dword [ebp-0x28], eax ; call dword [0x1480D018] ;  (1 found)
0x14801923: mov dword [ebp-0x4C], eax ; call dword [0x1480D048] ;  (1 found)
0x1480191c: mov dword [ebp-0x54], 0x00000001 ; mov dword [ebp-0x4C], eax ; call dword [0x1480D048] ;  (1 found)
0x14801915: mov dword [ebp-0x58], 0x40000015 ; mov dword [ebp-0x54], 0x00000001 ; mov dword [ebp-0x4C], eax ; call dword [0x1480D048] ;  (1 found)
0x14803a1a: mov dword [ebx], eax ; ror esi, cl ; mov ecx, esi ; call dword [0x1480D144] ;  (1 found)
0x14803a1b: mov dword [ebx], eax ; ror esi, cl ; mov ecx, esi ; call dword [0x1480D144] ;  (1 found)
0x14803f8c: mov dword [ecx+0x00000350], eax ; mov byte [edi+0x0C], 0x00000001 ; mov eax, edi ; pop edi ; pop ebp ; retn 0x0004 ;  (1 found)
0x14801aa0: mov dword [ecx+0x04], 0x1480D1BC ; mov dword [ecx], 0x1480D1B4 ; ret  ;  (1 found)
0x14801ad3: mov dword [ecx+0x04], 0x1480D1D8 ; mov dword [ecx], 0x1480D1D0 ; ret  ;  (1 found)
0x14802af9: mov dword [ecx+0x08], ebx ; mov ecx, edi ; call dword [0x1480D144] ;  (1 found)
0x148030d1: mov dword [ecx+edi], 0x33AB751F ; rcr byte [esi+0x5B], 0x0000005F ; ret  ;  (1 found)
0x14801aa7: mov dword [ecx], 0x1480D1B4 ; ret  ;  (1 found)
0x14801ada: mov dword [ecx], 0x1480D1D0 ; ret  ;  (1 found)
0x14802254: mov dword [ecx], eax ; mov byte [ecx+0x04], 0x00000000 ; pop edi ; pop ebp ; ret  ;  (1 found)
0x148023be: mov dword [edx], eax ; mov eax, 0x00000003 ; ret  ;  (1 found)
0x148028ce: mov dword [edx], eax ; mov eax, 0x00000003 ; ret  ;  (1 found)
0x14803b35: mov dword [esi+0x04], eax ; mov dword [esi+0x08], eax ; xor eax, eax ; pop esi ; pop ebp ; ret  ;  (1 found)
0x14802ada: mov dword [esi+0x08], 0x0000008A ; push dword [esi+0x08] ; mov ecx, edi ; push 0x00000008 ; call dword [0x1480D144] ;  (1 found)
0x148089a3: mov dword [esi+0x08], eax ; pop edi ; pop esi ; pop ebp ; ret  ;  (1 found)
0x14803b38: mov dword [esi+0x08], eax ; xor eax, eax ; pop esi ; pop ebp ; ret  ;  (1 found)
0x14801a89: mov dword [esi], 0x1480D1B4 ; mov eax, esi ; pop esi ; pop ebp ; retn 0x0004 ;  (1 found)
0x14801abc: mov dword [esi], 0x1480D1D0 ; mov eax, esi ; pop esi ; pop ebp ; retn 0x0004 ;  (1 found)
0x148089a1: mov dword [esi], eax ; mov dword [esi+0x08], eax ; pop edi ; pop esi ; pop ebp ; ret  ;  (1 found)
0x14803d92: mov dword [esi], eax ; pop esi ; pop ebp ; ret  ;  (1 found)
0x14807735: mov dword [esi], eax ; pop esi ; pop ebp ; ret  ;  (1 found)
0x14807708: mov dword [esi], eax ; pop esi ; pop ebp ; ret  ;  (1 found)
0x14803c79: mov dword [esi], edi ; pop edi ; pop esi ; pop ebp ; retn 0x0004 ;  (1 found)
0x1480a2f3: mov dword [esp+0x06], edx ; fldcw word [esp+0x06] ; ret  ;  (1 found)
0x14801195: mov dword [esp+0x0C], 0x00000000 ; nop dword [eax] ; push 0x00000006 ; push 0x00000001 ; push 0x00000002 ; call dword [0x1480D128] ;  (1 found)
0x14801213: mov dword [esp+0x0C], 0x00000001 ; push 0x7FFFFFFF ; push edi ; call dword [0x1480D124] ;  (1 found)
0x148011d3: mov dword [esp+0x14], eax ; call dword [0x1480D11C] ;  (1 found)
0x148011e9: mov dword [esp+0x14], eax ; lea eax, dword [esp+0x10] ; push 0x00000010 ; push eax ; push edi ; call dword [0x1480D114] ;  (1 found)
0x148011df: mov dword [esp+0x16], eax ; call dword [0x1480D118] ;  (1 found)
0x1480ba6f: mov dword [esp], eax ; ret  ;  (1 found)
0x1480a346: mov dword [esp], ecx ; fld tword [esp] ; add esp, 0x0A ; test eax, 0x00000000 ; mov eax, dword [edx+0x04] ; ret  ;  (1 found)
0x14801a5d: mov dword [fs:0x00000000], eax ; ret  ;  (1 found)
0x14801a5e: mov dword [fs:0x00000000], eax ; ret  ;  (1 found)
0x1480b7e1: mov dword [fs:0x00000000], eax ; ret  ;  (1 found)
0x1480b7e0: mov dword [fs:0x00000000], eax ; ret  ;  (1 found)
0x1480294c: mov dword [fs:0x00000000], ecx ; add esp, 0x18 ; pop edi ; pop esi ; pop ebx ; ret  ;  (1 found)
0x1480a30f: mov eax, 0x00000000 ; ret  ;  (1 found)
0x1480a303: mov eax, 0x00000000 ; ret  ;  (1 found)
0x14802977: mov eax, 0x00000001 ; ret  ;  (1 found)
0x1480a081: mov eax, 0x00000001 ; ret  ;  (1 found)
0x148011c8: mov eax, 0x00000002 ; push 0x00001B5A ; mov word [esp+0x14], ax ; call dword [0x1480D11C] ;  (1 found)
0x148011c7: mov eax, 0x00000002 ; push 0x00001B5A ; mov word [esp+0x14], ax ; call dword [0x1480D11C] ;  (1 found)
0x148023c0: mov eax, 0x00000003 ; ret  ;  (1 found)
0x148028d0: mov eax, 0x00000003 ; ret  ;  (1 found)
0x14803469: mov eax, 0x000000E8 ; add byte [edi], cl ; xchg eax, ebp ; rol bl, 0xFFFFFF8B ; call dword [ebp-0x75] ;  (1 found)
0x1480b546: mov eax, 0x00000200 ; pop ebp ; ret  ;  (1 found)
0x148017da: mov eax, 0x00004000 ; ret  ;  (1 found)
0x14801b8c: mov eax, 0x1480D19C ; ret  ;  (1 found)
0x148047e6: mov eax, 0x14813048 ; ret  ;  (1 found)
0x148047d3: mov eax, 0x1481304C ; ret  ;  (1 found)
0x1480180e: mov eax, 0x14813818 ; ret  ;  (1 found)
0x14801814: mov eax, 0x14813820 ; ret  ;  (1 found)
0x1480256a: mov eax, 0x14813B64 ; push edi ; call dword [0x1480D080] ;  (1 found)
0x148035c7: mov eax, 0x14813D24 ; ret  ;  (1 found)
0x148035cd: mov eax, 0x14813D28 ; ret  ;  (1 found)
0x14803702: mov eax, 0x14813D44 ; ret  ;  (1 found)
0x148059a2: mov eax, 0x14813D68 ; push edi ; call dword [0x1480D080] ;  (1 found)
0x14806d38: mov eax, 0x148141C4 ; pop ebp ; ret  ;  (1 found)
0x14806d2a: mov eax, 0x148141C8 ; pop ebp ; ret  ;  (1 found)
0x14806d23: mov eax, 0x148141CC ; pop ebp ; ret  ;  (1 found)
0x14806d31: mov eax, 0x148141D0 ; pop ebp ; ret  ;  (1 found)
0x14801849: mov eax, 0x148141F4 ; ret  ;  (1 found)
0x14801843: mov eax, 0x148141F8 ; ret  ;  (1 found)
0x1480ba3a: mov eax, 0x18245CD9 ; fstp dword [esp+0x18] ; leave  ; ret  ;  (1 found)
0x1480644a: mov eax, 0x7FFFFFFF ; pop ebp ; ret  ;  (1 found)
0x148064a3: mov eax, 0x7FFFFFFF ; pop ebp ; ret  ;  (1 found)
0x14809781: mov eax, 0x8BFFFF85 ; in eax, 0x5D ; ret  ;  (1 found)
0x1480bd98: mov eax, 0xCC1480BD ; mov ebp, 0x448B1480 ; and al, 0x0C ; pop esi ; pop edi ; ret  ;  (1 found)
0x1480c39c: mov eax, 0xCC1480C3 ; ret  ;  (1 found)
0x1480342a: mov eax, 0xCC1480D0 ; push 0x00000000 ; call dword [0x1480D05C] ;  (1 found)
0x148054f1: mov eax, dword [0x00000350] ; std  ; mov eax, edx ; mov esp, ebp ; pop ebp ; ret  ;  (1 found)
0x14804e1e: mov eax, dword [0x00000350] ; std  ; mov esp, ebp ; pop ebp ; ret  ;  (1 found)
0x148088c2: mov eax, dword [0x00000350] ; std  ; mov esp, ebp ; pop ebp ; ret  ;  (1 found)
0x14808dcd: mov eax, dword [0x00000350] ; std  ; mov esp, ebp ; pop ebp ; ret  ;  (1 found)
0x148081e6: mov eax, dword [0x00000350] ; std  ; mov esp, ebp ; pop ebp ; ret  ;  (1 found)
0x1480bc9e: mov eax, dword [0x1480BCE4+ecx*4] ; jmp eax ;  (1 found)
0x1480c34e: mov eax, dword [0x1480C394+ecx*4] ; jmp eax ;  (1 found)
0x1480479e: mov eax, dword [0x1480DBFC+eax*8] ; pop ebp ; ret  ;  (1 found)
0x14804dae: mov eax, dword [0x1480DD58] ; pop ebp ; ret  ;  (1 found)
0x14804da7: mov eax, dword [0x1480DD5C] ; pop ebp ; ret  ;  (1 found)
0x14804da0: mov eax, dword [0x1480DD60] ; pop ebp ; ret  ;  (1 found)
0x14804d99: mov eax, dword [0x1480DD64] ; pop ebp ; ret  ;  (1 found)
0x148083be: mov eax, dword [0x1480ED70+eax*8] ; pop ebp ; ret  ;  (1 found)
0x14802b21: mov eax, dword [0x14813BF8] ; ret  ;  (1 found)
0x14802f0b: mov eax, dword [0x14813D08] ; ret  ;  (1 found)
0x148036cd: mov eax, dword [0x14813D40] ; ret  ;  (1 found)
0x148084a3: mov eax, dword [0x14813ED8+eax*4] ; movzx eax, byte [eax+ecx+0x28] ; and eax, 0x40 ; pop ebp ; ret  ;  (1 found)
0x14809179: mov eax, dword [0x14813ED8+edi*4] ; push dword [eax+esi+0x18] ; call dword [0x1480D014] ;  (1 found)
0x14808922: mov eax, dword [0x148141E0] ; mov eax, dword [eax+esi*4] ; add eax, 0x20 ; push eax ; call dword [0x1480D080] ;  (1 found)
0x14807844: mov eax, dword [0x148141E0] ; pop ecx ; mov eax, dword [esi+eax] ; add eax, 0x20 ; push eax ; call dword [0x1480D080] ;  (1 found)
0x1480775b: mov eax, dword [eax+0x10] ; pop ebp ; ret  ;  (1 found)
0x14804d6f: mov eax, dword [eax+0x48] ; lock inc dword [eax] ; pop esi ; ret  ;  (1 found)
0x14808f21: mov eax, dword [eax+ebx+0x18] ; mov dword [ebp-0x30], eax ; mov eax, dword [ebp+0x14] ; add eax, edi ; mov dword [ebp-0x28], eax ; call dword [0x1480D018] ;  (1 found)
0x14805c6c: mov eax, dword [eax+ecx+0x18] ; pop ebp ; ret  ;  (1 found)
0x14808927: mov eax, dword [eax+esi*4] ; add eax, 0x20 ; push eax ; call dword [0x1480D080] ;  (1 found)
0x1480ba6d: mov eax, dword [eax] ; mov dword [esp], eax ; ret  ;  (1 found)
0x14804d6d: mov eax, dword [eax] ; mov eax, dword [eax+0x48] ; lock inc dword [eax] ; pop esi ; ret  ;  (1 found)
0x14805e9b: mov eax, dword [eax] ; mov esp, ebp ; pop ebp ; ret  ;  (1 found)
0x1480167a: mov eax, dword [eax] ; xor ecx, ecx ; cmp dword [eax], 0xC0000005 ; sete cl ; mov eax, ecx ; ret  ;  (1 found)
0x1480b68c: mov eax, dword [eax] ; xor ecx, ecx ; cmp dword [eax], 0xC0000005 ; sete cl ; mov eax, ecx ; ret  ;  (1 found)
0x1480190f: mov eax, dword [ebp+0x04] ; add esp, 0x0C ; mov dword [ebp-0x58], 0x40000015 ; mov dword [ebp-0x54], 0x00000001 ; mov dword [ebp-0x4C], eax ; call dword [0x1480D048] ;  (1 found)
0x1480464a: mov eax, dword [ebp+0x04] ; mov dword [ebp-0x00000314], eax ; call dword [0x1480D048] ;  (1 found)
0x1480a962: mov eax, dword [ebp+0x08] ; add eax, 0x0C ; xchg dword [eax], ecx ; pop ebp ; ret  ;  (1 found)
0x14807879: mov eax, dword [ebp+0x08] ; add eax, 0x20 ; push eax ; call dword [0x1480D078] ;  (1 found)
0x1480788d: mov eax, dword [ebp+0x08] ; add eax, 0x20 ; push eax ; call dword [0x1480D07C] ;  (1 found)
0x14802b2c: mov eax, dword [ebp+0x08] ; mov dword [0x14813BF8], eax ; pop ebp ; ret  ;  (1 found)
0x148034e2: mov eax, dword [ebp+0x08] ; mov dword [0x14813D1C], eax ; pop ebp ; ret  ;  (1 found)
0x1480469b: mov eax, dword [ebp+0x08] ; mov dword [0x14813D64], eax ; pop ebp ; ret  ;  (1 found)
0x14809c1e: mov eax, dword [ebp+0x08] ; mov esp, ebp ; pop ebp ; ret  ;  (1 found)
0x14802599: mov eax, dword [ebp+0x08] ; ror eax, cl ; xor eax, dword [0x14813014] ; pop ebp ; ret  ;  (1 found)
0x14802b48: mov eax, dword [ebp+0x08] ; ror eax, cl ; xor eax, dword [0x14813014] ; pop ebp ; ret  ;  (1 found)
0x1480b46c: mov eax, dword [ebp+0x10] ; mov dword [eax], edi ; pop edi ; pop ebp ; ret  ;  (1 found)
0x14804641: mov eax, dword [ebp+0x10] ; mov dword [ebp-0x0000031C], eax ; mov eax, dword [ebp+0x04] ; mov dword [ebp-0x00000314], eax ; call dword [0x1480D048] ;  (1 found)
0x14808f28: mov eax, dword [ebp+0x14] ; add eax, edi ; mov dword [ebp-0x28], eax ; call dword [0x1480D018] ;  (1 found)
0x14802e82: mov eax, dword [ebp+0x14] ; inc dword [eax] ; mov esp, ebp ; pop ebp ; ret  ;  (1 found)
0x1480aba2: mov eax, dword [ebp+0x18] ; fstp qword [eax] ; xor eax, eax ; pop ebp ; ret  ;  (1 found)
0x14801a4e: mov eax, dword [ebp-0x04] ; mov dword [ebp-0x04], 0xFFFFFFFE ; mov dword [ebp-0x08], eax ; lea eax, dword [ebp-0x10] ; mov dword [fs:0x00000000], eax ; ret  ;  (1 found)
0x1480b7d1: mov eax, dword [ebp-0x04] ; mov dword [ebp-0x04], 0xFFFFFFFE ; mov dword [ebp-0x08], eax ; lea eax, dword [ebp-0x10] ; mov dword [fs:0x00000000], eax ; ret  ;  (1 found)
0x14801090: mov eax, dword [ebp-0x08] ; push eax ; mov ecx, dword [ebp+0x08] ; push ecx ; call dword [0x1480D134] ;  (1 found)
0x14801749: mov eax, dword [ebp-0x08] ; xor eax, dword [ebp-0x0C] ; mov dword [ebp-0x04], eax ; call dword [0x1480D03C] ;  (1 found)
0x14808662: mov eax, dword [ebp-0x0C] ; mov esp, ebp ; pop ebp ; ret  ;  (1 found)
0x14802252: mov eax, dword [edi] ; mov dword [ecx], eax ; mov byte [ecx+0x04], 0x00000000 ; pop edi ; pop ebp ; ret  ;  (1 found)
0x1480a354: mov eax, dword [edx+0x04] ; ret  ;  (1 found)
0x1480784a: mov eax, dword [esi+eax] ; add eax, 0x20 ; push eax ; call dword [0x1480D080] ;  (1 found)
0x14804d6b: mov eax, dword [esi] ; mov eax, dword [eax] ; mov eax, dword [eax+0x48] ; lock inc dword [eax] ; pop esi ; ret  ;  (1 found)
0x1480219e: mov eax, dword [esp+0x04] ; mov edi, edx ; ret  ;  (1 found)
0x148020de: mov eax, dword [esp+0x04] ; mov edi, edx ; ret  ;  (1 found)
0x148021f3: mov eax, dword [esp+0x04] ; mov edi, edx ; ret  ;  (1 found)
0x1480b810: mov eax, dword [esp+0x04] ; mul ecx ; retn 0x0010 ;  (1 found)
0x148023b6: mov eax, dword [esp+0x08] ; mov edx, dword [esp+0x10] ; mov dword [edx], eax ; mov eax, 0x00000003 ; ret  ;  (1 found)
0x148028c6: mov eax, dword [esp+0x08] ; mov edx, dword [esp+0x10] ; mov dword [edx], eax ; mov eax, 0x00000003 ; ret  ;  (1 found)
0x1480b828: mov eax, dword [esp+0x08] ; mul ecx ; add edx, ebx ; pop ebx ; retn 0x0010 ;  (1 found)
0x1480a369: mov eax, dword [esp+0x08] ; ret  ;  (1 found)
0x1480bad0: mov eax, dword [esp+0x0C] ; pop esi ; pop edi ; ret  ;  (1 found)
0x1480bcf4: mov eax, dword [esp+0x0C] ; pop esi ; pop edi ; ret  ;  (1 found)
0x1480bd00: mov eax, dword [esp+0x0C] ; pop esi ; pop edi ; ret  ;  (1 found)
0x1480bd12: mov eax, dword [esp+0x0C] ; pop esi ; pop edi ; ret  ;  (1 found)
0x1480bd2c: mov eax, dword [esp+0x0C] ; pop esi ; pop edi ; ret  ;  (1 found)
0x1480bdae: mov eax, dword [esp+0x0C] ; pop esi ; pop edi ; ret  ;  (1 found)
0x1480bda0: mov eax, dword [esp+0x0C] ; pop esi ; pop edi ; ret  ;  (1 found)
0x1480bdc4: mov eax, dword [esp+0x0C] ; pop esi ; pop edi ; ret  ;  (1 found)
0x1480bfb0: mov eax, dword [esp+0x0C] ; pop esi ; pop edi ; ret  ;  (1 found)
0x1480bec4: mov eax, dword [esp+0x0C] ; pop esi ; pop edi ; ret  ;  (1 found)
0x1480bdde: mov eax, dword [esp+0x0C] ; pop esi ; pop edi ; ret  ;  (1 found)
0x1480c180: mov eax, dword [esp+0x0C] ; pop esi ; pop edi ; ret  ;  (1 found)
0x1480c3a4: mov eax, dword [esp+0x0C] ; pop esi ; pop edi ; ret  ;  (1 found)
0x1480c3b0: mov eax, dword [esp+0x0C] ; pop esi ; pop edi ; ret  ;  (1 found)
0x1480c3dc: mov eax, dword [esp+0x0C] ; pop esi ; pop edi ; ret  ;  (1 found)
0x1480c3c2: mov eax, dword [esp+0x0C] ; pop esi ; pop edi ; ret  ;  (1 found)
0x1480c45e: mov eax, dword [esp+0x0C] ; pop esi ; pop edi ; ret  ;  (1 found)
0x1480c450: mov eax, dword [esp+0x0C] ; pop esi ; pop edi ; ret  ;  (1 found)
0x1480c474: mov eax, dword [esp+0x0C] ; pop esi ; pop edi ; ret  ;  (1 found)
0x1480c48e: mov eax, dword [esp+0x0C] ; pop esi ; pop edi ; ret  ;  (1 found)
0x1480c574: mov eax, dword [esp+0x0C] ; pop esi ; pop edi ; ret  ;  (1 found)
0x1480c660: mov eax, dword [esp+0x0C] ; pop esi ; pop edi ; ret  ;  (1 found)
0x14803027: mov eax, ebx ; pop ebx ; mov esp, ebp ; pop ebp ; ret  ;  (1 found)
0x148055c8: mov eax, ebx ; pop ebx ; mov esp, ebp ; pop ebp ; ret  ;  (1 found)
0x148057fb: mov eax, ebx ; pop ebx ; pop esi ; mov esp, ebp ; pop ebp ; ret  ;  (1 found)
0x14806bb2: mov eax, ebx ; pop ebx ; pop esi ; pop ebp ; ret  ;  (1 found)
0x14801a9a: mov eax, ecx ; and dword [ecx+0x08], 0x00000000 ; mov dword [ecx+0x04], 0x1480D1BC ; mov dword [ecx], 0x1480D1B4 ; ret  ;  (1 found)
0x14801acd: mov eax, ecx ; and dword [ecx+0x08], 0x00000000 ; mov dword [ecx+0x04], 0x1480D1D8 ; mov dword [ecx], 0x1480D1D0 ; ret  ;  (1 found)
0x14809bea: mov eax, ecx ; pop ebx ; pop esi ; pop edi ; leave  ; ret  ;  (1 found)
0x1480ba69: mov eax, ecx ; pop ecx ; xchg eax, esp ; mov eax, dword [eax] ; mov dword [esp], eax ; ret  ;  (1 found)
0x1480940c: mov eax, ecx ; push eax ; push ebx ; push 0x0000FDE9 ; call dword [0x1480D0B4] ;  (1 found)
0x14801687: mov eax, ecx ; ret  ;  (1 found)
0x14807f90: mov eax, ecx ; ret  ;  (1 found)
0x1480b699: mov eax, ecx ; ret  ;  (1 found)
0x1480c7e1: mov eax, edi ; cld  ; pop edi ; leave  ; ret  ;  (1 found)
0x14803f96: mov eax, edi ; pop edi ; pop ebp ; retn 0x0004 ;  (1 found)
0x14805a7d: mov eax, edi ; pop edi ; pop ebx ; mov esp, ebp ; pop ebp ; ret  ;  (1 found)
0x14809b06: mov eax, edi ; pop edi ; pop esi ; pop ebp ; ret  ;  (1 found)
0x14804495: mov eax, edi ; pop edi ; pop esi ; pop ebx ; ret  ;  (1 found)
0x14802f65: mov eax, edi ; pop edi ; pop esi ; ret  ;  (1 found)
0x148043b6: mov eax, edi ; pop edi ; pop esi ; ret  ;  (1 found)
0x148054f7: mov eax, edx ; mov esp, ebp ; pop ebp ; ret  ;  (1 found)
0x1480758e: mov eax, edx ; pop ebx ; mov esp, ebp ; pop ebp ; ret  ;  (1 found)
0x1480b960: mov eax, edx ; xor edx, edx ; and cl, 0x0000001F ; shr eax, cl ; ret  ;  (1 found)
0x14804ca0: mov eax, esi ; pop ebx ; pop edi ; pop esi ; ret  ;  (1 found)
0x148049d6: mov eax, esi ; pop esi ; mov esp, ebp ; pop ebp ; ret  ;  (1 found)
0x14805a04: mov eax, esi ; pop esi ; mov esp, ebp ; pop ebp ; ret  ;  (1 found)
0x14807e2c: mov eax, esi ; pop esi ; mov esp, ebp ; pop ebp ; ret  ;  (1 found)
0x14807f7d: mov eax, esi ; pop esi ; mov esp, ebp ; pop ebp ; ret  ;  (1 found)
0x14802ed5: mov eax, esi ; pop esi ; pop ebp ; ret  ;  (1 found)
0x14803e12: mov eax, esi ; pop esi ; pop ebp ; ret  ;  (1 found)
0x1480aa10: mov eax, esi ; pop esi ; pop ebp ; ret  ;  (1 found)
0x1480aa11: mov eax, esi ; pop esi ; pop ebp ; ret  ;  (1 found)
0x14801a8f: mov eax, esi ; pop esi ; pop ebp ; retn 0x0004 ;  (1 found)
0x14801b06: mov eax, esi ; pop esi ; pop ebp ; retn 0x0004 ;  (1 found)
0x14801ac2: mov eax, esi ; pop esi ; pop ebp ; retn 0x0004 ;  (1 found)
0x14801b44: mov eax, esi ; pop esi ; pop ebp ; retn 0x0004 ;  (1 found)
0x14801d78: mov eax, esi ; pop esi ; pop ebp ; retn 0x0004 ;  (1 found)
0x148050a2: mov eax, esi ; pop esi ; pop ebx ; mov esp, ebp ; pop ebp ; ret  ;  (1 found)
0x148082db: mov eax, esi ; pop esi ; pop ebx ; mov esp, ebp ; pop ebp ; ret  ;  (1 found)
0x14809117: mov eax, esi ; pop esi ; pop ebx ; mov esp, ebp ; pop ebp ; ret  ;  (1 found)
0x14805920: mov eax, esi ; pop esi ; pop ebx ; pop ebp ; ret  ;  (1 found)
0x148058a5: mov eax, esi ; pop esi ; pop edi ; mov esp, ebp ; pop ebp ; ret  ;  (1 found)
0x14804458: mov eax, esi ; pop esi ; ret  ;  (1 found)
0x1480b78f: mov eax, esi ; pop esi ; retn 0x0010 ;  (1 found)
0x1480113b: mov eax, esp ; jmp esp ;  (1 found)
0x1480917b: mov ebp, 0x14813ED8 ; push dword [eax+esi+0x18] ; call dword [0x1480D014] ;  (1 found)
0x1480bcf1: mov ebp, 0x448B1480 ; and al, 0x0C ; pop esi ; pop edi ; ret  ;  (1 found)
0x1480bd9d: mov ebp, 0x448B1480 ; and al, 0x0C ; pop esi ; pop edi ; ret  ;  (1 found)
0x1480c731: mov ebp, 0x85C703C1 ; leave  ; cmove eax, edx ; pop edi ; leave  ; ret  ;  (1 found)
0x14806a7c: mov ebp, 0x8BFFFFB2 ; in eax, 0x5D ; retn 0x0024 ;  (1 found)
0x1480bced: mov ebp, 0xBD1C1480 ; adc byte [ebx+ecx*4], 0x00000044 ; and al, 0x0C ; pop esi ; pop edi ; ret  ;  (1 found)
0x1480bd99: mov ebp, 0xBDCC1480 ; adc byte [ebx+ecx*4], 0x00000044 ; and al, 0x0C ; pop esi ; pop edi ; ret  ;  (1 found)
0x1480a057: mov ebp, 0xFFFFFF60 ; fabs  ; f2xm1  ; ret  ;  (1 found)
0x1480a28e: mov ebp, 0xFFFFFF70 ; add byte [edi+0x07], bh ; mov byte [ebp-0x00000090], 0x00000001 ; or cl, cl ; ret  ;  (1 found)
0x1480597c: mov ebp, esp ; imul eax, dword [ebp+0x08], 0x18 ; add eax, 0x14813D80 ; push eax ; call dword [0x1480D078] ;  (1 found)
0x148059c4: mov ebp, esp ; imul eax, dword [ebp+0x08], 0x18 ; add eax, 0x14813D80 ; push eax ; call dword [0x1480D07C] ;  (1 found)
0x14807877: mov ebp, esp ; mov eax, dword [ebp+0x08] ; add eax, 0x20 ; push eax ; call dword [0x1480D078] ;  (1 found)
0x1480788b: mov ebp, esp ; mov eax, dword [ebp+0x08] ; add eax, 0x20 ; push eax ; call dword [0x1480D07C] ;  (1 found)
0x14802b2a: mov ebp, esp ; mov eax, dword [ebp+0x08] ; mov dword [0x14813BF8], eax ; pop ebp ; ret  ;  (1 found)
0x148034e0: mov ebp, esp ; mov eax, dword [ebp+0x08] ; mov dword [0x14813D1C], eax ; pop ebp ; ret  ;  (1 found)
0x14804699: mov ebp, esp ; mov eax, dword [ebp+0x08] ; mov dword [0x14813D64], eax ; pop ebp ; ret  ;  (1 found)
0x14801d80: mov ebp, esp ; push 0x00000000 ; call dword [0x1480D050] ;  (1 found)
0x1480554f: mov ebp, esp ; push ecx ; push ebx ; push esi ; push edi ; call dword [0x1480D0EC] ;  (1 found)
0x14805c92: mov ebp, esp ; sub esp, 0x48 ; lea eax, dword [ebp-0x48] ; push eax ; call dword [0x1480D054] ;  (1 found)
0x14803377: mov ebp, esp ; xor eax, eax ; cmp dword [ebp+0x08], 0xE06D7363 ; sete al ; pop ebp ; ret  ;  (1 found)
0x1480623a: mov ebx, 0xE58BFFFF ; pop ebp ; ret  ;  (1 found)
0x148025d2: mov ebx, dword [0x1480D220+ebx*4] ; push 0x00000800 ; push 0x00000000 ; push ebx ; call dword [0x1480D0A0] ;  (1 found)
0x1480666e: mov ebx, dword [0x1480E868+ebx*4] ; push 0x00000800 ; push 0x00000000 ; push ebx ; call dword [0x1480D0A0] ;  (1 found)
0x1480b78b: mov ebx, ecx ; mov ecx, eax ; mov eax, esi ; pop esi ; retn 0x0010 ;  (1 found)
0x1480a12e: mov ebx, edx ; add ebx, eax ; add ebx, 0x10 ; jmp dword [ebx] ;  (1 found)
0x1480a1ba: mov ebx, edx ; add ebx, eax ; add ebx, 0x10 ; jmp dword [ebx] ;  (1 found)
0x148016b0: mov ecx, 0x148137EC ; xchg dword [ecx], eax ; pop ebp ; ret  ;  (1 found)
0x14803639: mov ecx, 0x14813D3C ; inc eax ; xchg dword [ecx], eax ; ret  ;  (1 found)
0x148036f9: mov ecx, 0x14813D40 ; xchg dword [ecx], eax ; pop ebp ; ret  ;  (1 found)
0x148035a0: mov ecx, 0x14813ED4 ; xchg dword [ecx], eax ; xor eax, eax ; pop ebp ; ret  ;  (1 found)
0x14808e2c: mov ecx, 0xF08BFFFF ; call dword [0x1480D070] ;  (1 found)
0x1480a99b: mov ecx, dword [0x14813750] ; xor eax, eax ; cmp ecx, 0xFFFFFFFF ; setne al ; ret  ;  (1 found)
0x1480182d: mov ecx, dword [eax+0x04] ; or dword [eax], 0x02 ; mov dword [eax+0x04], ecx ; ret  ;  (1 found)
0x148011b9: mov ecx, dword [eax+0x0C] ; mov ecx, dword [ecx] ; push dword [ecx] ; call dword [0x1480D120] ;  (1 found)
0x14803fbb: mov ecx, dword [ebp+0x08] ; movzx eax, word [eax+ecx*2] ; and eax, dword [ebp+0x0C] ; pop ebp ; ret  ;  (1 found)
0x14801094: mov ecx, dword [ebp+0x08] ; push ecx ; call dword [0x1480D134] ;  (1 found)
0x14803102: mov ecx, dword [ebp+0x08] ; push esi ; call dword [0x1480D144] ;  (1 found)
0x148079a0: mov ecx, dword [ebp+0x14] ; push edi ; push esi ; call dword [0x1480D144] ;  (1 found)
0x14807bb2: mov ecx, dword [ebp-0x00000108] ; push edi ; push esi ; call dword [0x1480D144] ;  (1 found)
0x148054ed: mov ecx, dword [ebp-0x10] ; and dword [ecx+0x00000350], 0xFFFFFFFD ; mov eax, edx ; mov esp, ebp ; pop ebp ; ret  ;  (1 found)
0x14804e1a: mov ecx, dword [ebp-0x10] ; and dword [ecx+0x00000350], 0xFFFFFFFD ; mov esp, ebp ; pop ebp ; ret  ;  (1 found)
0x148088be: mov ecx, dword [ebp-0x10] ; and dword [ecx+0x00000350], 0xFFFFFFFD ; mov esp, ebp ; pop ebp ; ret  ;  (1 found)
0x14808dc9: mov ecx, dword [ebp-0x10] ; and dword [ecx+0x00000350], 0xFFFFFFFD ; mov esp, ebp ; pop ebp ; ret  ;  (1 found)
0x148081e2: mov ecx, dword [ebp-0x10] ; and dword [ecx+0x00000350], 0xFFFFFFFD ; mov esp, ebp ; pop ebp ; ret  ;  (1 found)
0x14806fa0: mov ecx, dword [ebp-0x24] ; call dword [0x1480D144] ;  (1 found)
0x14806fce: mov ecx, dword [ebp-0x24] ; call dword [0x1480D144] ;  (1 found)
0x148011bc: mov ecx, dword [ecx] ; push dword [ecx] ; call dword [0x1480D120] ;  (1 found)
0x148031ec: mov ecx, eax ; call dword [0x1480D144] ;  (1 found)
0x1480b78d: mov ecx, eax ; mov eax, esi ; pop esi ; retn 0x0010 ;  (1 found)
0x14806c2e: mov ecx, ebx ; call dword [0x1480D144] ;  (1 found)
0x14806bfa: mov ecx, ebx ; call dword [0x1480D144] ;  (1 found)
0x14807b01: mov ecx, ebx ; call dword [0x1480D144] ;  (1 found)
0x14807beb: mov ecx, ebx ; call dword [0x1480D144] ;  (1 found)
0x14807d12: mov ecx, ebx ; call dword [0x1480D144] ;  (1 found)
0x14807cce: mov ecx, ebx ; call dword [0x1480D144] ;  (1 found)
0x14807b28: mov ecx, ebx ; push dword [ebp-0x00000100] ; call dword [0x1480D144] ;  (1 found)
0x14807b5a: mov ecx, ebx ; push edi ; call dword [0x1480D144] ;  (1 found)
0x14802afc: mov ecx, edi ; call dword [0x1480D144] ;  (1 found)
0x1480322d: mov ecx, edi ; call dword [0x1480D144] ;  (1 found)
0x148032f1: mov ecx, edi ; call dword [0x1480D144] ;  (1 found)
0x14806c7b: mov ecx, edi ; call dword [0x1480D144] ;  (1 found)
0x14802ae4: mov ecx, edi ; push 0x00000008 ; call dword [0x1480D144] ;  (1 found)
0x148032ed: mov ecx, edx ; ror edi, cl ; mov ecx, edi ; call dword [0x1480D144] ;  (1 found)
0x14802bb1: mov ecx, esi ; call dword [0x1480D144] ;  (1 found)
0x1480373b: mov ecx, esi ; call dword [0x1480D144] ;  (1 found)
0x14803a1f: mov ecx, esi ; call dword [0x1480D144] ;  (1 found)
0x148034b5: mov ecx, esi ; call dword [0x1480D144] ;  (1 found)
0x14803d20: mov ecx, esi ; call dword [0x1480D144] ;  (1 found)
0x148046d8: mov ecx, esi ; call dword [0x1480D144] ;  (1 found)
0x14806888: mov ecx, esi ; call dword [0x1480D144] ;  (1 found)
0x148068de: mov ecx, esi ; call dword [0x1480D144] ;  (1 found)
0x14806934: mov ecx, esi ; call dword [0x1480D144] ;  (1 found)
0x1480698d: mov ecx, esi ; call dword [0x1480D144] ;  (1 found)
0x14807c36: mov ecx, esi ; call dword [0x1480D144] ;  (1 found)
0x148067bd: mov ecx, esi ; push 0xFFFFFFFA ; call dword [0x1480D144] ;  (1 found)
0x14806aa5: mov ecx, esi ; push dword [ebp+0x08] ; call dword [0x1480D144] ;  (1 found)
0x148069e3: mov ecx, esi ; push dword [ebp+0x0C] ; push dword [ebp+0x08] ; call dword [0x1480D144] ;  (1 found)
0x14802b7c: mov edi, 0x5D000041 ; ret  ;  (1 found)
0x148087f3: mov edi, 0xE58BFC45 ; pop ebp ; ret  ;  (1 found)
0x1480881f: mov edi, 0xE58BFC45 ; pop ebp ; ret  ;  (1 found)
0x1480888c: mov edi, 0xE58BFC45 ; pop ebp ; ret  ;  (1 found)
0x1480465b: mov edi, eax ; call dword [0x1480D050] ;  (1 found)
0x148011b1: mov edi, eax ; call dword [0x1480D13C] ;  (1 found)
0x14804493: mov edi, ebx ; mov eax, edi ; pop edi ; pop esi ; pop ebx ; ret  ;  (1 found)
0x1480935b: mov edi, edi ; dec dword [ebx-0x743CA21B] ; call dword [ebp-0x75] ;  (1 found)
0x14804462: mov edi, edi ; push ebx ; push esi ; push edi ; call dword [0x1480D070] ;  (1 found)
0x14804314: mov edi, edi ; push esi ; push edi ; call dword [0x1480D070] ;  (1 found)
0x148021a2: mov edi, edx ; ret  ;  (1 found)
0x148020e2: mov edi, edx ; ret  ;  (1 found)
0x148021f7: mov edi, edx ; ret  ;  (1 found)
0x1480b6e3: mov edx, 0x0000010B ; cmp word [ecx+0x18], dx ; sete al ; pop ebp ; ret  ;  (1 found)
0x14801723: mov edx, 0xF7FFFFFF ; fcomp dword [ecx+0x1B] ; sal bh, 0xFFFFFFD8 ; dec eax ; pop ebp ; ret  ;  (1 found)
0x148010a1: mov edx, dword [ebp+0x08] ; push edx ; call dword [0x1480D130] ;  (1 found)
0x1480a2e5: mov edx, dword [esp+0x04] ; and edx, 0x00000300 ; or edx, 0x7F ; mov word [esp+0x06], dx ; fldcw word [esp+0x06] ; ret  ;  (1 found)
0x148023ba: mov edx, dword [esp+0x10] ; mov dword [edx], eax ; mov eax, 0x00000003 ; ret  ;  (1 found)
0x148028ca: mov edx, dword [esp+0x10] ; mov dword [edx], eax ; mov eax, 0x00000003 ; ret  ;  (1 found)
0x1480b980: mov edx, eax ; xor eax, eax ; and cl, 0x0000001F ; shl edx, cl ; ret  ;  (1 found)
0x1480b789: mov edx, ebx ; mov ebx, ecx ; mov ecx, eax ; mov eax, esi ; pop esi ; retn 0x0010 ;  (1 found)
0x1480a126: mov esi, 0x04E181C0 ; add al, 0x00 ; add byte [ebx-0x7C27FC26], cl ; ret  ;  (1 found)
0x1480a1b2: mov esi, 0x04E181C0 ; add al, 0x00 ; add byte [ebx-0x7C27FC26], cl ; ret  ;  (1 found)
0x14802c23: mov esi, 0x14813C00 ; xor edi, edi ; push esi ; push edi ; call dword [0x1480D0AC] ;  (1 found)
0x14804c9b: mov esi, 0x59FFFFF0 ; mov eax, esi ; pop ebx ; pop edi ; pop esi ; ret  ;  (1 found)
0x14803afb: mov esi, 0x8BFFFFFC ; in eax, 0x5D ; ret  ;  (1 found)
0x148096b2: mov esi, 0xEBFFFFFB ; retn 0x75FF ;  (1 found)
0x14804ea4: mov esi, dword [ebp+0x08] ; lea eax, dword [ebp-0x00000718] ; push edi ; push eax ; push dword [esi+0x04] ; call dword [0x1480D0E8] ;  (1 found)
0x14808ca3: mov esi, dword [ebp+0x24] ; push 0x00000001 ; push esi ; call dword [0x1480D0B0] ;  (1 found)
0x14803a17: mov esi, dword [ebx] ; xor esi, edx ; mov dword [ebx], eax ; ror esi, cl ; mov ecx, esi ; call dword [0x1480D144] ;  (1 found)
0x14803d83: mov esi, eax ; call dword [0x1480D070] ;  (1 found)
0x14808e2f: mov esi, eax ; call dword [0x1480D070] ;  (1 found)
0x148011c6: mov esi, eax ; mov eax, 0x00000002 ; push 0x00001B5A ; mov word [esp+0x14], ax ; call dword [0x1480D11C] ;  (1 found)
0x1480aa0f: mov esi, eax ; mov eax, esi ; pop esi ; pop ebp ; ret  ;  (1 found)
0x1480529e: mov esp, 0x0F000000 ; mov bh, 0xC3 ; push eax ; call dword [0x1480D0E0] ;  (1 found)
0x14804bd6: mov esp, 0x50FFFFFE ; push esi ; call dword [0x1480D0DC] ;  (1 found)
0x1480c058: mov esp, 0x66C203C1 ; movd edx, mm3 ; xor ecx, ecx ; cmp dl, byte [eax] ; cmovne eax, ecx ; ret  ;  (1 found)
0x14803495: mov esp, 0x851480D0 ; sal byte [ebx+0x56], 0x00000068 ; insb  ; fild dword [eax-0x078A00EC] ; call dword [0x1480D09C] ;  (1 found)
0x1480acaf: mov esp, ebp ; pop ebp ; mov esp, ebx ; pop ebx ; ret  ;  (1 found)
0x1480adc7: mov esp, ebp ; pop ebp ; mov esp, ebx ; pop ebx ; ret  ;  (1 found)
0x14801a75: mov esp, ebp ; pop ebp ; push ecx ; ret  ;  (1 found)
0x14801606: mov esp, ebp ; pop ebp ; ret  ;  (1 found)
0x1480177c: mov esp, ebp ; pop ebp ; ret  ;  (1 found)
0x14801d2d: mov esp, ebp ; pop ebp ; ret  ;  (1 found)
0x14801967: mov esp, ebp ; pop ebp ; ret  ;  (1 found)
0x14802020: mov esp, ebp ; pop ebp ; ret  ;  (1 found)
0x14801e9e: mov esp, ebp ; pop ebp ; ret  ;  (1 found)
0x14803aff: mov esp, ebp ; pop ebp ; ret  ;  (1 found)
0x14802664: mov esp, ebp ; pop ebp ; ret  ;  (1 found)
0x14802b1d: mov esp, ebp ; pop ebp ; ret  ;  (1 found)
0x14802bc7: mov esp, ebp ; pop ebp ; ret  ;  (1 found)
0x1480288d: mov esp, ebp ; pop ebp ; ret  ;  (1 found)
0x14802d12: mov esp, ebp ; pop ebp ; ret  ;  (1 found)
0x14802e87: mov esp, ebp ; pop ebp ; ret  ;  (1 found)
0x1480302a: mov esp, ebp ; pop ebp ; ret  ;  (1 found)
0x14803251: mov esp, ebp ; pop ebp ; ret  ;  (1 found)
0x1480320c: mov esp, ebp ; pop ebp ; ret  ;  (1 found)
0x14801149: mov esp, ebp ; pop ebp ; ret  ;  (1 found)
0x1480375c: mov esp, ebp ; pop ebp ; ret  ;  (1 found)
0x1480399c: mov esp, ebp ; pop ebp ; ret  ;  (1 found)
0x14803aba: mov esp, ebp ; pop ebp ; ret  ;  (1 found)
0x148033e0: mov esp, ebp ; pop ebp ; ret  ;  (1 found)
0x148034d9: mov esp, ebp ; pop ebp ; ret  ;  (1 found)
0x14803667: mov esp, ebp ; pop ebp ; ret  ;  (1 found)
0x148041d5: mov esp, ebp ; pop ebp ; ret  ;  (1 found)
0x148042c5: mov esp, ebp ; pop ebp ; ret  ;  (1 found)
0x14803b71: mov esp, ebp ; pop ebp ; ret  ;  (1 found)
0x14803c4f: mov esp, ebp ; pop ebp ; ret  ;  (1 found)
0x14803d59: mov esp, ebp ; pop ebp ; ret  ;  (1 found)
0x148049d9: mov esp, ebp ; pop ebp ; ret  ;  (1 found)
0x14804a8a: mov esp, ebp ; pop ebp ; ret  ;  (1 found)
0x14804b86: mov esp, ebp ; pop ebp ; ret  ;  (1 found)
0x14804e24: mov esp, ebp ; pop ebp ; ret  ;  (1 found)
0x148050a6: mov esp, ebp ; pop ebp ; ret  ;  (1 found)
0x1480501d: mov esp, ebp ; pop ebp ; ret  ;  (1 found)
0x14804692: mov esp, ebp ; pop ebp ; ret  ;  (1 found)
0x148046f0: mov esp, ebp ; pop ebp ; ret  ;  (1 found)
0x148055cb: mov esp, ebp ; pop ebp ; ret  ;  (1 found)
0x148058a9: mov esp, ebp ; pop ebp ; ret  ;  (1 found)
0x148057ff: mov esp, ebp ; pop ebp ; ret  ;  (1 found)
0x14805a07: mov esp, ebp ; pop ebp ; ret  ;  (1 found)
0x14805a81: mov esp, ebp ; pop ebp ; ret  ;  (1 found)
0x1480541f: mov esp, ebp ; pop ebp ; ret  ;  (1 found)
0x148054f9: mov esp, ebp ; pop ebp ; ret  ;  (1 found)
0x14806c52: mov esp, ebp ; pop ebp ; ret  ;  (1 found)
0x14806c9f: mov esp, ebp ; pop ebp ; ret  ;  (1 found)
0x14806dbd: mov esp, ebp ; pop ebp ; ret  ;  (1 found)
0x148073a9: mov esp, ebp ; pop ebp ; ret  ;  (1 found)
0x14807591: mov esp, ebp ; pop ebp ; ret  ;  (1 found)
0x148075f9: mov esp, ebp ; pop ebp ; ret  ;  (1 found)
0x14805d41: mov esp, ebp ; pop ebp ; ret  ;  (1 found)
0x14805e9d: mov esp, ebp ; pop ebp ; ret  ;  (1 found)
0x1480623d: mov esp, ebp ; pop ebp ; ret  ;  (1 found)
0x14806424: mov esp, ebp ; pop ebp ; ret  ;  (1 found)
0x14806700: mov esp, ebp ; pop ebp ; ret  ;  (1 found)
0x14808665: mov esp, ebp ; pop ebp ; ret  ;  (1 found)
0x14808616: mov esp, ebp ; pop ebp ; ret  ;  (1 found)
0x148087f6: mov esp, ebp ; pop ebp ; ret  ;  (1 found)
0x1480887d: mov esp, ebp ; pop ebp ; ret  ;  (1 found)
0x14808822: mov esp, ebp ; pop ebp ; ret  ;  (1 found)
0x148088c8: mov esp, ebp ; pop ebp ; ret  ;  (1 found)
0x1480888f: mov esp, ebp ; pop ebp ; ret  ;  (1 found)
0x14808ae6: mov esp, ebp ; pop ebp ; ret  ;  (1 found)
0x14808dd3: mov esp, ebp ; pop ebp ; ret  ;  (1 found)
0x14808d8b: mov esp, ebp ; pop ebp ; ret  ;  (1 found)
0x1480796a: mov esp, ebp ; pop ebp ; ret  ;  (1 found)
0x14807a02: mov esp, ebp ; pop ebp ; ret  ;  (1 found)
0x14807aab: mov esp, ebp ; pop ebp ; ret  ;  (1 found)
0x14807e2f: mov esp, ebp ; pop ebp ; ret  ;  (1 found)
0x14807f80: mov esp, ebp ; pop ebp ; ret  ;  (1 found)
0x148081ec: mov esp, ebp ; pop ebp ; ret  ;  (1 found)
0x14808190: mov esp, ebp ; pop ebp ; ret  ;  (1 found)
0x148082df: mov esp, ebp ; pop ebp ; ret  ;  (1 found)
0x1480839b: mov esp, ebp ; pop ebp ; ret  ;  (1 found)
0x14808eea: mov esp, ebp ; pop ebp ; ret  ;  (1 found)
0x1480911b: mov esp, ebp ; pop ebp ; ret  ;  (1 found)
0x148090ae: mov esp, ebp ; pop ebp ; ret  ;  (1 found)
0x14809191: mov esp, ebp ; pop ebp ; ret  ;  (1 found)
0x14809270: mov esp, ebp ; pop ebp ; ret  ;  (1 found)
0x1480935e: mov esp, ebp ; pop ebp ; ret  ;  (1 found)
0x1480948b: mov esp, ebp ; pop ebp ; ret  ;  (1 found)
0x14809785: mov esp, ebp ; pop ebp ; ret  ;  (1 found)
0x14809a77: mov esp, ebp ; pop ebp ; ret  ;  (1 found)
0x14809c21: mov esp, ebp ; pop ebp ; ret  ;  (1 found)
0x1480a6c7: mov esp, ebp ; pop ebp ; ret  ;  (1 found)
0x1480a780: mov esp, ebp ; pop ebp ; ret  ;  (1 found)
0x1480a891: mov esp, ebp ; pop ebp ; ret  ;  (1 found)
0x1480aa7c: mov esp, ebp ; pop ebp ; ret  ;  (1 found)
0x1480acc8: mov esp, ebp ; pop ebp ; ret  ;  (1 found)
0x1480afb7: mov esp, ebp ; pop ebp ; ret  ;  (1 found)
0x1480b49f: mov esp, ebp ; pop ebp ; ret  ;  (1 found)
0x1480b39c: mov esp, ebp ; pop ebp ; ret  ;  (1 found)
0x1480b685: mov esp, ebp ; pop ebp ; ret  ;  (1 found)
0x1480b6b6: mov esp, ebp ; pop ebp ; ret  ;  (1 found)
0x14803123: mov esp, ebp ; pop ebp ; retn 0x0004 ;  (1 found)
0x148067db: mov esp, ebp ; pop ebp ; retn 0x0004 ;  (1 found)
0x148068a5: mov esp, ebp ; pop ebp ; retn 0x0004 ;  (1 found)
0x148068fb: mov esp, ebp ; pop ebp ; retn 0x0004 ;  (1 found)
0x14806951: mov esp, ebp ; pop ebp ; retn 0x0004 ;  (1 found)
0x148022e4: mov esp, ebp ; pop ebp ; retn 0x0008 ;  (1 found)
0x14801035: mov esp, ebp ; pop ebp ; retn 0x0008 ;  (1 found)
0x148069aa: mov esp, ebp ; pop ebp ; retn 0x0008 ;  (1 found)
0x14806ac8: mov esp, ebp ; pop ebp ; retn 0x0008 ;  (1 found)
0x14806a0c: mov esp, ebp ; pop ebp ; retn 0x000C ;  (1 found)
0x1480684f: mov esp, ebp ; pop ebp ; retn 0x0024 ;  (1 found)
0x14806a80: mov esp, ebp ; pop ebp ; retn 0x0024 ;  (1 found)
0x1480acb2: mov esp, ebx ; pop ebx ; ret  ;  (1 found)
0x1480adca: mov esp, ebx ; pop ebx ; ret  ;  (1 found)
0x1480acab: mov seg?, word [eax-0x01] ; dec dword [ebx-0x1C74A21B] ; pop ebx ; ret  ;  (1 found)
0x1480b498: mov word [ebp-0x02], cx ; fld qword [ebp-0x08] ; mov esp, ebp ; pop ebp ; ret  ;  (1 found)
0x14808817: mov word [ebp-0x08], cx ; fldcw word [ebp-0x08] ; movsx eax, word [ebp-0x04] ; mov esp, ebp ; pop ebp ; ret  ;  (1 found)
0x14803631: mov word [ebx], fs ; add byte [eax], al ; pop ecx ; ret  ;  (1 found)
0x1480a2f2: mov word [esp+0x06], dx ; fldcw word [esp+0x06] ; ret  ;  (1 found)
0x148011d2: mov word [esp+0x14], ax ; call dword [0x1480D11C] ;  (1 found)
0x148011de: mov word [esp+0x16], ax ; call dword [0x1480D118] ;  (1 found)
0x1480c05d: movd edx, mm3 ; xor ecx, ecx ; cmp dl, byte [eax] ; cmovne eax, ecx ; ret  ;  (1 found)
0x1480c05c: movd edx, xmm3 ; xor ecx, ecx ; cmp dl, byte [eax] ; cmovne eax, ecx ; ret  ;  (1 found)
0x14802199: movdqu  [edi+0x10], xmm0 ; mov eax, dword [esp+0x04] ; mov edi, edx ; ret  ;  (1 found)
0x14802195: movdqu  [edi], xmm0 ; movdqu  [edi+0x10], xmm0 ; mov eax, dword [esp+0x04] ; mov edi, edx ; ret  ;  (1 found)
0x14809da8: movlpd qword [esp+0x04], xmm0 ; fld qword [esp+0x04] ; add esp, 0x10 ; ret  ;  (1 found)
0x14809da9: movlps qword [esp+0x04], xmm0 ; fld qword [esp+0x04] ; add esp, 0x10 ; ret  ;  (1 found)
0x1480219a: movq qword [edi+0x10], mm0 ; mov eax, dword [esp+0x04] ; mov edi, edx ; ret  ;  (1 found)
0x14802196: movq qword [edi], mm0 ; movdqu  [edi+0x10], xmm0 ; mov eax, dword [esp+0x04] ; mov edi, edx ; ret  ;  (1 found)
0x1480bc97: movq qword [edi], xmm1 ; lea edi, dword [edi+0x08] ; mov eax, dword [0x1480BCE4+ecx*4] ; jmp eax ;  (1 found)
0x1480c347: movq qword [edi], xmm1 ; lea edi, dword [edi+0x08] ; mov eax, dword [0x1480C394+ecx*4] ; jmp eax ;  (1 found)
0x14809968: movq qword [esp+0x04], xmm1 ; fld qword [esp+0x04] ; ret  ;  (1 found)
0x148099cf: movq qword [esp+0x04], xmm1 ; fld qword [esp+0x04] ; ret  ;  (1 found)
0x148099f2: movq qword [esp+0x04], xmm3 ; fld qword [esp+0x04] ; ret  ;  (1 found)
0x14802846: movsb  ; cmp eax, dword [ecx+0x5EE07514] ; pop ebp ; ret  ;  (1 found)
0x1480bacf: movsb  ; mov eax, dword [esp+0x0C] ; pop esi ; pop edi ; ret  ;  (1 found)
0x1480c17f: movsb  ; mov eax, dword [esp+0x0C] ; pop esi ; pop edi ; ret  ;  (1 found)
0x148016d7: movsb  ; or dword [eax], eax ; add byte [ecx+0x59], bl ; mov al, 0x01 ; pop ebp ; ret  ;  (1 found)
0x1480c38f: movsb  ; ret  ;  (1 found)
0x1480c394: movsb  ; ret  ;  (1 found)
0x1480bcd1: movsd  ; and edx, 0x03 ; jmp dword [0x1480BCE4+edx*4] ;  (1 found)
0x1480c381: movsd  ; and edx, 0x03 ; jmp dword [0x1480C394+edx*4] ;  (1 found)
0x1480bd86: movsd  ; cld  ; jmp dword [0x1480BD90+edx*4] ;  (1 found)
0x1480c436: movsd  ; cld  ; jmp dword [0x1480C440+edx*4] ;  (1 found)
0x1480b97b: movsd  ; retn 0xE0D3 ;  (1 found)
0x14804600: movsd  ; sar ch, 0xFFFFFFFF ; jmp dword [esi-0x74] ;  (1 found)
0x1480a125: movsx eax, al ; and ecx, 0x00000404 ; mov ebx, edx ; add ebx, eax ; add ebx, 0x10 ; jmp dword [ebx] ;  (1 found)
0x1480a1b1: movsx eax, al ; and ecx, 0x00000404 ; mov ebx, edx ; add ebx, eax ; add ebx, 0x10 ; jmp dword [ebx] ;  (1 found)
0x148087f2: movsx eax, word [ebp-0x04] ; mov esp, ebp ; pop ebp ; ret  ;  (1 found)
0x1480888b: movsx eax, word [ebp-0x04] ; mov esp, ebp ; pop ebp ; ret  ;  (1 found)
0x1480881e: movsx eax, word [ebp-0x04] ; mov esp, ebp ; pop ebp ; ret  ;  (1 found)
0x1480acf6: movzx eax, al ; and eax, 0x02 ; add eax, eax ; pop ebp ; ret  ;  (1 found)
0x148052a2: movzx eax, bx ; push eax ; call dword [0x1480D0E0] ;  (1 found)
0x148084aa: movzx eax, byte [eax+ecx+0x28] ; and eax, 0x40 ; pop ebp ; ret  ;  (1 found)
0x14803fbe: movzx eax, word [eax+ecx*2] ; and eax, dword [ebp+0x0C] ; pop ebp ; ret  ;  (1 found)
0x14803f0f: movzx eax, word [edx] ; movzx ecx, word [ecx] ; sub eax, ecx ; pop esi ; pop ebp ; ret  ;  (1 found)
0x14803f12: movzx ecx, word [ecx] ; sub eax, ecx ; pop esi ; pop ebp ; ret  ;  (1 found)
0x1480b82c: mul ecx ; add edx, ebx ; pop ebx ; retn 0x0010 ;  (1 found)
0x1480b814: mul ecx ; retn 0x0010 ;  (1 found)
0x14805d8e: neg byte [eax+0x50] ; call dword [0x1480D0A4] ;  (1 found)
0x1480afb1: neg byte [esi+0x0F] ; xchg eax, esp ; rcr byte [ebx-0x75], 0xFFFFFFE5 ; pop ebp ; ret  ;  (1 found)
0x14806d6a: neg byte [esi+0x5D] ; retn 0x0004 ;  (1 found)
0x1480a1d3: neg ch ; fcomp st0, st5 ; fcomp st0, st1 ; out dx, al ; ret  ;  (1 found)
0x1480172c: neg eax ; dec eax ; pop ebp ; ret  ;  (1 found)
0x14804804: neg eax ; pop ebp ; ret  ;  (1 found)
0x148075ae: neg eax ; pop ebp ; ret  ;  (1 found)
0x14802b6b: neg eax ; ret  ;  (1 found)
0x148075aa: neg eax ; sbb eax, eax ; neg eax ; pop ebp ; ret  ;  (1 found)
0x14802b67: neg eax ; sbb eax, eax ; neg eax ; ret  ;  (1 found)
0x1480b944: neg eax ; sbb edx, 0x00000000 ; pop ebp ; pop esi ; pop edi ; retn 0x0010 ;  (1 found)
0x1480b593: neg ecx ; sbb ecx, ecx ; and ecx, 0xFFFFFF08 ; lea eax, dword [ecx+0x00000100] ; pop ebp ; ret  ;  (1 found)
0x1480b56a: neg ecx ; sbb ecx, ecx ; and ecx, 0xFFFFFF90 ; lea eax, dword [ecx+0x00000080] ; pop ebp ; ret  ;  (1 found)
0x1480b587: neg ecx ; sbb ecx, ecx ; and ecx, 0xFFFFFFE0 ; lea eax, dword [ecx+0x40] ; pop ebp ; ret  ;  (1 found)
0x148036c5: nop  ; adc dword [edi+edi*8], 0xA1C35D5E ; inc eax ; cmp eax, 0x8BC31481 ; call dword [ebp-0x75] ;  (1 found)
0x1480b570: nop  ; lea eax, dword [ecx+0x00000080] ; pop ebp ; ret  ;  (1 found)
0x1480c393: nop  ; movsb  ; ret  ;  (1 found)
0x1480119d: nop dword [eax] ; push 0x00000006 ; push 0x00000001 ; push 0x00000002 ; call dword [0x1480D128] ;  (1 found)
0x14801715: not eax ; and eax, dword [ebp+0x08] ; pop ebp ; ret  ;  (1 found)
0x148017c8: not ecx ; mov dword [0x14813018], ecx ; pop edi ; pop esi ; ret  ;  (1 found)
0x14803ddc: or al, 0x00 ; add byte [eax], al ; xor eax, eax ; pop esi ; pop ebp ; ret  ;  (1 found)
0x14803ed7: or al, 0x00 ; add byte [eax], al ; xor eax, eax ; pop esi ; pop ebp ; ret  ;  (1 found)
0x14803062: or al, 0x00 ; add byte [ecx+0x5F], bl ; pop esi ; pop ebp ; ret  ;  (1 found)
0x14809963: or al, 0x00 ; add byte [edi+0x0B], bh ; movq qword [esp+0x04], xmm1 ; fld qword [esp+0x04] ; ret  ;  (1 found)
0x14803f94: or al, 0x01 ; mov eax, edi ; pop edi ; pop ebp ; retn 0x0004 ;  (1 found)
0x1480a347: or al, 0x24 ; fld tword [esp] ; add esp, 0x0A ; test eax, 0x00000000 ; mov eax, dword [edx+0x04] ; ret  ;  (1 found)
0x148072ab: or al, 0x2B ; ret  ;  (1 found)
0x14807372: or al, 0x2B ; ret  ;  (1 found)
0x14802971: or al, 0x39 ; push ecx ; or byte [ebp+0x05], dh ; mov eax, 0x00000001 ; ret  ;  (1 found)
0x148014e5: or al, 0x3B ; enter 0x0C72, 0x83 ; retn 0x3B28 ;  (1 found)
0x148047f7: or al, 0x3B ; inc ebp ; or byte [esi+0x05], dh ; or eax, 0xFFFFFFFF ; pop ebp ; ret  ;  (1 found)
0x14802a3f: or al, 0x3B ; retn 0xF675 ;  (1 found)
0x14806d8f: or al, 0x3B ; sal dword [ebp-0x0C], 0x33 ; rcr byte [ebp-0x3D], 0xFFFFFF8B ; call dword [ebp-0x75] ;  (1 found)
0x14809a34: or al, 0x50 ; call dword [0x1480D010] ;  (1 found)
0x148026b3: or al, 0x50 ; call dword [0x1480D09C] ;  (1 found)
0x14806751: or al, 0x50 ; call dword [0x1480D09C] ;  (1 found)
0x14804753: or al, 0x56 ; call dword [0x1480D060] ;  (1 found)
0x148043ae: or al, 0x56 ; call dword [0x1480D074] ;  (1 found)
0x148023b4: or al, 0x5D ; mov eax, dword [esp+0x08] ; mov edx, dword [esp+0x10] ; mov dword [edx], eax ; mov eax, 0x00000003 ; ret  ;  (1 found)
0x1480351d: or al, 0x5D ; ret  ;  (1 found)
0x1480356b: or al, 0x5D ; ret  ;  (1 found)
0x14803ff7: or al, 0x5D ; ret  ;  (1 found)
0x14803fc4: or al, 0x5D ; ret  ;  (1 found)
0x148075c9: or al, 0x5D ; ret  ;  (1 found)
0x14807ef4: or al, 0x5D ; ret  ;  (1 found)
0x148023eb: or al, 0x5D ; retn 0x0004 ;  (1 found)
0x14802452: or al, 0x5D ; retn 0x0008 ;  (1 found)
0x1480bad3: or al, 0x5E ; pop edi ; ret  ;  (1 found)
0x1480bcf7: or al, 0x5E ; pop edi ; ret  ;  (1 found)
0x1480bd15: or al, 0x5E ; pop edi ; ret  ;  (1 found)
0x1480bd03: or al, 0x5E ; pop edi ; ret  ;  (1 found)
0x1480bd2f: or al, 0x5E ; pop edi ; ret  ;  (1 found)
0x1480bdb1: or al, 0x5E ; pop edi ; ret  ;  (1 found)
0x1480bda3: or al, 0x5E ; pop edi ; ret  ;  (1 found)
0x1480bdc7: or al, 0x5E ; pop edi ; ret  ;  (1 found)
0x1480bec7: or al, 0x5E ; pop edi ; ret  ;  (1 found)
0x1480bfb3: or al, 0x5E ; pop edi ; ret  ;  (1 found)
0x1480bde1: or al, 0x5E ; pop edi ; ret  ;  (1 found)
0x1480c183: or al, 0x5E ; pop edi ; ret  ;  (1 found)
0x1480c3b3: or al, 0x5E ; pop edi ; ret  ;  (1 found)
0x1480c3a7: or al, 0x5E ; pop edi ; ret  ;  (1 found)
0x1480c3c5: or al, 0x5E ; pop edi ; ret  ;  (1 found)
0x1480c3df: or al, 0x5E ; pop edi ; ret  ;  (1 found)
0x1480c461: or al, 0x5E ; pop edi ; ret  ;  (1 found)
0x1480c453: or al, 0x5E ; pop edi ; ret  ;  (1 found)
0x1480c477: or al, 0x5E ; pop edi ; ret  ;  (1 found)
0x1480c491: or al, 0x5E ; pop edi ; ret  ;  (1 found)
0x1480c663: or al, 0x5E ; pop edi ; ret  ;  (1 found)
0x1480c577: or al, 0x5E ; pop edi ; ret  ;  (1 found)
0x14806bb0: or al, 0x5F ; mov eax, ebx ; pop ebx ; pop esi ; pop ebp ; ret  ;  (1 found)
0x148014dd: or al, 0x72 ; or cl, byte [ebx+0x42030842] ; or al, 0x3B ; enter 0x0C72, 0x83 ; retn 0x3B28 ;  (1 found)
0x1480aefc: or al, 0x81 ; retn 0xFA00 ;  (1 found)
0x148077bb: or al, 0x83 ; cmp eax, 0x148141E0 ; add byte [ebp+0x05], dh ; or eax, 0xFFFFFFFF ; pop esi ; ret  ;  (1 found)
0x148030cf: or al, 0x83 ; mov dword [ecx+edi], 0x33AB751F ; rcr byte [esi+0x5B], 0x0000005F ; ret  ;  (1 found)
0x148014e9: or al, 0x83 ; retn 0x3B28 ;  (1 found)
0x14804507: or al, 0x85 ; push dword [eax+eax*4+0x56] ; call dword [0x1480D074] ;  (1 found)
0x148043aa: or al, 0x85 ; push dword [esp+ecx+0x56] ; call dword [0x1480D074] ;  (1 found)
0x1480261b: or al, 0x85 ; sal byte [ebp+ecx+0x56], 0x00000056 ; push ebx ; call dword [0x1480D0A0] ;  (1 found)
0x148066b7: or al, 0x85 ; sal byte [ebp+ecx+0x56], 0x00000056 ; push ebx ; call dword [0x1480D0A0] ;  (1 found)
0x14809e76: or al, 0x8B ; aam 0x83 ; retn 0x8910 ;  (1 found)
0x14809984: or al, 0x8B ; aam 0x83 ; retn 0x8914 ;  (1 found)
0x1480b39b: or al, 0x8B ; in eax, 0x5D ; ret  ;  (1 found)
0x148068dd: or al, 0x8B ; into  ; call dword [0x1480D144] ;  (1 found)
0x1480698c: or al, 0x8B ; into  ; call dword [0x1480D144] ;  (1 found)
0x14806933: or al, 0x8B ; into  ; call dword [0x1480D144] ;  (1 found)
0x14806aa4: or al, 0x8B ; into  ; push dword [ebp+0x08] ; call dword [0x1480D144] ;  (1 found)
0x1480c6c9: or al, 0x8B ; retn 0xE2C1 ;  (1 found)
0x148075a9: or al, 0xF7 ; fcomp dword [ebx] ; sal bh, 0xFFFFFFD8 ; pop ebp ; ret  ;  (1 found)
0x14808692: or al, 0xFF ; add bl, ch ; fidiv word [eax-0x743CA2FF] ; call dword [ebp-0x75] ;  (1 found)
0x1480820e: or al, ch ; add eax, 0x83000000 ; les edx,  [eax] ; pop ebp ; ret  ;  (1 found)
0x14801d53: or al, ch ; dec ecx ; add dword [eax], eax ; add byte [ecx+0x5D], bl ; ret  ;  (1 found)
0x148041ee: or al, ch ; imul edi, ebx, 0x5959FFFF ; pop ebp ; retn 0x0004 ;  (1 found)
0x14808a27: or al, ch ; push es ; add byte [eax], al ; add byte [ebx+0x5D5E10C4], al ; ret  ;  (1 found)
0x14806a68: or al, ch ; sbb byte [eax], al ; add byte [eax], al ; push eax ; call dword [0x1480D02C] ;  (1 found)
0x1480a9bc: or al, dl ; adc byte [ebx+eax*8], 0xFFFFFF8B ; call dword [ebp-0x75] ;  (1 found)
0x14801d8c: or bh, bh ; adc eax, 0x1480D04C ; push 0xC0000409 ; call dword [0x1480D060] ;  (1 found)
0x14809c26: or bh, bh ; adc eax, 0x1480D058 ; mov dword [0x14814204], eax ; xor eax, eax ; ret  ;  (1 found)
0x1480340e: or bh, bh ; adc eax, 0x1480D060 ; push eax ; call dword [0x1480D064] ;  (1 found)
0x148027d9: or bh, bh ; adc eax, 0x1480D084 ; pop esi ; pop ebp ; ret  ;  (1 found)
0x14803427: or bh, bh ; adc eax, 0x1480D0B8 ; int3  ; push 0x00000000 ; call dword [0x1480D05C] ;  (1 found)
0x14802ae7: or bh, bh ; adc eax, 0x1480D144 ; call edi ;  (1 found)
0x14806819: or bh, bh ; adc eax, 0x1480D144 ; call esi ;  (1 found)
0x148069ea: or bh, bh ; adc eax, 0x1480D144 ; call esi ;  (1 found)
0x14806a4a: or bh, bh ; adc eax, 0x1480D144 ; call esi ;  (1 found)
0x14806aa9: or bh, bh ; adc eax, 0x1480D144 ; call esi ;  (1 found)
0x14802835: or bh, bh ; call dword [0x1480D098] ;  (1 found)
0x14806b24: or bh, bh ; call dword [0x1480D098] ;  (1 found)
0x1480a9d1: or bh, bh ; xor eax, 0x14813750 ; call dword [0x1480D104] ;  (1 found)
0x1480aa02: or bh, bh ; xor eax, 0x14813750 ; call dword [0x1480D104] ;  (1 found)
0x14803ebd: or bh, bh ; xor eax, 0x148141C0 ; call dword [0x1480D0D0] ;  (1 found)
0x1480c077: or bh, dh ; retn 0x0003 ;  (1 found)
0x148058c0: or byte [0x053B1481], bh ; adc al, 0x3D ; adc dword [0x3CE8500C+esi*2], 0x59FFFFFF ; mov dword [0x14813D08], eax ; ret  ;  (1 found)
0x148058d4: or byte [0x8BC31481], bh ; call dword [ebp-0x75] ;  (1 found)
0x14803ac5: or byte [eax+0x4C], ch ; cmp eax, 0x70E81481 ; add byte [eax], al ; add byte [ecx+0x59], bl ; pop ebp ; ret  ;  (1 found)
0x1480b204: or byte [eax+0x6A], dl ; add dword [edx+0x00], ebp ; push edi ; call dword [0x1480D068] ;  (1 found)
0x14809c52: or byte [eax], al ; add byte [eax], al ; leave  ; ret  ;  (1 found)
0x148025db: or byte [eax], al ; add byte [edx+0x00], ch ; push ebx ; call dword [0x1480D0A0] ;  (1 found)
0x14806677: or byte [eax], al ; add byte [edx+0x00], ch ; push ebx ; call dword [0x1480D0A0] ;  (1 found)
0x14801a9e: or byte [eax], al ; mov dword [ecx+0x04], 0x1480D1BC ; mov dword [ecx], 0x1480D1B4 ; ret  ;  (1 found)
0x14801ad1: or byte [eax], al ; mov dword [ecx+0x04], 0x1480D1D8 ; mov dword [ecx], 0x1480D1D0 ; ret  ;  (1 found)
0x14801039: or byte [eax], al ; pop edi ; pop esi ; pop ebx ; pop ebp ; ret  ;  (1 found)
0x148015fe: or byte [eax], bh ; adc dword [ecx+eax], 0x8B5E01B0 ; in eax, 0x5D ; ret  ;  (1 found)
0x14805980: or byte [eax], bl ; add eax, 0x14813D80 ; push eax ; call dword [0x1480D078] ;  (1 found)
0x148059c8: or byte [eax], bl ; add eax, 0x14813D80 ; push eax ; call dword [0x1480D07C] ;  (1 found)
0x14805c6e: or byte [eax], bl ; pop ebp ; ret  ;  (1 found)
0x14805c67: or byte [eax], ch ; add dword [esi+eax-0x75], esi ; inc esp ; or byte [eax], bl ; pop ebp ; ret  ;  (1 found)
0x148084ad: or byte [eax], ch ; and eax, 0x40 ; pop ebp ; ret  ;  (1 found)
0x14802974: or byte [ebp+0x05], dh ; mov eax, 0x00000001 ; ret  ;  (1 found)
0x14805d00: or byte [ebp+0x0B], dh ; push ecx ; call dword [0x1480D0FC] ;  (1 found)
0x14804ea6: or byte [ebp-0x0007177B], cl ; call dword [edi+0x50] ;  (1 found)
0x1480479b: or byte [ebp-0x3D], bl ; mov eax, dword [0x1480DBFC+eax*8] ; pop ebp ; ret  ;  (1 found)
0x1480bcec: or byte [ebp-0x42E3EB80], bh ; adc byte [ebx+ecx*4], 0x00000044 ; and al, 0x0C ; pop esi ; pop edi ; ret  ;  (1 found)
0x148068d9: or byte [ebp-0x74F38B0A], al ; into  ; call dword [0x1480D144] ;  (1 found)
0x1480692f: or byte [ebp-0x74F38B0A], al ; into  ; call dword [0x1480D144] ;  (1 found)
0x14806988: or byte [ebp-0x74F38B0A], al ; into  ; call dword [0x1480D144] ;  (1 found)
0x1480a964: or byte [ebx+0x08870CC0], al ; pop ebp ; ret  ;  (1 found)
0x14804dd0: or byte [ebx+0x1275FEF8], al ; mov dword [0x14813D74], 0x00000001 ; call dword [0x1480D0E4] ;  (1 found)
0x14802b2e: or byte [ebx+0x14813BF8], ah ; pop ebp ; ret  ;  (1 found)
0x148034e4: or byte [ebx+0x14813D1C], ah ; pop ebp ; ret  ;  (1 found)
0x1480469d: or byte [ebx+0x14813D64], ah ; pop ebp ; ret  ;  (1 found)
0x1480b99e: or byte [ebx+0x1CDDF8E4], al ; and al, 0xF2 ; cvttps2pi mm0, qword [esp] ; leave  ; ret  ;  (1 found)
0x14805b55: or byte [ebx+0x3FE083C8], cl ; sar ecx, 0x06 ; imul eax, eax, 0x30 ; add eax, dword [0x14813ED8+ecx*4] ; push eax ; call dword [0x1480D078] ;  (1 found)
0x14805b78: or byte [ebx+0x3FE083C8], cl ; sar ecx, 0x06 ; imul eax, eax, 0x30 ; add eax, dword [0x14813ED8+ecx*4] ; push eax ; call dword [0x1480D07C] ;  (1 found)
0x14806887: or byte [ebx+0x4415FFCE], cl ; rol dword [eax-0x142900EC], 1  ; push es ; call dword [0x1480D088] ;  (1 found)
0x1480768a: or byte [ebx+0x5747F445], cl ; push esi ; push 0x00000009 ; push dword [eax+0x08] ; call dword [0x1480D0B0] ;  (1 found)
0x14802019: or byte [ebx+0x5E5FF445], cl ; pop ebx ; mov esp, ebp ; pop ebp ; ret  ;  (1 found)
0x14809c20: or byte [ebx+0x6AC35DE5], cl ; or bh, bh ; adc eax, 0x1480D058 ; mov dword [0x14814204], eax ; xor eax, eax ; ret  ;  (1 found)
0x148067bc: or byte [ebx-0x00059532], cl ; adc eax, 0x1480D144 ; call esi ;  (1 found)
0x1480787b: or byte [ebx-0x00AFDF40], al ; adc eax, 0x1480D078 ; pop ebp ; ret  ;  (1 found)
0x1480788f: or byte [ebx-0x00AFDF40], al ; adc eax, 0x1480D07C ; pop ebp ; ret  ;  (1 found)
0x14802ae3: or byte [ebx-0x00F79531], cl ; adc eax, 0x1480D144 ; call edi ;  (1 found)
0x1480c073: or byte [ebx-0x08F7DBAC], cl ; retn 0x0003 ;  (1 found)
0x1480b0c6: or byte [ebx-0x09EFF3B7], al ; retn 0x7404 ;  (1 found)
0x1480b0d2: or byte [ebx-0x09F7F3B8], al ; retn 0x7408 ;  (1 found)
0x1480b0de: or byte [ebx-0x09FBF3B8], al ; retn 0x7410 ;  (1 found)
0x1480b0ea: or byte [ebx-0x09FDF3B8], al ; retn 0x7420 ;  (1 found)
0x1480954a: or byte [ebx-0x17A91B83], cl ; sbb eax, 0x59FFFFC6 ; ret  ;  (1 found)
0x148092aa: or byte [ebx-0x74E7F7B4], cl ; inc ebp ; adc al, 0x03 ; ret  ;  (1 found)
0x148023b9: or byte [ebx-0x76EFDBAC], cl ; add bh, byte [eax+0x00000003] ; ret  ;  (1 found)
0x148028c9: or byte [ebx-0x76EFDBAC], cl ; add bh, byte [eax+0x00000003] ; ret  ;  (1 found)
0x1480b0b2: or byte [ebx], ah ; ret  ;  (1 found)
0x148014e2: or byte [ebx], al ; inc edx ; or al, 0x3B ; enter 0x0C72, 0x83 ; retn 0x3B28 ;  (1 found)
0x14803996: or byte [ebx], dh ; rcr byte [edi+0x5B], 0x0000005E ; mov esp, ebp ; pop ebp ; ret  ;  (1 found)
0x148075f4: or byte [ebx], dh ; rcr byte [esi+0x5B], 0xFFFFFF8B ; in eax, 0x5D ; ret  ;  (1 found)
0x14806ffd: or byte [ebx], dh ; shr al, 0xFFFFFFE4 ; inc edi ; add byte [eax], al ; ret  ;  (1 found)
0x1480c0d3: or byte [ecx+0x000000E6], al ; xor byte [ebp-0x3C], 0x0000005E ; pop edi ; pop ebx ; xor eax, eax ; ret  ;  (1 found)
0x1480a952: or byte [ecx+0x458B1448], cl ; or byte [ecx+0x458B1848], cl ; or byte [ecx+0x458B1C48], cl ; or byte [ebx+0x08870CC0], al ; pop ebp ; ret  ;  (1 found)
0x1480a958: or byte [ecx+0x458B1848], cl ; or byte [ecx+0x458B1C48], cl ; or byte [ebx+0x08870CC0], al ; pop ebp ; ret  ;  (1 found)
0x1480a95e: or byte [ecx+0x458B1C48], cl ; or byte [ebx+0x08870CC0], al ; pop ebp ; ret  ;  (1 found)
0x14807a67: or byte [ecx-0x0000FF73], cl ; call dword [ebx-0x75] ;  (1 found)
0x14801096: or byte [ecx-0x01], dl ; adc eax, 0x1480D134 ; mov dword [ebp-0x14], eax ; mov edx, dword [ebp+0x08] ; push edx ; call dword [0x1480D130] ;  (1 found)
0x1480551c: or byte [edi+0x33], dl ; jmp dword [esi+0x39] ;  (1 found)
0x148089a5: or byte [edi+0x5E], bl ; pop ebp ; ret  ;  (1 found)
0x1480b0d9: or byte [edi+eax-0x75], dh ; inc ebp ; or byte [ebx-0x09FBF3B8], al ; retn 0x7410 ;  (1 found)
0x14806f9e: or byte [edi-0x75], dl ; dec ebp ; fdiv st7, st0 ; adc eax, 0x1480D144 ; call dword [ebp-0x24] ;  (1 found)
0x14803fbd: or byte [edi], cl ; mov bh, 0x04 ; dec eax ; and eax, dword [ebp+0x0C] ; pop ebp ; ret  ;  (1 found)
0x148083f8: or byte [edx+0x00], ch ; push dword [0x148141C0] ; call dword [0x1480D024] ;  (1 found)
0x14803d6a: or byte [edx+0x00], ch ; push dword [0x148141C0] ; call dword [0x1480D0CC] ;  (1 found)
0x14807020: or byte [edx+eax+0x0B], dh ; ret  ;  (1 found)
0x14801831: or byte [edx], al ; mov dword [eax+0x04], ecx ; ret  ;  (1 found)
0x148047fa: or byte [esi+0x05], dh ; or eax, 0xFFFFFFFF ; pop ebp ; ret  ;  (1 found)
0x14803104: or byte [esi-0x01], dl ; adc eax, 0x1480D144 ; call dword [ebp+0x08] ;  (1 found)
0x1480a2b3: or ch, bl ; add eax, 0x14810FE6 ; fmulp st1, st0 ; ret  ;  (1 found)
0x1480a34e: or ch, byte [ecx+0x00000000] ; mov eax, dword [edx+0x04] ; ret  ;  (1 found)
0x148014df: or cl, byte [ebx+0x42030842] ; or al, 0x3B ; enter 0x0C72, 0x83 ; retn 0x3B28 ;  (1 found)
0x1480a29d: or cl, cl ; ret  ;  (1 found)
0x1480a4b0: or cl, cl ; ret  ;  (1 found)
0x1480b0d6: or dh, dh ; retn 0x7408 ;  (1 found)
0x14802513: or dword [0x14813020], 0xFFFFFFFF ; pop ecx ; mov al, 0x01 ; ret  ;  (1 found)
0x14804551: or dword [0x14813044], 0xFFFFFFFF ; mov al, 0x01 ; ret  ;  (1 found)
0x148036c3: or dword [0x14813690], 0xFFFFFFFF ; pop esi ; pop ebp ; ret  ;  (1 found)
0x14801830: or dword [eax], 0x02 ; mov dword [eax+0x04], ecx ; ret  ;  (1 found)
0x148016d8: or dword [eax], eax ; add byte [ecx+0x59], bl ; mov al, 0x01 ; pop ebp ; ret  ;  (1 found)
0x14803d8e: or dword [eax], eax ; add byte [ecx-0x77], bl ; push es ; pop esi ; pop ebp ; ret  ;  (1 found)
0x1480b4c3: or dword [ebp+0x6A0575C0], eax ; add bl, byte [eax+0x5D] ; ret  ;  (1 found)
0x14801a01: or dword [ebx+0x000DE8CF], ecx ; add byte [eax], al ; call edi ;  (1 found)
0x148019d6: or dword [ebx+0x0038E8CF], ecx ; add byte [eax], al ; call edi ;  (1 found)
0x1480294e: or eax, 0x00000000 ; add esp, 0x18 ; pop edi ; pop esi ; pop ebx ; ret  ;  (1 found)
0x14807444: or eax, 0x00001000 ; pop ebp ; ret  ;  (1 found)
0x1480709a: or eax, 0x00008000 ; pop ebp ; ret  ;  (1 found)
0x148070a6: or eax, 0x00008040 ; pop ebp ; ret  ;  (1 found)
0x14805d9d: or eax, 0x0974DB85 ; push ebx ; call dword [0x1480D0FC] ;  (1 found)
0x148017c3: or eax, 0x14813014 ; not ecx ; mov dword [0x14813018], ecx ; pop edi ; pop esi ; ret  ;  (1 found)
0x148017cb: or eax, 0x14813018 ; pop edi ; pop esi ; ret  ;  (1 found)
0x1480a99c: or eax, 0x14813750 ; xor eax, eax ; cmp ecx, 0xFFFFFFFF ; setne al ; ret  ;  (1 found)
0x1480454a: or eax, 0x235AE850 ; add byte [eax], al ; or dword [0x14813044], 0xFFFFFFFF ; mov al, 0x01 ; ret  ;  (1 found)
0x148070a1: or eax, 0x40 ; pop ebp ; ret  ;  (1 found)
0x14802481: or eax, 0x5D29CD59 ; ret  ;  (1 found)
0x148024ae: or eax, 0x5D29CD59 ; ret  ;  (1 found)
0x148034b1: or eax, 0x8B0875FF ; into  ; call dword [0x1480D144] ;  (1 found)
0x14806c2b: or eax, 0xCB8B006A ; call dword [0x1480D144] ;  (1 found)
0x14806c78: or eax, 0xCF8B006A ; call dword [0x1480D144] ;  (1 found)
0x14806495: or eax, 0xFFFFFFFF ; lock xadd dword [ecx+0x000000B0], eax ; dec eax ; pop ebp ; ret  ;  (1 found)
0x148036f4: or eax, 0xFFFFFFFF ; pop ebp ; ret  ;  (1 found)
0x148047fd: or eax, 0xFFFFFFFF ; pop ebp ; ret  ;  (1 found)
0x14805c8a: or eax, 0xFFFFFFFF ; pop ebp ; ret  ;  (1 found)
0x148083f1: or eax, 0xFFFFFFFF ; pop ebp ; ret  ;  (1 found)
0x14807756: or eax, 0xFFFFFFFF ; pop ebp ; ret  ;  (1 found)
0x14805c1d: or eax, 0xFFFFFFFF ; pop edi ; pop esi ; pop ebx ; pop ebp ; ret  ;  (1 found)
0x14803077: or eax, 0xFFFFFFFF ; pop edi ; ret  ;  (1 found)
0x14808ee6: or eax, 0xFFFFFFFF ; pop esi ; mov esp, ebp ; pop ebp ; ret  ;  (1 found)
0x1480a88d: or eax, 0xFFFFFFFF ; pop esi ; mov esp, ebp ; pop ebp ; ret  ;  (1 found)
0x148077c5: or eax, 0xFFFFFFFF ; pop esi ; ret  ;  (1 found)
0x148086b6: or eax, dword [eax-0x3E75FE1F] ; pop ebp ; ret  ;  (1 found)
0x14801546: or eax, dword [eax] ; add byte [eax+eax*8-0x3FCDFB8B], al ; pop ebp ; ret  ;  (1 found)
0x14809997: or eax, dword [eax] ; add byte [ebx+0x44DD10C4], al ; and al, 0x04 ; ret  ;  (1 found)
0x148087ac: or eax, dword [ecx+0x00001D38] ; sal byte [ebx+eax+0x33], 0xFFFFFFC0 ; ret  ;  (1 found)
0x1480b6e4: or eax, dword [ecx] ; add byte [eax], al ; cmp word [ecx+0x18], dx ; sete al ; pop ebp ; ret  ;  (1 found)
0x1480bacd: or ebx, esi ; movsb  ; mov eax, dword [esp+0x0C] ; pop esi ; pop edi ; ret  ;  (1 found)
0x1480c17d: or ebx, esi ; movsb  ; mov eax, dword [esp+0x0C] ; pop esi ; pop edi ; ret  ;  (1 found)
0x148020db: or ebx, esi ; stosb  ; mov eax, dword [esp+0x04] ; mov edi, edx ; ret  ;  (1 found)
0x1480224e: or ecx, dword [ebx+0x078B0C4D] ; mov dword [ecx], eax ; mov byte [ecx+0x04], 0x00000000 ; pop edi ; pop ebp ; ret  ;  (1 found)
0x1480b496: or ecx, eax ; mov word [ebp-0x02], cx ; fld qword [ebp-0x08] ; mov esp, ebp ; pop ebp ; ret  ;  (1 found)
0x1480a2ef: or edx, 0x7F ; mov word [esp+0x06], dx ; fldcw word [esp+0x06] ; ret  ;  (1 found)
0x14809967: or esp, dword [esi+0x0F] ; salc  ; dec esp ; and al, 0x04 ; fld qword [esp+0x04] ; ret  ;  (1 found)
0x14808340: or esp, dword [esi+0x3B] ; ret  ;  (1 found)
0x1480661e: out 0x00, al ; add byte [eax], al ; add esp, 0x10 ; ret  ;  (1 found)
0x148014a4: out 0x5D, al ; ret  ;  (1 found)
0x14809313: out 0xFE, al ; lea eax, dword [ebp-0x00001404] ; push esi ; push eax ; push ecx ; call dword [0x1480D0A8] ;  (1 found)
0x14805686: out 0xFF, eax ; call dword [ebx-0x5D] ;  (1 found)
0x14802580: out dx, al ; add dword [ebp-0x15], esi ; pop edi ; mov al, 0x01 ; pop esi ; ret  ;  (1 found)
0x148059b8: out dx, al ; add dword [ebp-0x15], esi ; pop edi ; mov al, 0x01 ; pop esi ; ret  ;  (1 found)
0x14807a41: out dx, al ; add dword [ebp-0x15], esi ; pop esi ; pop edi ; pop ebp ; ret  ;  (1 found)
0x1480a1d9: out dx, al ; ret  ;  (1 found)
0x1480bd82: out dx, eax ; add al, 0xFD ; rep movsd  ; cld  ; jmp dword [0x1480BD90+edx*4] ;  (1 found)
0x1480c432: out dx, eax ; add al, 0xFD ; rep movsd  ; cld  ; jmp dword [0x1480C440+edx*4] ;  (1 found)
0x1480257d: out dx, eax ; sbb byte [ebx-0x148AFE12], al ; pop edi ; mov al, 0x01 ; pop esi ; ret  ;  (1 found)
0x148059b5: out dx, eax ; sbb byte [ebx-0x148AFE12], al ; pop edi ; mov al, 0x01 ; pop esi ; ret  ;  (1 found)
0x1480c766: outsb  ; retn 0xC783 ;  (1 found)
0x1480a123: pmovmskb ecx, qword [edi] ; mov esi, 0x04E181C0 ; add al, 0x00 ; add byte [ebx-0x7C27FC26], cl ; ret  ;  (1 found)
0x1480430e: pop ds ; add byte [eax], al ; pop ecx ; pop ebp ; ret  ;  (1 found)
0x1480119e: pop ds ; add byte [edx+0x06], ch ; push 0x00000001 ; push 0x00000002 ; call dword [0x1480D128] ;  (1 found)
0x14807c33: pop ds ; push edi ; push ebx ; mov ecx, esi ; call dword [0x1480D144] ;  (1 found)
0x14807be8: pop ds ; push edi ; push esi ; mov ecx, ebx ; call dword [0x1480D144] ;  (1 found)
0x14802b64: pop ds ; ror eax, cl ; neg eax ; sbb eax, eax ; neg eax ; ret  ;  (1 found)
0x1480b986: pop ds ; shl edx, cl ; ret  ;  (1 found)
0x1480b966: pop ds ; shr eax, cl ; ret  ;  (1 found)
0x14802373: pop dword [0x00000000] ; add esp, 0x18 ; pop edi ; pop esi ; pop ebx ; ret  ;  (1 found)
0x14802372: pop dword [fs:0x00000000] ; add esp, 0x18 ; pop edi ; pop esi ; pop ebx ; ret  ;  (1 found)
0x148099cd: pop eax ; enter 0x0F66, 0xD6 ; dec esp ; and al, 0x04 ; fld qword [esp+0x04] ; ret  ;  (1 found)
0x14804daf: pop eax ; fld qword [eax-0x743CA2EC] ; call dword [ebp-0x75] ;  (1 found)
0x1480359d: pop eax ; pop ebp ; ret  ;  (1 found)
0x14804787: pop eax ; pop ebp ; ret  ;  (1 found)
0x1480acf3: pop eax ; pop ebp ; ret  ;  (1 found)
0x1480b4ca: pop eax ; pop ebp ; ret  ;  (1 found)
0x1480b543: pop eax ; pop ebp ; ret  ;  (1 found)
0x14801145: pop eax ; pop ebx ; ret  ;  (1 found)
0x148029a3: pop eax ; pop ecx ; pop ebp ; pop ecx ; pop ebx ; retn 0x0004 ;  (1 found)
0x1480549f: pop eax ; pop edi ; pop esi ; pop ebp ; ret  ;  (1 found)
0x14805d8f: pop eax ; push eax ; call dword [0x1480D0A4] ;  (1 found)
0x1480a3ff: pop ebp ; add byte [eax], al ; add byte [edx-0x3D], bl ; fldcw word [esp] ; pop edx ; ret  ;  (1 found)
0x1480acc3: pop ebp ; clc  ; fld qword [ebp-0x08] ; mov esp, ebp ; pop ebp ; ret  ;  (1 found)
0x1480a5e4: pop ebp ; hlt  ; call dword [0x1480D144] ;  (1 found)
0x1480a54a: pop ebp ; hlt  ; call dword [0x1480D144] ;  (1 found)
0x1480a69c: pop ebp ; hlt  ; call dword [0x1480D144] ;  (1 found)
0x1480887a: pop ebp ; hlt  ; wait  ; mov esp, ebp ; pop ebp ; ret  ;  (1 found)
0x1480a5de: pop ebp ; in al, dx ; fld qword [esi] ; push eax ; fstp qword [ebp-0x0C] ; call dword [0x1480D144] ;  (1 found)
0x1480a544: pop ebp ; in al, dx ; fld qword [esi] ; push eax ; fstp qword [ebp-0x0C] ; call dword [0x1480D144] ;  (1 found)
0x1480a696: pop ebp ; in al, dx ; fld qword [esi] ; push eax ; fstp qword [ebp-0x0C] ; call dword [0x1480D144] ;  (1 found)
0x1480271f: pop ebp ; jmp dword [0x1480D088] ;  (1 found)
0x148023b5: pop ebp ; mov eax, dword [esp+0x08] ; mov edx, dword [esp+0x10] ; mov dword [edx], eax ; mov eax, 0x00000003 ; ret  ;  (1 found)
0x148028c5: pop ebp ; mov eax, dword [esp+0x08] ; mov edx, dword [esp+0x10] ; mov dword [edx], eax ; mov eax, 0x00000003 ; ret  ;  (1 found)
0x1480acb1: pop ebp ; mov esp, ebx ; pop ebx ; ret  ;  (1 found)
0x1480adc9: pop ebp ; mov esp, ebx ; pop ebx ; ret  ;  (1 found)
0x148029a5: pop ebp ; pop ecx ; pop ebx ; retn 0x0004 ;  (1 found)
0x1480b949: pop ebp ; pop esi ; pop edi ; retn 0x0010 ;  (1 found)
0x14801a77: pop ebp ; push ecx ; ret  ;  (1 found)
0x148014a5: pop ebp ; ret  ;  (1 found)
0x148014f4: pop ebp ; ret  ;  (1 found)
0x1480154f: pop ebp ; ret  ;  (1 found)
0x14801566: pop ebp ; ret  ;  (1 found)
0x14801608: pop ebp ; ret  ;  (1 found)
0x1480172f: pop ebp ; ret  ;  (1 found)
0x148016df: pop ebp ; ret  ;  (1 found)
0x148016b7: pop ebp ; ret  ;  (1 found)
0x1480171a: pop ebp ; ret  ;  (1 found)
0x1480177e: pop ebp ; ret  ;  (1 found)
0x14801d2f: pop ebp ; ret  ;  (1 found)
0x14801969: pop ebp ; ret  ;  (1 found)
0x14803b01: pop ebp ; ret  ;  (1 found)
0x14801da5: pop ebp ; ret  ;  (1 found)
0x14802022: pop ebp ; ret  ;  (1 found)
0x1480209c: pop ebp ; ret  ;  (1 found)
0x14801ea0: pop ebp ; ret  ;  (1 found)
0x14801d5a: pop ebp ; ret  ;  (1 found)
0x14802405: pop ebp ; ret  ;  (1 found)
0x1480243c: pop ebp ; ret  ;  (1 found)
0x14802485: pop ebp ; ret  ;  (1 found)
0x148024b2: pop ebp ; ret  ;  (1 found)
0x1480227a: pop ebp ; ret  ;  (1 found)
0x1480225b: pop ebp ; ret  ;  (1 found)
0x1480271c: pop ebp ; ret  ;  (1 found)
0x1480275e: pop ebp ; ret  ;  (1 found)
0x1480279b: pop ebp ; ret  ;  (1 found)
0x1480284d: pop ebp ; ret  ;  (1 found)
0x148027e1: pop ebp ; ret  ;  (1 found)
0x148025a4: pop ebp ; ret  ;  (1 found)
0x148026ea: pop ebp ; ret  ;  (1 found)
0x14802666: pop ebp ; ret  ;  (1 found)
0x14802b1f: pop ebp ; ret  ;  (1 found)
0x14802b34: pop ebp ; ret  ;  (1 found)
0x14802b53: pop ebp ; ret  ;  (1 found)
0x14802b80: pop ebp ; ret  ;  (1 found)
0x14802bc9: pop ebp ; ret  ;  (1 found)
0x14802bde: pop ebp ; ret  ;  (1 found)
0x1480288f: pop ebp ; ret  ;  (1 found)
0x14802d14: pop ebp ; ret  ;  (1 found)
0x14802e89: pop ebp ; ret  ;  (1 found)
0x14802ed8: pop ebp ; ret  ;  (1 found)
0x1480302c: pop ebp ; ret  ;  (1 found)
0x14803068: pop ebp ; ret  ;  (1 found)
0x14803142: pop ebp ; ret  ;  (1 found)
0x1480315d: pop ebp ; ret  ;  (1 found)
0x1480320e: pop ebp ; ret  ;  (1 found)
0x14803253: pop ebp ; ret  ;  (1 found)
0x1480103e: pop ebp ; ret  ;  (1 found)
0x1480114b: pop ebp ; ret  ;  (1 found)
0x1480371a: pop ebp ; ret  ;  (1 found)
0x1480375e: pop ebp ; ret  ;  (1 found)
0x1480399e: pop ebp ; ret  ;  (1 found)
0x14803abc: pop ebp ; ret  ;  (1 found)
0x14803ad2: pop ebp ; ret  ;  (1 found)
0x14803385: pop ebp ; ret  ;  (1 found)
0x148033e2: pop ebp ; ret  ;  (1 found)
0x148034db: pop ebp ; ret  ;  (1 found)
0x1480351e: pop ebp ; ret  ;  (1 found)
0x14803556: pop ebp ; ret  ;  (1 found)
0x1480356c: pop ebp ; ret  ;  (1 found)
0x148034ea: pop ebp ; ret  ;  (1 found)
0x1480359e: pop ebp ; ret  ;  (1 found)
0x148035a9: pop ebp ; ret  ;  (1 found)
0x148036cb: pop ebp ; ret  ;  (1 found)
0x14803669: pop ebp ; ret  ;  (1 found)
0x148036f7: pop ebp ; ret  ;  (1 found)
0x14803700: pop ebp ; ret  ;  (1 found)
0x14803fc5: pop ebp ; ret  ;  (1 found)
0x14803ff8: pop ebp ; ret  ;  (1 found)
0x148042c7: pop ebp ; ret  ;  (1 found)
0x14804312: pop ebp ; ret  ;  (1 found)
0x148041d7: pop ebp ; ret  ;  (1 found)
0x148050a8: pop ebp ; ret  ;  (1 found)
0x14803b73: pop ebp ; ret  ;  (1 found)
0x14803b3e: pop ebp ; ret  ;  (1 found)
0x14803c51: pop ebp ; ret  ;  (1 found)
0x14803d02: pop ebp ; ret  ;  (1 found)
0x14803d5b: pop ebp ; ret  ;  (1 found)
0x14803d95: pop ebp ; ret  ;  (1 found)
0x14803de3: pop ebp ; ret  ;  (1 found)
0x14803e15: pop ebp ; ret  ;  (1 found)
0x14803f18: pop ebp ; ret  ;  (1 found)
0x14803eec: pop ebp ; ret  ;  (1 found)
0x14803ede: pop ebp ; ret  ;  (1 found)
0x148047a5: pop ebp ; ret  ;  (1 found)
0x148047c8: pop ebp ; ret  ;  (1 found)
0x14804788: pop ebp ; ret  ;  (1 found)
0x1480479c: pop ebp ; ret  ;  (1 found)
0x14804800: pop ebp ; ret  ;  (1 found)
0x14804806: pop ebp ; ret  ;  (1 found)
0x148049db: pop ebp ; ret  ;  (1 found)
0x14804a8c: pop ebp ; ret  ;  (1 found)
0x14804b88: pop ebp ; ret  ;  (1 found)
0x14804d9e: pop ebp ; ret  ;  (1 found)
0x14804d97: pop ebp ; ret  ;  (1 found)
0x14804da5: pop ebp ; ret  ;  (1 found)
0x14804db3: pop ebp ; ret  ;  (1 found)
0x14804dac: pop ebp ; ret  ;  (1 found)
0x14804e8b: pop ebp ; ret  ;  (1 found)
0x14804e26: pop ebp ; ret  ;  (1 found)
0x1480501f: pop ebp ; ret  ;  (1 found)
0x14804694: pop ebp ; ret  ;  (1 found)
0x148046f2: pop ebp ; ret  ;  (1 found)
0x148046a3: pop ebp ; ret  ;  (1 found)
0x1480554a: pop ebp ; ret  ;  (1 found)
0x148055cd: pop ebp ; ret  ;  (1 found)
0x148058ab: pop ebp ; ret  ;  (1 found)
0x14805801: pop ebp ; ret  ;  (1 found)
0x14805924: pop ebp ; ret  ;  (1 found)
0x1480598e: pop ebp ; ret  ;  (1 found)
0x148059d6: pop ebp ; ret  ;  (1 found)
0x14805a09: pop ebp ; ret  ;  (1 found)
0x14805a83: pop ebp ; ret  ;  (1 found)
0x14805ab8: pop ebp ; ret  ;  (1 found)
0x14805b92: pop ebp ; ret  ;  (1 found)
0x14805b6f: pop ebp ; ret  ;  (1 found)
0x14805c23: pop ebp ; ret  ;  (1 found)
0x14805c70: pop ebp ; ret  ;  (1 found)
0x14805c8d: pop ebp ; ret  ;  (1 found)
0x148054a2: pop ebp ; ret  ;  (1 found)
0x14805421: pop ebp ; ret  ;  (1 found)
0x148054fb: pop ebp ; ret  ;  (1 found)
0x14805513: pop ebp ; ret  ;  (1 found)
0x14806bb6: pop ebp ; ret  ;  (1 found)
0x14806b3e: pop ebp ; ret  ;  (1 found)
0x14806c54: pop ebp ; ret  ;  (1 found)
0x14806d28: pop ebp ; ret  ;  (1 found)
0x14806d21: pop ebp ; ret  ;  (1 found)
0x14806ca1: pop ebp ; ret  ;  (1 found)
0x14806d2f: pop ebp ; ret  ;  (1 found)
0x14806d3d: pop ebp ; ret  ;  (1 found)
0x14806d96: pop ebp ; ret  ;  (1 found)
0x14806d36: pop ebp ; ret  ;  (1 found)
0x14806dbf: pop ebp ; ret  ;  (1 found)
0x14806dfa: pop ebp ; ret  ;  (1 found)
0x1480709f: pop ebp ; ret  ;  (1 found)
0x148070ab: pop ebp ; ret  ;  (1 found)
0x148070a4: pop ebp ; ret  ;  (1 found)
0x14807593: pop ebp ; ret  ;  (1 found)
0x148075b0: pop ebp ; ret  ;  (1 found)
0x148073ab: pop ebp ; ret  ;  (1 found)
0x14807449: pop ebp ; ret  ;  (1 found)
0x148075fb: pop ebp ; ret  ;  (1 found)
0x148075ca: pop ebp ; ret  ;  (1 found)
0x14805d43: pop ebp ; ret  ;  (1 found)
0x14808dd5: pop ebp ; ret  ;  (1 found)
0x14805f9d: pop ebp ; ret  ;  (1 found)
0x14806006: pop ebp ; ret  ;  (1 found)
0x14805e9f: pop ebp ; ret  ;  (1 found)
0x14806126: pop ebp ; ret  ;  (1 found)
0x14806042: pop ebp ; ret  ;  (1 found)
0x148062dc: pop ebp ; ret  ;  (1 found)
0x1480623f: pop ebp ; ret  ;  (1 found)
0x1480625f: pop ebp ; ret  ;  (1 found)
0x14806448: pop ebp ; ret  ;  (1 found)
0x14806426: pop ebp ; ret  ;  (1 found)
0x1480644f: pop ebp ; ret  ;  (1 found)
0x14806529: pop ebp ; ret  ;  (1 found)
0x148064a1: pop ebp ; ret  ;  (1 found)
0x1480647f: pop ebp ; ret  ;  (1 found)
0x148064a8: pop ebp ; ret  ;  (1 found)
0x148065f0: pop ebp ; ret  ;  (1 found)
0x14806788: pop ebp ; ret  ;  (1 found)
0x14806702: pop ebp ; ret  ;  (1 found)
0x148083c5: pop ebp ; ret  ;  (1 found)
0x148083c9: pop ebp ; ret  ;  (1 found)
0x148083f4: pop ebp ; ret  ;  (1 found)
0x14808446: pop ebp ; ret  ;  (1 found)
0x14808407: pop ebp ; ret  ;  (1 found)
0x148084c6: pop ebp ; ret  ;  (1 found)
0x148084b2: pop ebp ; ret  ;  (1 found)
0x14808667: pop ebp ; ret  ;  (1 found)
0x14808699: pop ebp ; ret  ;  (1 found)
0x14808677: pop ebp ; ret  ;  (1 found)
0x14808618: pop ebp ; ret  ;  (1 found)
0x148086b2: pop ebp ; ret  ;  (1 found)
0x1480871f: pop ebp ; ret  ;  (1 found)
0x148086bc: pop ebp ; ret  ;  (1 found)
0x148087f8: pop ebp ; ret  ;  (1 found)
0x14808766: pop ebp ; ret  ;  (1 found)
0x1480887f: pop ebp ; ret  ;  (1 found)
0x14808824: pop ebp ; ret  ;  (1 found)
0x14808891: pop ebp ; ret  ;  (1 found)
0x148088ca: pop ebp ; ret  ;  (1 found)
0x148089a8: pop ebp ; ret  ;  (1 found)
0x148089c4: pop ebp ; ret  ;  (1 found)
0x14808a31: pop ebp ; ret  ;  (1 found)
0x14808ae8: pop ebp ; ret  ;  (1 found)
0x14808d8d: pop ebp ; ret  ;  (1 found)
0x148076de: pop ebp ; ret  ;  (1 found)
0x14807759: pop ebp ; ret  ;  (1 found)
0x14807738: pop ebp ; ret  ;  (1 found)
0x1480770b: pop ebp ; ret  ;  (1 found)
0x1480775e: pop ebp ; ret  ;  (1 found)
0x1480789a: pop ebp ; ret  ;  (1 found)
0x14807886: pop ebp ; ret  ;  (1 found)
0x1480796c: pop ebp ; ret  ;  (1 found)
0x14807a04: pop ebp ; ret  ;  (1 found)
0x14807a47: pop ebp ; ret  ;  (1 found)
0x14807aad: pop ebp ; ret  ;  (1 found)
0x14807e31: pop ebp ; ret  ;  (1 found)
0x14807ef5: pop ebp ; ret  ;  (1 found)
0x14807f82: pop ebp ; ret  ;  (1 found)
0x14808192: pop ebp ; ret  ;  (1 found)
0x148081ee: pop ebp ; ret  ;  (1 found)
0x148082e1: pop ebp ; ret  ;  (1 found)
0x14808217: pop ebp ; ret  ;  (1 found)
0x1480839d: pop ebp ; ret  ;  (1 found)
0x14808eec: pop ebp ; ret  ;  (1 found)
0x1480911d: pop ebp ; ret  ;  (1 found)
0x148090b0: pop ebp ; ret  ;  (1 found)
0x14809272: pop ebp ; ret  ;  (1 found)
0x14809193: pop ebp ; ret  ;  (1 found)
0x14809360: pop ebp ; ret  ;  (1 found)
0x1480948d: pop ebp ; ret  ;  (1 found)
0x14809787: pop ebp ; ret  ;  (1 found)
0x14809a94: pop ebp ; ret  ;  (1 found)
0x14809a79: pop ebp ; ret  ;  (1 found)
0x14809b0a: pop ebp ; ret  ;  (1 found)
0x14809c23: pop ebp ; ret  ;  (1 found)
0x1480a6c9: pop ebp ; ret  ;  (1 found)
0x1480a893: pop ebp ; ret  ;  (1 found)
0x1480a782: pop ebp ; ret  ;  (1 found)
0x1480a92f: pop ebp ; ret  ;  (1 found)
0x1480a96a: pop ebp ; ret  ;  (1 found)
0x1480aa14: pop ebp ; ret  ;  (1 found)
0x1480aa7e: pop ebp ; ret  ;  (1 found)
0x1480aba9: pop ebp ; ret  ;  (1 found)
0x1480acca: pop ebp ; ret  ;  (1 found)
0x1480acf4: pop ebp ; ret  ;  (1 found)
0x1480ace3: pop ebp ; ret  ;  (1 found)
0x1480acfe: pop ebp ; ret  ;  (1 found)
0x1480afb9: pop ebp ; ret  ;  (1 found)
0x1480afdc: pop ebp ; ret  ;  (1 found)
0x1480b2cd: pop ebp ; ret  ;  (1 found)
0x1480b2ef: pop ebp ; ret  ;  (1 found)
0x1480b472: pop ebp ; ret  ;  (1 found)
0x1480b39e: pop ebp ; ret  ;  (1 found)
0x1480b2fc: pop ebp ; ret  ;  (1 found)
0x1480b4ff: pop ebp ; ret  ;  (1 found)
0x1480b4a1: pop ebp ; ret  ;  (1 found)
0x1480b4b9: pop ebp ; ret  ;  (1 found)
0x1480b4cb: pop ebp ; ret  ;  (1 found)
0x1480b53b: pop ebp ; ret  ;  (1 found)
0x1480b577: pop ebp ; ret  ;  (1 found)
0x1480b544: pop ebp ; ret  ;  (1 found)
0x1480b54b: pop ebp ; ret  ;  (1 found)
0x1480b591: pop ebp ; ret  ;  (1 found)
0x1480b5a3: pop ebp ; ret  ;  (1 found)
0x1480b687: pop ebp ; ret  ;  (1 found)
0x1480b5f1: pop ebp ; ret  ;  (1 found)
0x1480b6d2: pop ebp ; ret  ;  (1 found)
0x1480b6ef: pop ebp ; ret  ;  (1 found)
0x1480b6b8: pop ebp ; ret  ;  (1 found)
0x148019ae: pop ebp ; retn 0x0004 ;  (1 found)
0x14801a92: pop ebp ; retn 0x0004 ;  (1 found)
0x14801b09: pop ebp ; retn 0x0004 ;  (1 found)
0x14801ac5: pop ebp ; retn 0x0004 ;  (1 found)
0x14801b47: pop ebp ; retn 0x0004 ;  (1 found)
0x14801d7b: pop ebp ; retn 0x0004 ;  (1 found)
0x148023ec: pop ebp ; retn 0x0004 ;  (1 found)
0x148024cc: pop ebp ; retn 0x0004 ;  (1 found)
0x14803125: pop ebp ; retn 0x0004 ;  (1 found)
0x148041f6: pop ebp ; retn 0x0004 ;  (1 found)
0x14803c7d: pop ebp ; retn 0x0004 ;  (1 found)
0x14803f99: pop ebp ; retn 0x0004 ;  (1 found)
0x14806d6c: pop ebp ; retn 0x0004 ;  (1 found)
0x148067dd: pop ebp ; retn 0x0004 ;  (1 found)
0x148068a7: pop ebp ; retn 0x0004 ;  (1 found)
0x14806953: pop ebp ; retn 0x0004 ;  (1 found)
0x148068fd: pop ebp ; retn 0x0004 ;  (1 found)
0x14801037: pop ebp ; retn 0x0008 ;  (1 found)
0x14802453: pop ebp ; retn 0x0008 ;  (1 found)
0x148022e6: pop ebp ; retn 0x0008 ;  (1 found)
0x148069ac: pop ebp ; retn 0x0008 ;  (1 found)
0x14806aca: pop ebp ; retn 0x0008 ;  (1 found)
0x14806a0e: pop ebp ; retn 0x000C ;  (1 found)
0x14806851: pop ebp ; retn 0x0024 ;  (1 found)
0x14806a82: pop ebp ; retn 0x0024 ;  (1 found)
0x148049d5: pop ebx ; mov eax, esi ; pop esi ; mov esp, ebp ; pop ebp ; ret  ;  (1 found)
0x14801a74: pop ebx ; mov esp, ebp ; pop ebp ; push ecx ; ret  ;  (1 found)
0x14801d2c: pop ebx ; mov esp, ebp ; pop ebp ; ret  ;  (1 found)
0x14801966: pop ebx ; mov esp, ebp ; pop ebp ; ret  ;  (1 found)
0x1480201f: pop ebx ; mov esp, ebp ; pop ebp ; ret  ;  (1 found)
0x14802663: pop ebx ; mov esp, ebp ; pop ebp ; ret  ;  (1 found)
0x1480288c: pop ebx ; mov esp, ebp ; pop ebp ; ret  ;  (1 found)
0x14802d11: pop ebx ; mov esp, ebp ; pop ebp ; ret  ;  (1 found)
0x14803029: pop ebx ; mov esp, ebp ; pop ebp ; ret  ;  (1 found)
0x14801148: pop ebx ; mov esp, ebp ; pop ebp ; ret  ;  (1 found)
0x148050a5: pop ebx ; mov esp, ebp ; pop ebp ; ret  ;  (1 found)
0x148055ca: pop ebx ; mov esp, ebp ; pop ebp ; ret  ;  (1 found)
0x14805a80: pop ebx ; mov esp, ebp ; pop ebp ; ret  ;  (1 found)
0x148073a8: pop ebx ; mov esp, ebp ; pop ebp ; ret  ;  (1 found)
0x14807590: pop ebx ; mov esp, ebp ; pop ebp ; ret  ;  (1 found)
0x148075f8: pop ebx ; mov esp, ebp ; pop ebp ; ret  ;  (1 found)
0x14805d40: pop ebx ; mov esp, ebp ; pop ebp ; ret  ;  (1 found)
0x14806423: pop ebx ; mov esp, ebp ; pop ebp ; ret  ;  (1 found)
0x148066ff: pop ebx ; mov esp, ebp ; pop ebp ; ret  ;  (1 found)
0x14808615: pop ebx ; mov esp, ebp ; pop ebp ; ret  ;  (1 found)
0x1480839a: pop ebx ; mov esp, ebp ; pop ebp ; ret  ;  (1 found)
0x148082de: pop ebx ; mov esp, ebp ; pop ebp ; ret  ;  (1 found)
0x1480911a: pop ebx ; mov esp, ebp ; pop ebp ; ret  ;  (1 found)
0x1480a77f: pop ebx ; mov esp, ebp ; pop ebp ; ret  ;  (1 found)
0x1480afb6: pop ebx ; mov esp, ebp ; pop ebp ; ret  ;  (1 found)
0x1480b684: pop ebx ; mov esp, ebp ; pop ebp ; ret  ;  (1 found)
0x1480b6b5: pop ebx ; mov esp, ebp ; pop ebp ; ret  ;  (1 found)
0x148022e3: pop ebx ; mov esp, ebp ; pop ebp ; retn 0x0008 ;  (1 found)
0x1480243b: pop ebx ; pop ebp ; ret  ;  (1 found)
0x148026e9: pop ebx ; pop ebp ; ret  ;  (1 found)
0x1480103d: pop ebx ; pop ebp ; ret  ;  (1 found)
0x14804e8a: pop ebx ; pop ebp ; ret  ;  (1 found)
0x14805923: pop ebx ; pop ebp ; ret  ;  (1 found)
0x14805c22: pop ebx ; pop ebp ; ret  ;  (1 found)
0x14806041: pop ebx ; pop ebp ; ret  ;  (1 found)
0x14806787: pop ebx ; pop ebp ; ret  ;  (1 found)
0x1480b2cc: pop ebx ; pop ebp ; ret  ;  (1 found)
0x1480b5f0: pop ebx ; pop ebp ; ret  ;  (1 found)
0x14804a88: pop ebx ; pop edi ; mov esp, ebp ; pop ebp ; ret  ;  (1 found)
0x14802402: pop ebx ; pop edi ; pop esi ; pop ebp ; ret  ;  (1 found)
0x14804ca2: pop ebx ; pop edi ; pop esi ; ret  ;  (1 found)
0x148030da: pop ebx ; pop edi ; ret  ;  (1 found)
0x1480399a: pop ebx ; pop esi ; mov esp, ebp ; pop ebp ; ret  ;  (1 found)
0x148057fd: pop ebx ; pop esi ; mov esp, ebp ; pop ebp ; ret  ;  (1 found)
0x14805ab6: pop ebx ; pop esi ; pop ebp ; ret  ;  (1 found)
0x14806bb4: pop ebx ; pop esi ; pop ebp ; ret  ;  (1 found)
0x14809bec: pop ebx ; pop esi ; pop edi ; leave  ; ret  ;  (1 found)
0x14801a14: pop ebx ; ret  ;  (1 found)
0x148019e9: pop ebx ; ret  ;  (1 found)
0x1480237e: pop ebx ; ret  ;  (1 found)
0x14802958: pop ebx ; ret  ;  (1 found)
0x14801146: pop ebx ; ret  ;  (1 found)
0x14804499: pop ebx ; ret  ;  (1 found)
0x14805df7: pop ebx ; ret  ;  (1 found)
0x1480acb4: pop ebx ; ret  ;  (1 found)
0x1480adcc: pop ebx ; ret  ;  (1 found)
0x1480c129: pop ebx ; ret  ;  (1 found)
0x1480c114: pop ebx ; ret  ;  (1 found)
0x1480c0e5: pop ebx ; ret  ;  (1 found)
0x1480c11b: pop ebx ; ret  ;  (1 found)
0x1480c122: pop ebx ; ret  ;  (1 found)
0x148029a7: pop ebx ; retn 0x0004 ;  (1 found)
0x1480b830: pop ebx ; retn 0x0010 ;  (1 found)
0x1480c0de: pop ebx ; xor eax, eax ; ret  ;  (1 found)
0x14802271: pop ecx ; and dword [esi], 0x00000000 ; mov byte [esi+0x04], 0x00000000 ; pop esi ; pop ebp ; ret  ;  (1 found)
0x148057c0: pop ecx ; call dword [eax+0x56] ;  (1 found)
0x148024af: pop ecx ; int 0x29 ; pop ebp ; ret  ;  (1 found)
0x14802482: pop ecx ; int 0x29 ; pop ebp ; ret  ;  (1 found)
0x148016dc: pop ecx ; mov al, 0x01 ; pop ebp ; ret  ;  (1 found)
0x14802099: pop ecx ; mov al, 0x01 ; pop ebp ; ret  ;  (1 found)
0x1480251a: pop ecx ; mov al, 0x01 ; ret  ;  (1 found)
0x14803b9d: pop ecx ; mov al, 0x01 ; ret  ;  (1 found)
0x14802bd8: pop ecx ; mov dword [0x14813BFC], eax ; pop ebp ; ret  ;  (1 found)
0x148058d2: pop ecx ; mov dword [0x14813D08], eax ; ret  ;  (1 found)
0x14803550: pop ecx ; mov dword [0x14813D1C], eax ; pop ebp ; ret  ;  (1 found)
0x14803d91: pop ecx ; mov dword [esi], eax ; pop esi ; pop ebp ; ret  ;  (1 found)
0x14803c78: pop ecx ; mov dword [esi], edi ; pop edi ; pop esi ; pop ebp ; retn 0x0004 ;  (1 found)
0x14805e9a: pop ecx ; mov eax, dword [eax] ; mov esp, ebp ; pop ebp ; ret  ;  (1 found)
0x14807849: pop ecx ; mov eax, dword [esi+eax] ; add eax, 0x20 ; push eax ; call dword [0x1480D080] ;  (1 found)
0x14809b05: pop ecx ; mov eax, edi ; pop edi ; pop esi ; pop ebp ; ret  ;  (1 found)
0x14802f64: pop ecx ; mov eax, edi ; pop edi ; pop esi ; ret  ;  (1 found)
0x14804c9f: pop ecx ; mov eax, esi ; pop ebx ; pop edi ; pop esi ; ret  ;  (1 found)
0x14801b05: pop ecx ; mov eax, esi ; pop esi ; pop ebp ; retn 0x0004 ;  (1 found)
0x14801b43: pop ecx ; mov eax, esi ; pop esi ; pop ebp ; retn 0x0004 ;  (1 found)
0x14801d77: pop ecx ; mov eax, esi ; pop esi ; pop ebp ; retn 0x0004 ;  (1 found)
0x14803d58: pop ecx ; mov esp, ebp ; pop ebp ; ret  ;  (1 found)
0x14801034: pop ecx ; mov esp, ebp ; pop ebp ; retn 0x0008 ;  (1 found)
0x148029a4: pop ecx ; pop ebp ; pop ecx ; pop ebx ; retn 0x0004 ;  (1 found)
0x14801d59: pop ecx ; pop ebp ; ret  ;  (1 found)
0x1480315c: pop ecx ; pop ebp ; ret  ;  (1 found)
0x14803141: pop ecx ; pop ebp ; ret  ;  (1 found)
0x14803ad1: pop ecx ; pop ebp ; ret  ;  (1 found)
0x14804311: pop ecx ; pop ebp ; ret  ;  (1 found)
0x1480625e: pop ecx ; pop ebp ; ret  ;  (1 found)
0x148024cb: pop ecx ; pop ebp ; retn 0x0004 ;  (1 found)
0x148041f5: pop ecx ; pop ebp ; retn 0x0004 ;  (1 found)
0x14801965: pop ecx ; pop ebx ; mov esp, ebp ; pop ebp ; ret  ;  (1 found)
0x148029a6: pop ecx ; pop ebx ; retn 0x0004 ;  (1 found)
0x148016db: pop ecx ; pop ecx ; mov al, 0x01 ; pop ebp ; ret  ;  (1 found)
0x14805e99: pop ecx ; pop ecx ; mov eax, dword [eax] ; mov esp, ebp ; pop ebp ; ret  ;  (1 found)
0x14801b04: pop ecx ; pop ecx ; mov eax, esi ; pop esi ; pop ebp ; retn 0x0004 ;  (1 found)
0x14801b42: pop ecx ; pop ecx ; mov eax, esi ; pop esi ; pop ebp ; retn 0x0004 ;  (1 found)
0x14801d76: pop ecx ; pop ecx ; mov eax, esi ; pop esi ; pop ebp ; retn 0x0004 ;  (1 found)
0x14803ad0: pop ecx ; pop ecx ; pop ebp ; ret  ;  (1 found)
0x148041f4: pop ecx ; pop ecx ; pop ebp ; retn 0x0004 ;  (1 found)
0x1480647c: pop ecx ; pop ecx ; pop esi ; pop ebp ; ret  ;  (1 found)
0x1480144a: pop ecx ; pop ecx ; ret  ;  (1 found)
0x14803198: pop ecx ; pop ecx ; ret  ;  (1 found)
0x14803c90: pop ecx ; pop ecx ; ret  ;  (1 found)
0x14803ca2: pop ecx ; pop ecx ; ret  ;  (1 found)
0x1480522f: pop ecx ; pop ecx ; ret  ;  (1 found)
0x14803cfd: pop ecx ; pop ecx ; xor eax, eax ; pop esi ; pop ebp ; ret  ;  (1 found)
0x14805ab4: pop ecx ; pop edi ; pop ebx ; pop esi ; pop ebp ; ret  ;  (1 found)
0x14803065: pop ecx ; pop edi ; pop esi ; pop ebp ; ret  ;  (1 found)
0x14805f9b: pop ecx ; pop esi ; pop ebp ; ret  ;  (1 found)
0x14806004: pop ecx ; pop esi ; pop ebp ; ret  ;  (1 found)
0x148062da: pop ecx ; pop esi ; pop ebp ; ret  ;  (1 found)
0x14806527: pop ecx ; pop esi ; pop ebp ; ret  ;  (1 found)
0x1480647d: pop ecx ; pop esi ; pop ebp ; ret  ;  (1 found)
0x14807871: pop ecx ; pop esi ; ret  ;  (1 found)
0x14803424: pop ecx ; push dword [ebp+0x08] ; call dword [0x1480D0B8] ;  (1 found)
0x1480a8e9: pop ecx ; push eax ; call dword [0x1480D008] ;  (1 found)
0x14808e1e: pop ecx ; push eax ; call dword [0x1480D01C] ;  (1 found)
0x1480130c: pop ecx ; ret  ;  (1 found)
0x1480144b: pop ecx ; ret  ;  (1 found)
0x14801b1c: pop ecx ; ret  ;  (1 found)
0x14803199: pop ecx ; ret  ;  (1 found)
0x14803296: pop ecx ; ret  ;  (1 found)
0x148037b0: pop ecx ; ret  ;  (1 found)
0x1480380c: pop ecx ; ret  ;  (1 found)
0x1480385d: pop ecx ; ret  ;  (1 found)
0x148051c7: pop ecx ; ret  ;  (1 found)
0x14803635: pop ecx ; ret  ;  (1 found)
0x148040ec: pop ecx ; ret  ;  (1 found)
0x1480413c: pop ecx ; ret  ;  (1 found)
0x14804040: pop ecx ; ret  ;  (1 found)
0x148040a1: pop ecx ; ret  ;  (1 found)
0x14803bed: pop ecx ; ret  ;  (1 found)
0x14803c91: pop ecx ; ret  ;  (1 found)
0x14803ca3: pop ecx ; ret  ;  (1 found)
0x14804cf2: pop ecx ; ret  ;  (1 found)
0x14805b4c: pop ecx ; ret  ;  (1 found)
0x14805230: pop ecx ; ret  ;  (1 found)
0x14806cfb: pop ecx ; ret  ;  (1 found)
0x14806fcb: pop ecx ; ret  ;  (1 found)
0x14805e4d: pop ecx ; ret  ;  (1 found)
0x14806598: pop ecx ; ret  ;  (1 found)
0x14808480: pop ecx ; ret  ;  (1 found)
0x1480858a: pop ecx ; ret  ;  (1 found)
0x14808547: pop ecx ; ret  ;  (1 found)
0x1480876f: pop ecx ; ret  ;  (1 found)
0x1480896a: pop ecx ; ret  ;  (1 found)
0x14808e6d: pop ecx ; ret  ;  (1 found)
0x14809554: pop ecx ; ret  ;  (1 found)
0x14809b83: pop ecx ; ret  ;  (1 found)
0x1480a804: pop ecx ; ret  ;  (1 found)
0x14801729: pop ecx ; sbb eax, eax ; neg eax ; dec eax ; pop ebp ; ret  ;  (1 found)
0x14801712: pop ecx ; sbb eax, eax ; not eax ; and eax, dword [ebp+0x08] ; pop ebp ; ret  ;  (1 found)
0x1480ba6b: pop ecx ; xchg eax, esp ; mov eax, dword [eax] ; mov dword [esp], eax ; ret  ;  (1 found)
0x14805973: pop ecx ; xor al, al ; pop edi ; pop esi ; ret  ;  (1 found)
0x14803cfe: pop ecx ; xor eax, eax ; pop esi ; pop ebp ; ret  ;  (1 found)
0x1480c110: pop edi ; lea eax, dword [edx-0x01] ; pop ebx ; ret  ;  (1 found)
0x14809bee: pop edi ; leave  ; ret  ;  (1 found)
0x1480c7e4: pop edi ; leave  ; ret  ;  (1 found)
0x1480c77b: pop edi ; leave  ; ret  ;  (1 found)
0x1480c73a: pop edi ; leave  ; ret  ;  (1 found)
0x14802584: pop edi ; mov al, 0x01 ; pop esi ; ret  ;  (1 found)
0x148059bc: pop edi ; mov al, 0x01 ; pop esi ; ret  ;  (1 found)
0x14806bb1: pop edi ; mov eax, ebx ; pop ebx ; pop esi ; pop ebp ; ret  ;  (1 found)
0x1480591f: pop edi ; mov eax, esi ; pop esi ; pop ebx ; pop ebp ; ret  ;  (1 found)
0x14804a89: pop edi ; mov esp, ebp ; pop ebp ; ret  ;  (1 found)
0x148058a8: pop edi ; mov esp, ebp ; pop ebp ; ret  ;  (1 found)
0x1480225a: pop edi ; pop ebp ; ret  ;  (1 found)
0x14805549: pop edi ; pop ebp ; ret  ;  (1 found)
0x14808445: pop edi ; pop ebp ; ret  ;  (1 found)
0x14807a46: pop edi ; pop ebp ; ret  ;  (1 found)
0x1480b471: pop edi ; pop ebp ; ret  ;  (1 found)
0x14803f98: pop edi ; pop ebp ; retn 0x0004 ;  (1 found)
0x14805a7f: pop edi ; pop ebx ; mov esp, ebp ; pop ebp ; ret  ;  (1 found)
0x148026e8: pop edi ; pop ebx ; pop ebp ; ret  ;  (1 found)
0x14806786: pop edi ; pop ebx ; pop ebp ; ret  ;  (1 found)
0x1480b2cb: pop edi ; pop ebx ; pop ebp ; ret  ;  (1 found)
0x14803999: pop edi ; pop ebx ; pop esi ; mov esp, ebp ; pop ebp ; ret  ;  (1 found)
0x14805ab5: pop edi ; pop ebx ; pop esi ; pop ebp ; ret  ;  (1 found)
0x1480c128: pop edi ; pop ebx ; ret  ;  (1 found)
0x1480c11a: pop edi ; pop ebx ; ret  ;  (1 found)
0x1480c121: pop edi ; pop ebx ; ret  ;  (1 found)
0x1480c0dd: pop edi ; pop ebx ; xor eax, eax ; ret  ;  (1 found)
0x1480918f: pop edi ; pop esi ; mov esp, ebp ; pop ebp ; ret  ;  (1 found)
0x14809a75: pop edi ; pop esi ; mov esp, ebp ; pop ebp ; ret  ;  (1 found)
0x14802403: pop edi ; pop esi ; pop ebp ; ret  ;  (1 found)
0x14803066: pop edi ; pop esi ; pop ebp ; ret  ;  (1 found)
0x148054a0: pop edi ; pop esi ; pop ebp ; ret  ;  (1 found)
0x148065ee: pop edi ; pop esi ; pop ebp ; ret  ;  (1 found)
0x1480871d: pop edi ; pop esi ; pop ebp ; ret  ;  (1 found)
0x148089a6: pop edi ; pop esi ; pop ebp ; ret  ;  (1 found)
0x14809b08: pop edi ; pop esi ; pop ebp ; ret  ;  (1 found)
0x1480a92d: pop edi ; pop esi ; pop ebp ; ret  ;  (1 found)
0x14803c7a: pop edi ; pop esi ; pop ebp ; retn 0x0004 ;  (1 found)
0x14803c7b: pop edi ; pop esi ; pop ebp ; retn 0x0004 ;  (1 found)
0x1480201d: pop edi ; pop esi ; pop ebx ; mov esp, ebp ; pop ebp ; ret  ;  (1 found)
0x14802661: pop edi ; pop esi ; pop ebx ; mov esp, ebp ; pop ebp ; ret  ;  (1 found)
0x1480288a: pop edi ; pop esi ; pop ebx ; mov esp, ebp ; pop ebp ; ret  ;  (1 found)
0x14802d0f: pop edi ; pop esi ; pop ebx ; mov esp, ebp ; pop ebp ; ret  ;  (1 found)
0x148073a6: pop edi ; pop esi ; pop ebx ; mov esp, ebp ; pop ebp ; ret  ;  (1 found)
0x14805d3e: pop edi ; pop esi ; pop ebx ; mov esp, ebp ; pop ebp ; ret  ;  (1 found)
0x14806421: pop edi ; pop esi ; pop ebx ; mov esp, ebp ; pop ebp ; ret  ;  (1 found)
0x148066fd: pop edi ; pop esi ; pop ebx ; mov esp, ebp ; pop ebp ; ret  ;  (1 found)
0x14808613: pop edi ; pop esi ; pop ebx ; mov esp, ebp ; pop ebp ; ret  ;  (1 found)
0x14808398: pop edi ; pop esi ; pop ebx ; mov esp, ebp ; pop ebp ; ret  ;  (1 found)
0x1480b682: pop edi ; pop esi ; pop ebx ; mov esp, ebp ; pop ebp ; ret  ;  (1 found)
0x1480b6b3: pop edi ; pop esi ; pop ebx ; mov esp, ebp ; pop ebp ; ret  ;  (1 found)
0x148022e1: pop edi ; pop esi ; pop ebx ; mov esp, ebp ; pop ebp ; retn 0x0008 ;  (1 found)
0x14802439: pop edi ; pop esi ; pop ebx ; pop ebp ; ret  ;  (1 found)
0x1480103b: pop edi ; pop esi ; pop ebx ; pop ebp ; ret  ;  (1 found)
0x14804e88: pop edi ; pop esi ; pop ebx ; pop ebp ; ret  ;  (1 found)
0x14805c20: pop edi ; pop esi ; pop ebx ; pop ebp ; ret  ;  (1 found)
0x1480603e: pop edi ; pop esi ; pop ebx ; pop ebp ; ret  ;  (1 found)
0x1480603f: pop edi ; pop esi ; pop ebx ; pop ebp ; ret  ;  (1 found)
0x1480b5ee: pop edi ; pop esi ; pop ebx ; pop ebp ; ret  ;  (1 found)
0x148019e7: pop edi ; pop esi ; pop ebx ; ret  ;  (1 found)
0x14801a12: pop edi ; pop esi ; pop ebx ; ret  ;  (1 found)
0x1480237c: pop edi ; pop esi ; pop ebx ; ret  ;  (1 found)
0x14802956: pop edi ; pop esi ; pop ebx ; ret  ;  (1 found)
0x14804497: pop edi ; pop esi ; pop ebx ; ret  ;  (1 found)
0x14805df5: pop edi ; pop esi ; pop ebx ; ret  ;  (1 found)
0x14801032: pop edi ; pop esi ; pop ecx ; mov esp, ebp ; pop ebp ; retn 0x0008 ;  (1 found)
0x148017d0: pop edi ; pop esi ; ret  ;  (1 found)
0x14802557: pop edi ; pop esi ; ret  ;  (1 found)
0x14802f67: pop edi ; pop esi ; ret  ;  (1 found)
0x148043b8: pop edi ; pop esi ; ret  ;  (1 found)
0x14804ca3: pop edi ; pop esi ; ret  ;  (1 found)
0x14805976: pop edi ; pop esi ; ret  ;  (1 found)
0x1480307a: pop edi ; ret  ;  (1 found)
0x148030db: pop edi ; ret  ;  (1 found)
0x1480bad5: pop edi ; ret  ;  (1 found)
0x1480bcf9: pop edi ; ret  ;  (1 found)
0x1480bd17: pop edi ; ret  ;  (1 found)
0x1480bd05: pop edi ; ret  ;  (1 found)
0x1480bd31: pop edi ; ret  ;  (1 found)
0x1480bdb3: pop edi ; ret  ;  (1 found)
0x1480bda5: pop edi ; ret  ;  (1 found)
0x1480bde3: pop edi ; ret  ;  (1 found)
0x1480bdc9: pop edi ; ret  ;  (1 found)
0x1480bec9: pop edi ; ret  ;  (1 found)
0x1480bfb5: pop edi ; ret  ;  (1 found)
0x1480c185: pop edi ; ret  ;  (1 found)
0x1480c3b5: pop edi ; ret  ;  (1 found)
0x1480c3a9: pop edi ; ret  ;  (1 found)
0x1480c3c7: pop edi ; ret  ;  (1 found)
0x1480c3e1: pop edi ; ret  ;  (1 found)
0x1480c463: pop edi ; ret  ;  (1 found)
0x1480c455: pop edi ; ret  ;  (1 found)
0x1480c493: pop edi ; ret  ;  (1 found)
0x1480c479: pop edi ; ret  ;  (1 found)
0x1480c579: pop edi ; ret  ;  (1 found)
0x1480c665: pop edi ; ret  ;  (1 found)
0x1480b94b: pop edi ; retn 0x0010 ;  (1 found)
0x14807823: pop edi ; xor eax, eax ; pop esi ; ret  ;  (1 found)
0x1480454d: pop edx ; and eax, dword [eax] ; add byte [ebx-0x7ECFBBF3], al ; adc al, 0xFF ; mov al, 0x01 ; ret  ;  (1 found)
0x1480a379: pop edx ; ret  ;  (1 found)
0x1480a39e: pop edx ; ret  ;  (1 found)
0x1480a403: pop edx ; ret  ;  (1 found)
0x1480a408: pop edx ; ret  ;  (1 found)
0x1480a3a3: pop edx ; ret  ;  (1 found)
0x1480a3fc: pop edx ; ret  ;  (1 found)
0x148098de: pop edx ; ret  ;  (1 found)
0x148011ce: pop edx ; sbb eax, dword [eax] ; add byte [esi-0x77], ah ; inc esp ; and al, 0x14 ; call dword [0x1480D11C] ;  (1 found)
0x14802096: pop es ; add byte [eax], al ; pop ecx ; mov al, 0x01 ; pop ebp ; ret  ;  (1 found)
0x14801b19: pop es ; add byte [eax], al ; pop ecx ; ret  ;  (1 found)
0x148051c4: pop es ; add byte [eax], al ; pop ecx ; ret  ;  (1 found)
0x14809e0c: pop es ; fld qword [0x14810F08] ; ret  ;  (1 found)
0x1480a239: pop es ; mov byte [ebp-0x00000090], 0x00000000 ; faddp st1, st0 ; ret  ;  (1 found)
0x1480a278: pop es ; mov byte [ebp-0x00000090], 0x00000001 ; faddp st1, st0 ; ret  ;  (1 found)
0x1480a295: pop es ; mov byte [ebp-0x00000090], 0x00000001 ; or cl, cl ; ret  ;  (1 found)
0x14802253: pop es ; mov dword [ecx], eax ; mov byte [ecx+0x04], 0x00000000 ; pop edi ; pop ebp ; ret  ;  (1 found)
0x14802ad9: pop es ; mov dword [esi+0x08], 0x0000008A ; push dword [esi+0x08] ; mov ecx, edi ; push 0x00000008 ; call dword [0x1480D144] ;  (1 found)
0x1480bcff: pop es ; mov eax, dword [esp+0x0C] ; pop esi ; pop edi ; ret  ;  (1 found)
0x1480c3af: pop es ; mov eax, dword [esp+0x0C] ; pop esi ; pop edi ; ret  ;  (1 found)
0x14802198: pop es ; movdqu  [edi+0x10], xmm0 ; mov eax, dword [esp+0x04] ; mov edi, edx ; ret  ;  (1 found)
0x148036c2: pop es ; or dword [0x14813690], 0xFFFFFFFF ; pop esi ; pop ebp ; ret  ;  (1 found)
0x1480a9b8: pop es ; push eax ; call dword [0x1480D008] ;  (1 found)
0x14802647: pop es ; push esi ; call dword [0x1480D098] ;  (1 found)
0x148066e3: pop es ; push esi ; call dword [0x1480D098] ;  (1 found)
0x14804b6f: pop es ; push esi ; call dword [0x1480D0D4] ;  (1 found)
0x148055be: pop es ; push esi ; call dword [0x1480D0F0] ;  (1 found)
0x14803d2b: pop es ; xor eax, eax ; inc eax ; ret  ;  (1 found)
0x14805545: pop esi ; lea eax, dword [edx+0x02] ; pop edi ; pop ebp ; ret  ;  (1 found)
0x14807edd: pop esi ; leave  ; ret  ;  (1 found)
0x14806b3b: pop esi ; mov al, 0x01 ; pop ebp ; ret  ;  (1 found)
0x1480521a: pop esi ; mov al, 0x01 ; ret  ;  (1 found)
0x1480b46b: pop esi ; mov eax, dword [ebp+0x10] ; mov dword [eax], edi ; pop edi ; pop ebp ; ret  ;  (1 found)
0x14803026: pop esi ; mov eax, ebx ; pop ebx ; mov esp, ebp ; pop ebp ; ret  ;  (1 found)
0x148055c7: pop esi ; mov eax, ebx ; pop ebx ; mov esp, ebp ; pop ebp ; ret  ;  (1 found)
0x14801605: pop esi ; mov esp, ebp ; pop ebp ; ret  ;  (1 found)
0x1480399b: pop esi ; mov esp, ebp ; pop ebp ; ret  ;  (1 found)
0x14803c4e: pop esi ; mov esp, ebp ; pop ebp ; ret  ;  (1 found)
0x148049d8: pop esi ; mov esp, ebp ; pop ebp ; ret  ;  (1 found)
0x148057fe: pop esi ; mov esp, ebp ; pop ebp ; ret  ;  (1 found)
0x14805a06: pop esi ; mov esp, ebp ; pop ebp ; ret  ;  (1 found)
0x14807e2e: pop esi ; mov esp, ebp ; pop ebp ; ret  ;  (1 found)
0x14807f7f: pop esi ; mov esp, ebp ; pop ebp ; ret  ;  (1 found)
0x14808ee9: pop esi ; mov esp, ebp ; pop ebp ; ret  ;  (1 found)
0x14809190: pop esi ; mov esp, ebp ; pop ebp ; ret  ;  (1 found)
0x14809a76: pop esi ; mov esp, ebp ; pop ebp ; ret  ;  (1 found)
0x1480a890: pop esi ; mov esp, ebp ; pop ebp ; ret  ;  (1 found)
0x1480271e: pop esi ; pop ebp ; jmp dword [0x1480D088] ;  (1 found)
0x148014f3: pop esi ; pop ebp ; ret  ;  (1 found)
0x14802404: pop esi ; pop ebp ; ret  ;  (1 found)
0x14802279: pop esi ; pop ebp ; ret  ;  (1 found)
0x1480279a: pop esi ; pop ebp ; ret  ;  (1 found)
0x1480275d: pop esi ; pop ebp ; ret  ;  (1 found)
0x1480271b: pop esi ; pop ebp ; ret  ;  (1 found)
0x1480284c: pop esi ; pop ebp ; ret  ;  (1 found)
0x148027e0: pop esi ; pop ebp ; ret  ;  (1 found)
0x14802ed7: pop esi ; pop ebp ; ret  ;  (1 found)
0x14803067: pop esi ; pop ebp ; ret  ;  (1 found)
0x148036ca: pop esi ; pop ebp ; ret  ;  (1 found)
0x14803b3d: pop esi ; pop ebp ; ret  ;  (1 found)
0x14803d01: pop esi ; pop ebp ; ret  ;  (1 found)
0x14803d94: pop esi ; pop ebp ; ret  ;  (1 found)
0x14803e14: pop esi ; pop ebp ; ret  ;  (1 found)
0x14803de2: pop esi ; pop ebp ; ret  ;  (1 found)
0x14803edd: pop esi ; pop ebp ; ret  ;  (1 found)
0x14803f17: pop esi ; pop ebp ; ret  ;  (1 found)
0x148047c7: pop esi ; pop ebp ; ret  ;  (1 found)
0x14805ab7: pop esi ; pop ebp ; ret  ;  (1 found)
0x148054a1: pop esi ; pop ebp ; ret  ;  (1 found)
0x14806bb5: pop esi ; pop ebp ; ret  ;  (1 found)
0x14805f9c: pop esi ; pop ebp ; ret  ;  (1 found)
0x14806005: pop esi ; pop ebp ; ret  ;  (1 found)
0x14806125: pop esi ; pop ebp ; ret  ;  (1 found)
0x148062db: pop esi ; pop ebp ; ret  ;  (1 found)
0x14806528: pop esi ; pop ebp ; ret  ;  (1 found)
0x1480647e: pop esi ; pop ebp ; ret  ;  (1 found)
0x148065ef: pop esi ; pop ebp ; ret  ;  (1 found)
0x1480871e: pop esi ; pop ebp ; ret  ;  (1 found)
0x14808765: pop esi ; pop ebp ; ret  ;  (1 found)
0x148089a7: pop esi ; pop ebp ; ret  ;  (1 found)
0x14808a30: pop esi ; pop ebp ; ret  ;  (1 found)
0x1480770a: pop esi ; pop ebp ; ret  ;  (1 found)
0x14807737: pop esi ; pop ebp ; ret  ;  (1 found)
0x14809b09: pop esi ; pop ebp ; ret  ;  (1 found)
0x1480a92e: pop esi ; pop ebp ; ret  ;  (1 found)
0x1480aa13: pop esi ; pop ebp ; ret  ;  (1 found)
0x14801a91: pop esi ; pop ebp ; retn 0x0004 ;  (1 found)
0x14801b08: pop esi ; pop ebp ; retn 0x0004 ;  (1 found)
0x14801ac4: pop esi ; pop ebp ; retn 0x0004 ;  (1 found)
0x14801b46: pop esi ; pop ebp ; retn 0x0004 ;  (1 found)
0x14801d7a: pop esi ; pop ebp ; retn 0x0004 ;  (1 found)
0x14803c7c: pop esi ; pop ebp ; retn 0x0004 ;  (1 found)
0x14806d6b: pop esi ; pop ebp ; retn 0x0004 ;  (1 found)
0x14801a73: pop esi ; pop ebx ; mov esp, ebp ; pop ebp ; push ecx ; ret  ;  (1 found)
0x1480201e: pop esi ; pop ebx ; mov esp, ebp ; pop ebp ; ret  ;  (1 found)
0x14802662: pop esi ; pop ebx ; mov esp, ebp ; pop ebp ; ret  ;  (1 found)
0x1480288b: pop esi ; pop ebx ; mov esp, ebp ; pop ebp ; ret  ;  (1 found)
0x14802d10: pop esi ; pop ebx ; mov esp, ebp ; pop ebp ; ret  ;  (1 found)
0x148050a4: pop esi ; pop ebx ; mov esp, ebp ; pop ebp ; ret  ;  (1 found)
0x148073a7: pop esi ; pop ebx ; mov esp, ebp ; pop ebp ; ret  ;  (1 found)
0x148075f7: pop esi ; pop ebx ; mov esp, ebp ; pop ebp ; ret  ;  (1 found)
0x14805d3f: pop esi ; pop ebx ; mov esp, ebp ; pop ebp ; ret  ;  (1 found)
0x14806422: pop esi ; pop ebx ; mov esp, ebp ; pop ebp ; ret  ;  (1 found)
0x148066fe: pop esi ; pop ebx ; mov esp, ebp ; pop ebp ; ret  ;  (1 found)
0x14808614: pop esi ; pop ebx ; mov esp, ebp ; pop ebp ; ret  ;  (1 found)
0x148082dd: pop esi ; pop ebx ; mov esp, ebp ; pop ebp ; ret  ;  (1 found)
0x14808399: pop esi ; pop ebx ; mov esp, ebp ; pop ebp ; ret  ;  (1 found)
0x14809119: pop esi ; pop ebx ; mov esp, ebp ; pop ebp ; ret  ;  (1 found)
0x1480a77e: pop esi ; pop ebx ; mov esp, ebp ; pop ebp ; ret  ;  (1 found)
0x1480b683: pop esi ; pop ebx ; mov esp, ebp ; pop ebp ; ret  ;  (1 found)
0x1480b6b4: pop esi ; pop ebx ; mov esp, ebp ; pop ebp ; ret  ;  (1 found)
0x148022e2: pop esi ; pop ebx ; mov esp, ebp ; pop ebp ; retn 0x0008 ;  (1 found)
0x1480243a: pop esi ; pop ebx ; pop ebp ; ret  ;  (1 found)
0x1480103c: pop esi ; pop ebx ; pop ebp ; ret  ;  (1 found)
0x14804e89: pop esi ; pop ebx ; pop ebp ; ret  ;  (1 found)
0x14805922: pop esi ; pop ebx ; pop ebp ; ret  ;  (1 found)
0x14805c21: pop esi ; pop ebx ; pop ebp ; ret  ;  (1 found)
0x14806040: pop esi ; pop ebx ; pop ebp ; ret  ;  (1 found)
0x1480b5ef: pop esi ; pop ebx ; pop ebp ; ret  ;  (1 found)
0x14804a87: pop esi ; pop ebx ; pop edi ; mov esp, ebp ; pop ebp ; ret  ;  (1 found)
0x148030d9: pop esi ; pop ebx ; pop edi ; ret  ;  (1 found)
0x14801a13: pop esi ; pop ebx ; ret  ;  (1 found)
0x148019e8: pop esi ; pop ebx ; ret  ;  (1 found)
0x1480237d: pop esi ; pop ebx ; ret  ;  (1 found)
0x14802957: pop esi ; pop ebx ; ret  ;  (1 found)
0x14804498: pop esi ; pop ebx ; ret  ;  (1 found)
0x14805df6: pop esi ; pop ebx ; ret  ;  (1 found)
0x14801033: pop esi ; pop ecx ; mov esp, ebp ; pop ebp ; retn 0x0008 ;  (1 found)
0x1480c10f: pop esi ; pop edi ; lea eax, dword [edx-0x01] ; pop ebx ; ret  ;  (1 found)
0x14809bed: pop esi ; pop edi ; leave  ; ret  ;  (1 found)
0x148058a7: pop esi ; pop edi ; mov esp, ebp ; pop ebp ; ret  ;  (1 found)
0x14808444: pop esi ; pop edi ; pop ebp ; ret  ;  (1 found)
0x14807a45: pop esi ; pop edi ; pop ebp ; ret  ;  (1 found)
0x148026e7: pop esi ; pop edi ; pop ebx ; pop ebp ; ret  ;  (1 found)
0x14806785: pop esi ; pop edi ; pop ebx ; pop ebp ; ret  ;  (1 found)
0x1480c120: pop esi ; pop edi ; pop ebx ; ret  ;  (1 found)
0x1480c127: pop esi ; pop edi ; pop ebx ; ret  ;  (1 found)
0x1480c119: pop esi ; pop edi ; pop ebx ; ret  ;  (1 found)
0x1480c0dc: pop esi ; pop edi ; pop ebx ; xor eax, eax ; ret  ;  (1 found)
0x1480bad4: pop esi ; pop edi ; ret  ;  (1 found)
0x1480bcf8: pop esi ; pop edi ; ret  ;  (1 found)
0x1480bd04: pop esi ; pop edi ; ret  ;  (1 found)
0x1480bd16: pop esi ; pop edi ; ret  ;  (1 found)
0x1480bd30: pop esi ; pop edi ; ret  ;  (1 found)
0x1480bda4: pop esi ; pop edi ; ret  ;  (1 found)
0x1480bdb2: pop esi ; pop edi ; ret  ;  (1 found)
0x1480bdc8: pop esi ; pop edi ; ret  ;  (1 found)
0x1480bec8: pop esi ; pop edi ; ret  ;  (1 found)
0x1480bfb4: pop esi ; pop edi ; ret  ;  (1 found)
0x1480bde2: pop esi ; pop edi ; ret  ;  (1 found)
0x1480c184: pop esi ; pop edi ; ret  ;  (1 found)
0x1480c3b4: pop esi ; pop edi ; ret  ;  (1 found)
0x1480c3a8: pop esi ; pop edi ; ret  ;  (1 found)
0x1480c3e0: pop esi ; pop edi ; ret  ;  (1 found)
0x1480c3c6: pop esi ; pop edi ; ret  ;  (1 found)
0x1480c462: pop esi ; pop edi ; ret  ;  (1 found)
0x1480c454: pop esi ; pop edi ; ret  ;  (1 found)
0x1480c478: pop esi ; pop edi ; ret  ;  (1 found)
0x1480c664: pop esi ; pop edi ; ret  ;  (1 found)
0x1480c492: pop esi ; pop edi ; ret  ;  (1 found)
0x1480c578: pop esi ; pop edi ; ret  ;  (1 found)
0x1480b94a: pop esi ; pop edi ; retn 0x0010 ;  (1 found)
0x1480152d: pop esi ; ret  ;  (1 found)
0x14801529: pop esi ; ret  ;  (1 found)
0x148017d1: pop esi ; ret  ;  (1 found)
0x1480281b: pop esi ; ret  ;  (1 found)
0x14802558: pop esi ; ret  ;  (1 found)
0x14802587: pop esi ; ret  ;  (1 found)
0x14802f68: pop esi ; ret  ;  (1 found)
0x148043b9: pop esi ; ret  ;  (1 found)
0x1480445a: pop esi ; ret  ;  (1 found)
0x14803be4: pop esi ; ret  ;  (1 found)
0x14804ca4: pop esi ; ret  ;  (1 found)
0x14804d75: pop esi ; ret  ;  (1 found)
0x14804762: pop esi ; ret  ;  (1 found)
0x14805977: pop esi ; ret  ;  (1 found)
0x148059bf: pop esi ; ret  ;  (1 found)
0x14805e79: pop esi ; ret  ;  (1 found)
0x14806b08: pop esi ; ret  ;  (1 found)
0x148077c8: pop esi ; ret  ;  (1 found)
0x14807826: pop esi ; ret  ;  (1 found)
0x14807872: pop esi ; ret  ;  (1 found)
0x1480b791: pop esi ; retn 0x0010 ;  (1 found)
0x1480afb2: pop esi ; sete al ; pop ebx ; mov esp, ebp ; pop ebp ; ret  ;  (1 found)
0x148012ef: pop esp ; add eax, 0xE8CC0000 ; and dword [0xC0330000], eax ; ret  ;  (1 found)
0x148099f5: pop esp ; and al, 0x04 ; fld qword [esp+0x04] ; ret  ;  (1 found)
0x1480ba3c: pop esp ; and al, 0x18 ; fstp dword [esp+0x18] ; leave  ; ret  ;  (1 found)
0x1480ba40: pop esp ; and al, 0x18 ; leave  ; ret  ;  (1 found)
0x14804da8: pop esp ; fld qword [eax-0x5E3CA2EC] ; pop eax ; fld qword [eax-0x743CA2EC] ; call dword [ebp-0x75] ;  (1 found)
0x148084c0: pop esp ; retn 0xFFFF ;  (1 found)
0x14803e5a: pop ss ; call dword [0x1480D058] ;  (1 found)
0x14804731: pop ss ; call dword [0x1480D058] ;  (1 found)
0x14803737: pop ss ; push dword [ebp+0x08] ; mov ecx, esi ; call dword [0x1480D144] ;  (1 found)
0x14801a9d: popad  ; or byte [eax], al ; mov dword [ecx+0x04], 0x1480D1BC ; mov dword [ecx], 0x1480D1B4 ; ret  ;  (1 found)
0x14801ad0: popad  ; or byte [eax], al ; mov dword [ecx+0x04], 0x1480D1D8 ; mov dword [ecx], 0x1480D1D0 ; ret  ;  (1 found)
0x1480189b: popfd  ; cmp ch, 0xFFFFFFFF ; dec dword [ecx-0x0002834B] ; dec dword [ecx-0x00028743] ; jmp dword [esi-0x74] ;  (1 found)
0x14801d82: push 0x00000000 ; call dword [0x1480D050] ;  (1 found)
0x1480342f: push 0x00000000 ; call dword [0x1480D05C] ;  (1 found)
0x14803491: push 0x00000000 ; call dword [0x1480D0BC] ;  (1 found)
0x1480115c: push 0x00000000 ; call dword [0x1480D10C] ;  (1 found)
0x1480123e: push 0x00000000 ; call ebx ;  (1 found)
0x1480120f: push 0x00000000 ; call ebx ;  (1 found)
0x14806c2c: push 0x00000000 ; mov ecx, ebx ; call dword [0x1480D144] ;  (1 found)
0x14806c79: push 0x00000000 ; mov ecx, edi ; call dword [0x1480D144] ;  (1 found)
0x14804659: push 0x00000000 ; mov edi, eax ; call dword [0x1480D050] ;  (1 found)
0x1480120d: push 0x00000000 ; push 0x00000000 ; call ebx ;  (1 found)
0x1480123c: push 0x00000000 ; push 0x00000000 ; call ebx ;  (1 found)
0x14801204: push 0x00000000 ; push 0x00000000 ; push 0x14801150 ; push 0x00000000 ; push 0x00000000 ; call ebx ;  (1 found)
0x14802877: push 0x00000000 ; push 0x00000000 ; push 0x14802889 ; push dword [ebp+0x08] ; call dword [0x1480D06C] ;  (1 found)
0x14801227: push 0x00000000 ; push 0x00000000 ; push edi ; call dword [0x1480D138] ;  (1 found)
0x14801206: push 0x00000000 ; push 0x14801150 ; push 0x00000000 ; push 0x00000000 ; call ebx ;  (1 found)
0x14802879: push 0x00000000 ; push 0x14802889 ; push dword [ebp+0x08] ; call dword [0x1480D06C] ;  (1 found)
0x14801150: push 0x00000000 ; push 0x14811A58 ; push 0x14811A64 ; push 0x00000000 ; call dword [0x1480D10C] ;  (1 found)
0x1480845e: push 0x00000000 ; push dword [0x148141C0] ; call dword [0x1480D020] ;  (1 found)
0x148083f9: push 0x00000000 ; push dword [0x148141C0] ; call dword [0x1480D024] ;  (1 found)
0x14803d6b: push 0x00000000 ; push dword [0x148141C0] ; call dword [0x1480D0CC] ;  (1 found)
0x14803dc1: push 0x00000000 ; push dword [0x148141C0] ; call dword [0x1480D0D0] ;  (1 found)
0x1480a9c7: push 0x00000000 ; push dword [ebp+0x10] ; push dword [ebp+0x0C] ; push dword [ebp+0x08] ; push dword [0x14813750] ; call dword [0x1480D104] ;  (1 found)
0x14801234: push 0x00000000 ; push eax ; push 0x14801040 ; push 0x00000000 ; push 0x00000000 ; call ebx ;  (1 found)
0x148025de: push 0x00000000 ; push ebx ; call dword [0x1480D0A0] ;  (1 found)
0x1480667a: push 0x00000000 ; push ebx ; call dword [0x1480D0A0] ;  (1 found)
0x1480b208: push 0x00000000 ; push edi ; call dword [0x1480D068] ;  (1 found)
0x14801229: push 0x00000000 ; push edi ; call dword [0x1480D138] ;  (1 found)
0x1480242a: push 0x00000000 ; push edx ; push 0x14802439 ; push ecx ; call dword [0x1480D06C] ;  (1 found)
0x14808ff1: push 0x00000001 ; lea eax, dword [ebp-0x18] ; push eax ; push ecx ; push dword [ebp-0x38] ; call dword [0x1480D0B4] ;  (1 found)
0x1480904c: push 0x00000001 ; lea eax, dword [ebp-0x1C] ; push eax ; push dword [ebp-0x30] ; call dword [0x1480D0A8] ;  (1 found)
0x1480b206: push 0x00000001 ; push 0x00000000 ; push edi ; call dword [0x1480D068] ;  (1 found)
0x148011a2: push 0x00000001 ; push 0x00000002 ; call dword [0x1480D128] ;  (1 found)
0x14808d37: push 0x00000001 ; push dword [ebp+0x24] ; call dword [0x1480D0B0] ;  (1 found)
0x148061f7: push 0x00000001 ; push ebx ; call dword [0x1480D0B0] ;  (1 found)
0x14808068: push 0x00000001 ; push edi ; call dword [0x1480D0B0] ;  (1 found)
0x14808ca6: push 0x00000001 ; push esi ; call dword [0x1480D0B0] ;  (1 found)
0x148011a4: push 0x00000002 ; call dword [0x1480D128] ;  (1 found)
0x1480b4c8: push 0x00000002 ; pop eax ; pop ebp ; ret  ;  (1 found)
0x1480acf1: push 0x00000003 ; pop eax ; pop ebp ; ret  ;  (1 found)
0x1480a973: push 0x00000003 ; push 0x40000000 ; push 0x14811078 ; call dword [0x1480D004] ;  (1 found)
0x1480a970: push 0x00000003 ; push eax ; push 0x00000003 ; push 0x40000000 ; push 0x14811078 ; call dword [0x1480D004] ;  (1 found)
0x1480b541: push 0x00000004 ; pop eax ; pop ebp ; ret  ;  (1 found)
0x148011a0: push 0x00000006 ; push 0x00000001 ; push 0x00000002 ; call dword [0x1480D128] ;  (1 found)
0x14802ae6: push 0x00000008 ; call dword [0x1480D144] ;  (1 found)
0x14803ebc: push 0x00000008 ; push dword [0x148141C0] ; call dword [0x1480D0D0] ;  (1 found)
0x14807691: push 0x00000009 ; push dword [eax+0x08] ; call dword [0x1480D0B0] ;  (1 found)
0x14808c14: push 0x00000009 ; push dword [ebp+0x24] ; call dword [0x1480D0B0] ;  (1 found)
0x1480765b: push 0x00000009 ; push dword [edi+0x08] ; call dword [0x1480D0B0] ;  (1 found)
0x14808cbd: push 0x00000009 ; push esi ; call dword [0x1480D0B0] ;  (1 found)
0x14809c25: push 0x0000000A ; call dword [0x1480D058] ;  (1 found)
0x14804785: push 0x0000000D ; pop eax ; pop ebp ; ret  ;  (1 found)
0x14802480: push 0x0000000D ; pop ecx ; int 0x29 ; pop ebp ; ret  ;  (1 found)
0x148024ad: push 0x0000000D ; pop ecx ; int 0x29 ; pop ebp ; ret  ;  (1 found)
0x14809f6f: push 0x0000000F ; adc dword [ebx+eax*8], 0x5375C90A ; ret  ;  (1 found)
0x148011f1: push 0x00000010 ; push eax ; push edi ; call dword [0x1480D114] ;  (1 found)
0x1480359b: push 0x00000016 ; pop eax ; pop ebp ; ret  ;  (1 found)
0x1480549d: push 0x00000016 ; pop eax ; pop edi ; pop esi ; pop ebp ; ret  ;  (1 found)
0x14803e59: push 0x00000017 ; call dword [0x1480D058] ;  (1 found)
0x14804730: push 0x00000017 ; call dword [0x1480D058] ;  (1 found)
0x14802c1e: push 0x00000104 ; mov esi, 0x14813C00 ; xor edi, edi ; push esi ; push edi ; call dword [0x1480D0AC] ;  (1 found)
0x14801184: push 0x00000202 ; call dword [0x1480D12C] ;  (1 found)
0x148025d9: push 0x00000800 ; push 0x00000000 ; push ebx ; call dword [0x1480D0A0] ;  (1 found)
0x14806675: push 0x00000800 ; push 0x00000000 ; push ebx ; call dword [0x1480D0A0] ;  (1 found)
0x1480108b: push 0x00000830 ; mov eax, dword [ebp-0x08] ; push eax ; mov ecx, dword [ebp+0x08] ; push ecx ; call dword [0x1480D134] ;  (1 found)
0x148011cd: push 0x00001B5A ; mov word [esp+0x14], ax ; call dword [0x1480D11C] ;  (1 found)
0x14809410: push 0x0000FDE9 ; call dword [0x1480D0B4] ;  (1 found)
0x14801237: push 0x14801040 ; push 0x00000000 ; push 0x00000000 ; call ebx ;  (1 found)
0x14801208: push 0x14801150 ; push 0x00000000 ; push 0x00000000 ; call ebx ;  (1 found)
0x1480196b: push 0x14801977 ; call dword [0x1480D050] ;  (1 found)
0x1480242d: push 0x14802439 ; push ecx ; call dword [0x1480D06C] ;  (1 found)
0x1480287b: push 0x14802889 ; push dword [ebp+0x08] ; call dword [0x1480D06C] ;  (1 found)
0x1480348c: push 0x1480DB54 ; push 0x00000000 ; call dword [0x1480D0BC] ;  (1 found)
0x1480349e: push 0x1480DB6C ; push dword [ebp-0x08] ; call dword [0x1480D09C] ;  (1 found)
0x1480a97a: push 0x14811078 ; call dword [0x1480D004] ;  (1 found)
0x14801152: push 0x14811A58 ; push 0x14811A64 ; push 0x00000000 ; call dword [0x1480D10C] ;  (1 found)
0x14801157: push 0x14811A64 ; push 0x00000000 ; call dword [0x1480D10C] ;  (1 found)
0x148011ac: push 0x14811A83 ; mov edi, eax ; call dword [0x1480D13C] ;  (1 found)
0x148017e0: push 0x14813810 ; call dword [0x1480D044] ;  (1 found)
0x1480a975: push 0x40000000 ; push 0x14811078 ; call dword [0x1480D004] ;  (1 found)
0x148059a3: push 0x5714813D ; call dword [0x1480D080] ;  (1 found)
0x148022dd: push 0x5F1480D0 ; pop esi ; pop ebx ; mov esp, ebp ; pop ebp ; retn 0x0008 ;  (1 found)
0x14806671: push 0x681480E8 ; add byte [eax], cl ; add byte [eax], al ; push 0x00000000 ; push ebx ; call dword [0x1480D0A0] ;  (1 found)
0x1480c448: push 0x7C1480C4 ; les eax,  [eax+0x24448B14] ; or al, 0x5E ; pop edi ; ret  ;  (1 found)
0x1480121b: push 0x7FFFFFFF ; push edi ; call dword [0x1480D124] ;  (1 found)
0x14803404: push 0xA808E8C1 ; add dword [ebp+0x10], esi ; push dword [ebp+0x08] ; call dword [0x1480D060] ;  (1 found)
0x14801d93: push 0xC0000409 ; call dword [0x1480D060] ;  (1 found)
0x14805bf2: push 0xFFFFFFF6 ; call dword [0x1480D0F8] ;  (1 found)
0x14805d8d: push 0xFFFFFFF6 ; pop eax ; push eax ; call dword [0x1480D0A4] ;  (1 found)
0x148067bf: push 0xFFFFFFFA ; call dword [0x1480D144] ;  (1 found)
0x14803086: push 0xFFFFFFFF ; push dword [edi] ; push ebx ; push ebx ; call dword [0x1480D0B4] ;  (1 found)
0x148030ae: push 0xFFFFFFFF ; push dword [edi] ; xor ebx, ebx ; push ebx ; push ebx ; call dword [0x1480D0B4] ;  (1 found)
0x148099ef: push cs ; adc dword [esi], 0x245CD60F ; add al, 0xDD ; inc esp ; and al, 0x04 ; ret  ;  (1 found)
0x14806bf9: push cs ; mov ecx, ebx ; call dword [0x1480D144] ;  (1 found)
0x1480322c: push cs ; mov ecx, edi ; call dword [0x1480D144] ;  (1 found)
0x14806494: push cs ; or eax, 0xFFFFFFFF ; lock xadd dword [ecx+0x000000B0], eax ; dec eax ; pop ebp ; ret  ;  (1 found)
0x14802bad: push cs ; push dword [ebp+0x08] ; mov ecx, esi ; call dword [0x1480D144] ;  (1 found)
0x14805a9f: push cs ; push edi ; call dword [0x1480D080] ;  (1 found)
0x14803d1b: push ds ; and dword [ebp-0x04], 0x00000000 ; mov ecx, esi ; call dword [0x1480D144] ;  (1 found)
0x1480a9d2: push dword [0x14813750] ; call dword [0x1480D104] ;  (1 found)
0x1480aa03: push dword [0x14813750] ; call dword [0x1480D104] ;  (1 found)
0x14808460: push dword [0x148141C0] ; call dword [0x1480D020] ;  (1 found)
0x148083fb: push dword [0x148141C0] ; call dword [0x1480D024] ;  (1 found)
0x14803d6d: push dword [0x148141C0] ; call dword [0x1480D0CC] ;  (1 found)
0x14803dc3: push dword [0x148141C0] ; call dword [0x1480D0D0] ;  (1 found)
0x14803ebe: push dword [0x148141C0] ; call dword [0x1480D0D0] ;  (1 found)
0x1480a4d0: push dword [0x14814200] ; call dword [0x1480D00C] ;  (1 found)
0x14807693: push dword [eax+0x08] ; call dword [0x1480D0B0] ;  (1 found)
0x14806f9c: push dword [eax+0x08] ; push edi ; mov ecx, dword [ebp-0x24] ; call dword [0x1480D144] ;  (1 found)
0x14804509: push dword [eax+eax*4+0x56] ; call dword [0x1480D074] ;  (1 found)
0x14802833: push dword [eax+ecx-0x01] ; call dword [0x1480D098] ;  (1 found)
0x14802832: push dword [eax+ecx-0x01] ; call dword [0x1480D098] ;  (1 found)
0x14806b22: push dword [eax+ecx-0x01] ; call dword [0x1480D098] ;  (1 found)
0x14806b21: push dword [eax+ecx-0x01] ; call dword [0x1480D098] ;  (1 found)
0x14809180: push dword [eax+esi+0x18] ; call dword [0x1480D014] ;  (1 found)
0x148024e2: push dword [ebp+0x03] ; xor al, al ; ret  ;  (1 found)
0x14804526: push dword [ebp+0x03] ; xor al, al ; ret  ;  (1 found)
0x14803074: push dword [ebp+0x05] ; or eax, 0xFFFFFFFF ; pop edi ; ret  ;  (1 found)
0x14801d8a: push dword [ebp+0x08] ; call dword [0x1480D04C] ;  (1 found)
0x1480340c: push dword [ebp+0x08] ; call dword [0x1480D060] ;  (1 found)
0x14802880: push dword [ebp+0x08] ; call dword [0x1480D06C] ;  (1 found)
0x148027d7: push dword [ebp+0x08] ; call dword [0x1480D084] ;  (1 found)
0x148069f8: push dword [ebp+0x08] ; call dword [0x1480D084] ;  (1 found)
0x14803425: push dword [ebp+0x08] ; call dword [0x1480D0B8] ;  (1 found)
0x14806817: push dword [ebp+0x08] ; call dword [0x1480D144] ;  (1 found)
0x14806a48: push dword [ebp+0x08] ; call dword [0x1480D144] ;  (1 found)
0x148069e8: push dword [ebp+0x08] ; call dword [0x1480D144] ;  (1 found)
0x14806aa7: push dword [ebp+0x08] ; call dword [0x1480D144] ;  (1 found)
0x14802bae: push dword [ebp+0x08] ; mov ecx, esi ; call dword [0x1480D144] ;  (1 found)
0x14803738: push dword [ebp+0x08] ; mov ecx, esi ; call dword [0x1480D144] ;  (1 found)
0x148034b2: push dword [ebp+0x08] ; mov ecx, esi ; call dword [0x1480D144] ;  (1 found)
0x148046d5: push dword [ebp+0x08] ; mov ecx, esi ; call dword [0x1480D144] ;  (1 found)
0x14806885: push dword [ebp+0x08] ; mov ecx, esi ; call dword [0x1480D144] ;  (1 found)
0x148067ba: push dword [ebp+0x08] ; mov ecx, esi ; push 0xFFFFFFFA ; call dword [0x1480D144] ;  (1 found)
0x148083f6: push dword [ebp+0x08] ; push 0x00000000 ; push dword [0x148141C0] ; call dword [0x1480D024] ;  (1 found)
0x14803d68: push dword [ebp+0x08] ; push 0x00000000 ; push dword [0x148141C0] ; call dword [0x1480D0CC] ;  (1 found)
0x1480a9cf: push dword [ebp+0x08] ; push dword [0x14813750] ; call dword [0x1480D104] ;  (1 found)
0x1480aa00: push dword [ebp+0x08] ; push dword [0x14813750] ; call dword [0x1480D104] ;  (1 found)
0x14807654: push dword [ebp+0x08] ; push dword [edi+0x04] ; push esi ; push 0x00000009 ; push dword [edi+0x08] ; call dword [0x1480D0B0] ;  (1 found)
0x14806209: push dword [ebp+0x0C] ; call dword [0x1480D100] ;  (1 found)
0x14806aa2: push dword [ebp+0x0C] ; mov ecx, esi ; push dword [ebp+0x08] ; call dword [0x1480D144] ;  (1 found)
0x148027d4: push dword [ebp+0x0C] ; push dword [ebp+0x08] ; call dword [0x1480D084] ;  (1 found)
0x148069f5: push dword [ebp+0x0C] ; push dword [ebp+0x08] ; call dword [0x1480D084] ;  (1 found)
0x14806814: push dword [ebp+0x0C] ; push dword [ebp+0x08] ; call dword [0x1480D144] ;  (1 found)
0x14806a45: push dword [ebp+0x0C] ; push dword [ebp+0x08] ; call dword [0x1480D144] ;  (1 found)
0x148069e5: push dword [ebp+0x0C] ; push dword [ebp+0x08] ; call dword [0x1480D144] ;  (1 found)
0x148046d2: push dword [ebp+0x0C] ; push dword [ebp+0x08] ; mov ecx, esi ; call dword [0x1480D144] ;  (1 found)
0x1480a9cc: push dword [ebp+0x0C] ; push dword [ebp+0x08] ; push dword [0x14813750] ; call dword [0x1480D104] ;  (1 found)
0x1480a9fd: push dword [ebp+0x0C] ; push dword [ebp+0x08] ; push dword [0x14813750] ; call dword [0x1480D104] ;  (1 found)
0x14809a32: push dword [ebp+0x0C] ; push eax ; call dword [0x1480D010] ;  (1 found)
0x148026b1: push dword [ebp+0x0C] ; push eax ; call dword [0x1480D09C] ;  (1 found)
0x1480674f: push dword [ebp+0x0C] ; push eax ; call dword [0x1480D09C] ;  (1 found)
0x14806164: push dword [ebp+0x10] ; lea eax, dword [0x00000001+eax*8] ; push eax ; push ebx ; call dword [0x1480D0B0] ;  (1 found)
0x148069e0: push dword [ebp+0x10] ; mov ecx, esi ; push dword [ebp+0x0C] ; push dword [ebp+0x08] ; call dword [0x1480D144] ;  (1 found)
0x148061f4: push dword [ebp+0x10] ; push 0x00000001 ; push ebx ; call dword [0x1480D0B0] ;  (1 found)
0x14806811: push dword [ebp+0x10] ; push dword [ebp+0x0C] ; push dword [ebp+0x08] ; call dword [0x1480D144] ;  (1 found)
0x14806a42: push dword [ebp+0x10] ; push dword [ebp+0x0C] ; push dword [ebp+0x08] ; call dword [0x1480D144] ;  (1 found)
0x148046cf: push dword [ebp+0x10] ; push dword [ebp+0x0C] ; push dword [ebp+0x08] ; mov ecx, esi ; call dword [0x1480D144] ;  (1 found)
0x1480a9c9: push dword [ebp+0x10] ; push dword [ebp+0x0C] ; push dword [ebp+0x08] ; push dword [0x14813750] ; call dword [0x1480D104] ;  (1 found)
0x1480a9fa: push dword [ebp+0x10] ; push dword [ebp+0x0C] ; push dword [ebp+0x08] ; push dword [0x14813750] ; call dword [0x1480D104] ;  (1 found)
0x14809a2f: push dword [ebp+0x10] ; push dword [ebp+0x0C] ; push eax ; call dword [0x1480D010] ;  (1 found)
0x14808065: push dword [ebp+0x14] ; push 0x00000001 ; push edi ; call dword [0x1480D0B0] ;  (1 found)
0x148061f1: push dword [ebp+0x14] ; push dword [ebp+0x10] ; push 0x00000001 ; push ebx ; call dword [0x1480D0B0] ;  (1 found)
0x1480680e: push dword [ebp+0x14] ; push dword [ebp+0x10] ; push dword [ebp+0x0C] ; push dword [ebp+0x08] ; call dword [0x1480D144] ;  (1 found)
0x14806a3f: push dword [ebp+0x14] ; push dword [ebp+0x10] ; push dword [ebp+0x0C] ; push dword [ebp+0x08] ; call dword [0x1480D144] ;  (1 found)
0x148046cc: push dword [ebp+0x14] ; push dword [ebp+0x10] ; push dword [ebp+0x0C] ; push dword [ebp+0x08] ; mov ecx, esi ; call dword [0x1480D144] ;  (1 found)
0x14807fde: push dword [ebp+0x14] ; setne al ; lea eax, dword [0x00000001+eax*8] ; push eax ; push edi ; call dword [0x1480D0B0] ;  (1 found)
0x1480680b: push dword [ebp+0x18] ; push dword [ebp+0x14] ; push dword [ebp+0x10] ; push dword [ebp+0x0C] ; push dword [ebp+0x08] ; call dword [0x1480D144] ;  (1 found)
0x14806a3c: push dword [ebp+0x18] ; push dword [ebp+0x14] ; push dword [ebp+0x10] ; push dword [ebp+0x0C] ; push dword [ebp+0x08] ; call dword [0x1480D144] ;  (1 found)
0x14806204: push dword [ebp+0x18] ; push eax ; push esi ; push dword [ebp+0x0C] ; call dword [0x1480D100] ;  (1 found)
0x14808c16: push dword [ebp+0x24] ; call dword [0x1480D0B0] ;  (1 found)
0x14808d39: push dword [ebp+0x24] ; call dword [0x1480D0B0] ;  (1 found)
0x1480815f: push dword [ebp+0x24] ; call dword [0x1480D0B4] ;  (1 found)
0x14804489: push dword [ebp+0x7C] ; push esi ; call dword [0x1480D074] ;  (1 found)
0x14807b22: push dword [ebp-0x000000F8] ; mov ecx, ebx ; push dword [ebp-0x00000100] ; call dword [0x1480D144] ;  (1 found)
0x14807b54: push dword [ebp-0x000000F8] ; mov ecx, ebx ; push edi ; call dword [0x1480D144] ;  (1 found)
0x14807b2a: push dword [ebp-0x00000100] ; call dword [0x1480D144] ;  (1 found)
0x1480943d: push dword [ebp-0x00001410] ; call dword [0x1480D0A8] ;  (1 found)
0x148034c6: push dword [ebp-0x08] ; call dword [0x1480D098] ;  (1 found)
0x148034a3: push dword [ebp-0x08] ; call dword [0x1480D09C] ;  (1 found)
0x148022d2: push dword [ebp-0x10] ; push dword [ebp-0x1C] ; push dword [ebp-0x20] ; call dword [0x1480D068] ;  (1 found)
0x148021f0: push dword [ebp-0x13] ; mov eax, dword [esp+0x04] ; mov edi, edx ; ret  ;  (1 found)
0x148096ed: push dword [ebp-0x14] ; push ebx ; push ecx ; call dword [0x1480D0A8] ;  (1 found)
0x148022d4: push dword [ebp-0x1C] ; push dword [ebp-0x20] ; call dword [0x1480D068] ;  (1 found)
0x148022d5: push dword [ebp-0x1C] ; push dword [ebp-0x20] ; call dword [0x1480D068] ;  (1 found)
0x148022d8: push dword [ebp-0x20] ; call dword [0x1480D068] ;  (1 found)
0x14808ca0: push dword [ebp-0x20] ; mov esi, dword [ebp+0x24] ; push 0x00000001 ; push esi ; call dword [0x1480D0B0] ;  (1 found)
0x14808c11: push dword [ebp-0x20] ; push 0x00000009 ; push dword [ebp+0x24] ; call dword [0x1480D0B0] ;  (1 found)
0x14808d34: push dword [ebp-0x24] ; push 0x00000001 ; push dword [ebp+0x24] ; call dword [0x1480D0B0] ;  (1 found)
0x14808cba: push dword [ebp-0x24] ; push 0x00000009 ; push esi ; call dword [0x1480D0B0] ;  (1 found)
0x14809052: push dword [ebp-0x30] ; call dword [0x1480D0A8] ;  (1 found)
0x14809018: push dword [ebp-0x30] ; call dword [0x1480D0A8] ;  (1 found)
0x14808ff8: push dword [ebp-0x38] ; call dword [0x1480D0B4] ;  (1 found)
0x14808c0b: push dword [ebx] ; call dword [edi+0x57] ;  (1 found)
0x14807f88: push dword [ebx] ; leave  ; test al, al ; sete cl ; mov eax, ecx ; ret  ;  (1 found)
0x1480265e: push dword [ebx] ; rcr byte [edi+0x5E], 0x0000005B ; mov esp, ebp ; pop ebp ; ret  ;  (1 found)
0x148066fa: push dword [ebx] ; rcr byte [edi+0x5E], 0x0000005B ; mov esp, ebp ; pop ebp ; ret  ;  (1 found)
0x14802af6: push dword [ecx+0x04] ; mov dword [ecx+0x08], ebx ; mov ecx, edi ; call dword [0x1480D144] ;  (1 found)
0x148011be: push dword [ecx] ; call dword [0x1480D120] ;  (1 found)
0x14807657: push dword [edi+0x04] ; push esi ; push 0x00000009 ; push dword [edi+0x08] ; call dword [0x1480D0B0] ;  (1 found)
0x1480765d: push dword [edi+0x08] ; call dword [0x1480D0B0] ;  (1 found)
0x14804b6d: push dword [edi+eax+0x56] ; call dword [0x1480D0D4] ;  (1 found)
0x14803088: push dword [edi] ; push ebx ; push ebx ; call dword [0x1480D0B4] ;  (1 found)
0x148030b0: push dword [edi] ; xor ebx, ebx ; push ebx ; push ebx ; call dword [0x1480D0B4] ;  (1 found)
0x14804eaf: push dword [esi+0x04] ; call dword [0x1480D0E8] ;  (1 found)
0x14802ae1: push dword [esi+0x08] ; mov ecx, edi ; push 0x00000008 ; call dword [0x1480D144] ;  (1 found)
0x14807d0d: push dword [esi+0x19] ; push edi ; push edx ; mov ecx, ebx ; call dword [0x1480D144] ;  (1 found)
0x14802836: push dword [esi] ; call dword [0x1480D098] ;  (1 found)
0x14806b25: push dword [esi] ; call dword [0x1480D098] ;  (1 found)
0x148043ac: push dword [esp+ecx+0x56] ; call dword [0x1480D074] ;  (1 found)
0x1480a99d: push eax ; aaa  ; adc dword [ebx+esi], 0xFFF983C0 ; setne al ; ret  ;  (1 found)
0x14804e1f: push eax ; add eax, dword [eax] ; add ch, bh ; mov esp, ebp ; pop ebp ; ret  ;  (1 found)
0x148088c3: push eax ; add eax, dword [eax] ; add ch, bh ; mov esp, ebp ; pop ebp ; ret  ;  (1 found)
0x14808dce: push eax ; add eax, dword [eax] ; add ch, bh ; mov esp, ebp ; pop ebp ; ret  ;  (1 found)
0x148081e7: push eax ; add eax, dword [eax] ; add ch, bh ; mov esp, ebp ; pop ebp ; ret  ;  (1 found)
0x1480a8ea: push eax ; call dword [0x1480D008] ;  (1 found)
0x1480a9b9: push eax ; call dword [0x1480D008] ;  (1 found)
0x14809a35: push eax ; call dword [0x1480D010] ;  (1 found)
0x14808e1f: push eax ; call dword [0x1480D01C] ;  (1 found)
0x14806a6e: push eax ; call dword [0x1480D02C] ;  (1 found)
0x1480683d: push eax ; call dword [0x1480D030] ;  (1 found)
0x14801767: push eax ; call dword [0x1480D034] ;  (1 found)
0x14801742: push eax ; call dword [0x1480D040] ;  (1 found)
0x1480194f: push eax ; call dword [0x1480D04C] ;  (1 found)
0x14804669: push eax ; call dword [0x1480D04C] ;  (1 found)
0x14805c9a: push eax ; call dword [0x1480D054] ;  (1 found)
0x14801d9e: push eax ; call dword [0x1480D064] ;  (1 found)
0x14803415: push eax ; call dword [0x1480D064] ;  (1 found)
0x1480475b: push eax ; call dword [0x1480D064] ;  (1 found)
0x148025ec: push eax ; call dword [0x1480D070] ;  (1 found)
0x14806688: push eax ; call dword [0x1480D070] ;  (1 found)
0x14805987: push eax ; call dword [0x1480D078] ;  (1 found)
0x14805b68: push eax ; call dword [0x1480D078] ;  (1 found)
0x1480787f: push eax ; call dword [0x1480D078] ;  (1 found)
0x148059cf: push eax ; call dword [0x1480D07C] ;  (1 found)
0x14805b8b: push eax ; call dword [0x1480D07C] ;  (1 found)
0x14807893: push eax ; call dword [0x1480D07C] ;  (1 found)
0x1480892d: push eax ; call dword [0x1480D080] ;  (1 found)
0x14807850: push eax ; call dword [0x1480D080] ;  (1 found)
0x148026b4: push eax ; call dword [0x1480D09C] ;  (1 found)
0x14806752: push eax ; call dword [0x1480D09C] ;  (1 found)
0x14805d90: push eax ; call dword [0x1480D0A4] ;  (1 found)
0x1480559d: push eax ; call dword [0x1480D0B4] ;  (1 found)
0x148052a5: push eax ; call dword [0x1480D0E0] ;  (1 found)
0x14808b95: push eax ; call dword [0x1480D0E8] ;  (1 found)
0x1480a5e2: push eax ; fstp qword [ebp-0x0C] ; call dword [0x1480D144] ;  (1 found)
0x1480a548: push eax ; fstp qword [ebp-0x0C] ; call dword [0x1480D144] ;  (1 found)
0x1480a69a: push eax ; fstp qword [ebp-0x0C] ; call dword [0x1480D144] ;  (1 found)
0x1480b2c8: push eax ; fstp qword [ebx] ; pop edi ; pop ebx ; pop ebp ; ret  ;  (1 found)
0x14807a3e: push eax ; inc dword [ebx-0x148AFE12] ; pop esi ; pop edi ; pop ebp ; ret  ;  (1 found)
0x14809433: push eax ; lea eax, dword [ebp-0x00001408] ; add eax, ebx ; push eax ; push dword [ebp-0x00001410] ; call dword [0x1480D0A8] ;  (1 found)
0x14809013: push eax ; lea eax, dword [ebp-0x14] ; push eax ; push dword [ebp-0x30] ; call dword [0x1480D0A8] ;  (1 found)
0x14809178: push eax ; mov eax, dword [0x14813ED8+edi*4] ; push dword [eax+esi+0x18] ; call dword [0x1480D014] ;  (1 found)
0x1480940b: push eax ; mov eax, ecx ; push eax ; push ebx ; push 0x0000FDE9 ; call dword [0x1480D0B4] ;  (1 found)
0x14801093: push eax ; mov ecx, dword [ebp+0x08] ; push ecx ; call dword [0x1480D134] ;  (1 found)
0x1480430d: push eax ; pop ds ; add byte [eax], al ; pop ecx ; pop ebp ; ret  ;  (1 found)
0x1480904b: push eax ; push 0x00000001 ; lea eax, dword [ebp-0x1C] ; push eax ; push dword [ebp-0x30] ; call dword [0x1480D0A8] ;  (1 found)
0x1480b205: push eax ; push 0x00000001 ; push 0x00000000 ; push edi ; call dword [0x1480D068] ;  (1 found)
0x1480a972: push eax ; push 0x00000003 ; push 0x40000000 ; push 0x14811078 ; call dword [0x1480D004] ;  (1 found)
0x14801183: push eax ; push 0x00000202 ; call dword [0x1480D12C] ;  (1 found)
0x14801236: push eax ; push 0x14801040 ; push 0x00000000 ; push 0x00000000 ; call ebx ;  (1 found)
0x1480348b: push eax ; push 0x1480DB54 ; push 0x00000000 ; call dword [0x1480D0BC] ;  (1 found)
0x14805bf1: push eax ; push 0xFFFFFFF6 ; call dword [0x1480D0F8] ;  (1 found)
0x1480815e: push eax ; push dword [ebp+0x24] ; call dword [0x1480D0B4] ;  (1 found)
0x1480943c: push eax ; push dword [ebp-0x00001410] ; call dword [0x1480D0A8] ;  (1 found)
0x148022d1: push eax ; push dword [ebp-0x10] ; push dword [ebp-0x1C] ; push dword [ebp-0x20] ; call dword [0x1480D068] ;  (1 found)
0x148096ec: push eax ; push dword [ebp-0x14] ; push ebx ; push ecx ; call dword [0x1480D0A8] ;  (1 found)
0x14809017: push eax ; push dword [ebp-0x30] ; call dword [0x1480D0A8] ;  (1 found)
0x14809051: push eax ; push dword [ebp-0x30] ; call dword [0x1480D0A8] ;  (1 found)
0x14804eae: push eax ; push dword [esi+0x04] ; call dword [0x1480D0E8] ;  (1 found)
0x1480559c: push eax ; push eax ; call dword [0x1480D0B4] ;  (1 found)
0x1480616e: push eax ; push ebx ; call dword [0x1480D0B0] ;  (1 found)
0x148052b7: push eax ; push ebx ; call dword [0x1480D0E8] ;  (1 found)
0x1480940e: push eax ; push ebx ; push 0x0000FDE9 ; call dword [0x1480D0B4] ;  (1 found)
0x1480922e: push eax ; push ecx ; call dword [0x1480D0A8] ;  (1 found)
0x1480931c: push eax ; push ecx ; call dword [0x1480D0A8] ;  (1 found)
0x14808ff6: push eax ; push ecx ; push dword [ebp-0x38] ; call dword [0x1480D0B4] ;  (1 found)
0x14807feb: push eax ; push edi ; call dword [0x1480D0B0] ;  (1 found)
0x148011f3: push eax ; push edi ; call dword [0x1480D114] ;  (1 found)
0x14809226: push eax ; push edi ; lea eax, dword [ebp-0x00001404] ; push eax ; push ecx ; call dword [0x1480D0A8] ;  (1 found)
0x14804b47: push eax ; push edi ; push ebx ; call dword [0x1480D0D8] ;  (1 found)
0x14804bda: push eax ; push esi ; call dword [0x1480D0DC] ;  (1 found)
0x148057c2: push eax ; push esi ; call dword [0x1480D0F4] ;  (1 found)
0x14806207: push eax ; push esi ; push dword [ebp+0x0C] ; call dword [0x1480D100] ;  (1 found)
0x1480815b: push eax ; push esi ; push edi ; push eax ; push dword [ebp+0x24] ; call dword [0x1480D0B4] ;  (1 found)
0x14801d86: push eax ; rol byte [eax+0x0875FF14], 1  ; call dword [0x1480D04C] ;  (1 found)
0x14801948: push eax ; rol byte [eax-0x07BA72EC], 1  ; push eax ; call dword [0x1480D04C] ;  (1 found)
0x14806497: push eax ; xadd dword [ecx+0x000000B0], eax ; dec eax ; pop ebp ; ret  ;  (1 found)
0x1480597b: push ebp ; mov ebp, esp ; imul eax, dword [ebp+0x08], 0x18 ; add eax, 0x14813D80 ; push eax ; call dword [0x1480D078] ;  (1 found)
0x148059c3: push ebp ; mov ebp, esp ; imul eax, dword [ebp+0x08], 0x18 ; add eax, 0x14813D80 ; push eax ; call dword [0x1480D07C] ;  (1 found)
0x14807876: push ebp ; mov ebp, esp ; mov eax, dword [ebp+0x08] ; add eax, 0x20 ; push eax ; call dword [0x1480D078] ;  (1 found)
0x1480788a: push ebp ; mov ebp, esp ; mov eax, dword [ebp+0x08] ; add eax, 0x20 ; push eax ; call dword [0x1480D07C] ;  (1 found)
0x14802b29: push ebp ; mov ebp, esp ; mov eax, dword [ebp+0x08] ; mov dword [0x14813BF8], eax ; pop ebp ; ret  ;  (1 found)
0x148034df: push ebp ; mov ebp, esp ; mov eax, dword [ebp+0x08] ; mov dword [0x14813D1C], eax ; pop ebp ; ret  ;  (1 found)
0x14804698: push ebp ; mov ebp, esp ; mov eax, dword [ebp+0x08] ; mov dword [0x14813D64], eax ; pop ebp ; ret  ;  (1 found)
0x14801d7f: push ebp ; mov ebp, esp ; push 0x00000000 ; call dword [0x1480D050] ;  (1 found)
0x14805c91: push ebp ; mov ebp, esp ; sub esp, 0x48 ; lea eax, dword [ebp-0x48] ; push eax ; call dword [0x1480D054] ;  (1 found)
0x1480c6c8: push ebp ; or al, 0x8B ; retn 0xE2C1 ;  (1 found)
0x1480551b: push ebp ; or byte [edi+0x33], dl ; jmp dword [esi+0x39] ;  (1 found)
0x14802876: push ebp ; push 0x00000000 ; push 0x00000000 ; push 0x14802889 ; push dword [ebp+0x08] ; call dword [0x1480D06C] ;  (1 found)
0x14801961: push ebx ; add byte [eax], al ; add byte [ecx+0x5B], bl ; mov esp, ebp ; pop ebp ; ret  ;  (1 found)
0x148025e0: push ebx ; call dword [0x1480D0A0] ;  (1 found)
0x14802622: push ebx ; call dword [0x1480D0A0] ;  (1 found)
0x1480667c: push ebx ; call dword [0x1480D0A0] ;  (1 found)
0x148066be: push ebx ; call dword [0x1480D0A0] ;  (1 found)
0x1480616f: push ebx ; call dword [0x1480D0B0] ;  (1 found)
0x148061f9: push ebx ; call dword [0x1480D0B0] ;  (1 found)
0x148030b5: push ebx ; call dword [0x1480D0B4] ;  (1 found)
0x1480308b: push ebx ; call dword [0x1480D0B4] ;  (1 found)
0x14804b49: push ebx ; call dword [0x1480D0D8] ;  (1 found)
0x148052b8: push ebx ; call dword [0x1480D0E8] ;  (1 found)
0x14805da2: push ebx ; call dword [0x1480D0FC] ;  (1 found)
0x148032ec: push ebx ; mov ecx, edx ; ror edi, cl ; mov ecx, edi ; call dword [0x1480D144] ;  (1 found)
0x14807c35: push ebx ; mov ecx, esi ; call dword [0x1480D144] ;  (1 found)
0x1480940f: push ebx ; push 0x0000FDE9 ; call dword [0x1480D0B4] ;  (1 found)
0x14803085: push ebx ; push 0xFFFFFFFF ; push dword [edi] ; push ebx ; push ebx ; call dword [0x1480D0B4] ;  (1 found)
0x14808d33: push ebx ; push dword [ebp-0x24] ; push 0x00000001 ; push dword [ebp+0x24] ; call dword [0x1480D0B0] ;  (1 found)
0x14808cb9: push ebx ; push dword [ebp-0x24] ; push 0x00000009 ; push esi ; call dword [0x1480D0B0] ;  (1 found)
0x148030b4: push ebx ; push ebx ; call dword [0x1480D0B4] ;  (1 found)
0x1480308a: push ebx ; push ebx ; call dword [0x1480D0B4] ;  (1 found)
0x148032eb: push ebx ; push ebx ; mov ecx, edx ; ror edi, cl ; mov ecx, edi ; call dword [0x1480D144] ;  (1 found)
0x148096f0: push ebx ; push ecx ; call dword [0x1480D0A8] ;  (1 found)
0x14808063: push ebx ; push esi ; push dword [ebp+0x14] ; push 0x00000001 ; push edi ; call dword [0x1480D0B0] ;  (1 found)
0x1480559a: push ebx ; push esi ; push eax ; push eax ; call dword [0x1480D0B4] ;  (1 found)
0x14804464: push ebx ; push esi ; push edi ; call dword [0x1480D070] ;  (1 found)
0x14805552: push ebx ; push esi ; push edi ; call dword [0x1480D0EC] ;  (1 found)
0x14805574: push ebx ; push esi ; push edi ; push edi ; call dword [0x1480D0B4] ;  (1 found)
0x14809f77: push ebx ; ret  ;  (1 found)
0x14802d08: push ecx ; adc byte [eax], al ; add byte [ecx-0x75], bl ; ret  ;  (1 found)
0x14802432: push ecx ; call dword [0x1480D06C] ;  (1 found)
0x1480922f: push ecx ; call dword [0x1480D0A8] ;  (1 found)
0x1480931d: push ecx ; call dword [0x1480D0A8] ;  (1 found)
0x148096f1: push ecx ; call dword [0x1480D0A8] ;  (1 found)
0x14805d03: push ecx ; call dword [0x1480D0FC] ;  (1 found)
0x14801097: push ecx ; call dword [0x1480D134] ;  (1 found)
0x14807b00: push ecx ; mov ecx, ebx ; call dword [0x1480D144] ;  (1 found)
0x14802973: push ecx ; or byte [ebp+0x05], dh ; mov eax, 0x00000001 ; ret  ;  (1 found)
0x14809a2e: push ecx ; push dword [ebp+0x10] ; push dword [ebp+0x0C] ; push eax ; call dword [0x1480D010] ;  (1 found)
0x14808ff7: push ecx ; push dword [ebp-0x38] ; call dword [0x1480D0B4] ;  (1 found)
0x14808b94: push ecx ; push eax ; call dword [0x1480D0E8] ;  (1 found)
0x14809012: push ecx ; push eax ; lea eax, dword [ebp-0x14] ; push eax ; push dword [ebp-0x30] ; call dword [0x1480D0A8] ;  (1 found)
0x14805551: push ecx ; push ebx ; push esi ; push edi ; call dword [0x1480D0EC] ;  (1 found)
0x14801a78: push ecx ; ret  ;  (1 found)
0x1480b20a: push edi ; call dword [0x1480D068] ;  (1 found)
0x14804317: push edi ; call dword [0x1480D070] ;  (1 found)
0x14804466: push edi ; call dword [0x1480D070] ;  (1 found)
0x1480256f: push edi ; call dword [0x1480D080] ;  (1 found)
0x148059a7: push edi ; call dword [0x1480D080] ;  (1 found)
0x14805aa0: push edi ; call dword [0x1480D080] ;  (1 found)
0x14802c2b: push edi ; call dword [0x1480D0AC] ;  (1 found)
0x1480806a: push edi ; call dword [0x1480D0B0] ;  (1 found)
0x14807fec: push edi ; call dword [0x1480D0B0] ;  (1 found)
0x14805577: push edi ; call dword [0x1480D0B4] ;  (1 found)
0x14805554: push edi ; call dword [0x1480D0EC] ;  (1 found)
0x148011f4: push edi ; call dword [0x1480D114] ;  (1 found)
0x14801220: push edi ; call dword [0x1480D124] ;  (1 found)
0x1480122b: push edi ; call dword [0x1480D138] ;  (1 found)
0x14807b5c: push edi ; call dword [0x1480D144] ;  (1 found)
0x14801726: push edi ; fcomp dword [ecx+0x1B] ; sal bh, 0xFFFFFFD8 ; dec eax ; pop ebp ; ret  ;  (1 found)
0x14803cb3: push edi ; jmp dword [ebx] ;  (1 found)
0x14809227: push edi ; lea eax, dword [ebp-0x00001404] ; push eax ; push ecx ; call dword [0x1480D0A8] ;  (1 found)
0x1480117e: push edi ; lea eax, dword [esp+0x20] ; push eax ; push 0x00000202 ; call dword [0x1480D12C] ;  (1 found)
0x14802568: push edi ; lea edi, dword [eax+0x14813B64] ; push edi ; call dword [0x1480D080] ;  (1 found)
0x148059a0: push edi ; lea edi, dword [eax+0x14813D68] ; push edi ; call dword [0x1480D080] ;  (1 found)
0x14806f9f: push edi ; mov ecx, dword [ebp-0x24] ; call dword [0x1480D144] ;  (1 found)
0x1480845d: push edi ; push 0x00000000 ; push dword [0x148141C0] ; call dword [0x1480D020] ;  (1 found)
0x14802429: push edi ; push 0x00000000 ; push edx ; push 0x14802439 ; push ecx ; call dword [0x1480D06C] ;  (1 found)
0x1480815d: push edi ; push eax ; push dword [ebp+0x24] ; call dword [0x1480D0B4] ;  (1 found)
0x14804ead: push edi ; push eax ; push dword [esi+0x04] ; call dword [0x1480D0E8] ;  (1 found)
0x14804b46: push edi ; push eax ; push edi ; push ebx ; call dword [0x1480D0D8] ;  (1 found)
0x14804b48: push edi ; push ebx ; call dword [0x1480D0D8] ;  (1 found)
0x14807c34: push edi ; push ebx ; mov ecx, esi ; call dword [0x1480D144] ;  (1 found)
0x14808cb8: push edi ; push ebx ; push dword [ebp-0x24] ; push 0x00000009 ; push esi ; call dword [0x1480D0B0] ;  (1 found)
0x14805599: push edi ; push ebx ; push esi ; push eax ; push eax ; call dword [0x1480D0B4] ;  (1 found)
0x14807aff: push edi ; push ecx ; mov ecx, ebx ; call dword [0x1480D144] ;  (1 found)
0x14805576: push edi ; push edi ; call dword [0x1480D0B4] ;  (1 found)
0x14804b45: push edi ; push edi ; push eax ; push edi ; push ebx ; call dword [0x1480D0D8] ;  (1 found)
0x14807ccc: push edi ; push edx ; mov ecx, ebx ; call dword [0x1480D144] ;  (1 found)
0x14807d10: push edi ; push edx ; mov ecx, ebx ; call dword [0x1480D144] ;  (1 found)
0x148079a3: push edi ; push esi ; call dword [0x1480D144] ;  (1 found)
0x14807bb8: push edi ; push esi ; call dword [0x1480D144] ;  (1 found)
0x14807be9: push edi ; push esi ; mov ecx, ebx ; call dword [0x1480D144] ;  (1 found)
0x1480768f: push edi ; push esi ; push 0x00000009 ; push dword [eax+0x08] ; call dword [0x1480D0B0] ;  (1 found)
0x14808c0f: push edi ; push esi ; push dword [ebp-0x20] ; push 0x00000009 ; push dword [ebp+0x24] ; call dword [0x1480D0B0] ;  (1 found)
0x148010a4: push edx ; call dword [0x1480D130] ;  (1 found)
0x14807ccd: push edx ; mov ecx, ebx ; call dword [0x1480D144] ;  (1 found)
0x14807d11: push edx ; mov ecx, ebx ; call dword [0x1480D144] ;  (1 found)
0x14802970: push edx ; or al, 0x39 ; push ecx ; or byte [ebp+0x05], dh ; mov eax, 0x00000001 ; ret  ;  (1 found)
0x1480242c: push edx ; push 0x14802439 ; push ecx ; call dword [0x1480D06C] ;  (1 found)
0x14808a29: push es ; add byte [eax], al ; add byte [ebx+0x5D5E10C4], al ; ret  ;  (1 found)
0x148013c7: push es ; add byte [eax], al ; call esi ;  (1 found)
0x14809e8c: push es ; add byte [eax], al ; fld qword [esp+0x10] ; add esp, 0x1C ; ret  ;  (1 found)
0x1480784c: push es ; add eax, 0x20 ; push eax ; call dword [0x1480D080] ;  (1 found)
0x148099e9: push es ; andpd xmm3,  [0x14810E10] ; movq qword [esp+0x04], xmm3 ; fld qword [esp+0x04] ; ret  ;  (1 found)
0x14806893: push es ; call dword [0x1480D088] ;  (1 found)
0x1480693f: push es ; call dword [0x1480D08C] ;  (1 found)
0x14802793: push es ; call dword [0x1480D090] ;  (1 found)
0x14806998: push es ; call dword [0x1480D090] ;  (1 found)
0x14802756: push es ; call dword [0x1480D094] ;  (1 found)
0x148068e9: push es ; call dword [0x1480D094] ;  (1 found)
0x1480a2f6: push es ; fldcw word [esp+0x06] ; ret  ;  (1 found)
0x14805b5d: push es ; imul eax, eax, 0x30 ; add eax, dword [0x14813ED8+ecx*4] ; push eax ; call dword [0x1480D078] ;  (1 found)
0x14805b80: push es ; imul eax, eax, 0x30 ; add eax, dword [0x14813ED8+ecx*4] ; push eax ; call dword [0x1480D07C] ;  (1 found)
0x14801a8a: push es ; mov ah, 0xD1 ; adc byte [ebx+ecx*4], 0xFFFFFFC6 ; pop esi ; pop ebp ; retn 0x0004 ;  (1 found)
0x1480bcfd: push es ; mov byte [edi], al ; mov eax, dword [esp+0x0C] ; pop esi ; pop edi ; ret  ;  (1 found)
0x1480c3ad: push es ; mov byte [edi], al ; mov eax, dword [esp+0x0C] ; pop esi ; pop edi ; ret  ;  (1 found)
0x148089a2: push es ; mov dword [esi+0x08], eax ; pop edi ; pop esi ; pop ebp ; ret  ;  (1 found)
0x1480a302: push es ; mov eax, 0x00000000 ; ret  ;  (1 found)
0x148047e5: push es ; mov eax, 0x14813048 ; ret  ;  (1 found)
0x148047d2: push es ; mov eax, 0x1481304C ; ret  ;  (1 found)
0x14805c6b: push es ; mov eax, dword [eax+ecx+0x18] ; pop ebp ; ret  ;  (1 found)
0x14804d6c: push es ; mov eax, dword [eax] ; mov eax, dword [eax+0x48] ; lock inc dword [eax] ; pop esi ; ret  ;  (1 found)
0x14803d93: push es ; pop esi ; pop ebp ; ret  ;  (1 found)
0x14807736: push es ; pop esi ; pop ebp ; ret  ;  (1 found)
0x14807709: push es ; pop esi ; pop ebp ; ret  ;  (1 found)
0x148011a1: push es ; push 0x00000001 ; push 0x00000002 ; call dword [0x1480D128] ;  (1 found)
0x1480a5e1: push es ; push eax ; fstp qword [ebp-0x0C] ; call dword [0x1480D144] ;  (1 found)
0x1480a547: push es ; push eax ; fstp qword [ebp-0x0C] ; call dword [0x1480D144] ;  (1 found)
0x1480a699: push es ; push eax ; fstp qword [ebp-0x0C] ; call dword [0x1480D144] ;  (1 found)
0x14801abd: push es ; rcl cl, 1  ; adc byte [ebx+ecx*4], 0xFFFFFFC6 ; pop esi ; pop ebp ; retn 0x0004 ;  (1 found)
0x1480a2fa: push es ; ret  ;  (1 found)
0x1480b979: push es ; shld edx, eax, cl ; shl eax, cl ; ret  ;  (1 found)
0x1480b959: push es ; shrd eax, edx, cl ; shr edx, cl ; ret  ;  (1 found)
0x148019ab: push es ; xor eax, eax ; pop ebp ; retn 0x0004 ;  (1 found)
0x1480871a: push es ; xor eax, eax ; pop edi ; pop esi ; pop ebp ; ret  ;  (1 found)
0x14804754: push esi ; call dword [0x1480D060] ;  (1 found)
0x148043bb: push esi ; call dword [0x1480D074] ;  (1 found)
0x148043af: push esi ; call dword [0x1480D074] ;  (1 found)
0x1480450c: push esi ; call dword [0x1480D074] ;  (1 found)
0x1480448c: push esi ; call dword [0x1480D074] ;  (1 found)
0x14802648: push esi ; call dword [0x1480D098] ;  (1 found)
0x148066e4: push esi ; call dword [0x1480D098] ;  (1 found)
0x14808ca8: push esi ; call dword [0x1480D0B0] ;  (1 found)
0x14808cbf: push esi ; call dword [0x1480D0B0] ;  (1 found)
0x14804b70: push esi ; call dword [0x1480D0D4] ;  (1 found)
0x14804bdb: push esi ; call dword [0x1480D0DC] ;  (1 found)
0x148055bf: push esi ; call dword [0x1480D0F0] ;  (1 found)
0x148057c3: push esi ; call dword [0x1480D0F4] ;  (1 found)
0x14803105: push esi ; call dword [0x1480D144] ;  (1 found)
0x148079a4: push esi ; call dword [0x1480D144] ;  (1 found)
0x14807bb9: push esi ; call dword [0x1480D144] ;  (1 found)
0x14806fcd: push esi ; mov ecx, dword [ebp-0x24] ; call dword [0x1480D144] ;  (1 found)
0x14807bea: push esi ; mov ecx, ebx ; call dword [0x1480D144] ;  (1 found)
0x148011dd: push esi ; mov word [esp+0x16], ax ; call dword [0x1480D118] ;  (1 found)
0x14803dc0: push esi ; push 0x00000000 ; push dword [0x148141C0] ; call dword [0x1480D0D0] ;  (1 found)
0x14803ebb: push esi ; push 0x00000008 ; push dword [0x148141C0] ; call dword [0x1480D0D0] ;  (1 found)
0x14807690: push esi ; push 0x00000009 ; push dword [eax+0x08] ; call dword [0x1480D0B0] ;  (1 found)
0x1480765a: push esi ; push 0x00000009 ; push dword [edi+0x08] ; call dword [0x1480D0B0] ;  (1 found)
0x1480349d: push esi ; push 0x1480DB6C ; push dword [ebp-0x08] ; call dword [0x1480D09C] ;  (1 found)
0x14806208: push esi ; push dword [ebp+0x0C] ; call dword [0x1480D100] ;  (1 found)
0x1480a9f9: push esi ; push dword [ebp+0x10] ; push dword [ebp+0x0C] ; push dword [ebp+0x08] ; push dword [0x14813750] ; call dword [0x1480D104] ;  (1 found)
0x14808064: push esi ; push dword [ebp+0x14] ; push 0x00000001 ; push edi ; call dword [0x1480D0B0] ;  (1 found)
0x148061f0: push esi ; push dword [ebp+0x14] ; push dword [ebp+0x10] ; push 0x00000001 ; push ebx ; call dword [0x1480D0B0] ;  (1 found)
0x14808c9f: push esi ; push dword [ebp-0x20] ; mov esi, dword [ebp+0x24] ; push 0x00000001 ; push esi ; call dword [0x1480D0B0] ;  (1 found)
0x14808c10: push esi ; push dword [ebp-0x20] ; push 0x00000009 ; push dword [ebp+0x24] ; call dword [0x1480D0B0] ;  (1 found)
0x1480559b: push esi ; push eax ; push eax ; call dword [0x1480D0B4] ;  (1 found)
0x1480931b: push esi ; push eax ; push ecx ; call dword [0x1480D0A8] ;  (1 found)
0x14802621: push esi ; push ebx ; call dword [0x1480D0A0] ;  (1 found)
0x148066bd: push esi ; push ebx ; call dword [0x1480D0A0] ;  (1 found)
0x14808d32: push esi ; push ebx ; push dword [ebp-0x24] ; push 0x00000001 ; push dword [ebp+0x24] ; call dword [0x1480D0B0] ;  (1 found)
0x14804465: push esi ; push edi ; call dword [0x1480D070] ;  (1 found)
0x14804316: push esi ; push edi ; call dword [0x1480D070] ;  (1 found)
0x14802c2a: push esi ; push edi ; call dword [0x1480D0AC] ;  (1 found)
0x14805553: push esi ; push edi ; call dword [0x1480D0EC] ;  (1 found)
0x1480117d: push esi ; push edi ; lea eax, dword [esp+0x20] ; push eax ; push 0x00000202 ; call dword [0x1480D12C] ;  (1 found)
0x1480845c: push esi ; push edi ; push 0x00000000 ; push dword [0x148141C0] ; call dword [0x1480D020] ;  (1 found)
0x1480815c: push esi ; push edi ; push eax ; push dword [ebp+0x24] ; call dword [0x1480D0B4] ;  (1 found)
0x14805575: push esi ; push edi ; push edi ; call dword [0x1480D0B4] ;  (1 found)
0x14802620: push esi ; push esi ; push ebx ; call dword [0x1480D0A0] ;  (1 found)
0x148066bc: push esi ; push esi ; push ebx ; call dword [0x1480D0A0] ;  (1 found)
0x14809ca3: push esi ; ret  ;  (1 found)
0x14809dfc: push esi ; retn 0x0FF2 ;  (1 found)
0x148099c5: push esp ; add eax, 0x14810E10 ; addsd xmm1, xmm0 ; movq qword [esp+0x04], xmm1 ; fld qword [esp+0x04] ; ret  ;  (1 found)
0x1480a2f4: push esp ; and al, 0x06 ; fldcw word [esp+0x06] ; ret  ;  (1 found)
0x148023bb: push esp ; and al, 0x10 ; mov dword [edx], eax ; mov eax, 0x00000003 ; ret  ;  (1 found)
0x148028cb: push esp ; and al, 0x10 ; mov dword [edx], eax ; mov eax, 0x00000003 ; ret  ;  (1 found)
0x148099ec: push esp ; sbb eax, 0x14810E10 ; movq qword [esp+0x04], xmm3 ; fld qword [esp+0x04] ; ret  ;  (1 found)
0x14809c9f: push esp ; shl dword [esi+0x0F], 0x56 ; ret  ;  (1 found)
0x14809df8: push esp ; shl dword [esi+0x0F], 0x56 ; retn 0x0FF2 ;  (1 found)
0x148083e8: push ss ; add byte [eax], al ; add al, ch ; das  ; ret  ;  (1 found)
0x148011e2: push ss ; call dword [0x1480D118] ;  (1 found)
0x1480359c: push ss ; pop eax ; pop ebp ; ret  ;  (1 found)
0x1480549e: push ss ; pop eax ; pop edi ; pop esi ; pop ebp ; ret  ;  (1 found)
0x14809a0b: push ss ; retn 0xFFFF ;  (1 found)
0x14809ad6: pushad  ; fdiv st7, st0 ; call dword [eax-0x18] ;  (1 found)
0x14804757: pushad  ; rol byte [eax+0x15FF5014], 1  ; rol byte [fs:eax-0x743CA1EC], 1  ; call dword [ebp-0x75] ;  (1 found)
0x1480285d: rcl bl, 0xFFFFFFC8 ; xor eax, dword [0x14813014] ; mov dword [0x14813BB8], eax ; ret  ;  (1 found)
0x14801abe: rcl cl, 1  ; adc byte [ebx+ecx*4], 0xFFFFFFC6 ; pop esi ; pop ebp ; retn 0x0004 ;  (1 found)
0x14803384: rcr byte [ebp-0x3D], 0xFFFFFF8B ; call dword [ebp-0x75] ;  (1 found)
0x14806d95: rcr byte [ebp-0x3D], 0xFFFFFF8B ; call dword [ebp-0x75] ;  (1 found)
0x148083c8: rcr byte [ebp-0x3D], 0xFFFFFF8B ; call dword [ebp-0x75] ;  (1 found)
0x1480b4fe: rcr byte [ebp-0x3D], 0xFFFFFF8B ; call dword [ebp-0x75] ;  (1 found)
0x1480aba8: rcr byte [ebp-0x3D], 0xFFFFFF8B ; call dword [ebx-0x75] ;  (1 found)
0x1480acfd: rcr byte [ebp-0x3D], 0xFFFFFF8B ; call dword [ebx-0x75] ;  (1 found)
0x148035a8: rcr byte [ebp-0x3D], 0xFFFFFFFF ; adc eax, 0x1480D0C0 ; mov dword [0x14813D30], eax ; call dword [0x1480D0C4] ;  (1 found)
0x14801d2b: rcr byte [ebx-0x75], 0xFFFFFFE5 ; pop ebp ; ret  ;  (1 found)
0x1480afb5: rcr byte [ebx-0x75], 0xFFFFFFE5 ; pop ebp ; ret  ;  (1 found)
0x14803998: rcr byte [edi+0x5B], 0x0000005E ; mov esp, ebp ; pop ebp ; ret  ;  (1 found)
0x14802660: rcr byte [edi+0x5E], 0x0000005B ; mov esp, ebp ; pop ebp ; ret  ;  (1 found)
0x148066fc: rcr byte [edi+0x5E], 0x0000005B ; mov esp, ebp ; pop ebp ; ret  ;  (1 found)
0x1480b5ed: rcr byte [edi+0x5E], 0x0000005B ; pop ebp ; ret  ;  (1 found)
0x148065ed: rcr byte [edi+0x5E], 0x0000005D ; ret  ;  (1 found)
0x1480871c: rcr byte [edi+0x5E], 0x0000005D ; ret  ;  (1 found)
0x1480a92c: rcr byte [edi+0x5E], 0x0000005D ; ret  ;  (1 found)
0x1480918e: rcr byte [edi+0x5E], 0xFFFFFF8B ; in eax, 0x5D ; ret  ;  (1 found)
0x148030d8: rcr byte [esi+0x5B], 0x0000005F ; ret  ;  (1 found)
0x148075f6: rcr byte [esi+0x5B], 0xFFFFFF8B ; in eax, 0x5D ; ret  ;  (1 found)
0x148026e6: rcr byte [esi+0x5F], 0x0000005B ; pop ebp ; ret  ;  (1 found)
0x14806784: rcr byte [esi+0x5F], 0x0000005B ; pop ebp ; ret  ;  (1 found)
0x14808443: rcr byte [esi+0x5F], 0x0000005D ; ret  ;  (1 found)
0x14807825: rcr byte [esi-0x3D], 0xFFFFFF8B ; call dword [esi-0x18] ;  (1 found)
0x14803fb7: rcr byte [esi], 0x00000000 ; add byte [ebx-0x48F0F7B3], cl ; add al, 0x48 ; and eax, dword [ebp+0x0C] ; pop ebp ; ret  ;  (1 found)
0x14809f60: rcr cl, cl ; int1  ; ret  ;  (1 found)
0x148086bb: rcr dword [ebp-0x3D], 0xFFFFFF8B ; call dword [ebp-0x75] ;  (1 found)
0x14809beb: rcr dword [ebx+0x5E], 0x5F ; leave  ; ret  ;  (1 found)
0x14802401: rcr dword [ebx+0x5F], 1  ; pop esi ; pop ebp ; ret  ;  (1 found)
0x1480a2df: rcr ecx, 0xFFFFFFFD ; fstp st1 ; ret  ;  (1 found)
0x1480bace: rep movsb  ; mov eax, dword [esp+0x0C] ; pop esi ; pop edi ; ret  ;  (1 found)
0x1480c17e: rep movsb  ; mov eax, dword [esp+0x0C] ; pop esi ; pop edi ; ret  ;  (1 found)
0x1480bcd0: rep movsd  ; and edx, 0x03 ; jmp dword [0x1480BCE4+edx*4] ;  (1 found)
0x1480c380: rep movsd  ; and edx, 0x03 ; jmp dword [0x1480C394+edx*4] ;  (1 found)
0x1480bd85: rep movsd  ; cld  ; jmp dword [0x1480BD90+edx*4] ;  (1 found)
0x1480c435: rep movsd  ; cld  ; jmp dword [0x1480C440+edx*4] ;  (1 found)
0x148020dc: rep stosb  ; mov eax, dword [esp+0x04] ; mov edi, edx ; ret  ;  (1 found)
0x148012eb: ret  ;  (1 found)
0x1480147b: ret  ;  (1 found)
0x148014f5: ret  ;  (1 found)
0x148014a6: ret  ;  (1 found)
0x1480130d: ret  ;  (1 found)
0x1480144c: ret  ;  (1 found)
0x148012fb: ret  ;  (1 found)
0x14801505: ret  ;  (1 found)
0x1480152a: ret  ;  (1 found)
0x14801609: ret  ;  (1 found)
0x1480169b: ret  ;  (1 found)
0x148016b8: ret  ;  (1 found)
0x14801567: ret  ;  (1 found)
0x1480152e: ret  ;  (1 found)
0x14801550: ret  ;  (1 found)
0x14801689: ret  ;  (1 found)
0x14801730: ret  ;  (1 found)
0x148016e0: ret  ;  (1 found)
0x1480171b: ret  ;  (1 found)
0x1480177f: ret  ;  (1 found)
0x14801804: ret  ;  (1 found)
0x14801848: ret  ;  (1 found)
0x1480184e: ret  ;  (1 found)
0x1480180d: ret  ;  (1 found)
0x14801813: ret  ;  (1 found)
0x14801836: ret  ;  (1 found)
0x14801819: ret  ;  (1 found)
0x14801842: ret  ;  (1 found)
0x14801a65: ret  ;  (1 found)
0x148017df: ret  ;  (1 found)
0x148017eb: ret  ;  (1 found)
0x148017d2: ret  ;  (1 found)
0x148017d9: ret  ;  (1 found)
0x148017d6: ret  ;  (1 found)
0x14801a15: ret  ;  (1 found)
0x14801a64: ret  ;  (1 found)
0x14801a79: ret  ;  (1 found)
0x1480196a: ret  ;  (1 found)
0x14801945: ret  ;  (1 found)
0x14801976: ret  ;  (1 found)
0x148019bf: ret  ;  (1 found)
0x148019ea: ret  ;  (1 found)
0x14801a7a: ret  ;  (1 found)
0x14801ae0: ret  ;  (1 found)
0x14801aad: ret  ;  (1 found)
0x14801b91: ret  ;  (1 found)
0x14801ca0: ret  ;  (1 found)
0x14801b1d: ret  ;  (1 found)
0x14801d3c: ret  ;  (1 found)
0x14801d14: ret  ;  (1 found)
0x14801d30: ret  ;  (1 found)
0x14801da6: ret  ;  (1 found)
0x14801ea1: ret  ;  (1 found)
0x14802023: ret  ;  (1 found)
0x1480207e: ret  ;  (1 found)
0x1480206b: ret  ;  (1 found)
0x148020e4: ret  ;  (1 found)
0x1480209d: ret  ;  (1 found)
0x14801d5b: ret  ;  (1 found)
0x14801d46: ret  ;  (1 found)
0x14801d47: ret  ;  (1 found)
0x14802406: ret  ;  (1 found)
0x1480243d: ret  ;  (1 found)
0x148024b3: ret  ;  (1 found)
0x14802486: ret  ;  (1 found)
0x148021f9: ret  ;  (1 found)
0x1480225c: ret  ;  (1 found)
0x148021a4: ret  ;  (1 found)
0x1480227b: ret  ;  (1 found)
0x148023c5: ret  ;  (1 found)
0x1480237f: ret  ;  (1 found)
0x1480275f: ret  ;  (1 found)
0x1480281c: ret  ;  (1 found)
0x1480279c: ret  ;  (1 found)
0x148027e2: ret  ;  (1 found)
0x1480274f: ret  ;  (1 found)
0x1480286b: ret  ;  (1 found)
0x1480284e: ret  ;  (1 found)
0x148025a5: ret  ;  (1 found)
0x1480251d: ret  ;  (1 found)
0x14802502: ret  ;  (1 found)
0x14802588: ret  ;  (1 found)
0x148024e7: ret  ;  (1 found)
0x14802559: ret  ;  (1 found)
0x14802667: ret  ;  (1 found)
0x148026eb: ret  ;  (1 found)
0x1480271d: ret  ;  (1 found)
0x148029ad: ret  ;  (1 found)
0x14802b20: ret  ;  (1 found)
0x14802b35: ret  ;  (1 found)
0x14802b54: ret  ;  (1 found)
0x14802b6d: ret  ;  (1 found)
0x14802b26: ret  ;  (1 found)
0x14802b81: ret  ;  (1 found)
0x14802bca: ret  ;  (1 found)
0x14802bdf: ret  ;  (1 found)
0x148028d5: ret  ;  (1 found)
0x1480297c: ret  ;  (1 found)
0x14802959: ret  ;  (1 found)
0x14802890: ret  ;  (1 found)
0x14802d15: ret  ;  (1 found)
0x14802e8a: ret  ;  (1 found)
0x14802d0e: ret  ;  (1 found)
0x14802ed9: ret  ;  (1 found)
0x14802ef8: ret  ;  (1 found)
0x14802f10: ret  ;  (1 found)
0x14802f1c: ret  ;  (1 found)
0x14802f69: ret  ;  (1 found)
0x14803028: ret  ;  (1 found)
0x1480307b: ret  ;  (1 found)
0x148030dc: ret  ;  (1 found)
0x14803069: ret  ;  (1 found)
0x1480302d: ret  ;  (1 found)
0x14803143: ret  ;  (1 found)
0x1480315e: ret  ;  (1 found)
0x148031ae: ret  ;  (1 found)
0x1480319a: ret  ;  (1 found)
0x1480320f: ret  ;  (1 found)
0x14803254: ret  ;  (1 found)
0x14803297: ret  ;  (1 found)
0x1480103f: ret  ;  (1 found)
0x14801164: ret  ;  (1 found)
0x14801147: ret  ;  (1 found)
0x1480114c: ret  ;  (1 found)
0x148037a5: ret  ;  (1 found)
0x148037b1: ret  ;  (1 found)
0x1480375f: ret  ;  (1 found)
0x1480380d: ret  ;  (1 found)
0x1480399f: ret  ;  (1 found)
0x1480385e: ret  ;  (1 found)
0x14803abd: ret  ;  (1 found)
0x14803b02: ret  ;  (1 found)
0x14803ad3: ret  ;  (1 found)
0x14803b3f: ret  ;  (1 found)
0x148033e3: ret  ;  (1 found)
0x14803386: ret  ;  (1 found)
0x1480336a: ret  ;  (1 found)
0x1480330d: ret  ;  (1 found)
0x1480335a: ret  ;  (1 found)
0x1480343f: ret  ;  (1 found)
0x14803472: ret  ;  (1 found)
0x148034dc: ret  ;  (1 found)
0x148034eb: ret  ;  (1 found)
0x148034fa: ret  ;  (1 found)
0x14803509: ret  ;  (1 found)
0x1480351f: ret  ;  (1 found)
0x14803557: ret  ;  (1 found)
0x1480356d: ret  ;  (1 found)
0x1480359f: ret  ;  (1 found)
0x148035aa: ret  ;  (1 found)
0x148035cc: ret  ;  (1 found)
0x148035d2: ret  ;  (1 found)
0x148035c3: ret  ;  (1 found)
0x148035c6: ret  ;  (1 found)
0x14803636: ret  ;  (1 found)
0x14803641: ret  ;  (1 found)
0x1480366a: ret  ;  (1 found)
0x148036d2: ret  ;  (1 found)
0x148036f8: ret  ;  (1 found)
0x14803701: ret  ;  (1 found)
0x148036cc: ret  ;  (1 found)
0x14803707: ret  ;  (1 found)
0x1480371b: ret  ;  (1 found)
0x148040a2: ret  ;  (1 found)
0x148041d8: ret  ;  (1 found)
0x148040ed: ret  ;  (1 found)
0x14804041: ret  ;  (1 found)
0x1480413d: ret  ;  (1 found)
0x14804313: ret  ;  (1 found)
0x148043ba: ret  ;  (1 found)
0x148042c8: ret  ;  (1 found)
0x1480449a: ret  ;  (1 found)
0x1480445b: ret  ;  (1 found)
0x14804540: ret  ;  (1 found)
0x1480452b: ret  ;  (1 found)
0x14803c52: ret  ;  (1 found)
0x14803bee: ret  ;  (1 found)
0x14803be5: ret  ;  (1 found)
0x14803ba0: ret  ;  (1 found)
0x14803b74: ret  ;  (1 found)
0x14803b86: ret  ;  (1 found)
0x1480455a: ret  ;  (1 found)
0x14803ba8: ret  ;  (1 found)
0x14803ca4: ret  ;  (1 found)
0x14803c92: ret  ;  (1 found)
0x14803d2f: ret  ;  (1 found)
0x14803d03: ret  ;  (1 found)
0x14803d5c: ret  ;  (1 found)
0x14803d96: ret  ;  (1 found)
0x14803e16: ret  ;  (1 found)
0x14803de4: ret  ;  (1 found)
0x14803eed: ret  ;  (1 found)
0x14803edf: ret  ;  (1 found)
0x14803f19: ret  ;  (1 found)
0x14803fc6: ret  ;  (1 found)
0x14803ff9: ret  ;  (1 found)
0x148047c9: ret  ;  (1 found)
0x148047eb: ret  ;  (1 found)
0x148047d8: ret  ;  (1 found)
0x148047dc: ret  ;  (1 found)
0x14804807: ret  ;  (1 found)
0x148049dc: ret  ;  (1 found)
0x148047ef: ret  ;  (1 found)
0x14804801: ret  ;  (1 found)
0x14804a8d: ret  ;  (1 found)
0x14804b89: ret  ;  (1 found)
0x14804ca5: ret  ;  (1 found)
0x14804cf3: ret  ;  (1 found)
0x14804d76: ret  ;  (1 found)
0x14804d98: ret  ;  (1 found)
0x14804dad: ret  ;  (1 found)
0x14804db4: ret  ;  (1 found)
0x14804d9f: ret  ;  (1 found)
0x14804da6: ret  ;  (1 found)
0x14804e8c: ret  ;  (1 found)
0x14804e27: ret  ;  (1 found)
0x14804ec8: ret  ;  (1 found)
0x148051d0: ret  ;  (1 found)
0x148050a9: ret  ;  (1 found)
0x14805201: ret  ;  (1 found)
0x14805020: ret  ;  (1 found)
0x148051c8: ret  ;  (1 found)
0x14804695: ret  ;  (1 found)
0x148046a4: ret  ;  (1 found)
0x148046f3: ret  ;  (1 found)
0x1480472f: ret  ;  (1 found)
0x14804763: ret  ;  (1 found)
0x14804789: ret  ;  (1 found)
0x1480479d: ret  ;  (1 found)
0x148047a6: ret  ;  (1 found)
0x1480554b: ret  ;  (1 found)
0x148055ce: ret  ;  (1 found)
0x148055c9: ret  ;  (1 found)
0x148057fc: ret  ;  (1 found)
0x14805802: ret  ;  (1 found)
0x148058ac: ret  ;  (1 found)
0x148058d8: ret  ;  (1 found)
0x14805925: ret  ;  (1 found)
0x148059c0: ret  ;  (1 found)
0x1480598f: ret  ;  (1 found)
0x14805978: ret  ;  (1 found)
0x148059d7: ret  ;  (1 found)
0x14805a0a: ret  ;  (1 found)
0x14805a84: ret  ;  (1 found)
0x14805ab9: ret  ;  (1 found)
0x14805b4d: ret  ;  (1 found)
0x14805b70: ret  ;  (1 found)
0x14805ae5: ret  ;  (1 found)
0x14805b93: ret  ;  (1 found)
0x14805c24: ret  ;  (1 found)
0x14805c71: ret  ;  (1 found)
0x14805c8e: ret  ;  (1 found)
0x14805d44: ret  ;  (1 found)
0x1480521d: ret  ;  (1 found)
0x14805231: ret  ;  (1 found)
0x148052a4: ret  ;  (1 found)
0x14805422: ret  ;  (1 found)
0x148054fc: ret  ;  (1 found)
0x14805514: ret  ;  (1 found)
0x148054a3: ret  ;  (1 found)
0x14806bc8: ret  ;  (1 found)
0x14806bd2: ret  ;  (1 found)
0x14806bb3: ret  ;  (1 found)
0x14806bb7: ret  ;  (1 found)
0x14806c55: ret  ;  (1 found)
0x14806ca2: ret  ;  (1 found)
0x14806d30: ret  ;  (1 found)
0x14806d22: ret  ;  (1 found)
0x14806d29: ret  ;  (1 found)
0x14806d37: ret  ;  (1 found)
0x14806cfc: ret  ;  (1 found)
0x14806d3e: ret  ;  (1 found)
0x14806dc0: ret  ;  (1 found)
0x14806d97: ret  ;  (1 found)
0x14806dfb: ret  ;  (1 found)
0x14806f35: ret  ;  (1 found)
0x14806fcc: ret  ;  (1 found)
0x14806e04: ret  ;  (1 found)
0x14807005: ret  ;  (1 found)
0x14807024: ret  ;  (1 found)
0x148070a0: ret  ;  (1 found)
0x148070a5: ret  ;  (1 found)
0x148070ac: ret  ;  (1 found)
0x148072ad: ret  ;  (1 found)
0x148073ac: ret  ;  (1 found)
0x148072a2: ret  ;  (1 found)
0x14807369: ret  ;  (1 found)
0x14807374: ret  ;  (1 found)
0x148074c8: ret  ;  (1 found)
0x1480744a: ret  ;  (1 found)
0x14807594: ret  ;  (1 found)
0x148075b1: ret  ;  (1 found)
0x148075cb: ret  ;  (1 found)
0x148074af: ret  ;  (1 found)
0x148075fc: ret  ;  (1 found)
0x14805e42: ret  ;  (1 found)
0x14805df8: ret  ;  (1 found)
0x14805e3c: ret  ;  (1 found)
0x14805e4e: ret  ;  (1 found)
0x14805e7a: ret  ;  (1 found)
0x14806043: ret  ;  (1 found)
0x14805ea0: ret  ;  (1 found)
0x14806007: ret  ;  (1 found)
0x14806127: ret  ;  (1 found)
0x14805f9e: ret  ;  (1 found)
0x14806240: ret  ;  (1 found)
0x14806260: ret  ;  (1 found)
0x148062dd: ret  ;  (1 found)
0x1480640d: ret  ;  (1 found)
0x14806427: ret  ;  (1 found)
0x14806480: ret  ;  (1 found)
0x14806449: ret  ;  (1 found)
0x14806450: ret  ;  (1 found)
0x14806599: ret  ;  (1 found)
0x148064a2: ret  ;  (1 found)
0x148065a1: ret  ;  (1 found)
0x1480652a: ret  ;  (1 found)
0x148064a9: ret  ;  (1 found)
0x1480663f: ret  ;  (1 found)
0x148065f1: ret  ;  (1 found)
0x14806625: ret  ;  (1 found)
0x1480660b: ret  ;  (1 found)
0x14806703: ret  ;  (1 found)
0x14806789: ret  ;  (1 found)
0x14806b09: ret  ;  (1 found)
0x14806b3f: ret  ;  (1 found)
0x14808408: ret  ;  (1 found)
0x148083e3: ret  ;  (1 found)
0x148083f5: ret  ;  (1 found)
0x148083ee: ret  ;  (1 found)
0x14808439: ret  ;  (1 found)
0x148084b3: ret  ;  (1 found)
0x14808447: ret  ;  (1 found)
0x14808481: ret  ;  (1 found)
0x148084b6: ret  ;  (1 found)
0x148084c7: ret  ;  (1 found)
0x14808548: ret  ;  (1 found)
0x14808678: ret  ;  (1 found)
0x1480858b: ret  ;  (1 found)
0x1480869a: ret  ;  (1 found)
0x148086b3: ret  ;  (1 found)
0x14808668: ret  ;  (1 found)
0x148086bd: ret  ;  (1 found)
0x14808619: ret  ;  (1 found)
0x14808770: ret  ;  (1 found)
0x14808720: ret  ;  (1 found)
0x14808767: ret  ;  (1 found)
0x148087e6: ret  ;  (1 found)
0x14808825: ret  ;  (1 found)
0x14808880: ret  ;  (1 found)
0x148087f9: ret  ;  (1 found)
0x148087bb: ret  ;  (1 found)
0x148087b7: ret  ;  (1 found)
0x14808892: ret  ;  (1 found)
0x148088cb: ret  ;  (1 found)
0x14808962: ret  ;  (1 found)
0x1480896b: ret  ;  (1 found)
0x14808ae9: ret  ;  (1 found)
0x148089a9: ret  ;  (1 found)
0x148089c5: ret  ;  (1 found)
0x14808a32: ret  ;  (1 found)
0x14808d8e: ret  ;  (1 found)
0x14808dd6: ret  ;  (1 found)
0x1480775a: ret  ;  (1 found)
0x1480770c: ret  ;  (1 found)
0x1480775f: ret  ;  (1 found)
0x148077c9: ret  ;  (1 found)
0x148076df: ret  ;  (1 found)
0x14807739: ret  ;  (1 found)
0x14807873: ret  ;  (1 found)
0x14807827: ret  ;  (1 found)
0x1480789b: ret  ;  (1 found)
0x14807887: ret  ;  (1 found)
0x148078d3: ret  ;  (1 found)
0x14807a05: ret  ;  (1 found)
0x1480796d: ret  ;  (1 found)
0x14807aae: ret  ;  (1 found)
0x14807a48: ret  ;  (1 found)
0x14807e32: ret  ;  (1 found)
0x14807edf: ret  ;  (1 found)
0x14807f92: ret  ;  (1 found)
0x1480800b: ret  ;  (1 found)
0x14807f83: ret  ;  (1 found)
0x14807ef6: ret  ;  (1 found)
0x14808016: ret  ;  (1 found)
0x14808051: ret  ;  (1 found)
0x14808193: ret  ;  (1 found)
0x148081ef: ret  ;  (1 found)
0x148082e2: ret  ;  (1 found)
0x14808218: ret  ;  (1 found)
0x1480839e: ret  ;  (1 found)
0x148083c6: ret  ;  (1 found)
0x14808343: ret  ;  (1 found)
0x148083ca: ret  ;  (1 found)
0x1480832c: ret  ;  (1 found)
0x1480a133: ret  ;  (1 found)
0x1480a1bf: ret  ;  (1 found)
0x1480a1cc: ret  ;  (1 found)
0x1480a1da: ret  ;  (1 found)
0x1480a1e7: ret  ;  (1 found)
0x1480a1ee: ret  ;  (1 found)
0x1480a20b: ret  ;  (1 found)
0x1480a219: ret  ;  (1 found)
0x1480a243: ret  ;  (1 found)
0x1480a282: ret  ;  (1 found)
0x1480a29f: ret  ;  (1 found)
0x1480a2bc: ret  ;  (1 found)
0x1480a2c3: ret  ;  (1 found)
0x1480a2e4: ret  ;  (1 found)
0x1480a308: ret  ;  (1 found)
0x1480a314: ret  ;  (1 found)
0x1480a326: ret  ;  (1 found)
0x1480a2fb: ret  ;  (1 found)
0x1480a357: ret  ;  (1 found)
0x1480a368: ret  ;  (1 found)
0x1480a36d: ret  ;  (1 found)
0x1480a37a: ret  ;  (1 found)
0x1480a39f: ret  ;  (1 found)
0x1480a3a4: ret  ;  (1 found)
0x1480a404: ret  ;  (1 found)
0x1480a3fd: ret  ;  (1 found)
0x1480a409: ret  ;  (1 found)
0x1480a4b2: ret  ;  (1 found)
0x14808e6e: ret  ;  (1 found)
0x14808eed: ret  ;  (1 found)
0x148090e3: ret  ;  (1 found)
0x148090b1: ret  ;  (1 found)
0x14809194: ret  ;  (1 found)
0x148090fb: ret  ;  (1 found)
0x1480911e: ret  ;  (1 found)
0x148091d7: ret  ;  (1 found)
0x14809273: ret  ;  (1 found)
0x148092b3: ret  ;  (1 found)
0x148092da: ret  ;  (1 found)
0x14809431: ret  ;  (1 found)
0x14809361: ret  ;  (1 found)
0x1480943b: ret  ;  (1 found)
0x14809555: ret  ;  (1 found)
0x14809695: ret  ;  (1 found)
0x14809788: ret  ;  (1 found)
0x1480981e: ret  ;  (1 found)
0x14809576: ret  ;  (1 found)
0x1480948e: ret  ;  (1 found)
0x148098df: ret  ;  (1 found)
0x14809972: ret  ;  (1 found)
0x148099a1: ret  ;  (1 found)
0x148099e0: ret  ;  (1 found)
0x148099fc: ret  ;  (1 found)
0x148099d9: ret  ;  (1 found)
0x14809a7a: ret  ;  (1 found)
0x14809a95: ret  ;  (1 found)
0x14809b0b: ret  ;  (1 found)
0x14809c34: ret  ;  (1 found)
0x14809bf0: ret  ;  (1 found)
0x14809b77: ret  ;  (1 found)
0x14809bcd: ret  ;  (1 found)
0x14809c24: ret  ;  (1 found)
0x14809b84: ret  ;  (1 found)
0x14809c57: ret  ;  (1 found)
0x14809db5: ret  ;  (1 found)
0x14809ca4: ret  ;  (1 found)
0x14809f49: ret  ;  (1 found)
0x14809e13: ret  ;  (1 found)
0x14809f63: ret  ;  (1 found)
0x14809e96: ret  ;  (1 found)
0x14809fa7: ret  ;  (1 found)
0x14809f73: ret  ;  (1 found)
0x14809f78: ret  ;  (1 found)
0x14809f87: ret  ;  (1 found)
0x14809ff2: ret  ;  (1 found)
0x1480a05f: ret  ;  (1 found)
0x1480a086: ret  ;  (1 found)
0x1480a01d: ret  ;  (1 found)
0x1480a010: ret  ;  (1 found)
0x1480a060: ret  ;  (1 found)
0x1480a0c6: ret  ;  (1 found)
0x1480b96e: ret  ;  (1 found)
0x1480b9ab: ret  ;  (1 found)
0x1480b97f: ret  ;  (1 found)
0x1480b98e: ret  ;  (1 found)
0x1480b989: ret  ;  (1 found)
0x1480ba72: ret  ;  (1 found)
0x1480ba44: ret  ;  (1 found)
0x1480ba73: ret  ;  (1 found)
0x1480bad6: ret  ;  (1 found)
0x1480bd18: ret  ;  (1 found)
0x1480bd32: ret  ;  (1 found)
0x1480bcfa: ret  ;  (1 found)
0x1480bd06: ret  ;  (1 found)
0x1480bda6: ret  ;  (1 found)
0x1480bdca: ret  ;  (1 found)
0x1480bdb4: ret  ;  (1 found)
0x1480a783: ret  ;  (1 found)
0x1480a6ca: ret  ;  (1 found)
0x1480a761: ret  ;  (1 found)
0x1480a805: ret  ;  (1 found)
0x1480a930: ret  ;  (1 found)
0x1480a894: ret  ;  (1 found)
0x1480a96b: ret  ;  (1 found)
0x1480a98a: ret  ;  (1 found)
0x1480a9a9: ret  ;  (1 found)
0x1480a9c0: ret  ;  (1 found)
0x1480aa7f: ret  ;  (1 found)
0x1480aa15: ret  ;  (1 found)
0x1480abaa: ret  ;  (1 found)
0x1480ace4: ret  ;  (1 found)
0x1480acb5: ret  ;  (1 found)
0x1480acf5: ret  ;  (1 found)
0x1480accb: ret  ;  (1 found)
0x1480ade1: ret  ;  (1 found)
0x1480adfc: ret  ;  (1 found)
0x1480acff: ret  ;  (1 found)
0x1480adcd: ret  ;  (1 found)
0x1480ae15: ret  ;  (1 found)
0x1480af99: ret  ;  (1 found)
0x1480b0b4: ret  ;  (1 found)
0x1480afba: ret  ;  (1 found)
0x1480aeb8: ret  ;  (1 found)
0x1480afdd: ret  ;  (1 found)
0x1480b137: ret  ;  (1 found)
0x1480b2fd: ret  ;  (1 found)
0x1480b39f: ret  ;  (1 found)
0x1480b2ce: ret  ;  (1 found)
0x1480b2f0: ret  ;  (1 found)
0x1480b4cc: ret  ;  (1 found)
0x1480b4a2: ret  ;  (1 found)
0x1480b4ba: ret  ;  (1 found)
0x1480b473: ret  ;  (1 found)
0x1480b500: ret  ;  (1 found)
0x1480b53c: ret  ;  (1 found)
0x1480b54c: ret  ;  (1 found)
0x1480b592: ret  ;  (1 found)
0x1480b545: ret  ;  (1 found)
0x1480b578: ret  ;  (1 found)
0x1480b5a4: ret  ;  (1 found)
0x1480b5f2: ret  ;  (1 found)
0x1480b69b: ret  ;  (1 found)
0x1480b6b9: ret  ;  (1 found)
0x1480b688: ret  ;  (1 found)
0x1480b6d3: ret  ;  (1 found)
0x1480b6f0: ret  ;  (1 found)
0x1480b7e8: ret  ;  (1 found)
0x1480b720: ret  ;  (1 found)
0x1480b7e7: ret  ;  (1 found)
0x1480b95f: ret  ;  (1 found)
0x1480b8cb: ret  ;  (1 found)
0x1480b969: ret  ;  (1 found)
0x1480bde4: ret  ;  (1 found)
0x1480beca: ret  ;  (1 found)
0x1480bfb6: ret  ;  (1 found)
0x1480c067: ret  ;  (1 found)
0x1480c0eb: ret  ;  (1 found)
0x1480c099: ret  ;  (1 found)
0x1480c0e1: ret  ;  (1 found)
0x1480c0e6: ret  ;  (1 found)
0x1480c0fe: ret  ;  (1 found)
0x1480c12a: ret  ;  (1 found)
0x1480c123: ret  ;  (1 found)
0x1480c115: ret  ;  (1 found)
0x1480c11c: ret  ;  (1 found)
0x1480c186: ret  ;  (1 found)
0x1480c389: ret  ;  (1 found)
0x1480c352: ret  ;  (1 found)
0x1480c3b6: ret  ;  (1 found)
0x1480c39d: ret  ;  (1 found)
0x1480c3a1: ret  ;  (1 found)
0x1480c390: ret  ;  (1 found)
0x1480c399: ret  ;  (1 found)
0x1480c3aa: ret  ;  (1 found)
0x1480c395: ret  ;  (1 found)
0x1480c456: ret  ;  (1 found)
0x1480c3c8: ret  ;  (1 found)
0x1480c3e2: ret  ;  (1 found)
0x1480c47a: ret  ;  (1 found)
0x1480c464: ret  ;  (1 found)
0x1480c57a: ret  ;  (1 found)
0x1480c494: ret  ;  (1 found)
0x1480c666: ret  ;  (1 found)
0x1480c73c: ret  ;  (1 found)
0x1480c7e6: ret  ;  (1 found)
0x1480c77d: ret  ;  (1 found)
0x14802daf: retn 0x0000 ;  (1 found)
0x1480a5f0: retn 0x0000 ;  (1 found)
0x1480c079: retn 0x0003 ;  (1 found)
0x1480c08e: retn 0x0003 ;  (1 found)
0x148019af: retn 0x0004 ;  (1 found)
0x14801a93: retn 0x0004 ;  (1 found)
0x14801ac6: retn 0x0004 ;  (1 found)
0x14801b0a: retn 0x0004 ;  (1 found)
0x14801b48: retn 0x0004 ;  (1 found)
0x14801d7c: retn 0x0004 ;  (1 found)
0x148023ed: retn 0x0004 ;  (1 found)
0x148024cd: retn 0x0004 ;  (1 found)
0x148029a8: retn 0x0004 ;  (1 found)
0x14803126: retn 0x0004 ;  (1 found)
0x148041f7: retn 0x0004 ;  (1 found)
0x14803c7e: retn 0x0004 ;  (1 found)
0x14803f9a: retn 0x0004 ;  (1 found)
0x14806d6d: retn 0x0004 ;  (1 found)
0x148067de: retn 0x0004 ;  (1 found)
0x148068a8: retn 0x0004 ;  (1 found)
0x148068fe: retn 0x0004 ;  (1 found)
0x14806954: retn 0x0004 ;  (1 found)
0x14808200: retn 0x0007 ;  (1 found)
0x14802454: retn 0x0008 ;  (1 found)
0x148022e7: retn 0x0008 ;  (1 found)
0x14801038: retn 0x0008 ;  (1 found)
0x148069ad: retn 0x0008 ;  (1 found)
0x14806acb: retn 0x0008 ;  (1 found)
0x14803289: retn 0x000C ;  (1 found)
0x148037fc: retn 0x000C ;  (1 found)
0x1480384d: retn 0x000C ;  (1 found)
0x14803628: retn 0x000C ;  (1 found)
0x1480412f: retn 0x000C ;  (1 found)
0x148040df: retn 0x000C ;  (1 found)
0x14804094: retn 0x000C ;  (1 found)
0x14804033: retn 0x000C ;  (1 found)
0x14804ce5: retn 0x000C ;  (1 found)
0x14806ceb: retn 0x000C ;  (1 found)
0x14806a0f: retn 0x000C ;  (1 found)
0x1480857d: retn 0x000C ;  (1 found)
0x1480853a: retn 0x000C ;  (1 found)
0x14808e5d: retn 0x000C ;  (1 found)
0x1480a7f4: retn 0x000C ;  (1 found)
0x1480b2a5: retn 0x000D ;  (1 found)
0x1480b2b0: retn 0x000D ;  (1 found)
0x1480b792: retn 0x0010 ;  (1 found)
0x1480b816: retn 0x0010 ;  (1 found)
0x1480b94c: retn 0x0010 ;  (1 found)
0x1480b831: retn 0x0010 ;  (1 found)
0x14806852: retn 0x0024 ;  (1 found)
0x14806a83: retn 0x0024 ;  (1 found)
0x14809dc6: retn 0x00C8 ;  (1 found)
0x14809e00: retn 0x00D0 ;  (1 found)
0x148086ce: retn 0x0324 ;  (1 found)
0x14807251: retn 0x0374 ;  (1 found)
0x14807149: retn 0x0674 ;  (1 found)
0x14807207: retn 0x0674 ;  (1 found)
0x148099b2: retn 0x06C1 ;  (1 found)
0x14806d5b: retn 0x0D74 ;  (1 found)
0x14807ebb: retn 0x0F01 ;  (1 found)
0x1480c05b: retn 0x0F66 ;  (1 found)
0x14809dfd: retn 0x0FF2 ;  (1 found)
0x14807d4c: retn 0x1873 ;  (1 found)
0x148099e3: retn 0x301D ;  (1 found)
0x1480b517: retn 0x3375 ;  (1 found)
0x1480c083: retn 0x3A01 ;  (1 found)
0x14802cdc: retn 0x3A39 ;  (1 found)
0x148014eb: retn 0x3B28 ;  (1 found)
0x1480b514: retn 0x3B66 ;  (1 found)
0x1480280f: retn 0x4105 ;  (1 found)
0x14806afa: retn 0x4122 ;  (1 found)
0x14803a08: retn 0x4589 ;  (1 found)
0x14806edd: retn 0x4589 ;  (1 found)
0x1480269c: retn 0x49EB ;  (1 found)
0x1480673a: retn 0x49EB ;  (1 found)
0x1480835e: retn 0x4D8B ;  (1 found)
0x14806ee8: retn 0x5589 ;  (1 found)
0x14806d4c: retn 0x5603 ;  (1 found)
0x1480553e: retn 0x6602 ;  (1 found)
0x1480bc3e: retn 0x6604 ;  (1 found)
0x1480c2ee: retn 0x6604 ;  (1 found)
0x1480bbe6: retn 0x6608 ;  (1 found)
0x1480c296: retn 0x6608 ;  (1 found)
0x1480bb8a: retn 0x660C ;  (1 found)
0x1480c23a: retn 0x660C ;  (1 found)
0x14805cfa: retn 0x7401 ;  (1 found)
0x1480b0c0: retn 0x7401 ;  (1 found)
0x1480b0cc: retn 0x7404 ;  (1 found)
0x1480b0d8: retn 0x7408 ;  (1 found)
0x1480b0e4: retn 0x7410 ;  (1 found)
0x1480b0f0: retn 0x7420 ;  (1 found)
0x148086d6: retn 0x74C0 ;  (1 found)
0x14805cff: retn 0x7508 ;  (1 found)
0x14809f05: retn 0x7540 ;  (1 found)
0x148096b7: retn 0x75FF ;  (1 found)
0x1480c0bc: retn 0x8104 ;  (1 found)
0x14809e06: retn 0x8300 ;  (1 found)
0x14803f08: retn 0x8302 ;  (1 found)
0x14807d36: retn 0x852B ;  (1 found)
0x14804fc3: retn 0x8589 ;  (1 found)
0x14804fcd: retn 0x8589 ;  (1 found)
0x148010f2: retn 0x8901 ;  (1 found)
0x14809e7a: retn 0x8910 ;  (1 found)
0x14809e81: retn 0x8910 ;  (1 found)
0x14809988: retn 0x8914 ;  (1 found)
0x1480758f: retn 0x8B5B ;  (1 found)
0x1480c7bb: retn 0xBDEB ;  (1 found)
0x148054de: retn 0xC085 ;  (1 found)
0x148073c9: retn 0xC1F6 ;  (1 found)
0x148073be: retn 0xC1F6 ;  (1 found)
0x14809a56: retn 0xC73B ;  (1 found)
0x1480c767: retn 0xC783 ;  (1 found)
0x14808307: retn 0xC88B ;  (1 found)
0x1480bfcb: retn 0xC88B ;  (1 found)
0x1480c67b: retn 0xC88B ;  (1 found)
0x14803a45: retn 0xC8D3 ;  (1 found)
0x1480c739: retn 0xC95F ;  (1 found)
0x1480b961: retn 0xD233 ;  (1 found)
0x1480b97c: retn 0xE0D3 ;  (1 found)
0x1480c6cb: retn 0xE2C1 ;  (1 found)
0x148054f8: retn 0xE58B ;  (1 found)
0x1480c053: retn 0xEB10 ;  (1 found)
0x14804f01: retn 0xEF76 ;  (1 found)
0x14802a41: retn 0xF675 ;  (1 found)
0x14804bf8: retn 0xF8C1 ;  (1 found)
0x148014f7: retn 0xF9EB ;  (1 found)
0x1480aefe: retn 0xFA00 ;  (1 found)
0x14805f97: retn 0xFFDD ;  (1 found)
0x148026c3: retn 0xFFFE ;  (1 found)
0x148084c1: retn 0xFFFF ;  (1 found)
0x14809a0c: retn 0xFFFF ;  (1 found)
0x1480ba34: retn 0xFFFF ;  (1 found)
0x14803471: rol bl, 0xFFFFFF8B ; call dword [ebp-0x75] ;  (1 found)
0x148017d8: rol bl, 0xFFFFFFB8 ; add byte [eax+0x00], al ; add bl, al ; push 0x14813810 ; call dword [0x1480D044] ;  (1 found)
0x1480342b: rol byte [eax+0x006ACC14], 1  ; call dword [0x1480D05C] ;  (1 found)
0x14801d90: rol byte [eax+0x04096814], 1  ; add al, al ; call dword [0x1480D060] ;  (1 found)
0x148025d6: rol byte [eax+0x08006814], cl ; add byte [eax], al ; push 0x00000000 ; push ebx ; call dword [0x1480D0A0] ;  (1 found)
0x14801d87: rol byte [eax+0x0875FF14], 1  ; call dword [0x1480D04C] ;  (1 found)
0x14809187: rol byte [eax+0x0FC08514], 1  ; xchg eax, ebp ; rcr byte [edi+0x5E], 0xFFFFFF8B ; in eax, 0x5D ; ret  ;  (1 found)
0x14804758: rol byte [eax+0x15FF5014], 1  ; rol byte [fs:eax-0x743CA1EC], 1  ; call dword [ebp-0x75] ;  (1 found)
0x148035ae: rol byte [eax+0x3D30A314], 1  ; adc dword [edi+edi*8], 0x80D0C415 ; adc al, 0xA3 ; xor al, 0x3D ; adc dword [eax+esi*4], 0x01B0C301 ; ret  ;  (1 found)
0x148035b9: rol byte [eax+0x3D34A314], 1  ; adc dword [eax+esi*4], 0x01B0C301 ; ret  ;  (1 found)
0x148022de: rol byte [eax+0x5B5E5F14], 1  ; mov esp, ebp ; pop ebp ; retn 0x0008 ;  (1 found)
0x14802436: rol byte [eax+0x5B5E5F14], 1  ; pop ebp ; ret  ;  (1 found)
0x14802886: rol byte [eax+0x5E5F5D14], 1  ; pop ebx ; mov esp, ebp ; pop ebp ; ret  ;  (1 found)
0x148043b3: rol byte [eax+0x5FC78B14], 1  ; pop esi ; ret  ;  (1 found)
0x14803496: rol byte [eax+0x74C08514], 1  ; and edx, dword [esi+0x68] ; insb  ; fild dword [eax-0x078A00EC] ; call dword [0x1480D09C] ;  (1 found)
0x14801755: rol byte [eax-0x03BACEEC], 1  ; call dword [0x1480D038] ;  (1 found)
0x1480175e: rol byte [eax-0x03BACEEC], 1  ; lea eax, dword [ebp-0x14] ; push eax ; call dword [0x1480D034] ;  (1 found)
0x14801949: rol byte [eax-0x07BA72EC], 1  ; push eax ; call dword [0x1480D04C] ;  (1 found)
0x14801746: rol byte [eax-0x07BA74EC], 1  ; xor eax, dword [ebp-0x0C] ; mov dword [ebp-0x04], eax ; call dword [0x1480D03C] ;  (1 found)
0x1480643d: rol byte [eax-0x10], 0x0000000F ; rol dword [ecx+0x000000B0], 0x40 ; pop ebp ; ret  ;  (1 found)
0x1480aa74: rol byte [eax-0x15], 0x00000004 ; fstp st0 ; xor eax, eax ; mov esp, ebp ; pop ebp ; ret  ;  (1 found)
0x1480b963: rol byte [eax-0x172CE01F], cl ; ret  ;  (1 found)
0x1480b983: rol byte [eax-0x1D2CE01F], 0xFFFFFFC3 ; xor eax, eax ; xor edx, edx ; ret  ;  (1 found)
0x148017d4: rol byte [eax-0x3D], 0x00000033 ; rol bl, 0xFFFFFFB8 ; add byte [eax+0x00], al ; add bl, al ; push 0x14813810 ; call dword [0x1480D044] ;  (1 found)
0x14806bbb: rol byte [eax-0x5C3F7AEC], 1  ; rol byte [ecx-0x7F], 0x00000014 ; setne al ; ret  ;  (1 found)
0x1480475f: rol byte [eax-0x743CA1EC], 1  ; call dword [ebp-0x75] ;  (1 found)
0x148059d3: rol byte [eax-0x743CA2EC], 1  ; call dword [ebp-0x75] ;  (1 found)
0x14805b6c: rol byte [eax-0x743CA2EC], 1  ; call dword [ebp-0x75] ;  (1 found)
0x14805b8f: rol byte [eax-0x743CA2EC], 1  ; call dword [ebp-0x75] ;  (1 found)
0x14808404: rol byte [eax-0x743CA2EC], 1  ; call dword [ebp-0x75] ;  (1 found)
0x14807883: rol byte [eax-0x743CA2EC], 1  ; call dword [ebp-0x75] ;  (1 found)
0x14807897: rol byte [eax-0x743CA2EC], 1  ; call dword [ebp-0x75] ;  (1 found)
0x1480598b: rol byte [eax-0x743CA2EC], 1  ; call dword [esi-0x75] ;  (1 found)
0x148055c3: rol byte [eax-0x74A1A0EC], 1  ; ret  ;  (1 found)
0x148055c2: rol byte [eax-0x74A1A0EC], 1  ; ret  ;  (1 found)
0x14804656: rol byte [eax-0x74FF95EC], 1  ; clc  ; call dword [0x1480D050] ;  (1 found)
0x148025e4: rol byte [eax-0x7A0F74EC], 1  ; div byte [ebp+0x50] ; call dword [0x1480D070] ;  (1 found)
0x14806680: rol byte [eax-0x7A0F74EC], 1  ; div byte [ebp+0x50] ; call dword [0x1480D070] ;  (1 found)
0x1480afaf: rol byte [ebp-0x6BF0A10A], 0xFFFFFFC0 ; pop ebx ; mov esp, ebp ; pop ebp ; ret  ;  (1 found)
0x1480acf8: rol byte [ebx-0x3FFCFD20], 0x0000005D ; ret  ;  (1 found)
0x1480a9a2: rol byte [ebx-0x6AF00007], 0xFFFFFFC0 ; ret  ;  (1 found)
0x14806ee2: rol byte [ebx-0x6BF0FE08], cl ; retn 0x5589 ;  (1 found)
0x1480a127: rol byte [ecx+0x000404E1], 0x00000000 ; mov ebx, edx ; add ebx, eax ; add ebx, 0x10 ; jmp dword [ebx] ;  (1 found)
0x1480a1b3: rol byte [ecx+0x000404E1], 0x00000000 ; mov ebx, edx ; add ebx, eax ; add ebx, 0x10 ; jmp dword [ebx] ;  (1 found)
0x14808462: rol byte [ecx-0x7F], 0x00000014 ; call dword [0x1480D020] ;  (1 found)
0x148083fd: rol byte [ecx-0x7F], 0x00000014 ; call dword [0x1480D024] ;  (1 found)
0x14803d6f: rol byte [ecx-0x7F], 0x00000014 ; call dword [0x1480D0CC] ;  (1 found)
0x14803dc5: rol byte [ecx-0x7F], 0x00000014 ; call dword [0x1480D0D0] ;  (1 found)
0x14803ec0: rol byte [ecx-0x7F], 0x00000014 ; call dword [0x1480D0D0] ;  (1 found)
0x14806bc1: rol byte [ecx-0x7F], 0x00000014 ; setne al ; ret  ;  (1 found)
0x14806d32: rol byte [ecx-0x7F], 1  ; adc al, 0x5D ; ret  ;  (1 found)
0x1480a0c2: rol byte [ecx], 1  ; add byte [eax], al ; ret  ;  (1 found)
0x1480475e: rol byte [fs:eax-0x743CA1EC], 1  ; call dword [ebp-0x75] ;  (1 found)
0x148011b6: rol dword [eax+0x0C488B14], 1  ; mov ecx, dword [ecx] ; push dword [ecx] ; call dword [0x1480D120] ;  (1 found)
0x148011a9: rol dword [eax+0x1A836814], 1  ; adc dword [ebx+ecx*4], 0x3C15FFF8 ; rol dword [eax+0x0C488B14], 1  ; mov ecx, dword [ecx] ; push dword [ecx] ; call dword [0x1480D120] ;  (1 found)
0x14801b13: rol dword [eax+0x41E85014], 1  ; pop es ; add byte [eax], al ; pop ecx ; ret  ;  (1 found)
0x14801a8c: rol dword [eax+0x5EC68B14], 1  ; pop ebp ; retn 0x0004 ;  (1 found)
0x14801abf: rol dword [eax+0x5EC68B14], 1  ; pop ebp ; retn 0x0004 ;  (1 found)
0x1480109b: rol dword [eax-0x13BA76EC], 1  ; mov edx, dword [ebp+0x08] ; push edx ; call dword [0x1480D130] ;  (1 found)
0x14803d25: rol dword [eax-0x142900EC], 1  ; pop es ; xor eax, eax ; inc eax ; ret  ;  (1 found)
0x1480688d: rol dword [eax-0x142900EC], 1  ; push es ; call dword [0x1480D088] ;  (1 found)
0x14806939: rol dword [eax-0x142900EC], 1  ; push es ; call dword [0x1480D08C] ;  (1 found)
0x14806992: rol dword [eax-0x142900EC], 1  ; push es ; call dword [0x1480D090] ;  (1 found)
0x148068e3: rol dword [eax-0x142900EC], 1  ; push es ; call dword [0x1480D094] ;  (1 found)
0x148011c3: rol dword [eax-0x470F74EC], 1  ; add al, byte [eax] ; add byte [eax], al ; push 0x00001B5A ; mov word [esp+0x14], ax ; call dword [0x1480D11C] ;  (1 found)
0x148011da: rol dword [eax-0x7699A9EC], 1  ; inc esp ; and al, 0x16 ; call dword [0x1480D118] ;  (1 found)
0x1480a9db: rol dword [eax-0x7A0F74EC], 1  ; div byte [ebp+0x2D] ; call dword [0x1480D070] ;  (1 found)
0x14804798: rol dword [ebx-0x3CA2F740], 0xFFFFFF8B ; add al, 0xC5 ; cld  ; fild dword [eax-0x743CA2EC] ; call dword [ebp-0x75] ;  (1 found)
0x1480c059: rol dword [ebx], 0xFFFFFFC2 ; movd edx, xmm3 ; xor ecx, ecx ; cmp dl, byte [eax] ; cmovne eax, ecx ; ret  ;  (1 found)
0x1480c732: rol dword [ebx], 0xFFFFFFC7 ; test ecx, ecx ; cmove eax, edx ; pop edi ; leave  ; ret  ;  (1 found)
0x14804fcb: rol dword [ebx], 1  ; retn 0x8589 ;  (1 found)
0x14806441: rol dword [ecx+0x000000B0], 0x40 ; pop ebp ; ret  ;  (1 found)
0x1480649a: rol dword [ecx+0x000000B0], 0x48 ; pop ebp ; ret  ;  (1 found)
0x14807f91: rol ebx, 0xFFFFFF8B ; call dword [ebp-0x75] ;  (1 found)
0x1480479a: ror byte [eax], 0x0000005D ; ret  ;  (1 found)
0x14807fe3: ror byte [ebp+0x0001C504], 0x00000000 ; add byte [eax+0x57], dl ; call dword [0x1480D0B0] ;  (1 found)
0x14808f27: ror byte [ebx-0x38FCEBBB], 1  ; mov dword [ebp-0x28], eax ; call dword [0x1480D018] ;  (1 found)
0x1480899d: ror byte [ecx+0x06890446], 0xFFFFFF89 ; inc esi ; or byte [edi+0x5E], bl ; pop ebp ; ret  ;  (1 found)
0x1480a966: ror byte [edi+eax*4], 0x00000008 ; pop ebp ; ret  ;  (1 found)
0x148052ad: ror byte [edi], 0xFFFFFF84 ; stosb  ; add byte [eax], al ; add byte [ebp+0x5350E845], cl ; call dword [0x1480D0E8] ;  (1 found)
0x1480918b: ror byte [edi], 0xFFFFFF95 ; rcr byte [edi+0x5E], 0xFFFFFF8B ; in eax, 0x5D ; ret  ;  (1 found)
0x1480701f: ror dword [eax], 0x74 ; add cl, byte [ebx] ; ret  ;  (1 found)
0x148017c9: ror dword [ecx-0x7ECFE7F3], 1  ; adc al, 0x5F ; pop esi ; ret  ;  (1 found)
0x1480a11f: ror dword [edx-0x28F0DB3F], 0x0F ; mov esi, 0x04E181C0 ; add al, 0x00 ; add byte [ebx-0x7C27FC26], cl ; ret  ;  (1 found)
0x14802b65: ror eax, cl ; neg eax ; sbb eax, eax ; neg eax ; ret  ;  (1 found)
0x1480285e: ror eax, cl ; xor eax, dword [0x14813014] ; mov dword [0x14813BB8], eax ; ret  ;  (1 found)
0x1480259c: ror eax, cl ; xor eax, dword [0x14813014] ; pop ebp ; ret  ;  (1 found)
0x14802b4b: ror eax, cl ; xor eax, dword [0x14813014] ; pop ebp ; ret  ;  (1 found)
0x148032ef: ror edi, cl ; mov ecx, edi ; call dword [0x1480D144] ;  (1 found)
0x14803a1d: ror esi, cl ; mov ecx, esi ; call dword [0x1480D144] ;  (1 found)
0x14801714: sal bh, 0xFFFFFFD0 ; and eax, dword [ebp+0x08] ; pop ebp ; ret  ;  (1 found)
0x1480172b: sal bh, 0xFFFFFFD8 ; dec eax ; pop ebp ; ret  ;  (1 found)
0x14804803: sal bh, 0xFFFFFFD8 ; pop ebp ; ret  ;  (1 found)
0x148075ad: sal bh, 0xFFFFFFD8 ; pop ebp ; ret  ;  (1 found)
0x14802b6a: sal bh, 0xFFFFFFD8 ; ret  ;  (1 found)
0x14806201: sal byte [eax+edx-0x01], 0x00000075 ; sbb byte [eax+0x56], dl ; push dword [ebp+0x0C] ; call dword [0x1480D100] ;  (1 found)
0x14803ee9: sal byte [ebp+0x02], 0x0000005D ; ret  ;  (1 found)
0x1480b4c5: sal byte [ebp+0x05], 0x0000006A ; add bl, byte [eax+0x5D] ; ret  ;  (1 found)
0x1480868d: sal byte [ebp+0x07], 0xFFFFFF8B ; inc ebp ; or al, 0xFF ; add bl, ch ; fidiv word [eax-0x743CA2FF] ; call dword [ebp-0x75] ;  (1 found)
0x1480b4b5: sal byte [ebp+0x15], 0x00000040 ; pop ebp ; ret  ;  (1 found)
0x14808e27: sal byte [ebp+0x1D], 0xFFFFFFE8 ; wait  ; mov ecx, 0xF08BFFFF ; call dword [0x1480D070] ;  (1 found)
0x148026ae: sal byte [ebp+ebx-0x01], 0x00000075 ; or al, 0x50 ; call dword [0x1480D09C] ;  (1 found)
0x1480674c: sal byte [ebp+ebx-0x01], 0x00000075 ; or al, 0x50 ; call dword [0x1480D09C] ;  (1 found)
0x1480261d: sal byte [ebp+ecx+0x56], 0x00000056 ; push ebx ; call dword [0x1480D0A0] ;  (1 found)
0x148066b9: sal byte [ebp+ecx+0x56], 0x00000056 ; push ebx ; call dword [0x1480D0A0] ;  (1 found)
0x14803dbd: sal byte [ebp+edx+0x56], 0x0000006A ; add bh, bh ; xor eax, 0x148141C0 ; call dword [0x1480D0D0] ;  (1 found)
0x14803eb8: sal byte [ebp+edx+0x56], 0x0000006A ; or bh, bh ; xor eax, 0x148141C0 ; call dword [0x1480D0D0] ;  (1 found)
0x14804bd1: sal byte [ebp-0x6B], 0xFFFFFF8D ; test dword [esi+edi*8+0x5650FFFF], edi ; call dword [0x1480D0DC] ;  (1 found)
0x1480349a: sal byte [ebx+0x56], 0x00000068 ; insb  ; fild dword [eax-0x078A00EC] ; call dword [0x1480D09C] ;  (1 found)
0x148087b2: sal byte [ebx+eax+0x33], 0xFFFFFFC0 ; ret  ;  (1 found)
0x14808459: sal byte [ebx+ebx*8+0x56], 0x00000057 ; push 0x00000000 ; push dword [0x148141C0] ; call dword [0x1480D020] ;  (1 found)
0x148031e9: sal byte [ebx+ecx-0x75], 0xFFFFFFC8 ; call dword [0x1480D144] ;  (1 found)
0x1480b96b: sal byte [ebx], 0xFFFFFFD2 ; ret  ;  (1 found)
0x1480b98b: sal byte [ebx], 0xFFFFFFD2 ; ret  ;  (1 found)
0x14802416: sal byte [ebx], 0xFFFFFFDB ; xor ecx, ecx ; xor edx, edx ; xor edi, edi ; jmp esi ;  (1 found)
0x148023f7: sal byte [ebx], 0xFFFFFFDB ; xor edx, edx ; xor esi, esi ; xor edi, edi ; call ecx ;  (1 found)
0x1480b0af: sal byte [ebx], 1  ; inc ecx ; or byte [ebx], ah ; ret  ;  (1 found)
0x1480b981: sal byte [ebx], 1  ; rol byte [eax-0x1D2CE01F], 0xFFFFFFC3 ; xor eax, eax ; xor edx, edx ; ret  ;  (1 found)
0x1480844e: sal byte [esi+0x56], 0xFFFFFFE8 ; lds esi,  [edx-0x7AA60001] ; sal byte [ebx+ebx*8+0x56], 0x00000057 ; push 0x00000000 ; push dword [0x148141C0] ; call dword [0x1480D020] ;  (1 found)
0x148086ad: sal byte [esp+eax-0x02], 0xFFFFFFC8 ; pop ebp ; ret  ;  (1 found)
0x14802698: sal byte [esp+eax-0x75], cl ; retn 0x49EB ;  (1 found)
0x14806736: sal byte [esp+eax-0x75], cl ; retn 0x49EB ;  (1 found)
0x1480b0be: sal dh, 1  ; retn 0x7401 ;  (1 found)
0x14806d91: sal dword [ebp-0x0C], 0x33 ; rcr byte [ebp-0x3D], 0xFFFFFF8B ; call dword [ebp-0x75] ;  (1 found)
0x1480c778: sal dword [ebp-0x13], 0x5F ; leave  ; ret  ;  (1 found)
0x148065eb: sal dword [ebx], 1  ; rcr byte [edi+0x5E], 0x0000005D ; ret  ;  (1 found)
0x1480996a: salc  ; dec esp ; and al, 0x04 ; fld qword [esp+0x04] ; ret  ;  (1 found)
0x148099d1: salc  ; dec esp ; and al, 0x04 ; fld qword [esp+0x04] ; ret  ;  (1 found)
0x1480271a: salc  ; pop esi ; pop ebp ; ret  ;  (1 found)
0x148099f4: salc  ; pop esp ; and al, 0x04 ; fld qword [esp+0x04] ; ret  ;  (1 found)
0x14806163: sar bh, 0x00000075 ; adc byte [ebp+0x0001C504], cl ; add byte [eax], al ; push eax ; push ebx ; call dword [0x1480D0B0] ;  (1 found)
0x14803638: sar byte [ecx+0x14813D3C], 0x00000040 ; xchg dword [ecx], eax ; ret  ;  (1 found)
0x14805995: sar byte [esi], 1  ; adc dword [0x6B2074F6+eax*4], 0x8D5718C6 ; mov eax, 0x14813D68 ; push edi ; call dword [0x1480D080] ;  (1 found)
0x14804601: sar ch, 0xFFFFFFFF ; jmp dword [esi-0x74] ;  (1 found)
0x14805572: sar ebx, 1  ; push ebx ; push esi ; push edi ; push edi ; call dword [0x1480D0B4] ;  (1 found)
0x14805b5b: sar ecx, 0x06 ; imul eax, eax, 0x30 ; add eax, dword [0x14813ED8+ecx*4] ; push eax ; call dword [0x1480D078] ;  (1 found)
0x14805b7e: sar ecx, 0x06 ; imul eax, eax, 0x30 ; add eax, dword [0x14813ED8+ecx*4] ; push eax ; call dword [0x1480D07C] ;  (1 found)
0x1480b9a3: sbb al, 0x24 ; cvttsd2si eax, qword [esp] ; leave  ; ret  ;  (1 found)
0x1480afdb: sbb al, 0x5D ; ret  ;  (1 found)
0x1480a77d: sbb al, 0x5E ; pop ebx ; mov esp, ebp ; pop ebp ; ret  ;  (1 found)
0x1480a961: sbb al, 0x8B ; inc ebp ; or byte [ebx+0x08870CC0], al ; pop ebp ; ret  ;  (1 found)
0x1480bcf0: sbb al, 0xBD ; adc byte [ebx+ecx*4], 0x00000044 ; and al, 0x0C ; pop esi ; pop edi ; ret  ;  (1 found)
0x14808e22: sbb al, 0xD0 ; adc byte [0xE81D75C0+eax*4], 0xFFFFFF9B ; mov ecx, 0xF08BFFFF ; call dword [0x1480D070] ;  (1 found)
0x148011d9: sbb al, 0xD1 ; adc byte [esi+edx*2], 0x00000066 ; mov dword [esp+0x16], eax ; call dword [0x1480D118] ;  (1 found)
0x148011ae: sbb al, byte [ecx-0x000774EC] ; adc eax, 0x1480D13C ; mov ecx, dword [eax+0x0C] ; mov ecx, dword [ecx] ; push dword [ecx] ; call dword [0x1480D120] ;  (1 found)
0x14801159: sbb al, byte [ecx-0x00FF95EC] ; adc eax, 0x1480D10C ; ret  ;  (1 found)
0x1480aea8: sbb al, byte [ecx-0x221F26EC] ; sbb dword [ebx-0x1E16011A], eax ; add byte [eax], al ; add dh, dh ; ret  ;  (1 found)
0x14801158: sbb al, byte [fs:ecx-0x00FF95EC] ; adc eax, 0x1480D10C ; ret  ;  (1 found)
0x1480193f: sbb bl, bl ; mov dword [ebp-0x04], eax ; inc bl ; call dword [0x1480D050] ;  (1 found)
0x14805981: sbb byte [0x14813D80], al ; push eax ; call dword [0x1480D078] ;  (1 found)
0x148059c9: sbb byte [0x14813D80], al ; push eax ; call dword [0x1480D07C] ;  (1 found)
0x14806206: sbb byte [eax+0x56], dl ; push dword [ebp+0x0C] ; call dword [0x1480D100] ;  (1 found)
0x148047c1: sbb byte [eax], al ; add byte [eax], al ; mov dword [eax], esi ; pop esi ; pop ebp ; ret  ;  (1 found)
0x14806a6a: sbb byte [eax], al ; add byte [eax], al ; push eax ; call dword [0x1480D02C] ;  (1 found)
0x14805e93: sbb byte [eax], al ; add byte [ebx+0x5959FC45], cl ; mov eax, dword [eax] ; mov esp, ebp ; pop ebp ; ret  ;  (1 found)
0x148024c8: sbb byte [eax], al ; add byte [ecx+0x5D], bl ; retn 0x0004 ;  (1 found)
0x14808f23: sbb byte [eax], bl ; mov dword [ebp-0x30], eax ; mov eax, dword [ebp+0x14] ; add eax, edi ; mov dword [ebp-0x28], eax ; call dword [0x1480D018] ;  (1 found)
0x148017cc: sbb byte [eax], dh ; adc dword [edi+ebx*2], 0xC033C35E ; inc eax ; ret  ;  (1 found)
0x148091cf: sbb byte [ebx+0x26831445], cl ; add byte [ebx], al ; ret  ;  (1 found)
0x1480a95b: sbb byte [ebx+0x48890845], cl ; sbb al, 0x8B ; inc ebp ; or byte [ebx+0x08870CC0], al ; pop ebp ; ret  ;  (1 found)
0x1480257e: sbb byte [ebx-0x148AFE12], al ; pop edi ; mov al, 0x01 ; pop esi ; ret  ;  (1 found)
0x148059b6: sbb byte [ebx-0x148AFE12], al ; pop edi ; mov al, 0x01 ; pop esi ; ret  ;  (1 found)
0x1480aba6: sbb byte [ebx], dh ; rcr byte [ebp-0x3D], 0xFFFFFF8B ; call dword [ebx-0x75] ;  (1 found)
0x1480237b: sbb byte [edi+0x5E], bl ; pop ebx ; ret  ;  (1 found)
0x14802955: sbb byte [edi+0x5E], bl ; pop ebx ; ret  ;  (1 found)
0x14802567: sbb byte [edi-0x73], dl ; mov eax, 0x14813B64 ; push edi ; call dword [0x1480D080] ;  (1 found)
0x1480599f: sbb byte [edi-0x73], dl ; mov eax, 0x14813D68 ; push edi ; call dword [0x1480D080] ;  (1 found)
0x1480aba4: sbb ch, bl ; sbb byte [ebx], dh ; rcr byte [ebp-0x3D], 0xFFFFFF8B ; call dword [ebx-0x75] ;  (1 found)
0x1480ba3e: sbb cl, bl ; pop esp ; and al, 0x18 ; leave  ; ret  ;  (1 found)
0x1480ba42: sbb cl, cl ; ret  ;  (1 found)
0x148014d7: sbb dword [ebx+0x4A3B0C4D], ecx ; or al, 0x72 ; or cl, byte [ebx+0x42030842] ; or al, 0x3B ; enter 0x0C72, 0x83 ; retn 0x3B28 ;  (1 found)
0x1480aeae: sbb dword [ebx-0x1E16011A], eax ; add byte [eax], al ; add dh, dh ; ret  ;  (1 found)
0x14809996: sbb dword [ebx], ecx ; add byte [eax], al ; add esp, 0x10 ; fld qword [esp+0x04] ; ret  ;  (1 found)
0x14807d0f: sbb dword [edi+0x52], edx ; mov ecx, ebx ; call dword [0x1480D144] ;  (1 found)
0x148011ad: sbb dword [edx], 0xFFFFFF81 ; adc al, 0x8B ; clc  ; call dword [0x1480D13C] ;  (1 found)
0x148099ed: sbb eax, 0x14810E10 ; movq qword [esp+0x04], xmm3 ; fld qword [esp+0x04] ; ret  ;  (1 found)
0x148099e4: sbb eax, 0x14810E30 ; push es ; andpd xmm3,  [0x14810E10] ; movq qword [esp+0x04], xmm3 ; fld qword [esp+0x04] ; ret  ;  (1 found)
0x148026b0: sbb eax, 0x500C75FF ; call dword [0x1480D09C] ;  (1 found)
0x1480674e: sbb eax, 0x500C75FF ; call dword [0x1480D09C] ;  (1 found)
0x1480596f: sbb eax, 0x59000000 ; xor al, al ; pop edi ; pop esi ; ret  ;  (1 found)
0x14809550: sbb eax, 0x59FFFFC6 ; ret  ;  (1 found)
0x148011cf: sbb eax, dword [eax] ; add byte [esi-0x77], ah ; inc esp ; and al, 0x14 ; call dword [0x1480D11C] ;  (1 found)
0x14804795: sbb eax, eax ; and eax, ecx ; add eax, 0x08 ; pop ebp ; ret  ;  (1 found)
0x148057bb: sbb eax, eax ; and eax, ecx ; mov byte [ecx-0x01], bl ; push eax ; push esi ; call dword [0x1480D0F4] ;  (1 found)
0x1480172a: sbb eax, eax ; neg eax ; dec eax ; pop ebp ; ret  ;  (1 found)
0x14804802: sbb eax, eax ; neg eax ; pop ebp ; ret  ;  (1 found)
0x148075ac: sbb eax, eax ; neg eax ; pop ebp ; ret  ;  (1 found)
0x14802b69: sbb eax, eax ; neg eax ; ret  ;  (1 found)
0x14801713: sbb eax, eax ; not eax ; and eax, dword [ebp+0x08] ; pop ebp ; ret  ;  (1 found)
0x1480b2c3: sbb ebp, ebx ; add eax, 0xDD5041DD ; sbb ebx, dword [edi+0x5B] ; pop ebp ; ret  ;  (1 found)
0x1480b2ca: sbb ebx, dword [edi+0x5B] ; pop ebp ; ret  ;  (1 found)
0x1480b595: sbb ecx, ecx ; and ecx, 0xFFFFFF08 ; lea eax, dword [ecx+0x00000100] ; pop ebp ; ret  ;  (1 found)
0x1480b56c: sbb ecx, ecx ; and ecx, 0xFFFFFF90 ; lea eax, dword [ecx+0x00000080] ; pop ebp ; ret  ;  (1 found)
0x1480b589: sbb ecx, ecx ; and ecx, 0xFFFFFFE0 ; lea eax, dword [ecx+0x40] ; pop ebp ; ret  ;  (1 found)
0x1480b946: sbb edx, 0x00000000 ; pop ebp ; pop esi ; pop edi ; retn 0x0010 ;  (1 found)
0x14809f84: scasb  ; fyl2x  ; ret  ;  (1 found)
0x1480a014: scasd  ; fstp st0 ; fld tword [0x14810F60] ; ret  ;  (1 found)
0x14807822: scasd  ; pop edi ; xor eax, eax ; pop esi ; ret  ;  (1 found)
0x14803382: sete al ; pop ebp ; ret  ;  (1 found)
0x1480b6ec: sete al ; pop ebp ; ret  ;  (1 found)
0x1480afb3: sete al ; pop ebx ; mov esp, ebp ; pop ebp ; ret  ;  (1 found)
0x1480183f: sete al ; ret  ;  (1 found)
0x14801684: sete cl ; mov eax, ecx ; ret  ;  (1 found)
0x14807f8d: sete cl ; mov eax, ecx ; ret  ;  (1 found)
0x1480b696: sete cl ; mov eax, ecx ; ret  ;  (1 found)
0x14807fe1: setne al ; lea eax, dword [0x00000001+eax*8] ; push eax ; push edi ; call dword [0x1480D0B0] ;  (1 found)
0x1480918c: setne al ; pop edi ; pop esi ; mov esp, ebp ; pop ebp ; ret  ;  (1 found)
0x14806161: setne al ; push dword [ebp+0x10] ; lea eax, dword [0x00000001+eax*8] ; push eax ; push ebx ; call dword [0x1480D0B0] ;  (1 found)
0x14801d39: setne al ; ret  ;  (1 found)
0x1480346f: setne al ; ret  ;  (1 found)
0x14806bc5: setne al ; ret  ;  (1 found)
0x1480a9a6: setne al ; ret  ;  (1 found)
0x1480787d: shl byte [eax], 0x00000050 ; call dword [0x1480D078] ;  (1 found)
0x14807891: shl byte [eax], 0x00000050 ; call dword [0x1480D07C] ;  (1 found)
0x1480892b: shl byte [eax], 0x00000050 ; call dword [0x1480D080] ;  (1 found)
0x1480784e: shl byte [eax], 0x00000050 ; call dword [0x1480D080] ;  (1 found)
0x14804796: shl byte [ebx], 0xFFFFFFC1 ; add eax, 0x08 ; pop ebp ; ret  ;  (1 found)
0x148057bc: shl byte [ebx], 0xFFFFFFC1 ; mov byte [ecx-0x01], bl ; push eax ; push esi ; call dword [0x1480D0F4] ;  (1 found)
0x14806d59: shl byte [ebx], 1  ; retn 0x0D74 ;  (1 found)
0x14807966: shl dword [ebx-0x1A740001], cl ; pop ebp ; ret  ;  (1 found)
0x14809ca0: shl dword [esi+0x0F], 0x56 ; ret  ;  (1 found)
0x14809df9: shl dword [esi+0x0F], 0x56 ; retn 0x0FF2 ;  (1 found)
0x1480b97d: shl eax, cl ; ret  ;  (1 found)
0x1480b987: shl edx, cl ; ret  ;  (1 found)
0x1480b97a: shld edx, eax, cl ; shl eax, cl ; ret  ;  (1 found)
0x14806fff: shr al, 0xFFFFFFE4 ; inc edi ; add byte [eax], al ; ret  ;  (1 found)
0x1480c7de: shr bl, 0x00000002 ; mov eax, edi ; cld  ; pop edi ; leave  ; ret  ;  (1 found)
0x14802bab: shr bl, 0x0000000E ; push dword [ebp+0x08] ; mov ecx, esi ; call dword [0x1480D144] ;  (1 found)
0x14809172: shr bl, 0x0000001A ; lea eax, dword [ebp-0x04] ; push eax ; mov eax, dword [0x14813ED8+edi*4] ; push dword [eax+esi+0x18] ; call dword [0x1480D014] ;  (1 found)
0x1480b967: shr eax, cl ; ret  ;  (1 found)
0x1480bccd: shr ecx, 0x02 ; rep movsd  ; and edx, 0x03 ; jmp dword [0x1480BCE4+edx*4] ;  (1 found)
0x1480c37d: shr ecx, 0x02 ; rep movsd  ; and edx, 0x03 ; jmp dword [0x1480C394+edx*4] ;  (1 found)
0x148086b4: shr ecx, 0x0B ; and cl, 0x00000001 ; mov al, cl ; pop ebp ; ret  ;  (1 found)
0x1480b95d: shr edx, cl ; ret  ;  (1 found)
0x1480b95a: shrd eax, edx, cl ; shr edx, cl ; ret  ;  (1 found)
0x1480b976: stc  ; and byte [ebx+0x06], dh ; shld edx, eax, cl ; shl eax, cl ; ret  ;  (1 found)
0x1480b956: stc  ; and byte [ebx+0x06], dh ; shrd eax, edx, cl ; shr edx, cl ; ret  ;  (1 found)
0x14807afe: stc  ; push edi ; push ecx ; mov ecx, ebx ; call dword [0x1480D144] ;  (1 found)
0x14805b5c: stc  ; push es ; imul eax, eax, 0x30 ; add eax, dword [0x14813ED8+ecx*4] ; push eax ; call dword [0x1480D078] ;  (1 found)
0x14805b7f: stc  ; push es ; imul eax, eax, 0x30 ; add eax, dword [0x14813ED8+ecx*4] ; push eax ; call dword [0x1480D07C] ;  (1 found)
0x14809412: std  ; add byte [eax], al ; call dword [0x1480D0B4] ;  (1 found)
0x1480a2e1: std  ; fstp st1 ; ret  ;  (1 found)
0x148054f6: std  ; mov eax, edx ; mov esp, ebp ; pop ebp ; ret  ;  (1 found)
0x1480758d: std  ; mov eax, edx ; pop ebx ; mov esp, ebp ; pop ebp ; ret  ;  (1 found)
0x14807f7c: std  ; mov eax, esi ; pop esi ; mov esp, ebp ; pop ebp ; ret  ;  (1 found)
0x14804e23: std  ; mov esp, ebp ; pop ebp ; ret  ;  (1 found)
0x14808dd2: std  ; mov esp, ebp ; pop ebp ; ret  ;  (1 found)
0x148088c7: std  ; mov esp, ebp ; pop ebp ; ret  ;  (1 found)
0x148081eb: std  ; mov esp, ebp ; pop ebp ; ret  ;  (1 found)
0x14809a74: std  ; pop edi ; pop esi ; mov esp, ebp ; pop ebp ; ret  ;  (1 found)
0x1480c11f: std  ; pop esi ; pop edi ; pop ebx ; ret  ;  (1 found)
0x1480bd84: std  ; rep movsd  ; cld  ; jmp dword [0x1480BD90+edx*4] ;  (1 found)
0x1480c434: std  ; rep movsd  ; cld  ; jmp dword [0x1480C440+edx*4] ;  (1 found)
0x14804494: sti  ; mov eax, edi ; pop edi ; pop esi ; pop ebx ; ret  ;  (1 found)
0x14805573: sti  ; push ebx ; push esi ; push edi ; push edi ; call dword [0x1480D0B4] ;  (1 found)
0x148052b0: stosb  ; add byte [eax], al ; add byte [ebp+0x5350E845], cl ; call dword [0x1480D0E8] ;  (1 found)
0x148020dd: stosb  ; mov eax, dword [esp+0x04] ; mov edi, edx ; ret  ;  (1 found)
0x148030d6: stosd  ; xor eax, eax ; pop esi ; pop ebx ; pop edi ; ret  ;  (1 found)
0x1480b9a7: sub al, 0x04 ; and al, 0xC9 ; ret  ;  (1 found)
0x148036f0: sub al, 0x10 ; add byte [eax], al ; or eax, 0xFFFFFFFF ; pop ebp ; ret  ;  (1 found)
0x1480a34a: sub al, 0x24 ; add esp, 0x0A ; test eax, 0x00000000 ; mov eax, dword [edx+0x04] ; ret  ;  (1 found)
0x1480a377: sub al, 0x24 ; pop edx ; ret  ;  (1 found)
0x1480a3a1: sub al, 0x24 ; pop edx ; ret  ;  (1 found)
0x1480a406: sub al, 0x24 ; pop edx ; ret  ;  (1 found)
0x14803c48: sub al, 0x3D ; adc dword [eax+esi*4], 0xE58B5E01 ; pop ebp ; ret  ;  (1 found)
0x1480799a: sub bl, ch ; add ecx, dword [ebp+0x4D8B0049] ; adc al, 0x57 ; push esi ; call dword [0x1480D144] ;  (1 found)
0x1480287d: sub byte [eax+0x0875FF14], al ; call dword [0x1480D06C] ;  (1 found)
0x14806124: sub byte [esi+0x5D], bl ; ret  ;  (1 found)
0x1480bcc8: sub byte [esi-0x3EFFFFFE], 0xFFFFFFE9 ; add dh, bl ; movsd  ; and edx, 0x03 ; jmp dword [0x1480BCE4+edx*4] ;  (1 found)
0x1480c378: sub byte [esi-0x3EFFFFFE], 0xFFFFFFE9 ; add dh, bl ; movsd  ; and edx, 0x03 ; jmp dword [0x1480C394+edx*4] ;  (1 found)
0x14809a73: sub ch, bh ; pop edi ; pop esi ; mov esp, ebp ; pop ebp ; ret  ;  (1 found)
0x14809f3d: sub eax, 0x14810F60 ; mov byte [ebp-0x00000090], 0x00000002 ; ret  ;  (1 found)
0x1480a004: sub eax, 0x14810F60 ; mov byte [ebp-0x00000090], 0x00000003 ; ret  ;  (1 found)
0x1480a018: sub eax, 0x14810F60 ; ret  ;  (1 found)
0x14809f6e: sub eax, 0x14810F6A ; ret  ;  (1 found)
0x14803d67: sub eax, 0x6A0875FF ; add bh, bh ; xor eax, 0x148141C0 ; call dword [0x1480D0CC] ;  (1 found)
0x14803f15: sub eax, ecx ; pop esi ; pop ebp ; ret  ;  (1 found)
0x1480bc91: sub ecx, 0x08 ; lea esi, dword [esi+0x08] ; movq qword [edi], xmm1 ; lea edi, dword [edi+0x08] ; mov eax, dword [0x1480BCE4+ecx*4] ; jmp eax ;  (1 found)
0x1480c341: sub ecx, 0x08 ; lea esi, dword [esi+0x08] ; movq qword [edi], xmm1 ; lea edi, dword [edi+0x08] ; mov eax, dword [0x1480C394+ecx*4] ; jmp eax ;  (1 found)
0x14802597: sub ecx, eax ; mov eax, dword [ebp+0x08] ; ror eax, cl ; xor eax, dword [0x14813014] ; pop ebp ; ret  ;  (1 found)
0x14802b46: sub ecx, eax ; mov eax, dword [ebp+0x08] ; ror eax, cl ; xor eax, dword [0x14813014] ; pop ebp ; ret  ;  (1 found)
0x1480285a: sub ecx, eax ; xor eax, eax ; ror eax, cl ; xor eax, dword [0x14813014] ; mov dword [0x14813BB8], eax ; ret  ;  (1 found)
0x1480bd81: sub edi, 0x04 ; std  ; rep movsd  ; cld  ; jmp dword [0x1480BD90+edx*4] ;  (1 found)
0x1480c431: sub edi, 0x04 ; std  ; rep movsd  ; cld  ; jmp dword [0x1480C440+edx*4] ;  (1 found)
0x1480bd7e: sub esi, 0x04 ; sub edi, 0x04 ; std  ; rep movsd  ; cld  ; jmp dword [0x1480BD90+edx*4] ;  (1 found)
0x1480c42e: sub esi, 0x04 ; sub edi, 0x04 ; std  ; rep movsd  ; cld  ; jmp dword [0x1480C440+edx*4] ;  (1 found)
0x1480b99c: sub esp, 0x08 ; and esp, 0xFFFFFFF8 ; fstp qword [esp] ; cvttsd2si eax, qword [esp] ; leave  ; ret  ;  (1 found)
0x14801734: sub esp, 0x14 ; and dword [ebp-0x0C], 0x00000000 ; lea eax, dword [ebp-0x0C] ; and dword [ebp-0x08], 0x00000000 ; push eax ; call dword [0x1480D040] ;  (1 found)
0x14805c94: sub esp, 0x48 ; lea eax, dword [ebp-0x48] ; push eax ; call dword [0x1480D054] ;  (1 found)
0x14803292: sub esp, dword [edi] ; add byte [eax], al ; pop ecx ; ret  ;  (1 found)
0x14801917: test al, 0x15 ; add byte [eax], al ; inc eax ; mov dword [ebp-0x54], 0x00000001 ; mov dword [ebp-0x4C], eax ; call dword [0x1480D048] ;  (1 found)
0x14807f8b: test al, al ; sete cl ; mov eax, ecx ; ret  ;  (1 found)
0x14805291: test al, cl ; add byte [eax], al ; add byte [ecx+0x00FDE9FB], al ; add byte [edi], cl ; test byte [eax+eax-0x48F10000], bh ; ret  ;  (1 found)
0x148027dc: test al, dl ; adc byte [esi+ebx*2], 0x0000005D ; ret  ;  (1 found)
0x14804ef8: test byte [0xFFFFFEFC], al ; and byte [eax+0x3B], al ; retn 0xEF76 ;  (1 found)
0x1480529d: test byte [eax+eax-0x48F10000], bh ; ret  ;  (1 found)
0x14802095: test byte [edi], al ; add byte [eax], al ; pop ecx ; mov al, 0x01 ; pop ebp ; ret  ;  (1 found)
0x14805a02: test byte [esi-0x75], 0xFFFFFFC6 ; pop esi ; mov esp, ebp ; pop ebp ; ret  ;  (1 found)
0x14801b00: test byte [esi], 0x00000000 ; add byte [ecx+0x59], bl ; mov eax, esi ; pop esi ; pop ebp ; retn 0x0004 ;  (1 found)
0x1480a777: test dword [0xC4830000], eax ; sbb al, 0x5E ; pop ebx ; mov esp, ebp ; pop ebp ; ret  ;  (1 found)
0x14804138: test dword [eax], ebx ; add byte [eax], al ; pop ecx ; ret  ;  (1 found)
0x1480bfa5: test dword [ebp+0x000024A4], 0x498D0000 ; add byte [ebx+0x5E0C2444], cl ; pop edi ; ret  ;  (1 found)
0x1480c655: test dword [ebp+0x000024A4], 0x498D0000 ; add byte [ebx+0x5E0C2444], cl ; pop edi ; ret  ;  (1 found)
0x14808d2c: test dword [ebp+0x513274F6], 0x75FF5356 ; fsubr qword [edx+0x01] ; push dword [ebp+0x24] ; call dword [0x1480D0B0] ;  (1 found)
0x14806ba1: test dword [ebp+0x6A563B04], 0xF2E85000 ; mov ah, 0xFF ; inc dword [ebx-0x74A0F33C] ; ret  ;  (1 found)
0x14803597: test dword [ecx], edx ; add byte [eax], al ; push 0x00000016 ; pop eax ; pop ebp ; ret  ;  (1 found)
0x1480ac5d: test dword [edi+edi*8-0x01], edi ; call dword [eax-0x73] ;  (1 found)
0x14804bd5: test dword [esi+edi*8+0x5650FFFF], edi ; call dword [0x1480D0DC] ;  (1 found)
0x14804b3f: test dword [esi+edi*8+0x5757FFFF], edi ; push edi ; push eax ; push edi ; push ebx ; call dword [0x1480D0D8] ;  (1 found)
0x1480a34f: test eax, 0x00000000 ; mov eax, dword [edx+0x04] ; ret  ;  (1 found)
0x14805ab0: test eax, 0x59FFFFE2 ; pop edi ; pop ebx ; pop esi ; pop ebp ; ret  ;  (1 found)
0x14806bbe: test eax, eax ; mov dword [0x148141C0], eax ; setne al ; ret  ;  (1 found)
0x148084a5: test eax, ebx ; adc dword [edi+ecx], 0x280844B6 ; and eax, 0x40 ; pop ebp ; ret  ;  (1 found)
0x148083e2: test ebx, 0x00C7FFFF ; push ss ; add byte [eax], al ; add al, ch ; das  ; ret  ;  (1 found)
0x1480c735: test ecx, ecx ; cmove eax, edx ; pop edi ; leave  ; ret  ;  (1 found)
0x1480112a: test esp, esp ; idiv edi ; call dword [eax-0x18] ;  (1 found)
0x1480a055: wait  ; fstsw word [ebp-0x000000A0] ; fabs  ; f2xm1  ; ret  ;  (1 found)
0x14808887: wait  ; fstsw word [ebp-0x04] ; movsx eax, word [ebp-0x04] ; mov esp, ebp ; pop ebp ; ret  ;  (1 found)
0x14808e2b: wait  ; mov ecx, 0xF08BFFFF ; call dword [0x1480D070] ;  (1 found)
0x1480887c: wait  ; mov esp, ebp ; pop ebp ; ret  ;  (1 found)
0x14806499: xadd dword [ecx+0x000000B0], eax ; dec eax ; pop ebp ; ret  ;  (1 found)
0x14806440: xadd dword [ecx+0x000000B0], eax ; inc eax ; pop ebp ; ret  ;  (1 found)
0x1480a968: xchg dword [eax], ecx ; pop ebp ; ret  ;  (1 found)
0x148016b5: xchg dword [ecx], eax ; pop ebp ; ret  ;  (1 found)
0x148036fe: xchg dword [ecx], eax ; pop ebp ; ret  ;  (1 found)
0x1480363f: xchg dword [ecx], eax ; ret  ;  (1 found)
0x148035a5: xchg dword [ecx], eax ; xor eax, eax ; pop ebp ; ret  ;  (1 found)
0x14804bd3: xchg eax, ebp ; lea eax, dword [ebp-0x00000144] ; push eax ; push esi ; call dword [0x1480D0DC] ;  (1 found)
0x1480918d: xchg eax, ebp ; rcr byte [edi+0x5E], 0xFFFFFF8B ; in eax, 0x5D ; ret  ;  (1 found)
0x14803470: xchg eax, ebp ; rol bl, 0xFFFFFF8B ; call dword [ebp-0x75] ;  (1 found)
0x14807fe2: xchg eax, ebp ; ror byte [ebp+0x0001C504], 0x00000000 ; add byte [eax+0x57], dl ; call dword [0x1480D0B0] ;  (1 found)
0x1480c387: xchg eax, ebp ; xchg eax, esp ; ret  ;  (1 found)
0x1480c10e: xchg eax, ecx ; pop esi ; pop edi ; lea eax, dword [edx-0x01] ; pop ebx ; ret  ;  (1 found)
0x14807aa7: xchg eax, edx ; mov byte [0xE58BFFFF], al ; pop ebp ; ret  ;  (1 found)
0x148024c7: xchg eax, edx ; sbb byte [eax], al ; add byte [ecx+0x5D], bl ; retn 0x0004 ;  (1 found)
0x14808394: xchg eax, esp ; inc byte [eax+0x5B5E5F14] ; mov esp, ebp ; pop ebp ; ret  ;  (1 found)
0x14802e0f: xchg eax, esp ; inc ebp ; call ecx ;  (1 found)
0x1480ba6c: xchg eax, esp ; mov eax, dword [eax] ; mov dword [esp], eax ; ret  ;  (1 found)
0x14803383: xchg eax, esp ; rcr byte [ebp-0x3D], 0xFFFFFF8B ; call dword [ebp-0x75] ;  (1 found)
0x1480afb4: xchg eax, esp ; rcr byte [ebx-0x75], 0xFFFFFFE5 ; pop ebp ; ret  ;  (1 found)
0x1480c351: xchg eax, esp ; ret  ;  (1 found)
0x1480c388: xchg eax, esp ; ret  ;  (1 found)
0x14806ee7: xchg eax, esp ; retn 0x5589 ;  (1 found)
0x14801b12: xchg eax, esp ; rol dword [eax+0x41E85014], 1  ; pop es ; add byte [eax], al ; pop ecx ; ret  ;  (1 found)
0x148035bd: xor al, 0x3D ; adc dword [eax+esi*4], 0x01B0C301 ; ret  ;  (1 found)
0x1480109a: xor al, 0xD1 ; adc byte [ecx+ecx*4], 0x00000045 ; in al, dx ; mov edx, dword [ebp+0x08] ; push edx ; call dword [0x1480D130] ;  (1 found)
0x14805cfd: xor al, 0xF6 ; retn 0x7508 ;  (1 found)
0x1480154d: xor al, al ; pop ebp ; ret  ;  (1 found)
0x14808675: xor al, al ; pop ebp ; ret  ;  (1 found)
0x14802555: xor al, al ; pop edi ; pop esi ; ret  ;  (1 found)
0x14805974: xor al, al ; pop edi ; pop esi ; ret  ;  (1 found)
0x14801526: xor al, al ; pop esi ; ret  ;  (1 found)
0x14801527: xor al, al ; pop esi ; ret  ;  (1 found)
0x14801503: xor al, al ; ret  ;  (1 found)
0x14802069: xor al, al ; ret  ;  (1 found)
0x148024e5: xor al, al ; ret  ;  (1 found)
0x1480343d: xor al, al ; ret  ;  (1 found)
0x14804529: xor al, al ; ret  ;  (1 found)
0x148040e6: xor al, ch ; aad 0x18 ; add byte [eax], al ; pop ecx ; ret  ;  (1 found)
0x1480409b: xor al, ch ; and byte [ecx], bl ; add byte [eax], al ; pop ecx ; ret  ;  (1 found)
0x14803806: xor al, ch ; mov ch, 0x21 ; add byte [eax], al ; pop ecx ; ret  ;  (1 found)
0x1480362f: xor al, ch ; mov word [ebx], fs ; add byte [eax], al ; pop ecx ; ret  ;  (1 found)
0x14803290: xor al, ch ; sub esp, dword [edi] ; add byte [eax], al ; pop ecx ; ret  ;  (1 found)
0x14804136: xor al, ch ; test dword [eax], ebx ; add byte [eax], al ; pop ecx ; ret  ;  (1 found)
0x148035b2: xor byte [0x15FF1481], bh ; les edx, eax ; adc byte [ebx], 0x00000034 ; cmp eax, 0x01B01481 ; ret  ;  (1 found)
0x1480bac7: xor byte [eax], bh ; adc dword [ecx+eax], 0xA4F30973 ; mov eax, dword [esp+0x0C] ; pop esi ; pop edi ; ret  ;  (1 found)
0x1480c177: xor byte [eax], bh ; adc dword [ecx+eax], 0xA4F30973 ; mov eax, dword [esp+0x0C] ; pop esi ; pop edi ; ret  ;  (1 found)
0x148020d5: xor byte [eax], bh ; adc dword [ecx+eax], 0xAAF30973 ; mov eax, dword [esp+0x04] ; mov edi, edx ; ret  ;  (1 found)
0x14809182: xor byte [eax], bl ; call dword [0x1480D014] ;  (1 found)
0x1480c0d9: xor byte [ebp-0x3C], 0x0000005E ; pop edi ; pop ebx ; xor eax, eax ; ret  ;  (1 found)
0x148084a2: xor byte [ebx+0x3ED88504], cl ; adc dword [edi+ecx], 0x280844B6 ; and eax, 0x40 ; pop ebp ; ret  ;  (1 found)
0x14804554: xor byte [ecx+0x01B0FF14], al ; ret  ;  (1 found)
0x14801d40: xor byte [ecx+0x0275F214], al ; ret  ;  (1 found)
0x14803e53: xor byte [ecx+0x22740214], al ; push 0x00000017 ; call dword [0x1480D058] ;  (1 found)
0x148026e0: xor byte [ecx+0x333B8714], al ; rcr byte [esi+0x5F], 0x0000005B ; pop ebp ; ret  ;  (1 found)
0x1480677e: xor byte [ecx+0x333B8714], al ; rcr byte [esi+0x5F], 0x0000005B ; pop ebp ; ret  ;  (1 found)
0x14801d27: xor byte [ecx+0x5BC03314], al ; mov esp, ebp ; pop ebp ; ret  ;  (1 found)
0x148024dc: xor byte [ecx-0x077CA6EC], al ; push dword [ebp+0x03] ; xor al, al ; ret  ;  (1 found)
0x148017cd: xor byte [ecx-0x3CA1A0EC], al ; xor eax, eax ; inc eax ; ret  ;  (1 found)
0x1480183c: xor byte [ecx-0x3F6BF0EC], al ; ret  ;  (1 found)
0x148017c5: xor byte [ecx-0x762E08EC], al ; or eax, 0x14813018 ; pop edi ; pop esi ; ret  ;  (1 found)
0x148047c6: xor byte [esi+0x5D], bl ; ret  ;  (1 found)
0x14809962: xor cl, byte [eax+eax] ; add byte [edi+0x0B], bh ; movq qword [esp+0x04], xmm1 ; fld qword [esp+0x04] ; ret  ;  (1 found)
0x14808d30: xor dl, byte [ecx+0x56] ; push ebx ; push dword [ebp-0x24] ; push 0x00000001 ; push dword [ebp+0x24] ; call dword [0x1480D0B0] ;  (1 found)
0x14801758: xor dword [ebp-0x04], eax ; call dword [0x1480D038] ;  (1 found)
0x14801761: xor dword [ebp-0x04], eax ; lea eax, dword [ebp-0x14] ; push eax ; call dword [0x1480D034] ;  (1 found)
0x14806a08: xor dword [ebx-0x1A740001], esi ; pop ebp ; retn 0x000C ;  (1 found)
0x1480a9d3: xor eax, 0x14813750 ; call dword [0x1480D104] ;  (1 found)
0x1480aa04: xor eax, 0x14813750 ; call dword [0x1480D104] ;  (1 found)
0x14803c47: xor eax, 0x14813D2C ; mov al, 0x01 ; pop esi ; mov esp, ebp ; pop ebp ; ret  ;  (1 found)
0x14808461: xor eax, 0x148141C0 ; call dword [0x1480D020] ;  (1 found)
0x148083fc: xor eax, 0x148141C0 ; call dword [0x1480D024] ;  (1 found)
0x14803d6e: xor eax, 0x148141C0 ; call dword [0x1480D0CC] ;  (1 found)
0x14803dc4: xor eax, 0x148141C0 ; call dword [0x1480D0D0] ;  (1 found)
0x14803ebf: xor eax, 0x148141C0 ; call dword [0x1480D0D0] ;  (1 found)
0x1480a4d1: xor eax, 0x14814200 ; call dword [0x1480D00C] ;  (1 found)
0x14803b77: xor eax, 0xDCB91481 ; inc eax ; adc dword [eax+ebp*8], 0x000031BB ; mov al, 0x01 ; ret  ;  (1 found)
0x14802860: xor eax, dword [0x14813014] ; mov dword [0x14813BB8], eax ; ret  ;  (1 found)
0x1480259e: xor eax, dword [0x14813014] ; pop ebp ; ret  ;  (1 found)
0x14802b4d: xor eax, dword [0x14813014] ; pop ebp ; ret  ;  (1 found)
0x14803cfa: xor eax, dword [eax] ; add byte [ecx+0x59], bl ; xor eax, eax ; pop esi ; pop ebp ; ret  ;  (1 found)
0x14801777: xor eax, dword [ebp-0x04] ; xor eax, ecx ; mov esp, ebp ; pop ebp ; ret  ;  (1 found)
0x1480174c: xor eax, dword [ebp-0x0C] ; mov dword [ebp-0x04], eax ; call dword [0x1480D03C] ;  (1 found)
0x14801774: xor eax, dword [ebp-0x14] ; xor eax, dword [ebp-0x04] ; xor eax, ecx ; mov esp, ebp ; pop ebp ; ret  ;  (1 found)
0x1480b982: xor eax, eax ; and cl, 0x0000001F ; shl edx, cl ; ret  ;  (1 found)
0x14801837: xor eax, eax ; cmp dword [0x14813004], eax ; sete al ; ret  ;  (1 found)
0x14801d31: xor eax, eax ; cmp dword [0x148141F0], eax ; setne al ; ret  ;  (1 found)
0x14803379: xor eax, eax ; cmp dword [ebp+0x08], 0xE06D7363 ; sete al ; pop ebp ; ret  ;  (1 found)
0x1480a9a1: xor eax, eax ; cmp ecx, 0xFFFFFFFF ; setne al ; ret  ;  (1 found)
0x1480643c: xor eax, eax ; inc eax ; lock xadd dword [ecx+0x000000B0], eax ; inc eax ; pop ebp ; ret  ;  (1 found)
0x1480ace0: xor eax, eax ; inc eax ; pop ebp ; ret  ;  (1 found)
0x1480b538: xor eax, eax ; inc eax ; pop ebp ; ret  ;  (1 found)
0x148017d3: xor eax, eax ; inc eax ; ret  ;  (1 found)
0x14803d2c: xor eax, eax ; inc eax ; ret  ;  (1 found)
0x148087b8: xor eax, eax ; inc eax ; ret  ;  (1 found)
0x148016ae: xor eax, eax ; mov ecx, 0x148137EC ; xchg dword [ecx], eax ; pop ebp ; ret  ;  (1 found)
0x14803637: xor eax, eax ; mov ecx, 0x14813D3C ; inc eax ; xchg dword [ecx], eax ; ret  ;  (1 found)
0x14808ae4: xor eax, eax ; mov esp, ebp ; pop ebp ; ret  ;  (1 found)
0x1480aa7a: xor eax, eax ; mov esp, ebp ; pop ebp ; ret  ;  (1 found)
0x148035a7: xor eax, eax ; pop ebp ; ret  ;  (1 found)
0x14804d95: xor eax, eax ; pop ebp ; ret  ;  (1 found)
0x14806d1f: xor eax, eax ; pop ebp ; ret  ;  (1 found)
0x14806d94: xor eax, eax ; pop ebp ; ret  ;  (1 found)
0x148083c7: xor eax, eax ; pop ebp ; ret  ;  (1 found)
0x148084c4: xor eax, eax ; pop ebp ; ret  ;  (1 found)
0x1480aba7: xor eax, eax ; pop ebp ; ret  ;  (1 found)
0x1480b4fd: xor eax, eax ; pop ebp ; ret  ;  (1 found)
0x1480b6d0: xor eax, eax ; pop ebp ; ret  ;  (1 found)
0x148019ac: xor eax, eax ; pop ebp ; retn 0x0004 ;  (1 found)
0x14801d2a: xor eax, eax ; pop ebx ; mov esp, ebp ; pop ebp ; ret  ;  (1 found)
0x148065ec: xor eax, eax ; pop edi ; pop esi ; pop ebp ; ret  ;  (1 found)
0x1480871b: xor eax, eax ; pop edi ; pop esi ; pop ebp ; ret  ;  (1 found)
0x1480a92b: xor eax, eax ; pop edi ; pop esi ; pop ebp ; ret  ;  (1 found)
0x1480b5ec: xor eax, eax ; pop edi ; pop esi ; pop ebx ; pop ebp ; ret  ;  (1 found)
0x148014f1: xor eax, eax ; pop esi ; pop ebp ; ret  ;  (1 found)
0x14803b3b: xor eax, eax ; pop esi ; pop ebp ; ret  ;  (1 found)
0x14803cff: xor eax, eax ; pop esi ; pop ebp ; ret  ;  (1 found)
0x14803de0: xor eax, eax ; pop esi ; pop ebp ; ret  ;  (1 found)
0x14803edb: xor eax, eax ; pop esi ; pop ebp ; ret  ;  (1 found)
0x14808763: xor eax, eax ; pop esi ; pop ebp ; ret  ;  (1 found)
0x148075f5: xor eax, eax ; pop esi ; pop ebx ; mov esp, ebp ; pop ebp ; ret  ;  (1 found)
0x148030d7: xor eax, eax ; pop esi ; pop ebx ; pop edi ; ret  ;  (1 found)
0x14808442: xor eax, eax ; pop esi ; pop edi ; pop ebp ; ret  ;  (1 found)
0x148026e5: xor eax, eax ; pop esi ; pop edi ; pop ebx ; pop ebp ; ret  ;  (1 found)
0x14806783: xor eax, eax ; pop esi ; pop edi ; pop ebx ; pop ebp ; ret  ;  (1 found)
0x14807824: xor eax, eax ; pop esi ; ret  ;  (1 found)
0x148012f9: xor eax, eax ; ret  ;  (1 found)
0x148012e9: xor eax, eax ; ret  ;  (1 found)
0x148017d7: xor eax, eax ; ret  ;  (1 found)
0x14802ef6: xor eax, eax ; ret  ;  (1 found)
0x14802f1a: xor eax, eax ; ret  ;  (1 found)
0x148087b5: xor eax, eax ; ret  ;  (1 found)
0x14809c32: xor eax, eax ; ret  ;  (1 found)
0x1480c0df: xor eax, eax ; ret  ;  (1 found)
0x1480285c: xor eax, eax ; ror eax, cl ; xor eax, dword [0x14813014] ; mov dword [0x14813BB8], eax ; ret  ;  (1 found)
0x14802415: xor eax, eax ; xor ebx, ebx ; xor ecx, ecx ; xor edx, edx ; xor edi, edi ; jmp esi ;  (1 found)
0x148023f6: xor eax, eax ; xor ebx, ebx ; xor edx, edx ; xor esi, esi ; xor edi, edi ; call ecx ;  (1 found)
0x1480b96a: xor eax, eax ; xor edx, edx ; ret  ;  (1 found)
0x1480b98a: xor eax, eax ; xor edx, edx ; ret  ;  (1 found)
0x1480177a: xor eax, ecx ; mov esp, ebp ; pop ebp ; ret  ;  (1 found)
0x148030b2: xor ebx, ebx ; push ebx ; push ebx ; call dword [0x1480D0B4] ;  (1 found)
0x14802417: xor ebx, ebx ; xor ecx, ecx ; xor edx, edx ; xor edi, edi ; jmp esi ;  (1 found)
0x148023f8: xor ebx, ebx ; xor edx, edx ; xor esi, esi ; xor edi, edi ; call ecx ;  (1 found)
0x1480c060: xor ecx, ecx ; cmp dl, byte [eax] ; cmovne eax, ecx ; ret  ;  (1 found)
0x1480167c: xor ecx, ecx ; cmp dword [eax], 0xC0000005 ; sete cl ; mov eax, ecx ; ret  ;  (1 found)
0x1480b68e: xor ecx, ecx ; cmp dword [eax], 0xC0000005 ; sete cl ; mov eax, ecx ; ret  ;  (1 found)
0x14807f89: xor ecx, ecx ; test al, al ; sete cl ; mov eax, ecx ; ret  ;  (1 found)
0x14802419: xor ecx, ecx ; xor edx, edx ; xor edi, edi ; jmp esi ;  (1 found)
0x148023fe: xor edi, edi ; call ecx ;  (1 found)
0x1480241d: xor edi, edi ; jmp esi ;  (1 found)
0x14802c28: xor edi, edi ; push esi ; push edi ; call dword [0x1480D0AC] ;  (1 found)
0x1480b962: xor edx, edx ; and cl, 0x0000001F ; shr eax, cl ; ret  ;  (1 found)
0x1480b96c: xor edx, edx ; ret  ;  (1 found)
0x1480b98c: xor edx, edx ; ret  ;  (1 found)
0x1480241b: xor edx, edx ; xor edi, edi ; jmp esi ;  (1 found)
0x148023fa: xor edx, edx ; xor esi, esi ; xor edi, edi ; call ecx ;  (1 found)
0x14803a18: xor esi, dword [ebx] ; mov dword [ebx], eax ; ror esi, cl ; mov ecx, esi ; call dword [0x1480D144] ;  (1 found)
0x14803a19: xor esi, edx ; mov dword [ebx], eax ; ror esi, cl ; mov ecx, esi ; call dword [0x1480D144] ;  (1 found)
0x148023fc: xor esi, esi ; xor edi, edi ; call ecx ;  (1 found)
